TMS320C2000 Assembler PC v20.2.1 Wed Oct  7 22:14:25 2020

Copyright (c) 1996-2018 Texas Instruments Incorporated
bissc.asm                                                            PAGE    1

       1              ;***************************************************************
       2              ;* TMS320C2000 G3 C/C++ Codegen                               PC v20.2.1.LTS *
       3              ;* Date/Time created: Wed Oct  7 22:14:25 2020                 *
       4              ;***************************************************************
       5                      .compiler_opts --abi=coffabi --cla_support=cla0 --float_support=fpu32 --hll_source=on --mem_model:cod
       6                      .asg    XAR2, FP
       7              
       8              $C$DW$CU        .dwtag  DW_TAG_compile_unit
       9                      .dwattr $C$DW$CU, DW_AT_name("../bissc.c")
      10                      .dwattr $C$DW$CU, DW_AT_producer("TI TMS320C2000 G3 C/C++ Codegen PC v20.2.1.LTS Copyright (c) 1996-2
      11                      .dwattr $C$DW$CU, DW_AT_TI_version(0x01)
      12                      .dwattr $C$DW$CU, DW_AT_comp_dir("C:\Users\hakan\workspace_v10\IDDK_PM_Servo_F2837x-v2\F2837x_RAM")
      13              
      14              $C$DW$1 .dwtag  DW_TAG_subprogram
      15                      .dwattr $C$DW$1, DW_AT_name("PM_bissc_generateCRCTable")
      16                      .dwattr $C$DW$1, DW_AT_TI_symbol_name("_PM_bissc_generateCRCTable")
      17                      .dwattr $C$DW$1, DW_AT_declaration
      18                      .dwattr $C$DW$1, DW_AT_external
      19              $C$DW$2 .dwtag  DW_TAG_formal_parameter
      20                      .dwattr $C$DW$2, DW_AT_type(*$C$DW$T$20)
      21              
      22              $C$DW$3 .dwtag  DW_TAG_formal_parameter
      23                      .dwattr $C$DW$3, DW_AT_type(*$C$DW$T$20)
      24              
      25              $C$DW$4 .dwtag  DW_TAG_formal_parameter
      26                      .dwattr $C$DW$4, DW_AT_type(*$C$DW$T$561)
      27              
      28                      .dwendtag $C$DW$1
      29              
      30              
      31              $C$DW$5 .dwtag  DW_TAG_subprogram
      32                      .dwattr $C$DW$5, DW_AT_name("PM_bissc_setupPeriph")
      33                      .dwattr $C$DW$5, DW_AT_TI_symbol_name("_PM_bissc_setupPeriph")
      34                      .dwattr $C$DW$5, DW_AT_declaration
      35                      .dwattr $C$DW$5, DW_AT_external
      36                      .dwendtag $C$DW$5
      37              
      38              
      39              $C$DW$6 .dwtag  DW_TAG_subprogram
      40                      .dwattr $C$DW$6, DW_AT_name("F28x_usDelay")
      41                      .dwattr $C$DW$6, DW_AT_TI_symbol_name("_F28x_usDelay")
      42                      .dwattr $C$DW$6, DW_AT_declaration
      43                      .dwattr $C$DW$6, DW_AT_external
      44              $C$DW$7 .dwtag  DW_TAG_formal_parameter
      45                      .dwattr $C$DW$7, DW_AT_type(*$C$DW$T$12)
      46              
      47                      .dwendtag $C$DW$6
      48              
      49              
      50              $C$DW$8 .dwtag  DW_TAG_subprogram
      51                      .dwattr $C$DW$8, DW_AT_name("PM_bissc_setFreq")
      52                      .dwattr $C$DW$8, DW_AT_TI_symbol_name("_PM_bissc_setFreq")
      53                      .dwattr $C$DW$8, DW_AT_declaration
      54                      .dwattr $C$DW$8, DW_AT_external
      55              $C$DW$9 .dwtag  DW_TAG_formal_parameter
TMS320C2000 Assembler PC v20.2.1 Wed Oct  7 22:14:25 2020

Copyright (c) 1996-2018 Texas Instruments Incorporated
bissc.asm                                                            PAGE    2

      56                      .dwattr $C$DW$9, DW_AT_type(*$C$DW$T$24)
      57              
      58                      .dwendtag $C$DW$8
      59              
      60              
      61              $C$DW$10        .dwtag  DW_TAG_subprogram
      62                      .dwattr $C$DW$10, DW_AT_name("PM_bissc_setupNewSCDTransfer")
      63                      .dwattr $C$DW$10, DW_AT_TI_symbol_name("_PM_bissc_setupNewSCDTransfer")
      64                      .dwattr $C$DW$10, DW_AT_declaration
      65                      .dwattr $C$DW$10, DW_AT_external
      66              $C$DW$11        .dwtag  DW_TAG_formal_parameter
      67                      .dwattr $C$DW$11, DW_AT_type(*$C$DW$T$20)
      68              
      69              $C$DW$12        .dwtag  DW_TAG_formal_parameter
      70                      .dwattr $C$DW$12, DW_AT_type(*$C$DW$T$20)
      71              
      72                      .dwendtag $C$DW$10
      73              
      74              
      75              $C$DW$13        .dwtag  DW_TAG_subprogram
      76                      .dwattr $C$DW$13, DW_AT_name("PM_bissc_startOperation")
      77                      .dwattr $C$DW$13, DW_AT_TI_symbol_name("_PM_bissc_startOperation")
      78                      .dwattr $C$DW$13, DW_AT_declaration
      79                      .dwattr $C$DW$13, DW_AT_external
      80                      .dwendtag $C$DW$13
      81              
      82              
      83              $C$DW$14        .dwtag  DW_TAG_subprogram
      84                      .dwattr $C$DW$14, DW_AT_name("PM_bissc_getCRC")
      85                      .dwattr $C$DW$14, DW_AT_TI_symbol_name("_PM_bissc_getCRC")
      86                      .dwattr $C$DW$14, DW_AT_type(*$C$DW$T$20)
      87                      .dwattr $C$DW$14, DW_AT_declaration
      88                      .dwattr $C$DW$14, DW_AT_external
      89              $C$DW$15        .dwtag  DW_TAG_formal_parameter
      90                      .dwattr $C$DW$15, DW_AT_type(*$C$DW$T$20)
      91              
      92              $C$DW$16        .dwtag  DW_TAG_formal_parameter
      93                      .dwattr $C$DW$16, DW_AT_type(*$C$DW$T$20)
      94              
      95              $C$DW$17        .dwtag  DW_TAG_formal_parameter
      96                      .dwattr $C$DW$17, DW_AT_type(*$C$DW$T$20)
      97              
      98              $C$DW$18        .dwtag  DW_TAG_formal_parameter
      99                      .dwattr $C$DW$18, DW_AT_type(*$C$DW$T$561)
     100              
     101              $C$DW$19        .dwtag  DW_TAG_formal_parameter
     102                      .dwattr $C$DW$19, DW_AT_type(*$C$DW$T$561)
     103              
     104              $C$DW$20        .dwtag  DW_TAG_formal_parameter
     105                      .dwattr $C$DW$20, DW_AT_type(*$C$DW$T$20)
     106              
     107                      .dwendtag $C$DW$14
     108              
     109              
     110              $C$DW$21        .dwtag  DW_TAG_subprogram
TMS320C2000 Assembler PC v20.2.1 Wed Oct  7 22:14:25 2020

Copyright (c) 1996-2018 Texas Instruments Incorporated
bissc.asm                                                            PAGE    3

     111                      .dwattr $C$DW$21, DW_AT_name("PM_bissc_getBits")
     112                      .dwattr $C$DW$21, DW_AT_TI_symbol_name("_PM_bissc_getBits")
     113                      .dwattr $C$DW$21, DW_AT_type(*$C$DW$T$24)
     114                      .dwattr $C$DW$21, DW_AT_declaration
     115                      .dwattr $C$DW$21, DW_AT_external
     116              $C$DW$22        .dwtag  DW_TAG_formal_parameter
     117                      .dwattr $C$DW$22, DW_AT_type(*$C$DW$T$20)
     118              
     119              $C$DW$23        .dwtag  DW_TAG_formal_parameter
     120                      .dwattr $C$DW$23, DW_AT_type(*$C$DW$T$20)
     121              
     122              $C$DW$24        .dwtag  DW_TAG_formal_parameter
     123                      .dwattr $C$DW$24, DW_AT_type(*$C$DW$T$20)
     124              
     125                      .dwendtag $C$DW$21
     126              
     127              $C$DW$25        .dwtag  DW_TAG_variable
     128                      .dwattr $C$DW$25, DW_AT_name("SpibRegs")
     129                      .dwattr $C$DW$25, DW_AT_TI_symbol_name("_SpibRegs")
     130                      .dwattr $C$DW$25, DW_AT_type(*$C$DW$T$26)
     131                      .dwattr $C$DW$25, DW_AT_declaration
     132                      .dwattr $C$DW$25, DW_AT_external
     133              
     134              $C$DW$26        .dwtag  DW_TAG_variable
     135                      .dwattr $C$DW$26, DW_AT_name("PieCtrlRegs")
     136                      .dwattr $C$DW$26, DW_AT_TI_symbol_name("_PieCtrlRegs")
     137                      .dwattr $C$DW$26, DW_AT_type(*$C$DW$T$553)
     138                      .dwattr $C$DW$26, DW_AT_declaration
     139                      .dwattr $C$DW$26, DW_AT_external
     140              
     141              $C$DW$27        .dwtag  DW_TAG_variable
     142                      .dwattr $C$DW$27, DW_AT_name("InputXbarRegs")
     143                      .dwattr $C$DW$27, DW_AT_TI_symbol_name("_InputXbarRegs")
     144                      .dwattr $C$DW$27, DW_AT_type(*$C$DW$T$551)
     145                      .dwattr $C$DW$27, DW_AT_declaration
     146                      .dwattr $C$DW$27, DW_AT_external
     147              
     148              $C$DW$28        .dwtag  DW_TAG_variable
     149                      .dwattr $C$DW$28, DW_AT_name("GpioDataRegs")
     150                      .dwattr $C$DW$28, DW_AT_TI_symbol_name("_GpioDataRegs")
     151                      .dwattr $C$DW$28, DW_AT_type(*$C$DW$T$549)
     152                      .dwattr $C$DW$28, DW_AT_declaration
     153                      .dwattr $C$DW$28, DW_AT_external
     154              
     155                      .global _bissc_data_struct
     156 00000000       _bissc_data_struct:     .usect  ".ebss",92,1,1
     157              $C$DW$29        .dwtag  DW_TAG_variable
     158                      .dwattr $C$DW$29, DW_AT_name("bissc_data_struct")
     159                      .dwattr $C$DW$29, DW_AT_TI_symbol_name("_bissc_data_struct")
     160                      .dwattr $C$DW$29, DW_AT_location[DW_OP_addr _bissc_data_struct]
     161                      .dwattr $C$DW$29, DW_AT_type(*$C$DW$T$541)
     162                      .dwattr $C$DW$29, DW_AT_external
     163              
     164              $C$DW$30        .dwtag  DW_TAG_variable
     165                      .dwattr $C$DW$30, DW_AT_name("CpuSysRegs")
TMS320C2000 Assembler PC v20.2.1 Wed Oct  7 22:14:25 2020

Copyright (c) 1996-2018 Texas Instruments Incorporated
bissc.asm                                                            PAGE    4

     166                      .dwattr $C$DW$30, DW_AT_TI_symbol_name("_CpuSysRegs")
     167                      .dwattr $C$DW$30, DW_AT_type(*$C$DW$T$543)
     168                      .dwattr $C$DW$30, DW_AT_declaration
     169                      .dwattr $C$DW$30, DW_AT_external
     170              
     171              $C$DW$31        .dwtag  DW_TAG_variable
     172                      .dwattr $C$DW$31, DW_AT_name("EPwm4Regs")
     173                      .dwattr $C$DW$31, DW_AT_TI_symbol_name("_EPwm4Regs")
     174                      .dwattr $C$DW$31, DW_AT_type(*$C$DW$T$545)
     175                      .dwattr $C$DW$31, DW_AT_declaration
     176                      .dwattr $C$DW$31, DW_AT_external
     177              
     178                      .global _bissCRCtableSCD
     179 00000000       _bissCRCtableSCD:       .usect  ".ebss:_bissCRCtableSCD",256,1,0
     180                      .clink ".ebss:_bissCRCtableSCD"
     181              $C$DW$32        .dwtag  DW_TAG_variable
     182                      .dwattr $C$DW$32, DW_AT_name("bissCRCtableSCD")
     183                      .dwattr $C$DW$32, DW_AT_TI_symbol_name("_bissCRCtableSCD")
     184                      .dwattr $C$DW$32, DW_AT_location[DW_OP_addr _bissCRCtableSCD]
     185                      .dwattr $C$DW$32, DW_AT_type(*$C$DW$T$577)
     186                      .dwattr $C$DW$32, DW_AT_external
     187              
     188              $C$DW$33        .dwtag  DW_TAG_variable
     189                      .dwattr $C$DW$33, DW_AT_name("GpioCtrlRegs")
     190                      .dwattr $C$DW$33, DW_AT_TI_symbol_name("_GpioCtrlRegs")
     191                      .dwattr $C$DW$33, DW_AT_type(*$C$DW$T$547)
     192                      .dwattr $C$DW$33, DW_AT_declaration
     193                      .dwattr $C$DW$33, DW_AT_external
     194              
     195              $C$DW$34        .dwtag  DW_TAG_variable
     196                      .dwattr $C$DW$34, DW_AT_name("PieVectTable")
     197                      .dwattr $C$DW$34, DW_AT_TI_symbol_name("_PieVectTable")
     198                      .dwattr $C$DW$34, DW_AT_type(*$C$DW$T$555)
     199                      .dwattr $C$DW$34, DW_AT_declaration
     200                      .dwattr $C$DW$34, DW_AT_external
     201              
     202                      .sblock ".ebss"
     203                      .sblock ".ebss:_bissCRCtableSCD"
     204              ;       C:\ti\ccs1010\ccs\tools\compiler\ti-cgt-c2000_20.2.1.LTS\bin\opt2000.exe C:\\Users\\hakan\\AppData\\L
     205              ;       C:\ti\ccs1010\ccs\tools\compiler\ti-cgt-c2000_20.2.1.LTS\bin\ac2000.exe -@C:\\Users\\hakan\\AppData\\
     206 00000000               .sect   ".text:retain"
     207                      .retain
     208                      .retainrefs
     209                      .global _bissc_spiRxFifoIsr
     210              
     211              $C$DW$35        .dwtag  DW_TAG_subprogram
     212                      .dwattr $C$DW$35, DW_AT_name("bissc_spiRxFifoIsr")
     213                      .dwattr $C$DW$35, DW_AT_low_pc(_bissc_spiRxFifoIsr)
     214                      .dwattr $C$DW$35, DW_AT_high_pc(0x00)
     215                      .dwattr $C$DW$35, DW_AT_TI_symbol_name("_bissc_spiRxFifoIsr")
     216                      .dwattr $C$DW$35, DW_AT_external
     217                      .dwattr $C$DW$35, DW_AT_TI_begin_file("../bissc.c")
     218                      .dwattr $C$DW$35, DW_AT_TI_begin_line(0x121)
     219                      .dwattr $C$DW$35, DW_AT_TI_begin_column(0x10)
     220                      .dwattr $C$DW$35, DW_AT_TI_interrupt
TMS320C2000 Assembler PC v20.2.1 Wed Oct  7 22:14:25 2020

Copyright (c) 1996-2018 Texas Instruments Incorporated
bissc.asm                                                            PAGE    5

     221                      .dwattr $C$DW$35, DW_AT_TI_max_frame_size(-24)
     222                      .dwpsn  file "../bissc.c",line 290,column 1,is_stmt,address _bissc_spiRxFifoIsr,isa 0
     223              
     224                      .dwfde $C$DW$CIE, _bissc_spiRxFifoIsr
     225              
     226              ;***************************************************************
     227              ;* FNAME: _bissc_spiRxFifoIsr           FR SIZE:  22           *
     228              ;*                                                             *
     229              ;* FUNCTION ENVIRONMENT                                        *
     230              ;*                                                             *
     231              ;* FUNCTION PROPERTIES                                         *
     232              ;*                            0 Parameter,  0 Auto, 22 SOE     *
     233              ;***************************************************************
     234              
     235              _bissc_spiRxFifoIsr:
     236              ;* AR6   assigned to _i
     237              $C$DW$36        .dwtag  DW_TAG_variable
     238                      .dwattr $C$DW$36, DW_AT_name("i")
     239                      .dwattr $C$DW$36, DW_AT_TI_symbol_name("_i")
     240                      .dwattr $C$DW$36, DW_AT_type(*$C$DW$T$20)
     241                      .dwattr $C$DW$36, DW_AT_location[DW_OP_reg16]
     242              
     243                      .dwcfi  cfa_offset, -2
     244                      .dwcfi  save_reg_to_mem, 26, 0
     245 00000000 761B          ASP       ; [CPU_ALU] 
     246 00000001 FFF0          PUSH      RB                    ; [CPU_FPU] 
     247                      .dwcfi  save_reg_to_mem, 74, 4
     248                      .dwcfi  cfa_offset, -4
     249 00000002 ABBD          MOVL      *SP++,XT              ; [CPU_ALU] 
     250                      .dwcfi  save_reg_to_mem, 21, 4
     251                      .dwcfi  save_reg_to_mem, 22, 5
     252                      .dwcfi  cfa_offset, -6
     253 00000003 A8BD          MOVL      *SP++,XAR4            ; [CPU_ALU] 
     254                      .dwcfi  save_reg_to_mem, 12, 6
     255                      .dwcfi  save_reg_to_mem, 13, 7
     256                      .dwcfi  cfa_offset, -8
     257 00000004 A0BD          MOVL      *SP++,XAR5            ; [CPU_ALU] 
     258                      .dwcfi  save_reg_to_mem, 14, 8
     259                      .dwcfi  save_reg_to_mem, 15, 9
     260                      .dwcfi  cfa_offset, -10
     261 00000005 C2BD          MOVL      *SP++,XAR6            ; [CPU_ALU] 
     262                      .dwcfi  save_reg_to_mem, 16, 10
     263                      .dwcfi  save_reg_to_mem, 17, 11
     264                      .dwcfi  cfa_offset, -12
     265 00000006 C3BD          MOVL      *SP++,XAR7            ; [CPU_ALU] 
     266                      .dwcfi  save_reg_to_mem, 18, 12
     267                      .dwcfi  save_reg_to_mem, 19, 13
     268                      .dwcfi  cfa_offset, -14
     269 00000007 E200          MOV32     *SP++,STF             ; [CPU_FPU] 
         00000008 00BD 
     270                      .dwcfi  save_reg_to_mem, 40, 16
     271                      .dwcfi  cfa_offset, -16
     272 00000009 E203          MOV32     *SP++,R0H             ; [CPU_FPU] 
         0000000a 00BD 
     273                      .dwcfi  save_reg_to_mem, 43, 18
TMS320C2000 Assembler PC v20.2.1 Wed Oct  7 22:14:25 2020

Copyright (c) 1996-2018 Texas Instruments Incorporated
bissc.asm                                                            PAGE    6

     274                      .dwcfi  cfa_offset, -18
     275 0000000b E203          MOV32     *SP++,R1H             ; [CPU_FPU] 
         0000000c 01BD 
     276                      .dwcfi  save_reg_to_mem, 47, 20
     277                      .dwcfi  cfa_offset, -20
     278 0000000d E203          MOV32     *SP++,R2H             ; [CPU_FPU] 
         0000000e 02BD 
     279                      .dwcfi  save_reg_to_mem, 51, 22
     280                      .dwcfi  cfa_offset, -22
     281 0000000f E203          MOV32     *SP++,R3H             ; [CPU_FPU] 
         00000010 03BD 
     282                      .dwcfi  save_reg_to_mem, 55, 24
     283                      .dwcfi  cfa_offset, -24
     284 00000011 E630          SETFLG    RNDF32=1, RNDF64=1    ; [CPU_FPU] 
         00000012 0600 
     285 00000013 2942          CLRC      PAGE0,OVM             ; [CPU_ALU] 
     286 00000014 5616          CLRC      AMODE                 ; [CPU_ALU] 
     287 00000015 2901          CLRC      SXM                   ; [CPU_ALU] 
     288                      .dwpsn  file "../bissc.c",line 293,column 7,is_stmt,isa 0
     289 00000016 BE00          MOVB      XAR6,#0               ; [CPU_ALU] |293| 
     290 00000017       $C$L1:    
     291 00000017 761F-         MOVW      DP,#_bissc_data_struct+90 ; [CPU_ARAU] 
         00000018 0001 
     292                      .dwpsn  file "../bissc.c",line 293,column 48,is_stmt,isa 0
     293 00000019 8A1A!         MOVL      XAR4,@$BLOCKED(_bissc_data_struct)+90 ; [CPU_ALU] |293| 
     294 0000001a 92A6          MOV       AL,AR6                ; [CPU_ALU] 
     295 0000001b 5603          MOV       ACC,AL << 1           ; [CPU_ALU] |293| 
         0000001c 01A9 
     296 0000001d 80FC          MOVZ      AR7,*+XAR4[7]         ; [CPU_ALU] |293| 
     297 0000001e 8F00-         MOVL      XAR4,#_bissc_data_struct+56 ; [CPU_ARAU] |293| 
         0000001f 0038 
     298 00000020 5601          ADDL      XAR4,ACC              ; [CPU_ALU] |293| 
         00000021 00A4 
     299 00000022 92A6          MOV       AL,AR6                ; [CPU_ALU] |293| 
     300                      .dwpsn  file "../bissc.c",line 293,column 11,is_stmt,isa 0
     301 00000023 9C01          ADDB      AL,#1                 ; [CPU_ALU] |293| 
     302 00000024 88A9          MOVZ      AR6,AL                ; [CPU_ALU] |293| 
     303                      .dwpsn  file "../bissc.c",line 293,column 48,is_stmt,isa 0
     304 00000025 C3C4          MOVL      *+XAR4[0],XAR7        ; [CPU_ALU] |293| 
     305                      .dwpsn  file "../bissc.c",line 293,column 11,is_stmt,isa 0
     306 00000026 5418!         CMP       AL,@$BLOCKED(_bissc_data_struct)+88 ; [CPU_ALU] |293| 
     307 00000027 69F0          B         $C$L1,LOS             ; [CPU_ALU] |293| 
     308                      ; branchcc occurs ; [] |293| 
     309                      .dwpsn  file "../bissc.c",line 294,column 2,is_stmt,isa 0
     310 00000028 020B          MOVB      ACC,#11               ; [CPU_ALU] |294| 
     311 00000029 071A!         ADDL      ACC,@$BLOCKED(_bissc_data_struct)+90 ; [CPU_ALU] |294| 
     312 0000002a 8AA9          MOVL      XAR4,ACC              ; [CPU_ALU] |294| 
     313                      .dwpsn  file "../bissc.c",line 295,column 2,is_stmt,isa 0
     314 0000002b 020B          MOVB      ACC,#11               ; [CPU_ALU] |295| 
     315                      .dwpsn  file "../bissc.c",line 294,column 2,is_stmt,isa 0
     316 0000002c 1AC4          OR        *+XAR4[0],#0x4000     ; [CPU_ALU] |294| 
         0000002d 4000 
     317                      .dwpsn  file "../bissc.c",line 295,column 2,is_stmt,isa 0
     318 0000002e 071A!         ADDL      ACC,@$BLOCKED(_bissc_data_struct)+90 ; [CPU_ALU] |295| 
     319 0000002f 8AA9          MOVL      XAR4,ACC              ; [CPU_ALU] |295| 
TMS320C2000 Assembler PC v20.2.1 Wed Oct  7 22:14:25 2020

Copyright (c) 1996-2018 Texas Instruments Incorporated
bissc.asm                                                            PAGE    7

     320 00000030 761F!         MOVW      DP,#_PieCtrlRegs+1    ; [CPU_ARAU] 
         00000031 0000 
     321 00000032 1AC4          OR        *+XAR4[0],#0x0040     ; [CPU_ALU] |295| 
         00000033 0040 
     322                      .dwpsn  file "../bissc.c",line 296,column 5,is_stmt,isa 0
     323 00000034 1A01!         OR        @$BLOCKED(_PieCtrlRegs)+1,#0x0020 ; [CPU_ALU] |296| 
         00000035 0020 
     324 00000036 761F-         MOVW      DP,#_bissc_data_struct+23 ; [CPU_ARAU] 
         00000037 0000 
     325 00000038 E2AF          MOV32     R3H,*--SP             ; [CPU_FPU] 
         00000039 03BE 
     326                      .dwcfi  cfa_offset, -22
     327                      .dwcfi  restore_reg, 55
     328                      .dwpsn  file "../bissc.c",line 298,column 5,is_stmt,isa 0
     329 0000003a 56BF!         MOVB      @$BLOCKED(_bissc_data_struct)+23,#1,UNC ; [CPU_ALU] |298| 
         0000003b 0117 
     330 0000003c E2AF          MOV32     R2H,*--SP             ; [CPU_FPU] 
         0000003d 02BE 
     331                      .dwcfi  cfa_offset, -20
     332                      .dwcfi  restore_reg, 51
     333 0000003e E2AF          MOV32     R1H,*--SP             ; [CPU_FPU] 
         0000003f 01BE 
     334                      .dwcfi  cfa_offset, -18
     335                      .dwcfi  restore_reg, 47
     336 00000040 E2AF          MOV32     R0H,*--SP             ; [CPU_FPU] 
         00000041 00BE 
     337                      .dwcfi  cfa_offset, -16
     338                      .dwcfi  restore_reg, 43
     339 00000042 E280          MOV32     STF,*--SP             ; [CPU_FPU] 
         00000043 00BE 
     340                      .dwcfi  cfa_offset, -14
     341                      .dwcfi  restore_reg, 40
     342 00000044 C5BE          MOVL      XAR7,*--SP            ; [CPU_ALU] 
     343                      .dwcfi  cfa_offset, -12
     344                      .dwcfi  restore_reg, 18
     345 00000045 C4BE          MOVL      XAR6,*--SP            ; [CPU_ALU] 
     346                      .dwcfi  cfa_offset, -10
     347                      .dwcfi  restore_reg, 16
     348 00000046 83BE          MOVL      XAR5,*--SP            ; [CPU_ALU] 
     349                      .dwcfi  cfa_offset, -8
     350                      .dwcfi  restore_reg, 14
     351 00000047 8ABE          MOVL      XAR4,*--SP            ; [CPU_ALU] 
     352                      .dwcfi  cfa_offset, -6
     353                      .dwcfi  restore_reg, 12
     354 00000048 87BE          MOVL      XT,*--SP              ; [CPU_ALU] 
     355                      .dwcfi  cfa_offset, -4
     356                      .dwcfi  restore_reg, 22
     357                      .dwcfi  restore_reg, 21
     358 00000049 FFF1          POP       RB                    ; [CPU_FPU] 
     359                      .dwcfi  cfa_offset, -2
     360                      .dwcfi  restore_reg, 74
     361 0000004a 7617          NASP      ; [CPU_ALU] 
     362              $C$DW$37        .dwtag  DW_TAG_TI_branch
     363                      .dwattr $C$DW$37, DW_AT_low_pc(0x00)
     364                      .dwattr $C$DW$37, DW_AT_TI_return
TMS320C2000 Assembler PC v20.2.1 Wed Oct  7 22:14:25 2020

Copyright (c) 1996-2018 Texas Instruments Incorporated
bissc.asm                                                            PAGE    8

     365              
     366 0000004b 7602          IRET      ; [CPU_ALU] 
     367                      ; return occurs ; [] 
     368                      .dwattr $C$DW$35, DW_AT_TI_end_file("../bissc.c")
     369                      .dwattr $C$DW$35, DW_AT_TI_end_line(0x12b)
     370                      .dwattr $C$DW$35, DW_AT_TI_end_column(0x01)
     371                      .dwendentry
     372                      .dwendtag $C$DW$35
     373              
     374 00000000               .sect   ".text"
     375                      .clink
     376                      .global _bissc_setupGPIO
     377              
     378              $C$DW$38        .dwtag  DW_TAG_subprogram
     379                      .dwattr $C$DW$38, DW_AT_name("bissc_setupGPIO")
     380                      .dwattr $C$DW$38, DW_AT_low_pc(_bissc_setupGPIO)
     381                      .dwattr $C$DW$38, DW_AT_high_pc(0x00)
     382                      .dwattr $C$DW$38, DW_AT_TI_symbol_name("_bissc_setupGPIO")
     383                      .dwattr $C$DW$38, DW_AT_external
     384                      .dwattr $C$DW$38, DW_AT_TI_begin_file("../bissc.c")
     385                      .dwattr $C$DW$38, DW_AT_TI_begin_line(0x12e)
     386                      .dwattr $C$DW$38, DW_AT_TI_begin_column(0x06)
     387                      .dwattr $C$DW$38, DW_AT_TI_max_frame_size(-2)
     388                      .dwpsn  file "../bissc.c",line 302,column 28,is_stmt,address _bissc_setupGPIO,isa 0
     389              
     390                      .dwfde $C$DW$CIE, _bissc_setupGPIO
     391              
     392              ;***************************************************************
     393              ;* FNAME: _bissc_setupGPIO              FR SIZE:   0           *
     394              ;*                                                             *
     395              ;* FUNCTION ENVIRONMENT                                        *
     396              ;*                                                             *
     397              ;* FUNCTION PROPERTIES                                         *
     398              ;*                            0 Parameter,  0 Auto,  0 SOE     *
     399              ;***************************************************************
     400              
     401 00000000       _bissc_setupGPIO:
     402              ;* AR6   assigned to $O$C1
     403                      .dwcfi  cfa_offset, -2
     404                      .dwcfi  save_reg_to_mem, 26, 0
     405 00000000 7622   EALLOW
     406                      .dwpsn  file "../bissc.c",line 305,column 2,is_stmt,isa 0
     407 00000001 7680!         MOVL      XAR6,#_GpioCtrlRegs   ; [CPU_ARAU] |305| 
         00000002 0000 
     408 00000003 761F!         MOVW      DP,#_GpioCtrlRegs+6   ; [CPU_ARAU] 
         00000004 0000 
     409 00000005 CCF6          AND       AL,*+XAR6[6],#0xdfff  ; [CPU_ALU] |305| 
         00000006 DFFF 
     410                      .dwpsn  file "../bissc.c",line 308,column 2,is_stmt,isa 0
     411 00000007 D023          MOVB      XAR0,#35              ; [CPU_ALU] |308| 
     412                      .dwpsn  file "../bissc.c",line 323,column 2,is_stmt,isa 0
     413 00000008 83A6          MOVL      XAR5,XAR6             ; [CPU_ALU] |323| 
     414                      .dwpsn  file "../bissc.c",line 325,column 2,is_stmt,isa 0
     415 00000009 8AA6          MOVL      XAR4,XAR6             ; [CPU_ALU] |325| 
     416                      .dwpsn  file "../bissc.c",line 305,column 2,is_stmt,isa 0
TMS320C2000 Assembler PC v20.2.1 Wed Oct  7 22:14:25 2020

Copyright (c) 1996-2018 Texas Instruments Incorporated
bissc.asm                                                            PAGE    9

     417 0000000a 1AA9          OR        AL,#0x1000            ; [CPU_ALU] |305| 
         0000000b 1000 
     418 0000000c 9606!         MOV       @$BLOCKED(_GpioCtrlRegs)+6,AL ; [CPU_ALU] |305| 
     419                      .dwpsn  file "../bissc.c",line 306,column 2,is_stmt,isa 0
     420 0000000d CC06!         AND       AL,@$BLOCKED(_GpioCtrlRegs)+6,#0x3fff ; [CPU_ALU] |306| 
         0000000e 3FFF 
     421 0000000f 1AA9          OR        AL,#0x4000            ; [CPU_ALU] |306| 
         00000010 4000 
     422 00000011 9606!         MOV       @$BLOCKED(_GpioCtrlRegs)+6,AL ; [CPU_ALU] |306| 
     423                      .dwpsn  file "../bissc.c",line 323,column 2,is_stmt,isa 0
     424 00000012 DD46          ADDB      XAR5,#70              ; [CPU_ALU] |323| 
     425                      .dwpsn  file "../bissc.c",line 325,column 2,is_stmt,isa 0
     426 00000013 DC4A          ADDB      XAR4,#74              ; [CPU_ALU] |325| 
     427                      .dwpsn  file "../bissc.c",line 308,column 2,is_stmt,isa 0
     428 00000014 CC96          AND       AL,*+XAR6[AR0],#0xfffc ; [CPU_FPU] |308| 
         00000015 FFFC 
     429 00000016 5001          ORB       AL,#0x01              ; [CPU_ALU] |308| 
     430                      .dwpsn  file "../bissc.c",line 313,column 2,is_stmt,isa 0
     431 00000017 D009          MOVB      XAR0,#9               ; [CPU_FPU] |313| 
     432                      .dwpsn  file "../bissc.c",line 308,column 2,is_stmt,isa 0
     433 00000018 9623!         MOV       @$BLOCKED(_GpioCtrlRegs)+35,AL ; [CPU_FPU] |308| 
     434                      .dwpsn  file "../bissc.c",line 309,column 2,is_stmt,isa 0
     435 00000019 CC23!         AND       AL,@$BLOCKED(_GpioCtrlRegs)+35,#0xfff7 ; [CPU_FPU] |309| 
         0000001a FFF7 
     436 0000001b 5004          ORB       AL,#0x04              ; [CPU_ALU] |309| 
     437 0000001c 9623!         MOV       @$BLOCKED(_GpioCtrlRegs)+35,AL ; [CPU_FPU] |309| 
     438                      .dwpsn  file "../bissc.c",line 310,column 2,is_stmt,isa 0
     439 0000001d CC23!         AND       AL,@$BLOCKED(_GpioCtrlRegs)+35,#0xffdf ; [CPU_FPU] |310| 
         0000001e FFDF 
     440 0000001f 5010          ORB       AL,#0x10              ; [CPU_ALU] |310| 
     441 00000020 9623!         MOV       @$BLOCKED(_GpioCtrlRegs)+35,AL ; [CPU_FPU] |310| 
     442                      .dwpsn  file "../bissc.c",line 311,column 2,is_stmt,isa 0
     443 00000021 CC23!         AND       AL,@$BLOCKED(_GpioCtrlRegs)+35,#0xff7f ; [CPU_FPU] |311| 
         00000022 FF7F 
     444 00000023 5040          ORB       AL,#0x40              ; [CPU_ALU] |311| 
     445 00000024 9623!         MOV       @$BLOCKED(_GpioCtrlRegs)+35,AL ; [CPU_FPU] |311| 
     446                      .dwpsn  file "../bissc.c",line 313,column 2,is_stmt,isa 0
     447 00000025 CC96          AND       AL,*+XAR6[AR0],#0xfffe ; [CPU_FPU] |313| 
         00000026 FFFE 
     448 00000027 5002          ORB       AL,#0x02              ; [CPU_ALU] |313| 
     449 00000028 9609!         MOV       @$BLOCKED(_GpioCtrlRegs)+9,AL ; [CPU_FPU] |313| 
     450                      .dwpsn  file "../bissc.c",line 314,column 2,is_stmt,isa 0
     451 00000029 CC09!         AND       AL,@$BLOCKED(_GpioCtrlRegs)+9,#0xfffb ; [CPU_FPU] |314| 
         0000002a FFFB 
     452 0000002b 5008          ORB       AL,#0x08              ; [CPU_ALU] |314| 
     453 0000002c 9609!         MOV       @$BLOCKED(_GpioCtrlRegs)+9,AL ; [CPU_FPU] |314| 
     454                      .dwpsn  file "../bissc.c",line 315,column 2,is_stmt,isa 0
     455 0000002d CC09!         AND       AL,@$BLOCKED(_GpioCtrlRegs)+9,#0xffef ; [CPU_FPU] |315| 
         0000002e FFEF 
     456 0000002f 5020          ORB       AL,#0x20              ; [CPU_ALU] |315| 
     457 00000030 9609!         MOV       @$BLOCKED(_GpioCtrlRegs)+9,AL ; [CPU_FPU] |315| 
     458                      .dwpsn  file "../bissc.c",line 316,column 2,is_stmt,isa 0
     459 00000031 CC09!         AND       AL,@$BLOCKED(_GpioCtrlRegs)+9,#0xffbf ; [CPU_FPU] |316| 
         00000032 FFBF 
     460 00000033 5080          ORB       AL,#0x80              ; [CPU_ALU] |316| 
TMS320C2000 Assembler PC v20.2.1 Wed Oct  7 22:14:25 2020

Copyright (c) 1996-2018 Texas Instruments Incorporated
bissc.asm                                                            PAGE   10

     461 00000034 9609!         MOV       @$BLOCKED(_GpioCtrlRegs)+9,AL ; [CPU_FPU] |316| 
     462                      .dwpsn  file "../bissc.c",line 318,column 2,is_stmt,isa 0
     463 00000035 1AEE          OR        *+XAR6[5],#0x0003     ; [CPU_FPU] |318| 
         00000036 0003 
     464                      .dwpsn  file "../bissc.c",line 319,column 2,is_stmt,isa 0
     465 00000037 1A05!         OR        @$BLOCKED(_GpioCtrlRegs)+5,#0x000c ; [CPU_FPU] |319| 
         00000038 000C 
     466                      .dwpsn  file "../bissc.c",line 320,column 2,is_stmt,isa 0
     467 00000039 1A05!         OR        @$BLOCKED(_GpioCtrlRegs)+5,#0x0030 ; [CPU_FPU] |320| 
         0000003a 0030 
     468                      .dwpsn  file "../bissc.c",line 321,column 2,is_stmt,isa 0
     469 0000003b 1A05!         OR        @$BLOCKED(_GpioCtrlRegs)+5,#0x00c0 ; [CPU_FPU] |321| 
         0000003c 00C0 
     470                      .dwpsn  file "../bissc.c",line 323,column 2,is_stmt,isa 0
     471 0000003d 18C5          AND       *+XAR5[0],#0xffcf     ; [CPU_FPU] |323| 
         0000003e FFCF 
     472                      .dwpsn  file "../bissc.c",line 325,column 2,is_stmt,isa 0
     473 0000003f 1AC4          OR        *+XAR4[0],#0x0001     ; [CPU_ALU] |325| 
         00000040 0001 
     474 00000041 761A   EDIS
     475 00000042 FF69          SPM       #0                    ; [CPU_ALU] 
     476              $C$DW$39        .dwtag  DW_TAG_TI_branch
     477                      .dwattr $C$DW$39, DW_AT_low_pc(0x00)
     478                      .dwattr $C$DW$39, DW_AT_TI_return
     479              
     480 00000043 0006          LRETR     ; [CPU_ALU] 
     481                      ; return occurs ; [] 
     482                      .dwattr $C$DW$38, DW_AT_TI_end_file("../bissc.c")
     483                      .dwattr $C$DW$38, DW_AT_TI_end_line(0x148)
     484                      .dwattr $C$DW$38, DW_AT_TI_end_column(0x01)
     485                      .dwendentry
     486                      .dwendtag $C$DW$38
     487              
     488 00000044               .sect   ".text"
     489                      .clink
     490                      .global _bissc_receivePosition
     491              
     492              $C$DW$40        .dwtag  DW_TAG_subprogram
     493                      .dwattr $C$DW$40, DW_AT_name("bissc_receivePosition")
     494                      .dwattr $C$DW$40, DW_AT_low_pc(_bissc_receivePosition)
     495                      .dwattr $C$DW$40, DW_AT_high_pc(0x00)
     496                      .dwattr $C$DW$40, DW_AT_TI_symbol_name("_bissc_receivePosition")
     497                      .dwattr $C$DW$40, DW_AT_external
     498                      .dwattr $C$DW$40, DW_AT_type(*$C$DW$T$20)
     499                      .dwattr $C$DW$40, DW_AT_TI_begin_file("../bissc.c")
     500                      .dwattr $C$DW$40, DW_AT_TI_begin_line(0x60)
     501                      .dwattr $C$DW$40, DW_AT_TI_begin_column(0x0a)
     502                      .dwattr $C$DW$40, DW_AT_TI_max_frame_size(-12)
     503                      .dwpsn  file "../bissc.c",line 97,column 1,is_stmt,address _bissc_receivePosition,isa 0
     504              
     505                      .dwfde $C$DW$CIE, _bissc_receivePosition
     506              $C$DW$41        .dwtag  DW_TAG_formal_parameter
     507                      .dwattr $C$DW$41, DW_AT_name("positionBits")
     508                      .dwattr $C$DW$41, DW_AT_TI_symbol_name("_positionBits")
     509                      .dwattr $C$DW$41, DW_AT_type(*$C$DW$T$20)
TMS320C2000 Assembler PC v20.2.1 Wed Oct  7 22:14:25 2020

Copyright (c) 1996-2018 Texas Instruments Incorporated
bissc.asm                                                            PAGE   11

     510                      .dwattr $C$DW$41, DW_AT_location[DW_OP_reg0]
     511              
     512              $C$DW$42        .dwtag  DW_TAG_formal_parameter
     513                      .dwattr $C$DW$42, DW_AT_name("crcBits")
     514                      .dwattr $C$DW$42, DW_AT_TI_symbol_name("_crcBits")
     515                      .dwattr $C$DW$42, DW_AT_type(*$C$DW$T$20)
     516                      .dwattr $C$DW$42, DW_AT_location[DW_OP_reg1]
     517              
     518              
     519              ;***************************************************************
     520              ;* FNAME: _bissc_receivePosition        FR SIZE:  10           *
     521              ;*                                                             *
     522              ;* FUNCTION ENVIRONMENT                                        *
     523              ;*                                                             *
     524              ;* FUNCTION PROPERTIES                                         *
     525              ;*                            2 Parameter,  1 Auto,  6 SOE     *
     526              ;***************************************************************
     527              
     528              _bissc_receivePosition:
     529              ;* AR3   assigned to $O$C1
     530              ;* AR2   assigned to _positionBits
     531              $C$DW$43        .dwtag  DW_TAG_variable
     532                      .dwattr $C$DW$43, DW_AT_name("positionBits")
     533                      .dwattr $C$DW$43, DW_AT_TI_symbol_name("_positionBits")
     534                      .dwattr $C$DW$43, DW_AT_type(*$C$DW$T$578)
     535                      .dwattr $C$DW$43, DW_AT_location[DW_OP_reg8]
     536              
     537              $C$DW$44        .dwtag  DW_TAG_variable
     538                      .dwattr $C$DW$44, DW_AT_name("crcBits")
     539                      .dwattr $C$DW$44, DW_AT_TI_symbol_name("_crcBits")
     540                      .dwattr $C$DW$44, DW_AT_type(*$C$DW$T$578)
     541                      .dwattr $C$DW$44, DW_AT_location[DW_OP_breg20 -3]
     542              
     543              ;* AR1   assigned to _scdBitsParsed
     544              $C$DW$45        .dwtag  DW_TAG_variable
     545                      .dwattr $C$DW$45, DW_AT_name("scdBitsParsed")
     546                      .dwattr $C$DW$45, DW_AT_TI_symbol_name("_scdBitsParsed")
     547                      .dwattr $C$DW$45, DW_AT_type(*$C$DW$T$20)
     548                      .dwattr $C$DW$45, DW_AT_location[DW_OP_reg6]
     549              
     550                      .dwcfi  cfa_offset, -2
     551                      .dwcfi  save_reg_to_mem, 26, 0
     552 00000044 B2BD          MOVL      *SP++,XAR1            ; [CPU_ALU] 
     553                      .dwcfi  save_reg_to_mem, 7, 2
     554                      .dwcfi  cfa_offset, -4
     555 00000045 AABD          MOVL      *SP++,XAR2            ; [CPU_ALU] 
     556                      .dwcfi  save_reg_to_mem, 9, 4
     557                      .dwcfi  cfa_offset, -6
     558 00000046 A2BD          MOVL      *SP++,XAR3            ; [CPU_ALU] 
     559                      .dwcfi  save_reg_to_mem, 11, 6
     560                      .dwcfi  cfa_offset, -8
     561 00000047 FE04          ADDB      SP,#4                 ; [CPU_ARAU] 
     562                      .dwcfi  cfa_offset, -12
     563 00000048 761F-         MOVW      DP,#_bissc_data_struct ; [CPU_ARAU] 
         00000049 0000 
TMS320C2000 Assembler PC v20.2.1 Wed Oct  7 22:14:25 2020

Copyright (c) 1996-2018 Texas Instruments Incorporated
bissc.asm                                                            PAGE   12

     564 0000004a 5AA9          MOVZ      AR2,AL                ; [CPU_ALU] |97| 
     565                      .dwpsn  file "../bissc.c",line 104,column 2,is_stmt,isa 0
     566 0000004b 9200!         MOV       AL,@$BLOCKED(_bissc_data_struct) ; [CPU_ALU] |104| 
     567                      .dwpsn  file "../bissc.c",line 98,column 25,is_stmt,isa 0
     568 0000004c D101          MOVB      XAR1,#1               ; [CPU_ALU] |98| 
     569                      .dwpsn  file "../bissc.c",line 97,column 1,is_stmt,isa 0
     570 0000004d 9743          MOV       *-SP[3],AH            ; [CPU_ALU] |97| 
     571                      .dwpsn  file "../bissc.c",line 104,column 2,is_stmt,isa 0
     572 0000004e 5201          CMPB      AL,#1                 ; [CPU_ALU] |104| 
     573 0000004f 600D          B         $C$L2,NEQ             ; [CPU_ALU] |104| 
     574                      ; branchcc occurs ; [] |104| 
     575                      .dwpsn  file "../bissc.c",line 107,column 3,is_stmt,isa 0
     576 00000050 0606!         MOVL      ACC,@$BLOCKED(_bissc_data_struct)+6 ; [CPU_ALU] |107| 
     577                      .dwpsn  file "../bissc.c",line 108,column 3,is_stmt,isa 0
     578 00000051 D40C          MOVB      XAR4,#12              ; [CPU_ALU] |108| 
     579                      .dwpsn  file "../bissc.c",line 107,column 3,is_stmt,isa 0
     580 00000052 FF30          LSL       ACC,1                 ; [CPU_ALU] |107| 
     581 00000053 1E06!         MOVL      @$BLOCKED(_bissc_data_struct)+6,ACC ; [CPU_ALU] |107| 
     582                      .dwpsn  file "../bissc.c",line 108,column 3,is_stmt,isa 0
     583 00000054 9A01          MOVB      AL,#1                 ; [CPU_ALU] |108| 
     584 00000055 9B01          MOVB      AH,#1                 ; [CPU_ALU] |108| 
     585              $C$DW$46        .dwtag  DW_TAG_TI_branch
     586                      .dwattr $C$DW$46, DW_AT_low_pc(0x00)
     587                      .dwattr $C$DW$46, DW_AT_name("_PM_bissc_getBits")
     588                      .dwattr $C$DW$46, DW_AT_TI_call
     589              
     590 00000056 7640!         LCR       #_PM_bissc_getBits    ; [CPU_ALU] |108| 
         00000057 0000 
     591                      ; call occurs [#_PM_bissc_getBits] ; [] |108| 
     592 00000058 761F-         MOVW      DP,#_bissc_data_struct+6 ; [CPU_ARAU] 
         00000059 0000 
     593 0000005a 9806!         OR        @$BLOCKED(_bissc_data_struct)+6,AL ; [CPU_ALU] |108| 
     594 0000005b 9907!         OR        @$BLOCKED(_bissc_data_struct)+7,AH ; [CPU_ALU] |108| 
     595 0000005c       $C$L2:    
     596                      .dwpsn  file "../bissc.c",line 113,column 2,is_stmt,isa 0
     597 0000005c 9A02          MOVB      AL,#2                 ; [CPU_ALU] |113| 
     598 0000005d D901          ADDB      XAR1,#1               ; [CPU_ALU] |113| 
     599 0000005e 94A2          ADD       AL,AR2                ; [CPU_ALU] |113| 
     600 0000005f D40C          MOVB      XAR4,#12              ; [CPU_FPU] |113| 
     601 00000060 93A1          MOV       AH,AR1                ; [CPU_ALU] |113| 
     602 00000061 5BA9          MOVZ      AR3,AL                ; [CPU_ALU] |113| 
     603              $C$DW$47        .dwtag  DW_TAG_TI_branch
     604                      .dwattr $C$DW$47, DW_AT_low_pc(0x00)
     605                      .dwattr $C$DW$47, DW_AT_name("_PM_bissc_getBits")
     606                      .dwattr $C$DW$47, DW_AT_TI_call
     607              
     608 00000062 7640!         LCR       #_PM_bissc_getBits    ; [CPU_ALU] |113| 
         00000063 0000 
     609                      ; call occurs [#_PM_bissc_getBits] ; [] |113| 
     610 00000064 761F-         MOVW      DP,#_bissc_data_struct+14 ; [CPU_ARAU] 
         00000065 0000 
     611 00000066 1E0E!         MOVL      @$BLOCKED(_bissc_data_struct)+14,ACC ; [CPU_ALU] |113| 
     612                      .dwpsn  file "../bissc.c",line 116,column 2,is_stmt,isa 0
     613 00000067 D40C          MOVB      XAR4,#12              ; [CPU_ALU] |116| 
     614                      .dwpsn  file "../bissc.c",line 114,column 2,is_stmt,isa 0
TMS320C2000 Assembler PC v20.2.1 Wed Oct  7 22:14:25 2020

Copyright (c) 1996-2018 Texas Instruments Incorporated
bissc.asm                                                            PAGE   13

     615 00000068 92A2          MOV       AL,AR2                ; [CPU_ALU] |114| 
     616                      .dwpsn  file "../bissc.c",line 113,column 2,is_stmt,isa 0
     617 00000069 5A43          MOVZ      AR2,*-SP[3]           ; [CPU_ALU] |113| 
     618                      .dwpsn  file "../bissc.c",line 114,column 2,is_stmt,isa 0
     619 0000006a 94A1          ADD       AL,AR1                ; [CPU_ALU] |114| 
     620 0000006b 9C02          ADDB      AL,#2                 ; [CPU_ALU] |114| 
     621 0000006c 93A9          MOV       AH,AL                 ; [CPU_ALU] |114| 
     622                      .dwpsn  file "../bissc.c",line 116,column 2,is_stmt,isa 0
     623 0000006d 92A2          MOV       AL,AR2                ; [CPU_ALU] |116| 
     624              $C$DW$48        .dwtag  DW_TAG_TI_branch
     625                      .dwattr $C$DW$48, DW_AT_low_pc(0x00)
     626                      .dwattr $C$DW$48, DW_AT_name("_PM_bissc_getBits")
     627                      .dwattr $C$DW$48, DW_AT_TI_call
     628              
     629 0000006e 7640!         LCR       #_PM_bissc_getBits    ; [CPU_ALU] |116| 
         0000006f 0000 
     630                      ; call occurs [#_PM_bissc_getBits] ; [] |116| 
     631 00000070 761F-         MOVW      DP,#_bissc_data_struct+16 ; [CPU_ARAU] 
         00000071 0000 
     632                      .dwpsn  file "../bissc.c",line 121,column 2,is_stmt,isa 0
     633 00000072 93A3          MOV       AH,AR3                ; [CPU_ALU] |121| 
     634 00000073 56BF          MOVB      *-SP[1],#6,UNC        ; [CPU_ALU] |121| 
         00000074 0641 
     635                      .dwpsn  file "../bissc.c",line 116,column 2,is_stmt,isa 0
     636 00000075 9610!         MOV       @$BLOCKED(_bissc_data_struct)+16,AL ; [CPU_ALU] |116| 
     637                      .dwpsn  file "../bissc.c",line 121,column 2,is_stmt,isa 0
     638 00000076 FFD2          LSR       AH,3                  ; [CPU_ALU] |121| 
     639 00000077 8F00-         MOVL      XAR4,#_bissc_data_struct+14 ; [CPU_ARAU] |121| 
         00000078 000E 
     640 00000079 8F40-         MOVL      XAR5,#_bissCRCtableSCD ; [CPU_ARAU] |121| 
         0000007a 0000 
     641 0000007b 9D01          ADDB      AH,#1                 ; [CPU_ALU] |121| 
     642 0000007c 9A00          MOVB      AL,#0                 ; [CPU_ALU] |121| 
     643 0000007d 9742          MOV       *-SP[2],AH            ; [CPU_ALU] |121| 
     644 0000007e 93A3          MOV       AH,AR3                ; [CPU_ALU] |121| 
     645              $C$DW$49        .dwtag  DW_TAG_TI_branch
     646                      .dwattr $C$DW$49, DW_AT_low_pc(0x00)
     647                      .dwattr $C$DW$49, DW_AT_name("_PM_bissc_getCRC")
     648                      .dwattr $C$DW$49, DW_AT_TI_call
     649              
     650 0000007f 7640!         LCR       #_PM_bissc_getCRC     ; [CPU_ALU] |121| 
         00000080 0000 
     651                      ; call occurs [#_PM_bissc_getCRC] ; [] |121| 
     652                      .dwpsn  file "../bissc.c",line 125,column 2,is_stmt,isa 0
     653 00000081 9B01          MOVB      AH,#1                 ; [CPU_ALU] |125| 
     654 00000082 761F-         MOVW      DP,#_bissc_data_struct+16 ; [CPU_ARAU] 
         00000083 0000 
     655 00000084 88A9          MOVZ      AR6,AL                ; [CPU_ALU] |125| 
     656 00000085 2DA2          MOV       T,AR2                 ; [CPU_ALU] |125| 
     657 00000086 FF67          LSL       AH,T                  ; [CPU_ALU] |125| 
     658 00000087 9210!         MOV       AL,@$BLOCKED(_bissc_data_struct)+16 ; [CPU_ALU] |125| 
     659 00000088 9DFF          ADDB      AH,#-1                ; [CPU_ALU] |125| 
     660 00000089 FF5E          NOT       AL                    ; [CPU_ALU] |125| 
     661 0000008a CFA9          AND       AH,AL                 ; [CPU_ALU] |125| 
     662 0000008b 0EA8          MOVU      ACC,AH                ; [CPU_ALU] |125| 
TMS320C2000 Assembler PC v20.2.1 Wed Oct  7 22:14:25 2020

Copyright (c) 1996-2018 Texas Instruments Incorporated
bissc.asm                                                            PAGE   14

     663 0000008c 0FA6          CMPL      ACC,XAR6              ; [CPU_ALU] |125| 
     664 0000008d 6010          B         $C$L3,NEQ             ; [CPU_ALU] |125| 
     665                      ; branchcc occurs ; [] |125| 
     666                      .dwpsn  file "../bissc.c",line 128,column 3,is_stmt,isa 0
     667 0000008e 920E!         MOV       AL,@$BLOCKED(_bissc_data_struct)+14 ; [CPU_ALU] |128| 
     668 0000008f F001          XORB      AL,#0x01              ; [CPU_ALU] |128| 
     669 00000090 9001          ANDB      AL,#0x01              ; [CPU_ALU] |128| 
     670 00000091 2901          CLRC      SXM                   ; [CPU_FPU] 
     671 00000092 9614!         MOV       @$BLOCKED(_bissc_data_struct)+20,AL ; [CPU_ALU] |128| 
     672                      .dwpsn  file "../bissc.c",line 139,column 2,is_stmt,isa 0
     673 00000093 BE01          MOVB      XAR6,#1               ; [CPU_ALU] |139| 
     674                      .dwpsn  file "../bissc.c",line 129,column 3,is_stmt,isa 0
     675 00000094 920E!         MOV       AL,@$BLOCKED(_bissc_data_struct)+14 ; [CPU_ALU] |129| 
     676 00000095 F003          XORB      AL,#0x03              ; [CPU_ALU] |129| 
     677 00000096 FFC0          LSR       AL,1                  ; [CPU_ALU] |129| 
     678 00000097 9001          ANDB      AL,#0x01              ; [CPU_ALU] |129| 
     679 00000098 9615!         MOV       @$BLOCKED(_bissc_data_struct)+21,AL ; [CPU_ALU] |129| 
     680                      .dwpsn  file "../bissc.c",line 130,column 3,is_stmt,isa 0
     681 00000099 060E!         MOVL      ACC,@$BLOCKED(_bissc_data_struct)+14 ; [CPU_ALU] |130| 
     682 0000009a FF41          SFR       ACC,2                 ; [CPU_ALU] |130| 
     683 0000009b 1E12!         MOVL      @$BLOCKED(_bissc_data_struct)+18,ACC ; [CPU_ALU] |130| 
     684                      .dwpsn  file "../bissc.c",line 139,column 2,is_stmt,isa 0
     685 0000009c 6F03          B         $C$L4,UNC             ; [CPU_ALU] |139| 
     686                      ; branch occurs ; [] |139| 
     687 0000009d       $C$L3:    
     688                      .dwpsn  file "../bissc.c",line 136,column 3,is_stmt,isa 0
     689 0000009d 0A16!         INC       @$BLOCKED(_bissc_data_struct)+22 ; [CPU_ALU] |136| 
     690                      .dwpsn  file "../bissc.c",line 139,column 2,is_stmt,isa 0
     691 0000009e BE00          MOVB      XAR6,#0               ; [CPU_ALU] |139| 
     692 0000009f       $C$L4:    
     693 0000009f FE84          SUBB      SP,#4                 ; [CPU_ARAU] |139| 
     694                      .dwcfi  cfa_offset, -8
     695 000000a0 82BE          MOVL      XAR3,*--SP            ; [CPU_ALU] |139| 
     696                      .dwcfi  cfa_offset, -6
     697                      .dwcfi  restore_reg, 11
     698 000000a1 92A6          MOV       AL,AR6                ; [CPU_ALU] |139| 
     699 000000a2 86BE          MOVL      XAR2,*--SP            ; [CPU_ALU] |139| 
     700                      .dwcfi  cfa_offset, -4
     701                      .dwcfi  restore_reg, 9
     702 000000a3 8BBE          MOVL      XAR1,*--SP            ; [CPU_ALU] |139| 
     703                      .dwcfi  cfa_offset, -2
     704                      .dwcfi  restore_reg, 7
     705              $C$DW$50        .dwtag  DW_TAG_TI_branch
     706                      .dwattr $C$DW$50, DW_AT_low_pc(0x00)
     707                      .dwattr $C$DW$50, DW_AT_TI_return
     708              
     709 000000a4 0006          LRETR     ; [CPU_ALU] 
     710                      ; return occurs ; [] 
     711                      .dwattr $C$DW$40, DW_AT_TI_end_file("../bissc.c")
     712                      .dwattr $C$DW$40, DW_AT_TI_end_line(0x8c)
     713                      .dwattr $C$DW$40, DW_AT_TI_end_column(0x01)
     714                      .dwendentry
     715                      .dwendtag $C$DW$40
     716              
     717 000000a5               .sect   ".text"
TMS320C2000 Assembler PC v20.2.1 Wed Oct  7 22:14:25 2020

Copyright (c) 1996-2018 Texas Instruments Incorporated
bissc.asm                                                            PAGE   15

     718                      .clink
     719                      .global _bissc_readPosition
     720              
     721              $C$DW$51        .dwtag  DW_TAG_subprogram
     722                      .dwattr $C$DW$51, DW_AT_name("bissc_readPosition")
     723                      .dwattr $C$DW$51, DW_AT_low_pc(_bissc_readPosition)
     724                      .dwattr $C$DW$51, DW_AT_high_pc(0x00)
     725                      .dwattr $C$DW$51, DW_AT_TI_symbol_name("_bissc_readPosition")
     726                      .dwattr $C$DW$51, DW_AT_external
     727                      .dwattr $C$DW$51, DW_AT_TI_begin_file("../bissc.c")
     728                      .dwattr $C$DW$51, DW_AT_TI_begin_line(0x160)
     729                      .dwattr $C$DW$51, DW_AT_TI_begin_column(0x06)
     730                      .dwattr $C$DW$51, DW_AT_TI_max_frame_size(-2)
     731                      .dwpsn  file "../bissc.c",line 353,column 1,is_stmt,address _bissc_readPosition,isa 0
     732              
     733                      .dwfde $C$DW$CIE, _bissc_readPosition
     734              
     735              ;***************************************************************
     736              ;* FNAME: _bissc_readPosition           FR SIZE:   0           *
     737              ;*                                                             *
     738              ;* FUNCTION ENVIRONMENT                                        *
     739              ;*                                                             *
     740              ;* FUNCTION PROPERTIES                                         *
     741              ;*                            0 Parameter,  0 Auto,  0 SOE     *
     742              ;***************************************************************
     743              
     744 000000a5       _bissc_readPosition:
     745                      .dwcfi  cfa_offset, -2
     746                      .dwcfi  save_reg_to_mem, 26, 0
     747                      .dwpsn  file "../bissc.c",line 357,column 2,is_stmt,isa 0
     748 000000a5 9A22          MOVB      AL,#34                ; [CPU_ALU] |357| 
     749 000000a6 9B0C          MOVB      AH,#12                ; [CPU_ALU] |357| 
     750              $C$DW$52        .dwtag  DW_TAG_TI_branch
     751                      .dwattr $C$DW$52, DW_AT_low_pc(0x00)
     752                      .dwattr $C$DW$52, DW_AT_name("_PM_bissc_setupNewSCDTransfer")
     753                      .dwattr $C$DW$52, DW_AT_TI_call
     754              
     755 000000a7 7640!         LCR       #_PM_bissc_setupNewSCDTransfer ; [CPU_ALU] |357| 
         000000a8 0000 
     756                      ; call occurs [#_PM_bissc_setupNewSCDTransfer] ; [] |357| 
     757                      .dwpsn  file "../bissc.c",line 366,column 2,is_stmt,isa 0
     758              $C$DW$53        .dwtag  DW_TAG_TI_branch
     759                      .dwattr $C$DW$53, DW_AT_low_pc(0x00)
     760                      .dwattr $C$DW$53, DW_AT_name("_PM_bissc_startOperation")
     761                      .dwattr $C$DW$53, DW_AT_TI_call
     762              
     763 000000a9 7640!         LCR       #_PM_bissc_startOperation ; [CPU_ALU] |366| 
         000000aa 0000 
     764                      ; call occurs [#_PM_bissc_startOperation] ; [] |366| 
     765 000000ab       $C$L5:    
     766 000000ab 761F-         MOVW      DP,#_bissc_data_struct+23 ; [CPU_ARAU] 
         000000ac 0000 
     767                      .dwpsn  file "../bissc.c",line 368,column 9,is_stmt,isa 0
     768 000000ad 9217!         MOV       AL,@$BLOCKED(_bissc_data_struct)+23 ; [CPU_ALU] |368| 
     769 000000ae 5201          CMPB      AL,#1                 ; [CPU_ALU] |368| 
TMS320C2000 Assembler PC v20.2.1 Wed Oct  7 22:14:25 2020

Copyright (c) 1996-2018 Texas Instruments Incorporated
bissc.asm                                                            PAGE   16

     770 000000af 60FC          B         $C$L5,NEQ             ; [CPU_ALU] |368| 
     771                      ; branchcc occurs ; [] |368| 
     772                      .dwpsn  file "../bissc.c",line 371,column 2,is_stmt,isa 0
     773 000000b0 9A18          MOVB      AL,#24                ; [CPU_ALU] |371| 
     774 000000b1 9B06          MOVB      AH,#6                 ; [CPU_ALU] |371| 
     775              $C$DW$54        .dwtag  DW_TAG_TI_branch
     776                      .dwattr $C$DW$54, DW_AT_low_pc(0x00)
     777                      .dwattr $C$DW$54, DW_AT_name("_bissc_receivePosition")
     778                      .dwattr $C$DW$54, DW_AT_TI_call
     779              
     780 000000b2 7640'         LCR       #_bissc_receivePosition ; [CPU_ALU] |371| 
         000000b3 0044 
     781                      ; call occurs [#_bissc_receivePosition] ; [] |371| 
     782 000000b4 5200          CMPB      AL,#0                 ; [CPU_ALU] |371| 
     783 000000b5 6002          B         $C$L6,NEQ             ; [CPU_ALU] |371| 
     784                      ; branchcc occurs ; [] |371| 
     785 000000b6 7625   ESTOP0
     786 000000b7       $C$L6:    
     787 000000b7 FF69          SPM       #0                    ; [CPU_ALU] 
     788              $C$DW$55        .dwtag  DW_TAG_TI_branch
     789                      .dwattr $C$DW$55, DW_AT_low_pc(0x00)
     790                      .dwattr $C$DW$55, DW_AT_TI_return
     791              
     792 000000b8 0006          LRETR     ; [CPU_ALU] 
     793                      ; return occurs ; [] 
     794                      .dwattr $C$DW$51, DW_AT_TI_end_file("../bissc.c")
     795                      .dwattr $C$DW$51, DW_AT_TI_end_line(0x177)
     796                      .dwattr $C$DW$51, DW_AT_TI_end_column(0x01)
     797                      .dwendentry
     798                      .dwendtag $C$DW$51
     799              
     800 000000b9               .sect   ".text"
     801                      .clink
     802                      .global _bissc_configEPWM4
     803              
     804              $C$DW$56        .dwtag  DW_TAG_subprogram
     805                      .dwattr $C$DW$56, DW_AT_name("bissc_configEPWM4")
     806                      .dwattr $C$DW$56, DW_AT_low_pc(_bissc_configEPWM4)
     807                      .dwattr $C$DW$56, DW_AT_high_pc(0x00)
     808                      .dwattr $C$DW$56, DW_AT_TI_symbol_name("_bissc_configEPWM4")
     809                      .dwattr $C$DW$56, DW_AT_external
     810                      .dwattr $C$DW$56, DW_AT_TI_begin_file("../bissc.c")
     811                      .dwattr $C$DW$56, DW_AT_TI_begin_line(0x155)
     812                      .dwattr $C$DW$56, DW_AT_TI_begin_column(0x06)
     813                      .dwattr $C$DW$56, DW_AT_TI_max_frame_size(-2)
     814                      .dwpsn  file "../bissc.c",line 342,column 1,is_stmt,address _bissc_configEPWM4,isa 0
     815              
     816                      .dwfde $C$DW$CIE, _bissc_configEPWM4
     817              
     818              ;***************************************************************
     819              ;* FNAME: _bissc_configEPWM4            FR SIZE:   0           *
     820              ;*                                                             *
     821              ;* FUNCTION ENVIRONMENT                                        *
     822              ;*                                                             *
     823              ;* FUNCTION PROPERTIES                                         *
TMS320C2000 Assembler PC v20.2.1 Wed Oct  7 22:14:25 2020

Copyright (c) 1996-2018 Texas Instruments Incorporated
bissc.asm                                                            PAGE   17

     824              ;*                            0 Parameter,  0 Auto,  0 SOE     *
     825              ;***************************************************************
     826              
     827 000000b9       _bissc_configEPWM4:
     828              ;* AR4   assigned to $O$C1
     829                      .dwcfi  cfa_offset, -2
     830                      .dwcfi  save_reg_to_mem, 26, 0
     831 000000b9 7622   EALLOW
     832                      .dwpsn  file "../bissc.c",line 345,column 2,is_stmt,isa 0
     833 000000ba D084          MOVB      XAR0,#132             ; [CPU_ALU] |345| 
     834 000000bb 8F00!         MOVL      XAR4,#_EPwm4Regs      ; [CPU_ARAU] |345| 
         000000bc 0000 
     835 000000bd 761F!         MOVW      DP,#_EPwm4Regs+132    ; [CPU_ARAU] 
         000000be 0002 
     836 000000bf CC94          AND       AL,*+XAR4[AR0],#0xfffc ; [CPU_ALU] |345| 
         000000c0 FFFC 
     837 000000c1 5001          ORB       AL,#0x01              ; [CPU_ALU] |345| 
     838 000000c2 9604!         MOV       @$BLOCKED(_EPwm4Regs)+132,AL ; [CPU_ALU] |345| 
     839                      .dwpsn  file "../bissc.c",line 346,column 2,is_stmt,isa 0
     840 000000c3 CC04!         AND       AL,@$BLOCKED(_EPwm4Regs)+132,#0xfff7 ; [CPU_ALU] |346| 
         000000c4 FFF7 
     841 000000c5 5004          ORB       AL,#0x04              ; [CPU_ALU] |346| 
     842 000000c6 9604!         MOV       @$BLOCKED(_EPwm4Regs)+132,AL ; [CPU_ALU] |346| 
     843                      .dwpsn  file "../bissc.c",line 347,column 2,is_stmt,isa 0
     844 000000c7 A8A9          MOVL      ACC,XAR4              ; [CPU_ALU] |347| 
     845 000000c8 099B          ADDB      ACC,#155              ; [CPU_ALU] |347| 
     846 000000c9 8AA9          MOVL      XAR4,ACC              ; [CPU_ALU] |347| 
     847 000000ca 1AC4          OR        *+XAR4[0],#0x0004     ; [CPU_ALU] |347| 
         000000cb 0004 
     848 000000cc 761A   EDIS
     849 000000cd FF69          SPM       #0                    ; [CPU_ALU] 
     850              $C$DW$57        .dwtag  DW_TAG_TI_branch
     851                      .dwattr $C$DW$57, DW_AT_low_pc(0x00)
     852                      .dwattr $C$DW$57, DW_AT_TI_return
     853              
     854 000000ce 0006          LRETR     ; [CPU_ALU] 
     855                      ; return occurs ; [] 
     856                      .dwattr $C$DW$56, DW_AT_TI_end_file("../bissc.c")
     857                      .dwattr $C$DW$56, DW_AT_TI_end_line(0x15d)
     858                      .dwattr $C$DW$56, DW_AT_TI_end_column(0x01)
     859                      .dwendentry
     860                      .dwendtag $C$DW$56
     861              
     862 000000cf               .sect   ".text"
     863                      .clink
     864                      .global _bissc_configXBAR
     865              
     866              $C$DW$58        .dwtag  DW_TAG_subprogram
     867                      .dwattr $C$DW$58, DW_AT_name("bissc_configXBAR")
     868                      .dwattr $C$DW$58, DW_AT_low_pc(_bissc_configXBAR)
     869                      .dwattr $C$DW$58, DW_AT_high_pc(0x00)
     870                      .dwattr $C$DW$58, DW_AT_TI_symbol_name("_bissc_configXBAR")
     871                      .dwattr $C$DW$58, DW_AT_external
     872                      .dwattr $C$DW$58, DW_AT_TI_begin_file("../bissc.c")
     873                      .dwattr $C$DW$58, DW_AT_TI_begin_line(0x14b)
TMS320C2000 Assembler PC v20.2.1 Wed Oct  7 22:14:25 2020

Copyright (c) 1996-2018 Texas Instruments Incorporated
bissc.asm                                                            PAGE   18

     874                      .dwattr $C$DW$58, DW_AT_TI_begin_column(0x06)
     875                      .dwattr $C$DW$58, DW_AT_TI_max_frame_size(-2)
     876                      .dwpsn  file "../bissc.c",line 332,column 1,is_stmt,address _bissc_configXBAR,isa 0
     877              
     878                      .dwfde $C$DW$CIE, _bissc_configXBAR
     879              
     880              ;***************************************************************
     881              ;* FNAME: _bissc_configXBAR             FR SIZE:   0           *
     882              ;*                                                             *
     883              ;* FUNCTION ENVIRONMENT                                        *
     884              ;*                                                             *
     885              ;* FUNCTION PROPERTIES                                         *
     886              ;*                            0 Parameter,  0 Auto,  0 SOE     *
     887              ;***************************************************************
     888              
     889 000000cf       _bissc_configXBAR:
     890                      .dwcfi  cfa_offset, -2
     891                      .dwcfi  save_reg_to_mem, 26, 0
     892 000000cf 7622   EALLOW
     893 000000d0 761F!         MOVW      DP,#_InputXbarRegs    ; [CPU_ARAU] 
         000000d1 0000 
     894                      .dwpsn  file "../bissc.c",line 336,column 2,is_stmt,isa 0
     895 000000d2 56BF!         MOVB      @$BLOCKED(_InputXbarRegs),#24,UNC ; [CPU_ALU] |336| 
         000000d3 1800 
     896 000000d4 761A   EDIS
     897 000000d5 FF69          SPM       #0                    ; [CPU_ALU] 
     898              $C$DW$59        .dwtag  DW_TAG_TI_branch
     899                      .dwattr $C$DW$59, DW_AT_low_pc(0x00)
     900                      .dwattr $C$DW$59, DW_AT_TI_return
     901              
     902 000000d6 0006          LRETR     ; [CPU_ALU] 
     903                      ; return occurs ; [] 
     904                      .dwattr $C$DW$58, DW_AT_TI_end_file("../bissc.c")
     905                      .dwattr $C$DW$58, DW_AT_TI_end_line(0x153)
     906                      .dwattr $C$DW$58, DW_AT_TI_end_column(0x01)
     907                      .dwendentry
     908                      .dwendtag $C$DW$58
     909              
     910 000000d7               .sect   ".text"
     911                      .clink
     912                      .global _bissc_init
     913              
     914              $C$DW$60        .dwtag  DW_TAG_subprogram
     915                      .dwattr $C$DW$60, DW_AT_name("bissc_init")
     916                      .dwattr $C$DW$60, DW_AT_low_pc(_bissc_init)
     917                      .dwattr $C$DW$60, DW_AT_high_pc(0x00)
     918                      .dwattr $C$DW$60, DW_AT_TI_symbol_name("_bissc_init")
     919                      .dwattr $C$DW$60, DW_AT_external
     920                      .dwattr $C$DW$60, DW_AT_TI_begin_file("../bissc.c")
     921                      .dwattr $C$DW$60, DW_AT_TI_begin_line(0x24)
     922                      .dwattr $C$DW$60, DW_AT_TI_begin_column(0x06)
     923                      .dwattr $C$DW$60, DW_AT_TI_max_frame_size(-2)
     924                      .dwpsn  file "../bissc.c",line 37,column 1,is_stmt,address _bissc_init,isa 0
     925              
     926                      .dwfde $C$DW$CIE, _bissc_init
TMS320C2000 Assembler PC v20.2.1 Wed Oct  7 22:14:25 2020

Copyright (c) 1996-2018 Texas Instruments Incorporated
bissc.asm                                                            PAGE   19

     927              
     928              ;***************************************************************
     929              ;* FNAME: _bissc_init                   FR SIZE:   0           *
     930              ;*                                                             *
     931              ;* FUNCTION ENVIRONMENT                                        *
     932              ;*                                                             *
     933              ;* FUNCTION PROPERTIES                                         *
     934              ;*                            0 Parameter,  0 Auto,  0 SOE     *
     935              ;***************************************************************
     936              
     937 000000d7       _bissc_init:
     938              ;* AR4   assigned to $O$C1
     939                      .dwcfi  cfa_offset, -2
     940                      .dwcfi  save_reg_to_mem, 26, 0
     941 000000d7 7622   EALLOW
     942 000000d8 761F!         MOVW      DP,#_CpuSysRegs+38    ; [CPU_ARAU] 
         000000d9 0000 
     943                      .dwpsn  file "../bissc.c",line 39,column 2,is_stmt,isa 0
     944 000000da 1A26!         OR        @$BLOCKED(_CpuSysRegs)+38,#0x0004 ; [CPU_ALU] |39| 
         000000db 0004 
     945                      .dwpsn  file "../bissc.c",line 40,column 2,is_stmt,isa 0
     946 000000dc 1A26!         OR        @$BLOCKED(_CpuSysRegs)+38,#0x0008 ; [CPU_ALU] |40| 
         000000dd 0008 
     947 000000de 761A   EDIS
     948 000000df FF69          SPM       #0                    ; [CPU_ALU] 
     949                      .dwpsn  file "../bissc.c",line 44,column 2,is_stmt,isa 0
     950              $C$DW$61        .dwtag  DW_TAG_TI_branch
     951                      .dwattr $C$DW$61, DW_AT_low_pc(0x00)
     952                      .dwattr $C$DW$61, DW_AT_name("_bissc_configEPWM4")
     953                      .dwattr $C$DW$61, DW_AT_TI_call
     954              
     955 000000e0 7640'         LCR       #_bissc_configEPWM4   ; [CPU_ALU] |44| 
         000000e1 00B9 
     956                      ; call occurs [#_bissc_configEPWM4] ; [] |44| 
     957                      .dwpsn  file "../bissc.c",line 47,column 2,is_stmt,isa 0
     958 000000e2 9A06          MOVB      AL,#6                 ; [CPU_ALU] |47| 
     959 000000e3 9B03          MOVB      AH,#3                 ; [CPU_ALU] |47| 
     960 000000e4 8F00-         MOVL      XAR4,#_bissCRCtableSCD ; [CPU_ARAU] |47| 
         000000e5 0000 
     961              $C$DW$62        .dwtag  DW_TAG_TI_branch
     962                      .dwattr $C$DW$62, DW_AT_low_pc(0x00)
     963                      .dwattr $C$DW$62, DW_AT_name("_PM_bissc_generateCRCTable")
     964                      .dwattr $C$DW$62, DW_AT_TI_call
     965              
     966 000000e6 7640!         LCR       #_PM_bissc_generateCRCTable ; [CPU_ALU] |47| 
         000000e7 0000 
     967                      ; call occurs [#_PM_bissc_generateCRCTable] ; [] |47| 
     968                      .dwpsn  file "../bissc.c",line 53,column 2,is_stmt,isa 0
     969              $C$DW$63        .dwtag  DW_TAG_TI_branch
     970                      .dwattr $C$DW$63, DW_AT_low_pc(0x00)
     971                      .dwattr $C$DW$63, DW_AT_name("_bissc_setupGPIO")
     972                      .dwattr $C$DW$63, DW_AT_TI_call
     973              
     974 000000e8 7640'         LCR       #_bissc_setupGPIO     ; [CPU_ALU] |53| 
         000000e9 0000 
TMS320C2000 Assembler PC v20.2.1 Wed Oct  7 22:14:25 2020

Copyright (c) 1996-2018 Texas Instruments Incorporated
bissc.asm                                                            PAGE   20

     975                      ; call occurs [#_bissc_setupGPIO] ; [] |53| 
     976                      .dwpsn  file "../bissc.c",line 54,column 2,is_stmt,isa 0
     977              $C$DW$64        .dwtag  DW_TAG_TI_branch
     978                      .dwattr $C$DW$64, DW_AT_low_pc(0x00)
     979                      .dwattr $C$DW$64, DW_AT_name("_bissc_configXBAR")
     980                      .dwattr $C$DW$64, DW_AT_TI_call
     981              
     982 000000ea 7640'         LCR       #_bissc_configXBAR    ; [CPU_ALU] |54| 
         000000eb 00CF 
     983                      ; call occurs [#_bissc_configXBAR] ; [] |54| 
     984                      .dwpsn  file "../bissc.c",line 56,column 2,is_stmt,isa 0
     985 000000ec 8F00!         MOVL      XAR4,#_SpibRegs       ; [CPU_ARAU] |56| 
         000000ed 0000 
     986 000000ee 761F-         MOVW      DP,#_bissc_data_struct+90 ; [CPU_ARAU] 
         000000ef 0001 
     987 000000f0 A81A!         MOVL      @$BLOCKED(_bissc_data_struct)+90,XAR4 ; [CPU_ALU] |56| 
     988                      .dwpsn  file "../bissc.c",line 57,column 2,is_stmt,isa 0
     989              $C$DW$65        .dwtag  DW_TAG_TI_branch
     990                      .dwattr $C$DW$65, DW_AT_low_pc(0x00)
     991                      .dwattr $C$DW$65, DW_AT_name("_PM_bissc_setupPeriph")
     992                      .dwattr $C$DW$65, DW_AT_TI_call
     993              
     994 000000f1 7640!         LCR       #_PM_bissc_setupPeriph ; [CPU_ALU] |57| 
         000000f2 0000 
     995                      ; call occurs [#_PM_bissc_setupPeriph] ; [] |57| 
     996 000000f3 7622   EALLOW
     997 000000f4 761F!         MOVW      DP,#_PieVectTable+148 ; [CPU_ARAU] 
         000000f5 0002 
     998                      .dwpsn  file "../bissc.c",line 61,column 2,is_stmt,isa 0
     999 000000f6 8F00+         MOVL      XAR4,#_bissc_spiRxFifoIsr ; [CPU_ARAU] |61| 
         000000f7 0000 
    1000 000000f8 A814!         MOVL      @$BLOCKED(_PieVectTable)+148,XAR4 ; [CPU_ALU] |61| 
    1001 000000f9 761A   EDIS
    1002                      .dwpsn  file "../bissc.c",line 65,column 2,is_stmt,isa 0
    1003 000000fa 8F00!         MOVL      XAR4,#_PieCtrlRegs    ; [CPU_ARAU] |65| 
         000000fb 0000 
    1004 000000fc 83A4          MOVL      XAR5,XAR4             ; [CPU_ALU] |65| 
    1005                      .dwpsn  file "../bissc.c",line 66,column 2,is_stmt,isa 0
    1006 000000fd DC0C          ADDB      XAR4,#12              ; [CPU_ALU] |66| 
    1007                      .dwpsn  file "../bissc.c",line 65,column 2,is_stmt,isa 0
    1008 000000fe 1AC5          OR        *+XAR5[0],#0x0001     ; [CPU_FPU] |65| 
         000000ff 0001 
    1009                      .dwpsn  file "../bissc.c",line 66,column 2,is_stmt,isa 0
    1010 00000100 1AC4          OR        *+XAR4[0],#0x0004     ; [CPU_ALU] |66| 
         00000101 0004 
    1011                      .dwpsn  file "../bissc.c",line 68,column 2,is_stmt,isa 0
    1012 00000102 7623          OR        IER,#0x0020           ; [CPU_ALU] |68| 
         00000103 0020 
    1013 00000104 2910   clrc INTM
    1014 00000105 761F!         MOVW      DP,#_GpioDataRegs+8   ; [CPU_ARAU] 
         00000106 0000 
    1015                      .dwpsn  file "../bissc.c",line 78,column 2,is_stmt,isa 0
    1016 00000107 28A9          MOV       AL,#23038             ; [CPU_ALU] |78| 
         00000108 59FE 
    1017 00000109 28A8          MOV       AH,#610               ; [CPU_ALU] |78| 
TMS320C2000 Assembler PC v20.2.1 Wed Oct  7 22:14:25 2020

Copyright (c) 1996-2018 Texas Instruments Incorporated
bissc.asm                                                            PAGE   21

         0000010a 0262 
    1018 0000010b FF69          SPM       #0                    ; [CPU_ALU] 
    1019                      .dwpsn  file "../bissc.c",line 73,column 2,is_stmt,isa 0
    1020 0000010c 1808!         AND       @$BLOCKED(_GpioDataRegs)+8,#0xfffb ; [CPU_ALU] |73| 
         0000010d FFFB 
    1021                      .dwpsn  file "../bissc.c",line 76,column 2,is_stmt,isa 0
    1022 0000010e 1A08!         OR        @$BLOCKED(_GpioDataRegs)+8,#0x0001 ; [CPU_ALU] |76| 
         0000010f 0001 
    1023                      .dwpsn  file "../bissc.c",line 78,column 2,is_stmt,isa 0
    1024              $C$DW$66        .dwtag  DW_TAG_TI_branch
    1025                      .dwattr $C$DW$66, DW_AT_low_pc(0x00)
    1026                      .dwattr $C$DW$66, DW_AT_name("_F28x_usDelay")
    1027                      .dwattr $C$DW$66, DW_AT_TI_call
    1028              
    1029 00000110 7640!         LCR       #_F28x_usDelay        ; [CPU_ALU] |78| 
         00000111 0000 
    1030                      ; call occurs [#_F28x_usDelay] ; [] |78| 
    1031                      .dwpsn  file "../bissc.c",line 84,column 2,is_stmt,isa 0
    1032 00000112 0219          MOVB      ACC,#25               ; [CPU_ALU] |84| 
    1033              $C$DW$67        .dwtag  DW_TAG_TI_branch
    1034                      .dwattr $C$DW$67, DW_AT_low_pc(0x00)
    1035                      .dwattr $C$DW$67, DW_AT_name("_PM_bissc_setFreq")
    1036                      .dwattr $C$DW$67, DW_AT_TI_call
    1037              
    1038 00000113 7640!         LCR       #_PM_bissc_setFreq    ; [CPU_ALU] |84| 
         00000114 0000 
    1039                      ; call occurs [#_PM_bissc_setFreq] ; [] |84| 
    1040                      .dwpsn  file "../bissc.c",line 86,column 2,is_stmt,isa 0
    1041 00000115 8F01          MOVL      XAR4,#79998           ; [CPU_ARAU] |86| 
         00000116 387E 
    1042 00000117 A8A9          MOVL      ACC,XAR4              ; [CPU_ALU] |86| 
    1043              $C$DW$68        .dwtag  DW_TAG_TI_branch
    1044                      .dwattr $C$DW$68, DW_AT_low_pc(0x00)
    1045                      .dwattr $C$DW$68, DW_AT_name("_F28x_usDelay")
    1046                      .dwattr $C$DW$68, DW_AT_TI_call
    1047              
    1048 00000118 7640!         LCR       #_F28x_usDelay        ; [CPU_ALU] |86| 
         00000119 0000 
    1049                      ; call occurs [#_F28x_usDelay] ; [] |86| 
    1050 0000011a 761F-         MOVW      DP,#_bissc_data_struct+23 ; [CPU_ARAU] 
         0000011b 0000 
    1051                      .dwpsn  file "../bissc.c",line 88,column 2,is_stmt,isa 0
    1052 0000011c 2B17!         MOV       @$BLOCKED(_bissc_data_struct)+23,#0 ; [CPU_ALU] |88| 
    1053                      .dwpsn  file "../bissc.c",line 89,column 2,is_stmt,isa 0
    1054 0000011d 56BF!         MOVB      @$BLOCKED(_bissc_data_struct),#3,UNC ; [CPU_ALU] |89| 
         0000011e 0300 
    1055                      .dwpsn  file "../bissc.c",line 90,column 2,is_stmt,isa 0
    1056 0000011f 2B0C!         MOV       @$BLOCKED(_bissc_data_struct)+12,#0 ; [CPU_ALU] |90| 
    1057                      .dwpsn  file "../bissc.c",line 91,column 2,is_stmt,isa 0
    1058 00000120 280A!         MOV       @$BLOCKED(_bissc_data_struct)+10,#65535 ; [CPU_ALU] |91| 
         00000121 FFFF 
    1059                      .dwpsn  file "../bissc.c",line 92,column 2,is_stmt,isa 0
    1060 00000122 280B!         MOV       @$BLOCKED(_bissc_data_struct)+11,#65535 ; [CPU_ALU] |92| 
         00000123 FFFF 
    1061                      .dwpsn  file "../bissc.c",line 93,column 2,is_stmt,isa 0
TMS320C2000 Assembler PC v20.2.1 Wed Oct  7 22:14:25 2020

Copyright (c) 1996-2018 Texas Instruments Incorporated
bissc.asm                                                            PAGE   22

    1062 00000124 2B16!         MOV       @$BLOCKED(_bissc_data_struct)+22,#0 ; [CPU_ALU] |93| 
    1063              $C$DW$69        .dwtag  DW_TAG_TI_branch
    1064                      .dwattr $C$DW$69, DW_AT_low_pc(0x00)
    1065                      .dwattr $C$DW$69, DW_AT_TI_return
    1066              
    1067 00000125 0006          LRETR     ; [CPU_ALU] 
    1068                      ; return occurs ; [] 
    1069                      .dwattr $C$DW$60, DW_AT_TI_end_file("../bissc.c")
    1070                      .dwattr $C$DW$60, DW_AT_TI_end_line(0x5e)
    1071                      .dwattr $C$DW$60, DW_AT_TI_end_column(0x01)
    1072                      .dwendentry
    1073                      .dwendtag $C$DW$60
    1074              
    1075              ;**************************************************************
    1076              ;* UNDEFINED EXTERNAL REFERENCES                              *
    1077              ;**************************************************************
    1078                      .global _PM_bissc_generateCRCTable
    1079                      .global _PM_bissc_setupPeriph
    1080                      .global _F28x_usDelay
    1081                      .global _PM_bissc_setFreq
    1082                      .global _PM_bissc_setupNewSCDTransfer
    1083                      .global _PM_bissc_startOperation
    1084                      .global _PM_bissc_getCRC
    1085                      .global _PM_bissc_getBits
    1086                      .global _SpibRegs
    1087                      .global _PieCtrlRegs
    1088                      .global _InputXbarRegs
    1089                      .global _GpioDataRegs
    1090                      .global _CpuSysRegs
    1091                      .global _EPwm4Regs
    1092                      .global _GpioCtrlRegs
    1093                      .global _PieVectTable
    1094              
    1095              ;***************************************************************
    1096              ;* TYPE INFORMATION                                            *
    1097              ;***************************************************************
    1098              
    1099              $C$DW$T$28      .dwtag  DW_TAG_structure_type
    1100                      .dwattr $C$DW$T$28, DW_AT_byte_size(0x5c)
    1101              $C$DW$70        .dwtag  DW_TAG_member
    1102                      .dwattr $C$DW$70, DW_AT_type(*$C$DW$T$20)
    1103                      .dwattr $C$DW$70, DW_AT_name("cd_status")
    1104                      .dwattr $C$DW$70, DW_AT_TI_symbol_name("_cd_status")
    1105                      .dwattr $C$DW$70, DW_AT_data_member_location[DW_OP_plus_uconst 0x0]
    1106                      .dwattr $C$DW$70, DW_AT_accessibility(DW_ACCESS_public)
    1107              
    1108              $C$DW$71        .dwtag  DW_TAG_member
    1109                      .dwattr $C$DW$71, DW_AT_type(*$C$DW$T$22)
    1110                      .dwattr $C$DW$71, DW_AT_name("remaining_cd_bits")
    1111                      .dwattr $C$DW$71, DW_AT_TI_symbol_name("_remaining_cd_bits")
    1112                      .dwattr $C$DW$71, DW_AT_data_member_location[DW_OP_plus_uconst 0x1]
    1113                      .dwattr $C$DW$71, DW_AT_accessibility(DW_ACCESS_public)
    1114              
    1115              $C$DW$72        .dwtag  DW_TAG_member
    1116                      .dwattr $C$DW$72, DW_AT_type(*$C$DW$T$20)
TMS320C2000 Assembler PC v20.2.1 Wed Oct  7 22:14:25 2020

Copyright (c) 1996-2018 Texas Instruments Incorporated
bissc.asm                                                            PAGE   23

    1117                      .dwattr $C$DW$72, DW_AT_name("cd_bits_to_send")
    1118                      .dwattr $C$DW$72, DW_AT_TI_symbol_name("_cd_bits_to_send")
    1119                      .dwattr $C$DW$72, DW_AT_data_member_location[DW_OP_plus_uconst 0x2]
    1120                      .dwattr $C$DW$72, DW_AT_accessibility(DW_ACCESS_public)
    1121              
    1122              $C$DW$73        .dwtag  DW_TAG_member
    1123                      .dwattr $C$DW$73, DW_AT_type(*$C$DW$T$24)
    1124                      .dwattr $C$DW$73, DW_AT_name("cdm")
    1125                      .dwattr $C$DW$73, DW_AT_TI_symbol_name("_cdm")
    1126                      .dwattr $C$DW$73, DW_AT_data_member_location[DW_OP_plus_uconst 0x4]
    1127                      .dwattr $C$DW$73, DW_AT_accessibility(DW_ACCESS_public)
    1128              
    1129              $C$DW$74        .dwtag  DW_TAG_member
    1130                      .dwattr $C$DW$74, DW_AT_type(*$C$DW$T$24)
    1131                      .dwattr $C$DW$74, DW_AT_name("cds_stream")
    1132                      .dwattr $C$DW$74, DW_AT_TI_symbol_name("_cds_stream")
    1133                      .dwattr $C$DW$74, DW_AT_data_member_location[DW_OP_plus_uconst 0x6]
    1134                      .dwattr $C$DW$74, DW_AT_accessibility(DW_ACCESS_public)
    1135              
    1136              $C$DW$75        .dwtag  DW_TAG_member
    1137                      .dwattr $C$DW$75, DW_AT_type(*$C$DW$T$20)
    1138                      .dwattr $C$DW$75, DW_AT_name("cds_raw")
    1139                      .dwattr $C$DW$75, DW_AT_TI_symbol_name("_cds_raw")
    1140                      .dwattr $C$DW$75, DW_AT_data_member_location[DW_OP_plus_uconst 0x8]
    1141                      .dwattr $C$DW$75, DW_AT_accessibility(DW_ACCESS_public)
    1142              
    1143              $C$DW$76        .dwtag  DW_TAG_member
    1144                      .dwattr $C$DW$76, DW_AT_type(*$C$DW$T$20)
    1145                      .dwattr $C$DW$76, DW_AT_name("cd_register_xfer_address")
    1146                      .dwattr $C$DW$76, DW_AT_TI_symbol_name("_cd_register_xfer_address")
    1147                      .dwattr $C$DW$76, DW_AT_data_member_location[DW_OP_plus_uconst 0x9]
    1148                      .dwattr $C$DW$76, DW_AT_accessibility(DW_ACCESS_public)
    1149              
    1150              $C$DW$77        .dwtag  DW_TAG_member
    1151                      .dwattr $C$DW$77, DW_AT_type(*$C$DW$T$20)
    1152                      .dwattr $C$DW$77, DW_AT_name("cd_register_xfer_rxdata")
    1153                      .dwattr $C$DW$77, DW_AT_TI_symbol_name("_cd_register_xfer_rxdata")
    1154                      .dwattr $C$DW$77, DW_AT_data_member_location[DW_OP_plus_uconst 0xa]
    1155                      .dwattr $C$DW$77, DW_AT_accessibility(DW_ACCESS_public)
    1156              
    1157              $C$DW$78        .dwtag  DW_TAG_member
    1158                      .dwattr $C$DW$78, DW_AT_type(*$C$DW$T$20)
    1159                      .dwattr $C$DW$78, DW_AT_name("cd_register_xfer_txdata")
    1160                      .dwattr $C$DW$78, DW_AT_TI_symbol_name("_cd_register_xfer_txdata")
    1161                      .dwattr $C$DW$78, DW_AT_data_member_location[DW_OP_plus_uconst 0xb]
    1162                      .dwattr $C$DW$78, DW_AT_accessibility(DW_ACCESS_public)
    1163              
    1164              $C$DW$79        .dwtag  DW_TAG_member
    1165                      .dwattr $C$DW$79, DW_AT_type(*$C$DW$T$20)
    1166                      .dwattr $C$DW$79, DW_AT_name("cd_register_xfer_is_write")
    1167                      .dwattr $C$DW$79, DW_AT_TI_symbol_name("_cd_register_xfer_is_write")
    1168                      .dwattr $C$DW$79, DW_AT_data_member_location[DW_OP_plus_uconst 0xc]
    1169                      .dwattr $C$DW$79, DW_AT_accessibility(DW_ACCESS_public)
    1170              
    1171              $C$DW$80        .dwtag  DW_TAG_member
TMS320C2000 Assembler PC v20.2.1 Wed Oct  7 22:14:25 2020

Copyright (c) 1996-2018 Texas Instruments Incorporated
bissc.asm                                                            PAGE   24

    1172                      .dwattr $C$DW$80, DW_AT_type(*$C$DW$T$24)
    1173                      .dwattr $C$DW$80, DW_AT_name("scd_raw")
    1174                      .dwattr $C$DW$80, DW_AT_TI_symbol_name("_scd_raw")
    1175                      .dwattr $C$DW$80, DW_AT_data_member_location[DW_OP_plus_uconst 0xe]
    1176                      .dwattr $C$DW$80, DW_AT_accessibility(DW_ACCESS_public)
    1177              
    1178              $C$DW$81        .dwtag  DW_TAG_member
    1179                      .dwattr $C$DW$81, DW_AT_type(*$C$DW$T$20)
    1180                      .dwattr $C$DW$81, DW_AT_name("scd_crc")
    1181                      .dwattr $C$DW$81, DW_AT_TI_symbol_name("_scd_crc")
    1182                      .dwattr $C$DW$81, DW_AT_data_member_location[DW_OP_plus_uconst 0x10]
    1183                      .dwattr $C$DW$81, DW_AT_accessibility(DW_ACCESS_public)
    1184              
    1185              $C$DW$82        .dwtag  DW_TAG_member
    1186                      .dwattr $C$DW$82, DW_AT_type(*$C$DW$T$24)
    1187                      .dwattr $C$DW$82, DW_AT_name("position")
    1188                      .dwattr $C$DW$82, DW_AT_TI_symbol_name("_position")
    1189                      .dwattr $C$DW$82, DW_AT_data_member_location[DW_OP_plus_uconst 0x12]
    1190                      .dwattr $C$DW$82, DW_AT_accessibility(DW_ACCESS_public)
    1191              
    1192              $C$DW$83        .dwtag  DW_TAG_member
    1193                      .dwattr $C$DW$83, DW_AT_type(*$C$DW$T$20)
    1194                      .dwattr $C$DW$83, DW_AT_name("scd_error")
    1195                      .dwattr $C$DW$83, DW_AT_TI_symbol_name("_scd_error")
    1196                      .dwattr $C$DW$83, DW_AT_data_member_location[DW_OP_plus_uconst 0x14]
    1197                      .dwattr $C$DW$83, DW_AT_accessibility(DW_ACCESS_public)
    1198              
    1199              $C$DW$84        .dwtag  DW_TAG_member
    1200                      .dwattr $C$DW$84, DW_AT_type(*$C$DW$T$20)
    1201                      .dwattr $C$DW$84, DW_AT_name("scd_warning")
    1202                      .dwattr $C$DW$84, DW_AT_TI_symbol_name("_scd_warning")
    1203                      .dwattr $C$DW$84, DW_AT_data_member_location[DW_OP_plus_uconst 0x15]
    1204                      .dwattr $C$DW$84, DW_AT_accessibility(DW_ACCESS_public)
    1205              
    1206              $C$DW$85        .dwtag  DW_TAG_member
    1207                      .dwattr $C$DW$85, DW_AT_type(*$C$DW$T$20)
    1208                      .dwattr $C$DW$85, DW_AT_name("crc_incorrect_count")
    1209                      .dwattr $C$DW$85, DW_AT_TI_symbol_name("_crc_incorrect_count")
    1210                      .dwattr $C$DW$85, DW_AT_data_member_location[DW_OP_plus_uconst 0x16]
    1211                      .dwattr $C$DW$85, DW_AT_accessibility(DW_ACCESS_public)
    1212              
    1213              $C$DW$86        .dwtag  DW_TAG_member
    1214                      .dwattr $C$DW$86, DW_AT_type(*$C$DW$T$20)
    1215                      .dwattr $C$DW$86, DW_AT_name("dataReady")
    1216                      .dwattr $C$DW$86, DW_AT_TI_symbol_name("_dataReady")
    1217                      .dwattr $C$DW$86, DW_AT_data_member_location[DW_OP_plus_uconst 0x17]
    1218                      .dwattr $C$DW$86, DW_AT_accessibility(DW_ACCESS_public)
    1219              
    1220              $C$DW$87        .dwtag  DW_TAG_member
    1221                      .dwattr $C$DW$87, DW_AT_type(*$C$DW$T$25)
    1222                      .dwattr $C$DW$87, DW_AT_name("sdata")
    1223                      .dwattr $C$DW$87, DW_AT_TI_symbol_name("_sdata")
    1224                      .dwattr $C$DW$87, DW_AT_data_member_location[DW_OP_plus_uconst 0x18]
    1225                      .dwattr $C$DW$87, DW_AT_accessibility(DW_ACCESS_public)
    1226              
TMS320C2000 Assembler PC v20.2.1 Wed Oct  7 22:14:25 2020

Copyright (c) 1996-2018 Texas Instruments Incorporated
bissc.asm                                                            PAGE   25

    1227              $C$DW$88        .dwtag  DW_TAG_member
    1228                      .dwattr $C$DW$88, DW_AT_type(*$C$DW$T$25)
    1229                      .dwattr $C$DW$88, DW_AT_name("rdata")
    1230                      .dwattr $C$DW$88, DW_AT_TI_symbol_name("_rdata")
    1231                      .dwattr $C$DW$88, DW_AT_data_member_location[DW_OP_plus_uconst 0x38]
    1232                      .dwattr $C$DW$88, DW_AT_accessibility(DW_ACCESS_public)
    1233              
    1234              $C$DW$89        .dwtag  DW_TAG_member
    1235                      .dwattr $C$DW$89, DW_AT_type(*$C$DW$T$20)
    1236                      .dwattr $C$DW$89, DW_AT_name("fifo_level")
    1237                      .dwattr $C$DW$89, DW_AT_TI_symbol_name("_fifo_level")
    1238                      .dwattr $C$DW$89, DW_AT_data_member_location[DW_OP_plus_uconst 0x58]
    1239                      .dwattr $C$DW$89, DW_AT_accessibility(DW_ACCESS_public)
    1240              
    1241              $C$DW$90        .dwtag  DW_TAG_member
    1242                      .dwattr $C$DW$90, DW_AT_type(*$C$DW$T$20)
    1243                      .dwattr $C$DW$90, DW_AT_name("xfer_address_withCTS")
    1244                      .dwattr $C$DW$90, DW_AT_TI_symbol_name("_xfer_address_withCTS")
    1245                      .dwattr $C$DW$90, DW_AT_data_member_location[DW_OP_plus_uconst 0x59]
    1246                      .dwattr $C$DW$90, DW_AT_accessibility(DW_ACCESS_public)
    1247              
    1248              $C$DW$91        .dwtag  DW_TAG_member
    1249                      .dwattr $C$DW$91, DW_AT_type(*$C$DW$T$27)
    1250                      .dwattr $C$DW$91, DW_AT_name("spi")
    1251                      .dwattr $C$DW$91, DW_AT_TI_symbol_name("_spi")
    1252                      .dwattr $C$DW$91, DW_AT_data_member_location[DW_OP_plus_uconst 0x5a]
    1253                      .dwattr $C$DW$91, DW_AT_accessibility(DW_ACCESS_public)
    1254              
    1255                      .dwendtag $C$DW$T$28
    1256              
    1257              $C$DW$T$541     .dwtag  DW_TAG_typedef
    1258                      .dwattr $C$DW$T$541, DW_AT_name("BISSC_DATA_STRUCT")
    1259                      .dwattr $C$DW$T$541, DW_AT_type(*$C$DW$T$28)
    1260                      .dwattr $C$DW$T$541, DW_AT_language(DW_LANG_C)
    1261              
    1262              
    1263              $C$DW$T$30      .dwtag  DW_TAG_structure_type
    1264                      .dwattr $C$DW$T$30, DW_AT_name("AQCSFRC_BITS")
    1265                      .dwattr $C$DW$T$30, DW_AT_byte_size(0x01)
    1266              $C$DW$92        .dwtag  DW_TAG_member
    1267                      .dwattr $C$DW$92, DW_AT_type(*$C$DW$T$29)
    1268                      .dwattr $C$DW$92, DW_AT_name("CSFA")
    1269                      .dwattr $C$DW$92, DW_AT_TI_symbol_name("_CSFA")
    1270                      .dwattr $C$DW$92, DW_AT_bit_offset(0x0e)
    1271                      .dwattr $C$DW$92, DW_AT_bit_size(0x02)
    1272                      .dwattr $C$DW$92, DW_AT_data_member_location[DW_OP_plus_uconst 0x0]
    1273                      .dwattr $C$DW$92, DW_AT_accessibility(DW_ACCESS_public)
    1274              
    1275              $C$DW$93        .dwtag  DW_TAG_member
    1276                      .dwattr $C$DW$93, DW_AT_type(*$C$DW$T$29)
    1277                      .dwattr $C$DW$93, DW_AT_name("CSFB")
    1278                      .dwattr $C$DW$93, DW_AT_TI_symbol_name("_CSFB")
    1279                      .dwattr $C$DW$93, DW_AT_bit_offset(0x0c)
    1280                      .dwattr $C$DW$93, DW_AT_bit_size(0x02)
    1281                      .dwattr $C$DW$93, DW_AT_data_member_location[DW_OP_plus_uconst 0x0]
TMS320C2000 Assembler PC v20.2.1 Wed Oct  7 22:14:25 2020

Copyright (c) 1996-2018 Texas Instruments Incorporated
bissc.asm                                                            PAGE   26

    1282                      .dwattr $C$DW$93, DW_AT_accessibility(DW_ACCESS_public)
    1283              
    1284              $C$DW$94        .dwtag  DW_TAG_member
    1285                      .dwattr $C$DW$94, DW_AT_type(*$C$DW$T$29)
    1286                      .dwattr $C$DW$94, DW_AT_name("rsvd1")
    1287                      .dwattr $C$DW$94, DW_AT_TI_symbol_name("_rsvd1")
    1288                      .dwattr $C$DW$94, DW_AT_bit_offset(0x00)
    1289                      .dwattr $C$DW$94, DW_AT_bit_size(0x0c)
    1290                      .dwattr $C$DW$94, DW_AT_data_member_location[DW_OP_plus_uconst 0x0]
    1291                      .dwattr $C$DW$94, DW_AT_accessibility(DW_ACCESS_public)
    1292              
    1293                      .dwendtag $C$DW$T$30
    1294              
    1295              
    1296              $C$DW$T$31      .dwtag  DW_TAG_union_type
    1297                      .dwattr $C$DW$T$31, DW_AT_name("AQCSFRC_REG")
    1298                      .dwattr $C$DW$T$31, DW_AT_byte_size(0x01)
    1299              $C$DW$95        .dwtag  DW_TAG_member
    1300                      .dwattr $C$DW$95, DW_AT_type(*$C$DW$T$29)
    1301                      .dwattr $C$DW$95, DW_AT_name("all")
    1302                      .dwattr $C$DW$95, DW_AT_TI_symbol_name("_all")
    1303                      .dwattr $C$DW$95, DW_AT_data_member_location[DW_OP_plus_uconst 0x0]
    1304                      .dwattr $C$DW$95, DW_AT_accessibility(DW_ACCESS_public)
    1305              
    1306              $C$DW$96        .dwtag  DW_TAG_member
    1307                      .dwattr $C$DW$96, DW_AT_type(*$C$DW$T$30)
    1308                      .dwattr $C$DW$96, DW_AT_name("bit")
    1309                      .dwattr $C$DW$96, DW_AT_TI_symbol_name("_bit")
    1310                      .dwattr $C$DW$96, DW_AT_data_member_location[DW_OP_plus_uconst 0x0]
    1311                      .dwattr $C$DW$96, DW_AT_accessibility(DW_ACCESS_public)
    1312              
    1313                      .dwendtag $C$DW$T$31
    1314              
    1315              
    1316              $C$DW$T$32      .dwtag  DW_TAG_structure_type
    1317                      .dwattr $C$DW$T$32, DW_AT_name("AQCTLA2_BITS")
    1318                      .dwattr $C$DW$T$32, DW_AT_byte_size(0x01)
    1319              $C$DW$97        .dwtag  DW_TAG_member
    1320                      .dwattr $C$DW$97, DW_AT_type(*$C$DW$T$29)
    1321                      .dwattr $C$DW$97, DW_AT_name("T1U")
    1322                      .dwattr $C$DW$97, DW_AT_TI_symbol_name("_T1U")
    1323                      .dwattr $C$DW$97, DW_AT_bit_offset(0x0e)
    1324                      .dwattr $C$DW$97, DW_AT_bit_size(0x02)
    1325                      .dwattr $C$DW$97, DW_AT_data_member_location[DW_OP_plus_uconst 0x0]
    1326                      .dwattr $C$DW$97, DW_AT_accessibility(DW_ACCESS_public)
    1327              
    1328              $C$DW$98        .dwtag  DW_TAG_member
    1329                      .dwattr $C$DW$98, DW_AT_type(*$C$DW$T$29)
    1330                      .dwattr $C$DW$98, DW_AT_name("T1D")
    1331                      .dwattr $C$DW$98, DW_AT_TI_symbol_name("_T1D")
    1332                      .dwattr $C$DW$98, DW_AT_bit_offset(0x0c)
    1333                      .dwattr $C$DW$98, DW_AT_bit_size(0x02)
    1334                      .dwattr $C$DW$98, DW_AT_data_member_location[DW_OP_plus_uconst 0x0]
    1335                      .dwattr $C$DW$98, DW_AT_accessibility(DW_ACCESS_public)
    1336              
TMS320C2000 Assembler PC v20.2.1 Wed Oct  7 22:14:25 2020

Copyright (c) 1996-2018 Texas Instruments Incorporated
bissc.asm                                                            PAGE   27

    1337              $C$DW$99        .dwtag  DW_TAG_member
    1338                      .dwattr $C$DW$99, DW_AT_type(*$C$DW$T$29)
    1339                      .dwattr $C$DW$99, DW_AT_name("T2U")
    1340                      .dwattr $C$DW$99, DW_AT_TI_symbol_name("_T2U")
    1341                      .dwattr $C$DW$99, DW_AT_bit_offset(0x0a)
    1342                      .dwattr $C$DW$99, DW_AT_bit_size(0x02)
    1343                      .dwattr $C$DW$99, DW_AT_data_member_location[DW_OP_plus_uconst 0x0]
    1344                      .dwattr $C$DW$99, DW_AT_accessibility(DW_ACCESS_public)
    1345              
    1346              $C$DW$100       .dwtag  DW_TAG_member
    1347                      .dwattr $C$DW$100, DW_AT_type(*$C$DW$T$29)
    1348                      .dwattr $C$DW$100, DW_AT_name("T2D")
    1349                      .dwattr $C$DW$100, DW_AT_TI_symbol_name("_T2D")
    1350                      .dwattr $C$DW$100, DW_AT_bit_offset(0x08)
    1351                      .dwattr $C$DW$100, DW_AT_bit_size(0x02)
    1352                      .dwattr $C$DW$100, DW_AT_data_member_location[DW_OP_plus_uconst 0x0]
    1353                      .dwattr $C$DW$100, DW_AT_accessibility(DW_ACCESS_public)
    1354              
    1355              $C$DW$101       .dwtag  DW_TAG_member
    1356                      .dwattr $C$DW$101, DW_AT_type(*$C$DW$T$29)
    1357                      .dwattr $C$DW$101, DW_AT_name("rsvd1")
    1358                      .dwattr $C$DW$101, DW_AT_TI_symbol_name("_rsvd1")
    1359                      .dwattr $C$DW$101, DW_AT_bit_offset(0x00)
    1360                      .dwattr $C$DW$101, DW_AT_bit_size(0x08)
    1361                      .dwattr $C$DW$101, DW_AT_data_member_location[DW_OP_plus_uconst 0x0]
    1362                      .dwattr $C$DW$101, DW_AT_accessibility(DW_ACCESS_public)
    1363              
    1364                      .dwendtag $C$DW$T$32
    1365              
    1366              
    1367              $C$DW$T$33      .dwtag  DW_TAG_union_type
    1368                      .dwattr $C$DW$T$33, DW_AT_name("AQCTLA2_REG")
    1369                      .dwattr $C$DW$T$33, DW_AT_byte_size(0x01)
    1370              $C$DW$102       .dwtag  DW_TAG_member
    1371                      .dwattr $C$DW$102, DW_AT_type(*$C$DW$T$29)
    1372                      .dwattr $C$DW$102, DW_AT_name("all")
    1373                      .dwattr $C$DW$102, DW_AT_TI_symbol_name("_all")
    1374                      .dwattr $C$DW$102, DW_AT_data_member_location[DW_OP_plus_uconst 0x0]
    1375                      .dwattr $C$DW$102, DW_AT_accessibility(DW_ACCESS_public)
    1376              
    1377              $C$DW$103       .dwtag  DW_TAG_member
    1378                      .dwattr $C$DW$103, DW_AT_type(*$C$DW$T$32)
    1379                      .dwattr $C$DW$103, DW_AT_name("bit")
    1380                      .dwattr $C$DW$103, DW_AT_TI_symbol_name("_bit")
    1381                      .dwattr $C$DW$103, DW_AT_data_member_location[DW_OP_plus_uconst 0x0]
    1382                      .dwattr $C$DW$103, DW_AT_accessibility(DW_ACCESS_public)
    1383              
    1384                      .dwendtag $C$DW$T$33
    1385              
    1386              
    1387              $C$DW$T$34      .dwtag  DW_TAG_structure_type
    1388                      .dwattr $C$DW$T$34, DW_AT_name("AQCTLA_BITS")
    1389                      .dwattr $C$DW$T$34, DW_AT_byte_size(0x01)
    1390              $C$DW$104       .dwtag  DW_TAG_member
    1391                      .dwattr $C$DW$104, DW_AT_type(*$C$DW$T$29)
TMS320C2000 Assembler PC v20.2.1 Wed Oct  7 22:14:25 2020

Copyright (c) 1996-2018 Texas Instruments Incorporated
bissc.asm                                                            PAGE   28

    1392                      .dwattr $C$DW$104, DW_AT_name("ZRO")
    1393                      .dwattr $C$DW$104, DW_AT_TI_symbol_name("_ZRO")
    1394                      .dwattr $C$DW$104, DW_AT_bit_offset(0x0e)
    1395                      .dwattr $C$DW$104, DW_AT_bit_size(0x02)
    1396                      .dwattr $C$DW$104, DW_AT_data_member_location[DW_OP_plus_uconst 0x0]
    1397                      .dwattr $C$DW$104, DW_AT_accessibility(DW_ACCESS_public)
    1398              
    1399              $C$DW$105       .dwtag  DW_TAG_member
    1400                      .dwattr $C$DW$105, DW_AT_type(*$C$DW$T$29)
    1401                      .dwattr $C$DW$105, DW_AT_name("PRD")
    1402                      .dwattr $C$DW$105, DW_AT_TI_symbol_name("_PRD")
    1403                      .dwattr $C$DW$105, DW_AT_bit_offset(0x0c)
    1404                      .dwattr $C$DW$105, DW_AT_bit_size(0x02)
    1405                      .dwattr $C$DW$105, DW_AT_data_member_location[DW_OP_plus_uconst 0x0]
    1406                      .dwattr $C$DW$105, DW_AT_accessibility(DW_ACCESS_public)
    1407              
    1408              $C$DW$106       .dwtag  DW_TAG_member
    1409                      .dwattr $C$DW$106, DW_AT_type(*$C$DW$T$29)
    1410                      .dwattr $C$DW$106, DW_AT_name("CAU")
    1411                      .dwattr $C$DW$106, DW_AT_TI_symbol_name("_CAU")
    1412                      .dwattr $C$DW$106, DW_AT_bit_offset(0x0a)
    1413                      .dwattr $C$DW$106, DW_AT_bit_size(0x02)
    1414                      .dwattr $C$DW$106, DW_AT_data_member_location[DW_OP_plus_uconst 0x0]
    1415                      .dwattr $C$DW$106, DW_AT_accessibility(DW_ACCESS_public)
    1416              
    1417              $C$DW$107       .dwtag  DW_TAG_member
    1418                      .dwattr $C$DW$107, DW_AT_type(*$C$DW$T$29)
    1419                      .dwattr $C$DW$107, DW_AT_name("CAD")
    1420                      .dwattr $C$DW$107, DW_AT_TI_symbol_name("_CAD")
    1421                      .dwattr $C$DW$107, DW_AT_bit_offset(0x08)
    1422                      .dwattr $C$DW$107, DW_AT_bit_size(0x02)
    1423                      .dwattr $C$DW$107, DW_AT_data_member_location[DW_OP_plus_uconst 0x0]
    1424                      .dwattr $C$DW$107, DW_AT_accessibility(DW_ACCESS_public)
    1425              
    1426              $C$DW$108       .dwtag  DW_TAG_member
    1427                      .dwattr $C$DW$108, DW_AT_type(*$C$DW$T$29)
    1428                      .dwattr $C$DW$108, DW_AT_name("CBU")
    1429                      .dwattr $C$DW$108, DW_AT_TI_symbol_name("_CBU")
    1430                      .dwattr $C$DW$108, DW_AT_bit_offset(0x06)
    1431                      .dwattr $C$DW$108, DW_AT_bit_size(0x02)
    1432                      .dwattr $C$DW$108, DW_AT_data_member_location[DW_OP_plus_uconst 0x0]
    1433                      .dwattr $C$DW$108, DW_AT_accessibility(DW_ACCESS_public)
    1434              
    1435              $C$DW$109       .dwtag  DW_TAG_member
    1436                      .dwattr $C$DW$109, DW_AT_type(*$C$DW$T$29)
    1437                      .dwattr $C$DW$109, DW_AT_name("CBD")
    1438                      .dwattr $C$DW$109, DW_AT_TI_symbol_name("_CBD")
    1439                      .dwattr $C$DW$109, DW_AT_bit_offset(0x04)
    1440                      .dwattr $C$DW$109, DW_AT_bit_size(0x02)
    1441                      .dwattr $C$DW$109, DW_AT_data_member_location[DW_OP_plus_uconst 0x0]
    1442                      .dwattr $C$DW$109, DW_AT_accessibility(DW_ACCESS_public)
    1443              
    1444              $C$DW$110       .dwtag  DW_TAG_member
    1445                      .dwattr $C$DW$110, DW_AT_type(*$C$DW$T$29)
    1446                      .dwattr $C$DW$110, DW_AT_name("rsvd1")
TMS320C2000 Assembler PC v20.2.1 Wed Oct  7 22:14:25 2020

Copyright (c) 1996-2018 Texas Instruments Incorporated
bissc.asm                                                            PAGE   29

    1447                      .dwattr $C$DW$110, DW_AT_TI_symbol_name("_rsvd1")
    1448                      .dwattr $C$DW$110, DW_AT_bit_offset(0x00)
    1449                      .dwattr $C$DW$110, DW_AT_bit_size(0x04)
    1450                      .dwattr $C$DW$110, DW_AT_data_member_location[DW_OP_plus_uconst 0x0]
    1451                      .dwattr $C$DW$110, DW_AT_accessibility(DW_ACCESS_public)
    1452              
    1453                      .dwendtag $C$DW$T$34
    1454              
    1455              
    1456              $C$DW$T$35      .dwtag  DW_TAG_union_type
    1457                      .dwattr $C$DW$T$35, DW_AT_name("AQCTLA_REG")
    1458                      .dwattr $C$DW$T$35, DW_AT_byte_size(0x01)
    1459              $C$DW$111       .dwtag  DW_TAG_member
    1460                      .dwattr $C$DW$111, DW_AT_type(*$C$DW$T$29)
    1461                      .dwattr $C$DW$111, DW_AT_name("all")
    1462                      .dwattr $C$DW$111, DW_AT_TI_symbol_name("_all")
    1463                      .dwattr $C$DW$111, DW_AT_data_member_location[DW_OP_plus_uconst 0x0]
    1464                      .dwattr $C$DW$111, DW_AT_accessibility(DW_ACCESS_public)
    1465              
    1466              $C$DW$112       .dwtag  DW_TAG_member
    1467                      .dwattr $C$DW$112, DW_AT_type(*$C$DW$T$34)
    1468                      .dwattr $C$DW$112, DW_AT_name("bit")
    1469                      .dwattr $C$DW$112, DW_AT_TI_symbol_name("_bit")
    1470                      .dwattr $C$DW$112, DW_AT_data_member_location[DW_OP_plus_uconst 0x0]
    1471                      .dwattr $C$DW$112, DW_AT_accessibility(DW_ACCESS_public)
    1472              
    1473                      .dwendtag $C$DW$T$35
    1474              
    1475              
    1476              $C$DW$T$36      .dwtag  DW_TAG_structure_type
    1477                      .dwattr $C$DW$T$36, DW_AT_name("AQCTLB2_BITS")
    1478                      .dwattr $C$DW$T$36, DW_AT_byte_size(0x01)
    1479              $C$DW$113       .dwtag  DW_TAG_member
    1480                      .dwattr $C$DW$113, DW_AT_type(*$C$DW$T$29)
    1481                      .dwattr $C$DW$113, DW_AT_name("T1U")
    1482                      .dwattr $C$DW$113, DW_AT_TI_symbol_name("_T1U")
    1483                      .dwattr $C$DW$113, DW_AT_bit_offset(0x0e)
    1484                      .dwattr $C$DW$113, DW_AT_bit_size(0x02)
    1485                      .dwattr $C$DW$113, DW_AT_data_member_location[DW_OP_plus_uconst 0x0]
    1486                      .dwattr $C$DW$113, DW_AT_accessibility(DW_ACCESS_public)
    1487              
    1488              $C$DW$114       .dwtag  DW_TAG_member
    1489                      .dwattr $C$DW$114, DW_AT_type(*$C$DW$T$29)
    1490                      .dwattr $C$DW$114, DW_AT_name("T1D")
    1491                      .dwattr $C$DW$114, DW_AT_TI_symbol_name("_T1D")
    1492                      .dwattr $C$DW$114, DW_AT_bit_offset(0x0c)
    1493                      .dwattr $C$DW$114, DW_AT_bit_size(0x02)
    1494                      .dwattr $C$DW$114, DW_AT_data_member_location[DW_OP_plus_uconst 0x0]
    1495                      .dwattr $C$DW$114, DW_AT_accessibility(DW_ACCESS_public)
    1496              
    1497              $C$DW$115       .dwtag  DW_TAG_member
    1498                      .dwattr $C$DW$115, DW_AT_type(*$C$DW$T$29)
    1499                      .dwattr $C$DW$115, DW_AT_name("T2U")
    1500                      .dwattr $C$DW$115, DW_AT_TI_symbol_name("_T2U")
    1501                      .dwattr $C$DW$115, DW_AT_bit_offset(0x0a)
TMS320C2000 Assembler PC v20.2.1 Wed Oct  7 22:14:25 2020

Copyright (c) 1996-2018 Texas Instruments Incorporated
bissc.asm                                                            PAGE   30

    1502                      .dwattr $C$DW$115, DW_AT_bit_size(0x02)
    1503                      .dwattr $C$DW$115, DW_AT_data_member_location[DW_OP_plus_uconst 0x0]
    1504                      .dwattr $C$DW$115, DW_AT_accessibility(DW_ACCESS_public)
    1505              
    1506              $C$DW$116       .dwtag  DW_TAG_member
    1507                      .dwattr $C$DW$116, DW_AT_type(*$C$DW$T$29)
    1508                      .dwattr $C$DW$116, DW_AT_name("T2D")
    1509                      .dwattr $C$DW$116, DW_AT_TI_symbol_name("_T2D")
    1510                      .dwattr $C$DW$116, DW_AT_bit_offset(0x08)
    1511                      .dwattr $C$DW$116, DW_AT_bit_size(0x02)
    1512                      .dwattr $C$DW$116, DW_AT_data_member_location[DW_OP_plus_uconst 0x0]
    1513                      .dwattr $C$DW$116, DW_AT_accessibility(DW_ACCESS_public)
    1514              
    1515              $C$DW$117       .dwtag  DW_TAG_member
    1516                      .dwattr $C$DW$117, DW_AT_type(*$C$DW$T$29)
    1517                      .dwattr $C$DW$117, DW_AT_name("rsvd1")
    1518                      .dwattr $C$DW$117, DW_AT_TI_symbol_name("_rsvd1")
    1519                      .dwattr $C$DW$117, DW_AT_bit_offset(0x00)
    1520                      .dwattr $C$DW$117, DW_AT_bit_size(0x08)
    1521                      .dwattr $C$DW$117, DW_AT_data_member_location[DW_OP_plus_uconst 0x0]
    1522                      .dwattr $C$DW$117, DW_AT_accessibility(DW_ACCESS_public)
    1523              
    1524                      .dwendtag $C$DW$T$36
    1525              
    1526              
    1527              $C$DW$T$37      .dwtag  DW_TAG_union_type
    1528                      .dwattr $C$DW$T$37, DW_AT_name("AQCTLB2_REG")
    1529                      .dwattr $C$DW$T$37, DW_AT_byte_size(0x01)
    1530              $C$DW$118       .dwtag  DW_TAG_member
    1531                      .dwattr $C$DW$118, DW_AT_type(*$C$DW$T$29)
    1532                      .dwattr $C$DW$118, DW_AT_name("all")
    1533                      .dwattr $C$DW$118, DW_AT_TI_symbol_name("_all")
    1534                      .dwattr $C$DW$118, DW_AT_data_member_location[DW_OP_plus_uconst 0x0]
    1535                      .dwattr $C$DW$118, DW_AT_accessibility(DW_ACCESS_public)
    1536              
    1537              $C$DW$119       .dwtag  DW_TAG_member
    1538                      .dwattr $C$DW$119, DW_AT_type(*$C$DW$T$36)
    1539                      .dwattr $C$DW$119, DW_AT_name("bit")
    1540                      .dwattr $C$DW$119, DW_AT_TI_symbol_name("_bit")
    1541                      .dwattr $C$DW$119, DW_AT_data_member_location[DW_OP_plus_uconst 0x0]
    1542                      .dwattr $C$DW$119, DW_AT_accessibility(DW_ACCESS_public)
    1543              
    1544                      .dwendtag $C$DW$T$37
    1545              
    1546              
    1547              $C$DW$T$38      .dwtag  DW_TAG_structure_type
    1548                      .dwattr $C$DW$T$38, DW_AT_name("AQCTLB_BITS")
    1549                      .dwattr $C$DW$T$38, DW_AT_byte_size(0x01)
    1550              $C$DW$120       .dwtag  DW_TAG_member
    1551                      .dwattr $C$DW$120, DW_AT_type(*$C$DW$T$29)
    1552                      .dwattr $C$DW$120, DW_AT_name("ZRO")
    1553                      .dwattr $C$DW$120, DW_AT_TI_symbol_name("_ZRO")
    1554                      .dwattr $C$DW$120, DW_AT_bit_offset(0x0e)
    1555                      .dwattr $C$DW$120, DW_AT_bit_size(0x02)
    1556                      .dwattr $C$DW$120, DW_AT_data_member_location[DW_OP_plus_uconst 0x0]
TMS320C2000 Assembler PC v20.2.1 Wed Oct  7 22:14:25 2020

Copyright (c) 1996-2018 Texas Instruments Incorporated
bissc.asm                                                            PAGE   31

    1557                      .dwattr $C$DW$120, DW_AT_accessibility(DW_ACCESS_public)
    1558              
    1559              $C$DW$121       .dwtag  DW_TAG_member
    1560                      .dwattr $C$DW$121, DW_AT_type(*$C$DW$T$29)
    1561                      .dwattr $C$DW$121, DW_AT_name("PRD")
    1562                      .dwattr $C$DW$121, DW_AT_TI_symbol_name("_PRD")
    1563                      .dwattr $C$DW$121, DW_AT_bit_offset(0x0c)
    1564                      .dwattr $C$DW$121, DW_AT_bit_size(0x02)
    1565                      .dwattr $C$DW$121, DW_AT_data_member_location[DW_OP_plus_uconst 0x0]
    1566                      .dwattr $C$DW$121, DW_AT_accessibility(DW_ACCESS_public)
    1567              
    1568              $C$DW$122       .dwtag  DW_TAG_member
    1569                      .dwattr $C$DW$122, DW_AT_type(*$C$DW$T$29)
    1570                      .dwattr $C$DW$122, DW_AT_name("CAU")
    1571                      .dwattr $C$DW$122, DW_AT_TI_symbol_name("_CAU")
    1572                      .dwattr $C$DW$122, DW_AT_bit_offset(0x0a)
    1573                      .dwattr $C$DW$122, DW_AT_bit_size(0x02)
    1574                      .dwattr $C$DW$122, DW_AT_data_member_location[DW_OP_plus_uconst 0x0]
    1575                      .dwattr $C$DW$122, DW_AT_accessibility(DW_ACCESS_public)
    1576              
    1577              $C$DW$123       .dwtag  DW_TAG_member
    1578                      .dwattr $C$DW$123, DW_AT_type(*$C$DW$T$29)
    1579                      .dwattr $C$DW$123, DW_AT_name("CAD")
    1580                      .dwattr $C$DW$123, DW_AT_TI_symbol_name("_CAD")
    1581                      .dwattr $C$DW$123, DW_AT_bit_offset(0x08)
    1582                      .dwattr $C$DW$123, DW_AT_bit_size(0x02)
    1583                      .dwattr $C$DW$123, DW_AT_data_member_location[DW_OP_plus_uconst 0x0]
    1584                      .dwattr $C$DW$123, DW_AT_accessibility(DW_ACCESS_public)
    1585              
    1586              $C$DW$124       .dwtag  DW_TAG_member
    1587                      .dwattr $C$DW$124, DW_AT_type(*$C$DW$T$29)
    1588                      .dwattr $C$DW$124, DW_AT_name("CBU")
    1589                      .dwattr $C$DW$124, DW_AT_TI_symbol_name("_CBU")
    1590                      .dwattr $C$DW$124, DW_AT_bit_offset(0x06)
    1591                      .dwattr $C$DW$124, DW_AT_bit_size(0x02)
    1592                      .dwattr $C$DW$124, DW_AT_data_member_location[DW_OP_plus_uconst 0x0]
    1593                      .dwattr $C$DW$124, DW_AT_accessibility(DW_ACCESS_public)
    1594              
    1595              $C$DW$125       .dwtag  DW_TAG_member
    1596                      .dwattr $C$DW$125, DW_AT_type(*$C$DW$T$29)
    1597                      .dwattr $C$DW$125, DW_AT_name("CBD")
    1598                      .dwattr $C$DW$125, DW_AT_TI_symbol_name("_CBD")
    1599                      .dwattr $C$DW$125, DW_AT_bit_offset(0x04)
    1600                      .dwattr $C$DW$125, DW_AT_bit_size(0x02)
    1601                      .dwattr $C$DW$125, DW_AT_data_member_location[DW_OP_plus_uconst 0x0]
    1602                      .dwattr $C$DW$125, DW_AT_accessibility(DW_ACCESS_public)
    1603              
    1604              $C$DW$126       .dwtag  DW_TAG_member
    1605                      .dwattr $C$DW$126, DW_AT_type(*$C$DW$T$29)
    1606                      .dwattr $C$DW$126, DW_AT_name("rsvd1")
    1607                      .dwattr $C$DW$126, DW_AT_TI_symbol_name("_rsvd1")
    1608                      .dwattr $C$DW$126, DW_AT_bit_offset(0x00)
    1609                      .dwattr $C$DW$126, DW_AT_bit_size(0x04)
    1610                      .dwattr $C$DW$126, DW_AT_data_member_location[DW_OP_plus_uconst 0x0]
    1611                      .dwattr $C$DW$126, DW_AT_accessibility(DW_ACCESS_public)
TMS320C2000 Assembler PC v20.2.1 Wed Oct  7 22:14:25 2020

Copyright (c) 1996-2018 Texas Instruments Incorporated
bissc.asm                                                            PAGE   32

    1612              
    1613                      .dwendtag $C$DW$T$38
    1614              
    1615              
    1616              $C$DW$T$39      .dwtag  DW_TAG_union_type
    1617                      .dwattr $C$DW$T$39, DW_AT_name("AQCTLB_REG")
    1618                      .dwattr $C$DW$T$39, DW_AT_byte_size(0x01)
    1619              $C$DW$127       .dwtag  DW_TAG_member
    1620                      .dwattr $C$DW$127, DW_AT_type(*$C$DW$T$29)
    1621                      .dwattr $C$DW$127, DW_AT_name("all")
    1622                      .dwattr $C$DW$127, DW_AT_TI_symbol_name("_all")
    1623                      .dwattr $C$DW$127, DW_AT_data_member_location[DW_OP_plus_uconst 0x0]
    1624                      .dwattr $C$DW$127, DW_AT_accessibility(DW_ACCESS_public)
    1625              
    1626              $C$DW$128       .dwtag  DW_TAG_member
    1627                      .dwattr $C$DW$128, DW_AT_type(*$C$DW$T$38)
    1628                      .dwattr $C$DW$128, DW_AT_name("bit")
    1629                      .dwattr $C$DW$128, DW_AT_TI_symbol_name("_bit")
    1630                      .dwattr $C$DW$128, DW_AT_data_member_location[DW_OP_plus_uconst 0x0]
    1631                      .dwattr $C$DW$128, DW_AT_accessibility(DW_ACCESS_public)
    1632              
    1633                      .dwendtag $C$DW$T$39
    1634              
    1635              
    1636              $C$DW$T$40      .dwtag  DW_TAG_structure_type
    1637                      .dwattr $C$DW$T$40, DW_AT_name("AQCTL_BITS")
    1638                      .dwattr $C$DW$T$40, DW_AT_byte_size(0x01)
    1639              $C$DW$129       .dwtag  DW_TAG_member
    1640                      .dwattr $C$DW$129, DW_AT_type(*$C$DW$T$29)
    1641                      .dwattr $C$DW$129, DW_AT_name("LDAQAMODE")
    1642                      .dwattr $C$DW$129, DW_AT_TI_symbol_name("_LDAQAMODE")
    1643                      .dwattr $C$DW$129, DW_AT_bit_offset(0x0e)
    1644                      .dwattr $C$DW$129, DW_AT_bit_size(0x02)
    1645                      .dwattr $C$DW$129, DW_AT_data_member_location[DW_OP_plus_uconst 0x0]
    1646                      .dwattr $C$DW$129, DW_AT_accessibility(DW_ACCESS_public)
    1647              
    1648              $C$DW$130       .dwtag  DW_TAG_member
    1649                      .dwattr $C$DW$130, DW_AT_type(*$C$DW$T$29)
    1650                      .dwattr $C$DW$130, DW_AT_name("LDAQBMODE")
    1651                      .dwattr $C$DW$130, DW_AT_TI_symbol_name("_LDAQBMODE")
    1652                      .dwattr $C$DW$130, DW_AT_bit_offset(0x0c)
    1653                      .dwattr $C$DW$130, DW_AT_bit_size(0x02)
    1654                      .dwattr $C$DW$130, DW_AT_data_member_location[DW_OP_plus_uconst 0x0]
    1655                      .dwattr $C$DW$130, DW_AT_accessibility(DW_ACCESS_public)
    1656              
    1657              $C$DW$131       .dwtag  DW_TAG_member
    1658                      .dwattr $C$DW$131, DW_AT_type(*$C$DW$T$29)
    1659                      .dwattr $C$DW$131, DW_AT_name("SHDWAQAMODE")
    1660                      .dwattr $C$DW$131, DW_AT_TI_symbol_name("_SHDWAQAMODE")
    1661                      .dwattr $C$DW$131, DW_AT_bit_offset(0x0b)
    1662                      .dwattr $C$DW$131, DW_AT_bit_size(0x01)
    1663                      .dwattr $C$DW$131, DW_AT_data_member_location[DW_OP_plus_uconst 0x0]
    1664                      .dwattr $C$DW$131, DW_AT_accessibility(DW_ACCESS_public)
    1665              
    1666              $C$DW$132       .dwtag  DW_TAG_member
TMS320C2000 Assembler PC v20.2.1 Wed Oct  7 22:14:25 2020

Copyright (c) 1996-2018 Texas Instruments Incorporated
bissc.asm                                                            PAGE   33

    1667                      .dwattr $C$DW$132, DW_AT_type(*$C$DW$T$29)
    1668                      .dwattr $C$DW$132, DW_AT_name("rsvd1")
    1669                      .dwattr $C$DW$132, DW_AT_TI_symbol_name("_rsvd1")
    1670                      .dwattr $C$DW$132, DW_AT_bit_offset(0x0a)
    1671                      .dwattr $C$DW$132, DW_AT_bit_size(0x01)
    1672                      .dwattr $C$DW$132, DW_AT_data_member_location[DW_OP_plus_uconst 0x0]
    1673                      .dwattr $C$DW$132, DW_AT_accessibility(DW_ACCESS_public)
    1674              
    1675              $C$DW$133       .dwtag  DW_TAG_member
    1676                      .dwattr $C$DW$133, DW_AT_type(*$C$DW$T$29)
    1677                      .dwattr $C$DW$133, DW_AT_name("SHDWAQBMODE")
    1678                      .dwattr $C$DW$133, DW_AT_TI_symbol_name("_SHDWAQBMODE")
    1679                      .dwattr $C$DW$133, DW_AT_bit_offset(0x09)
    1680                      .dwattr $C$DW$133, DW_AT_bit_size(0x01)
    1681                      .dwattr $C$DW$133, DW_AT_data_member_location[DW_OP_plus_uconst 0x0]
    1682                      .dwattr $C$DW$133, DW_AT_accessibility(DW_ACCESS_public)
    1683              
    1684              $C$DW$134       .dwtag  DW_TAG_member
    1685                      .dwattr $C$DW$134, DW_AT_type(*$C$DW$T$29)
    1686                      .dwattr $C$DW$134, DW_AT_name("rsvd2")
    1687                      .dwattr $C$DW$134, DW_AT_TI_symbol_name("_rsvd2")
    1688                      .dwattr $C$DW$134, DW_AT_bit_offset(0x08)
    1689                      .dwattr $C$DW$134, DW_AT_bit_size(0x01)
    1690                      .dwattr $C$DW$134, DW_AT_data_member_location[DW_OP_plus_uconst 0x0]
    1691                      .dwattr $C$DW$134, DW_AT_accessibility(DW_ACCESS_public)
    1692              
    1693              $C$DW$135       .dwtag  DW_TAG_member
    1694                      .dwattr $C$DW$135, DW_AT_type(*$C$DW$T$29)
    1695                      .dwattr $C$DW$135, DW_AT_name("LDAQASYNC")
    1696                      .dwattr $C$DW$135, DW_AT_TI_symbol_name("_LDAQASYNC")
    1697                      .dwattr $C$DW$135, DW_AT_bit_offset(0x06)
    1698                      .dwattr $C$DW$135, DW_AT_bit_size(0x02)
    1699                      .dwattr $C$DW$135, DW_AT_data_member_location[DW_OP_plus_uconst 0x0]
    1700                      .dwattr $C$DW$135, DW_AT_accessibility(DW_ACCESS_public)
    1701              
    1702              $C$DW$136       .dwtag  DW_TAG_member
    1703                      .dwattr $C$DW$136, DW_AT_type(*$C$DW$T$29)
    1704                      .dwattr $C$DW$136, DW_AT_name("LDAQBSYNC")
    1705                      .dwattr $C$DW$136, DW_AT_TI_symbol_name("_LDAQBSYNC")
    1706                      .dwattr $C$DW$136, DW_AT_bit_offset(0x04)
    1707                      .dwattr $C$DW$136, DW_AT_bit_size(0x02)
    1708                      .dwattr $C$DW$136, DW_AT_data_member_location[DW_OP_plus_uconst 0x0]
    1709                      .dwattr $C$DW$136, DW_AT_accessibility(DW_ACCESS_public)
    1710              
    1711              $C$DW$137       .dwtag  DW_TAG_member
    1712                      .dwattr $C$DW$137, DW_AT_type(*$C$DW$T$29)
    1713                      .dwattr $C$DW$137, DW_AT_name("rsvd3")
    1714                      .dwattr $C$DW$137, DW_AT_TI_symbol_name("_rsvd3")
    1715                      .dwattr $C$DW$137, DW_AT_bit_offset(0x00)
    1716                      .dwattr $C$DW$137, DW_AT_bit_size(0x04)
    1717                      .dwattr $C$DW$137, DW_AT_data_member_location[DW_OP_plus_uconst 0x0]
    1718                      .dwattr $C$DW$137, DW_AT_accessibility(DW_ACCESS_public)
    1719              
    1720                      .dwendtag $C$DW$T$40
    1721              
TMS320C2000 Assembler PC v20.2.1 Wed Oct  7 22:14:25 2020

Copyright (c) 1996-2018 Texas Instruments Incorporated
bissc.asm                                                            PAGE   34

    1722              
    1723              $C$DW$T$41      .dwtag  DW_TAG_union_type
    1724                      .dwattr $C$DW$T$41, DW_AT_name("AQCTL_REG")
    1725                      .dwattr $C$DW$T$41, DW_AT_byte_size(0x01)
    1726              $C$DW$138       .dwtag  DW_TAG_member
    1727                      .dwattr $C$DW$138, DW_AT_type(*$C$DW$T$29)
    1728                      .dwattr $C$DW$138, DW_AT_name("all")
    1729                      .dwattr $C$DW$138, DW_AT_TI_symbol_name("_all")
    1730                      .dwattr $C$DW$138, DW_AT_data_member_location[DW_OP_plus_uconst 0x0]
    1731                      .dwattr $C$DW$138, DW_AT_accessibility(DW_ACCESS_public)
    1732              
    1733              $C$DW$139       .dwtag  DW_TAG_member
    1734                      .dwattr $C$DW$139, DW_AT_type(*$C$DW$T$40)
    1735                      .dwattr $C$DW$139, DW_AT_name("bit")
    1736                      .dwattr $C$DW$139, DW_AT_TI_symbol_name("_bit")
    1737                      .dwattr $C$DW$139, DW_AT_data_member_location[DW_OP_plus_uconst 0x0]
    1738                      .dwattr $C$DW$139, DW_AT_accessibility(DW_ACCESS_public)
    1739              
    1740                      .dwendtag $C$DW$T$41
    1741              
    1742              
    1743              $C$DW$T$42      .dwtag  DW_TAG_structure_type
    1744                      .dwattr $C$DW$T$42, DW_AT_name("AQSFRC_BITS")
    1745                      .dwattr $C$DW$T$42, DW_AT_byte_size(0x01)
    1746              $C$DW$140       .dwtag  DW_TAG_member
    1747                      .dwattr $C$DW$140, DW_AT_type(*$C$DW$T$29)
    1748                      .dwattr $C$DW$140, DW_AT_name("ACTSFA")
    1749                      .dwattr $C$DW$140, DW_AT_TI_symbol_name("_ACTSFA")
    1750                      .dwattr $C$DW$140, DW_AT_bit_offset(0x0e)
    1751                      .dwattr $C$DW$140, DW_AT_bit_size(0x02)
    1752                      .dwattr $C$DW$140, DW_AT_data_member_location[DW_OP_plus_uconst 0x0]
    1753                      .dwattr $C$DW$140, DW_AT_accessibility(DW_ACCESS_public)
    1754              
    1755              $C$DW$141       .dwtag  DW_TAG_member
    1756                      .dwattr $C$DW$141, DW_AT_type(*$C$DW$T$29)
    1757                      .dwattr $C$DW$141, DW_AT_name("OTSFA")
    1758                      .dwattr $C$DW$141, DW_AT_TI_symbol_name("_OTSFA")
    1759                      .dwattr $C$DW$141, DW_AT_bit_offset(0x0d)
    1760                      .dwattr $C$DW$141, DW_AT_bit_size(0x01)
    1761                      .dwattr $C$DW$141, DW_AT_data_member_location[DW_OP_plus_uconst 0x0]
    1762                      .dwattr $C$DW$141, DW_AT_accessibility(DW_ACCESS_public)
    1763              
    1764              $C$DW$142       .dwtag  DW_TAG_member
    1765                      .dwattr $C$DW$142, DW_AT_type(*$C$DW$T$29)
    1766                      .dwattr $C$DW$142, DW_AT_name("ACTSFB")
    1767                      .dwattr $C$DW$142, DW_AT_TI_symbol_name("_ACTSFB")
    1768                      .dwattr $C$DW$142, DW_AT_bit_offset(0x0b)
    1769                      .dwattr $C$DW$142, DW_AT_bit_size(0x02)
    1770                      .dwattr $C$DW$142, DW_AT_data_member_location[DW_OP_plus_uconst 0x0]
    1771                      .dwattr $C$DW$142, DW_AT_accessibility(DW_ACCESS_public)
    1772              
    1773              $C$DW$143       .dwtag  DW_TAG_member
    1774                      .dwattr $C$DW$143, DW_AT_type(*$C$DW$T$29)
    1775                      .dwattr $C$DW$143, DW_AT_name("OTSFB")
    1776                      .dwattr $C$DW$143, DW_AT_TI_symbol_name("_OTSFB")
TMS320C2000 Assembler PC v20.2.1 Wed Oct  7 22:14:25 2020

Copyright (c) 1996-2018 Texas Instruments Incorporated
bissc.asm                                                            PAGE   35

    1777                      .dwattr $C$DW$143, DW_AT_bit_offset(0x0a)
    1778                      .dwattr $C$DW$143, DW_AT_bit_size(0x01)
    1779                      .dwattr $C$DW$143, DW_AT_data_member_location[DW_OP_plus_uconst 0x0]
    1780                      .dwattr $C$DW$143, DW_AT_accessibility(DW_ACCESS_public)
    1781              
    1782              $C$DW$144       .dwtag  DW_TAG_member
    1783                      .dwattr $C$DW$144, DW_AT_type(*$C$DW$T$29)
    1784                      .dwattr $C$DW$144, DW_AT_name("RLDCSF")
    1785                      .dwattr $C$DW$144, DW_AT_TI_symbol_name("_RLDCSF")
    1786                      .dwattr $C$DW$144, DW_AT_bit_offset(0x08)
    1787                      .dwattr $C$DW$144, DW_AT_bit_size(0x02)
    1788                      .dwattr $C$DW$144, DW_AT_data_member_location[DW_OP_plus_uconst 0x0]
    1789                      .dwattr $C$DW$144, DW_AT_accessibility(DW_ACCESS_public)
    1790              
    1791              $C$DW$145       .dwtag  DW_TAG_member
    1792                      .dwattr $C$DW$145, DW_AT_type(*$C$DW$T$29)
    1793                      .dwattr $C$DW$145, DW_AT_name("rsvd1")
    1794                      .dwattr $C$DW$145, DW_AT_TI_symbol_name("_rsvd1")
    1795                      .dwattr $C$DW$145, DW_AT_bit_offset(0x00)
    1796                      .dwattr $C$DW$145, DW_AT_bit_size(0x08)
    1797                      .dwattr $C$DW$145, DW_AT_data_member_location[DW_OP_plus_uconst 0x0]
    1798                      .dwattr $C$DW$145, DW_AT_accessibility(DW_ACCESS_public)
    1799              
    1800                      .dwendtag $C$DW$T$42
    1801              
    1802              
    1803              $C$DW$T$43      .dwtag  DW_TAG_union_type
    1804                      .dwattr $C$DW$T$43, DW_AT_name("AQSFRC_REG")
    1805                      .dwattr $C$DW$T$43, DW_AT_byte_size(0x01)
    1806              $C$DW$146       .dwtag  DW_TAG_member
    1807                      .dwattr $C$DW$146, DW_AT_type(*$C$DW$T$29)
    1808                      .dwattr $C$DW$146, DW_AT_name("all")
    1809                      .dwattr $C$DW$146, DW_AT_TI_symbol_name("_all")
    1810                      .dwattr $C$DW$146, DW_AT_data_member_location[DW_OP_plus_uconst 0x0]
    1811                      .dwattr $C$DW$146, DW_AT_accessibility(DW_ACCESS_public)
    1812              
    1813              $C$DW$147       .dwtag  DW_TAG_member
    1814                      .dwattr $C$DW$147, DW_AT_type(*$C$DW$T$42)
    1815                      .dwattr $C$DW$147, DW_AT_name("bit")
    1816                      .dwattr $C$DW$147, DW_AT_TI_symbol_name("_bit")
    1817                      .dwattr $C$DW$147, DW_AT_data_member_location[DW_OP_plus_uconst 0x0]
    1818                      .dwattr $C$DW$147, DW_AT_accessibility(DW_ACCESS_public)
    1819              
    1820                      .dwendtag $C$DW$T$43
    1821              
    1822              
    1823              $C$DW$T$44      .dwtag  DW_TAG_structure_type
    1824                      .dwattr $C$DW$T$44, DW_AT_name("AQTSRCSEL_BITS")
    1825                      .dwattr $C$DW$T$44, DW_AT_byte_size(0x01)
    1826              $C$DW$148       .dwtag  DW_TAG_member
    1827                      .dwattr $C$DW$148, DW_AT_type(*$C$DW$T$29)
    1828                      .dwattr $C$DW$148, DW_AT_name("T1SEL")
    1829                      .dwattr $C$DW$148, DW_AT_TI_symbol_name("_T1SEL")
    1830                      .dwattr $C$DW$148, DW_AT_bit_offset(0x0c)
    1831                      .dwattr $C$DW$148, DW_AT_bit_size(0x04)
TMS320C2000 Assembler PC v20.2.1 Wed Oct  7 22:14:25 2020

Copyright (c) 1996-2018 Texas Instruments Incorporated
bissc.asm                                                            PAGE   36

    1832                      .dwattr $C$DW$148, DW_AT_data_member_location[DW_OP_plus_uconst 0x0]
    1833                      .dwattr $C$DW$148, DW_AT_accessibility(DW_ACCESS_public)
    1834              
    1835              $C$DW$149       .dwtag  DW_TAG_member
    1836                      .dwattr $C$DW$149, DW_AT_type(*$C$DW$T$29)
    1837                      .dwattr $C$DW$149, DW_AT_name("T2SEL")
    1838                      .dwattr $C$DW$149, DW_AT_TI_symbol_name("_T2SEL")
    1839                      .dwattr $C$DW$149, DW_AT_bit_offset(0x08)
    1840                      .dwattr $C$DW$149, DW_AT_bit_size(0x04)
    1841                      .dwattr $C$DW$149, DW_AT_data_member_location[DW_OP_plus_uconst 0x0]
    1842                      .dwattr $C$DW$149, DW_AT_accessibility(DW_ACCESS_public)
    1843              
    1844              $C$DW$150       .dwtag  DW_TAG_member
    1845                      .dwattr $C$DW$150, DW_AT_type(*$C$DW$T$29)
    1846                      .dwattr $C$DW$150, DW_AT_name("rsvd1")
    1847                      .dwattr $C$DW$150, DW_AT_TI_symbol_name("_rsvd1")
    1848                      .dwattr $C$DW$150, DW_AT_bit_offset(0x00)
    1849                      .dwattr $C$DW$150, DW_AT_bit_size(0x08)
    1850                      .dwattr $C$DW$150, DW_AT_data_member_location[DW_OP_plus_uconst 0x0]
    1851                      .dwattr $C$DW$150, DW_AT_accessibility(DW_ACCESS_public)
    1852              
    1853                      .dwendtag $C$DW$T$44
    1854              
    1855              
    1856              $C$DW$T$45      .dwtag  DW_TAG_union_type
    1857                      .dwattr $C$DW$T$45, DW_AT_name("AQTSRCSEL_REG")
    1858                      .dwattr $C$DW$T$45, DW_AT_byte_size(0x01)
    1859              $C$DW$151       .dwtag  DW_TAG_member
    1860                      .dwattr $C$DW$151, DW_AT_type(*$C$DW$T$29)
    1861                      .dwattr $C$DW$151, DW_AT_name("all")
    1862                      .dwattr $C$DW$151, DW_AT_TI_symbol_name("_all")
    1863                      .dwattr $C$DW$151, DW_AT_data_member_location[DW_OP_plus_uconst 0x0]
    1864                      .dwattr $C$DW$151, DW_AT_accessibility(DW_ACCESS_public)
    1865              
    1866              $C$DW$152       .dwtag  DW_TAG_member
    1867                      .dwattr $C$DW$152, DW_AT_type(*$C$DW$T$44)
    1868                      .dwattr $C$DW$152, DW_AT_name("bit")
    1869                      .dwattr $C$DW$152, DW_AT_TI_symbol_name("_bit")
    1870                      .dwattr $C$DW$152, DW_AT_data_member_location[DW_OP_plus_uconst 0x0]
    1871                      .dwattr $C$DW$152, DW_AT_accessibility(DW_ACCESS_public)
    1872              
    1873                      .dwendtag $C$DW$T$45
    1874              
    1875              
    1876              $C$DW$T$46      .dwtag  DW_TAG_structure_type
    1877                      .dwattr $C$DW$T$46, DW_AT_name("CMPA_BITS")
    1878                      .dwattr $C$DW$T$46, DW_AT_byte_size(0x02)
    1879              $C$DW$153       .dwtag  DW_TAG_member
    1880                      .dwattr $C$DW$153, DW_AT_type(*$C$DW$T$29)
    1881                      .dwattr $C$DW$153, DW_AT_name("CMPAHR")
    1882                      .dwattr $C$DW$153, DW_AT_TI_symbol_name("_CMPAHR")
    1883                      .dwattr $C$DW$153, DW_AT_bit_offset(0x00)
    1884                      .dwattr $C$DW$153, DW_AT_bit_size(0x10)
    1885                      .dwattr $C$DW$153, DW_AT_data_member_location[DW_OP_plus_uconst 0x0]
    1886                      .dwattr $C$DW$153, DW_AT_accessibility(DW_ACCESS_public)
TMS320C2000 Assembler PC v20.2.1 Wed Oct  7 22:14:25 2020

Copyright (c) 1996-2018 Texas Instruments Incorporated
bissc.asm                                                            PAGE   37

    1887              
    1888              $C$DW$154       .dwtag  DW_TAG_member
    1889                      .dwattr $C$DW$154, DW_AT_type(*$C$DW$T$29)
    1890                      .dwattr $C$DW$154, DW_AT_name("CMPA")
    1891                      .dwattr $C$DW$154, DW_AT_TI_symbol_name("_CMPA")
    1892                      .dwattr $C$DW$154, DW_AT_bit_offset(0x00)
    1893                      .dwattr $C$DW$154, DW_AT_bit_size(0x10)
    1894                      .dwattr $C$DW$154, DW_AT_data_member_location[DW_OP_plus_uconst 0x1]
    1895                      .dwattr $C$DW$154, DW_AT_accessibility(DW_ACCESS_public)
    1896              
    1897                      .dwendtag $C$DW$T$46
    1898              
    1899              
    1900              $C$DW$T$48      .dwtag  DW_TAG_union_type
    1901                      .dwattr $C$DW$T$48, DW_AT_name("CMPA_REG")
    1902                      .dwattr $C$DW$T$48, DW_AT_byte_size(0x02)
    1903              $C$DW$155       .dwtag  DW_TAG_member
    1904                      .dwattr $C$DW$155, DW_AT_type(*$C$DW$T$47)
    1905                      .dwattr $C$DW$155, DW_AT_name("all")
    1906                      .dwattr $C$DW$155, DW_AT_TI_symbol_name("_all")
    1907                      .dwattr $C$DW$155, DW_AT_data_member_location[DW_OP_plus_uconst 0x0]
    1908                      .dwattr $C$DW$155, DW_AT_accessibility(DW_ACCESS_public)
    1909              
    1910              $C$DW$156       .dwtag  DW_TAG_member
    1911                      .dwattr $C$DW$156, DW_AT_type(*$C$DW$T$46)
    1912                      .dwattr $C$DW$156, DW_AT_name("bit")
    1913                      .dwattr $C$DW$156, DW_AT_TI_symbol_name("_bit")
    1914                      .dwattr $C$DW$156, DW_AT_data_member_location[DW_OP_plus_uconst 0x0]
    1915                      .dwattr $C$DW$156, DW_AT_accessibility(DW_ACCESS_public)
    1916              
    1917                      .dwendtag $C$DW$T$48
    1918              
    1919              
    1920              $C$DW$T$49      .dwtag  DW_TAG_structure_type
    1921                      .dwattr $C$DW$T$49, DW_AT_name("CMPB_BITS")
    1922                      .dwattr $C$DW$T$49, DW_AT_byte_size(0x02)
    1923              $C$DW$157       .dwtag  DW_TAG_member
    1924                      .dwattr $C$DW$157, DW_AT_type(*$C$DW$T$29)
    1925                      .dwattr $C$DW$157, DW_AT_name("CMPBHR")
    1926                      .dwattr $C$DW$157, DW_AT_TI_symbol_name("_CMPBHR")
    1927                      .dwattr $C$DW$157, DW_AT_bit_offset(0x00)
    1928                      .dwattr $C$DW$157, DW_AT_bit_size(0x10)
    1929                      .dwattr $C$DW$157, DW_AT_data_member_location[DW_OP_plus_uconst 0x0]
    1930                      .dwattr $C$DW$157, DW_AT_accessibility(DW_ACCESS_public)
    1931              
    1932              $C$DW$158       .dwtag  DW_TAG_member
    1933                      .dwattr $C$DW$158, DW_AT_type(*$C$DW$T$29)
    1934                      .dwattr $C$DW$158, DW_AT_name("CMPB")
    1935                      .dwattr $C$DW$158, DW_AT_TI_symbol_name("_CMPB")
    1936                      .dwattr $C$DW$158, DW_AT_bit_offset(0x00)
    1937                      .dwattr $C$DW$158, DW_AT_bit_size(0x10)
    1938                      .dwattr $C$DW$158, DW_AT_data_member_location[DW_OP_plus_uconst 0x1]
    1939                      .dwattr $C$DW$158, DW_AT_accessibility(DW_ACCESS_public)
    1940              
    1941                      .dwendtag $C$DW$T$49
TMS320C2000 Assembler PC v20.2.1 Wed Oct  7 22:14:25 2020

Copyright (c) 1996-2018 Texas Instruments Incorporated
bissc.asm                                                            PAGE   38

    1942              
    1943              
    1944              $C$DW$T$50      .dwtag  DW_TAG_union_type
    1945                      .dwattr $C$DW$T$50, DW_AT_name("CMPB_REG")
    1946                      .dwattr $C$DW$T$50, DW_AT_byte_size(0x02)
    1947              $C$DW$159       .dwtag  DW_TAG_member
    1948                      .dwattr $C$DW$159, DW_AT_type(*$C$DW$T$47)
    1949                      .dwattr $C$DW$159, DW_AT_name("all")
    1950                      .dwattr $C$DW$159, DW_AT_TI_symbol_name("_all")
    1951                      .dwattr $C$DW$159, DW_AT_data_member_location[DW_OP_plus_uconst 0x0]
    1952                      .dwattr $C$DW$159, DW_AT_accessibility(DW_ACCESS_public)
    1953              
    1954              $C$DW$160       .dwtag  DW_TAG_member
    1955                      .dwattr $C$DW$160, DW_AT_type(*$C$DW$T$49)
    1956                      .dwattr $C$DW$160, DW_AT_name("bit")
    1957                      .dwattr $C$DW$160, DW_AT_TI_symbol_name("_bit")
    1958                      .dwattr $C$DW$160, DW_AT_data_member_location[DW_OP_plus_uconst 0x0]
    1959                      .dwattr $C$DW$160, DW_AT_accessibility(DW_ACCESS_public)
    1960              
    1961                      .dwendtag $C$DW$T$50
    1962              
    1963              
    1964              $C$DW$T$51      .dwtag  DW_TAG_structure_type
    1965                      .dwattr $C$DW$T$51, DW_AT_name("CMPCTL2_BITS")
    1966                      .dwattr $C$DW$T$51, DW_AT_byte_size(0x01)
    1967              $C$DW$161       .dwtag  DW_TAG_member
    1968                      .dwattr $C$DW$161, DW_AT_type(*$C$DW$T$29)
    1969                      .dwattr $C$DW$161, DW_AT_name("LOADCMODE")
    1970                      .dwattr $C$DW$161, DW_AT_TI_symbol_name("_LOADCMODE")
    1971                      .dwattr $C$DW$161, DW_AT_bit_offset(0x0e)
    1972                      .dwattr $C$DW$161, DW_AT_bit_size(0x02)
    1973                      .dwattr $C$DW$161, DW_AT_data_member_location[DW_OP_plus_uconst 0x0]
    1974                      .dwattr $C$DW$161, DW_AT_accessibility(DW_ACCESS_public)
    1975              
    1976              $C$DW$162       .dwtag  DW_TAG_member
    1977                      .dwattr $C$DW$162, DW_AT_type(*$C$DW$T$29)
    1978                      .dwattr $C$DW$162, DW_AT_name("LOADDMODE")
    1979                      .dwattr $C$DW$162, DW_AT_TI_symbol_name("_LOADDMODE")
    1980                      .dwattr $C$DW$162, DW_AT_bit_offset(0x0c)
    1981                      .dwattr $C$DW$162, DW_AT_bit_size(0x02)
    1982                      .dwattr $C$DW$162, DW_AT_data_member_location[DW_OP_plus_uconst 0x0]
    1983                      .dwattr $C$DW$162, DW_AT_accessibility(DW_ACCESS_public)
    1984              
    1985              $C$DW$163       .dwtag  DW_TAG_member
    1986                      .dwattr $C$DW$163, DW_AT_type(*$C$DW$T$29)
    1987                      .dwattr $C$DW$163, DW_AT_name("SHDWCMODE")
    1988                      .dwattr $C$DW$163, DW_AT_TI_symbol_name("_SHDWCMODE")
    1989                      .dwattr $C$DW$163, DW_AT_bit_offset(0x0b)
    1990                      .dwattr $C$DW$163, DW_AT_bit_size(0x01)
    1991                      .dwattr $C$DW$163, DW_AT_data_member_location[DW_OP_plus_uconst 0x0]
    1992                      .dwattr $C$DW$163, DW_AT_accessibility(DW_ACCESS_public)
    1993              
    1994              $C$DW$164       .dwtag  DW_TAG_member
    1995                      .dwattr $C$DW$164, DW_AT_type(*$C$DW$T$29)
    1996                      .dwattr $C$DW$164, DW_AT_name("rsvd1")
TMS320C2000 Assembler PC v20.2.1 Wed Oct  7 22:14:25 2020

Copyright (c) 1996-2018 Texas Instruments Incorporated
bissc.asm                                                            PAGE   39

    1997                      .dwattr $C$DW$164, DW_AT_TI_symbol_name("_rsvd1")
    1998                      .dwattr $C$DW$164, DW_AT_bit_offset(0x0a)
    1999                      .dwattr $C$DW$164, DW_AT_bit_size(0x01)
    2000                      .dwattr $C$DW$164, DW_AT_data_member_location[DW_OP_plus_uconst 0x0]
    2001                      .dwattr $C$DW$164, DW_AT_accessibility(DW_ACCESS_public)
    2002              
    2003              $C$DW$165       .dwtag  DW_TAG_member
    2004                      .dwattr $C$DW$165, DW_AT_type(*$C$DW$T$29)
    2005                      .dwattr $C$DW$165, DW_AT_name("SHDWDMODE")
    2006                      .dwattr $C$DW$165, DW_AT_TI_symbol_name("_SHDWDMODE")
    2007                      .dwattr $C$DW$165, DW_AT_bit_offset(0x09)
    2008                      .dwattr $C$DW$165, DW_AT_bit_size(0x01)
    2009                      .dwattr $C$DW$165, DW_AT_data_member_location[DW_OP_plus_uconst 0x0]
    2010                      .dwattr $C$DW$165, DW_AT_accessibility(DW_ACCESS_public)
    2011              
    2012              $C$DW$166       .dwtag  DW_TAG_member
    2013                      .dwattr $C$DW$166, DW_AT_type(*$C$DW$T$29)
    2014                      .dwattr $C$DW$166, DW_AT_name("rsvd2")
    2015                      .dwattr $C$DW$166, DW_AT_TI_symbol_name("_rsvd2")
    2016                      .dwattr $C$DW$166, DW_AT_bit_offset(0x06)
    2017                      .dwattr $C$DW$166, DW_AT_bit_size(0x03)
    2018                      .dwattr $C$DW$166, DW_AT_data_member_location[DW_OP_plus_uconst 0x0]
    2019                      .dwattr $C$DW$166, DW_AT_accessibility(DW_ACCESS_public)
    2020              
    2021              $C$DW$167       .dwtag  DW_TAG_member
    2022                      .dwattr $C$DW$167, DW_AT_type(*$C$DW$T$29)
    2023                      .dwattr $C$DW$167, DW_AT_name("LOADCSYNC")
    2024                      .dwattr $C$DW$167, DW_AT_TI_symbol_name("_LOADCSYNC")
    2025                      .dwattr $C$DW$167, DW_AT_bit_offset(0x04)
    2026                      .dwattr $C$DW$167, DW_AT_bit_size(0x02)
    2027                      .dwattr $C$DW$167, DW_AT_data_member_location[DW_OP_plus_uconst 0x0]
    2028                      .dwattr $C$DW$167, DW_AT_accessibility(DW_ACCESS_public)
    2029              
    2030              $C$DW$168       .dwtag  DW_TAG_member
    2031                      .dwattr $C$DW$168, DW_AT_type(*$C$DW$T$29)
    2032                      .dwattr $C$DW$168, DW_AT_name("LOADDSYNC")
    2033                      .dwattr $C$DW$168, DW_AT_TI_symbol_name("_LOADDSYNC")
    2034                      .dwattr $C$DW$168, DW_AT_bit_offset(0x02)
    2035                      .dwattr $C$DW$168, DW_AT_bit_size(0x02)
    2036                      .dwattr $C$DW$168, DW_AT_data_member_location[DW_OP_plus_uconst 0x0]
    2037                      .dwattr $C$DW$168, DW_AT_accessibility(DW_ACCESS_public)
    2038              
    2039              $C$DW$169       .dwtag  DW_TAG_member
    2040                      .dwattr $C$DW$169, DW_AT_type(*$C$DW$T$29)
    2041                      .dwattr $C$DW$169, DW_AT_name("rsvd3")
    2042                      .dwattr $C$DW$169, DW_AT_TI_symbol_name("_rsvd3")
    2043                      .dwattr $C$DW$169, DW_AT_bit_offset(0x00)
    2044                      .dwattr $C$DW$169, DW_AT_bit_size(0x02)
    2045                      .dwattr $C$DW$169, DW_AT_data_member_location[DW_OP_plus_uconst 0x0]
    2046                      .dwattr $C$DW$169, DW_AT_accessibility(DW_ACCESS_public)
    2047              
    2048                      .dwendtag $C$DW$T$51
    2049              
    2050              
    2051              $C$DW$T$52      .dwtag  DW_TAG_union_type
TMS320C2000 Assembler PC v20.2.1 Wed Oct  7 22:14:25 2020

Copyright (c) 1996-2018 Texas Instruments Incorporated
bissc.asm                                                            PAGE   40

    2052                      .dwattr $C$DW$T$52, DW_AT_name("CMPCTL2_REG")
    2053                      .dwattr $C$DW$T$52, DW_AT_byte_size(0x01)
    2054              $C$DW$170       .dwtag  DW_TAG_member
    2055                      .dwattr $C$DW$170, DW_AT_type(*$C$DW$T$29)
    2056                      .dwattr $C$DW$170, DW_AT_name("all")
    2057                      .dwattr $C$DW$170, DW_AT_TI_symbol_name("_all")
    2058                      .dwattr $C$DW$170, DW_AT_data_member_location[DW_OP_plus_uconst 0x0]
    2059                      .dwattr $C$DW$170, DW_AT_accessibility(DW_ACCESS_public)
    2060              
    2061              $C$DW$171       .dwtag  DW_TAG_member
    2062                      .dwattr $C$DW$171, DW_AT_type(*$C$DW$T$51)
    2063                      .dwattr $C$DW$171, DW_AT_name("bit")
    2064                      .dwattr $C$DW$171, DW_AT_TI_symbol_name("_bit")
    2065                      .dwattr $C$DW$171, DW_AT_data_member_location[DW_OP_plus_uconst 0x0]
    2066                      .dwattr $C$DW$171, DW_AT_accessibility(DW_ACCESS_public)
    2067              
    2068                      .dwendtag $C$DW$T$52
    2069              
    2070              
    2071              $C$DW$T$53      .dwtag  DW_TAG_structure_type
    2072                      .dwattr $C$DW$T$53, DW_AT_name("CMPCTL_BITS")
    2073                      .dwattr $C$DW$T$53, DW_AT_byte_size(0x01)
    2074              $C$DW$172       .dwtag  DW_TAG_member
    2075                      .dwattr $C$DW$172, DW_AT_type(*$C$DW$T$29)
    2076                      .dwattr $C$DW$172, DW_AT_name("LOADAMODE")
    2077                      .dwattr $C$DW$172, DW_AT_TI_symbol_name("_LOADAMODE")
    2078                      .dwattr $C$DW$172, DW_AT_bit_offset(0x0e)
    2079                      .dwattr $C$DW$172, DW_AT_bit_size(0x02)
    2080                      .dwattr $C$DW$172, DW_AT_data_member_location[DW_OP_plus_uconst 0x0]
    2081                      .dwattr $C$DW$172, DW_AT_accessibility(DW_ACCESS_public)
    2082              
    2083              $C$DW$173       .dwtag  DW_TAG_member
    2084                      .dwattr $C$DW$173, DW_AT_type(*$C$DW$T$29)
    2085                      .dwattr $C$DW$173, DW_AT_name("LOADBMODE")
    2086                      .dwattr $C$DW$173, DW_AT_TI_symbol_name("_LOADBMODE")
    2087                      .dwattr $C$DW$173, DW_AT_bit_offset(0x0c)
    2088                      .dwattr $C$DW$173, DW_AT_bit_size(0x02)
    2089                      .dwattr $C$DW$173, DW_AT_data_member_location[DW_OP_plus_uconst 0x0]
    2090                      .dwattr $C$DW$173, DW_AT_accessibility(DW_ACCESS_public)
    2091              
    2092              $C$DW$174       .dwtag  DW_TAG_member
    2093                      .dwattr $C$DW$174, DW_AT_type(*$C$DW$T$29)
    2094                      .dwattr $C$DW$174, DW_AT_name("SHDWAMODE")
    2095                      .dwattr $C$DW$174, DW_AT_TI_symbol_name("_SHDWAMODE")
    2096                      .dwattr $C$DW$174, DW_AT_bit_offset(0x0b)
    2097                      .dwattr $C$DW$174, DW_AT_bit_size(0x01)
    2098                      .dwattr $C$DW$174, DW_AT_data_member_location[DW_OP_plus_uconst 0x0]
    2099                      .dwattr $C$DW$174, DW_AT_accessibility(DW_ACCESS_public)
    2100              
    2101              $C$DW$175       .dwtag  DW_TAG_member
    2102                      .dwattr $C$DW$175, DW_AT_type(*$C$DW$T$29)
    2103                      .dwattr $C$DW$175, DW_AT_name("rsvd1")
    2104                      .dwattr $C$DW$175, DW_AT_TI_symbol_name("_rsvd1")
    2105                      .dwattr $C$DW$175, DW_AT_bit_offset(0x0a)
    2106                      .dwattr $C$DW$175, DW_AT_bit_size(0x01)
TMS320C2000 Assembler PC v20.2.1 Wed Oct  7 22:14:25 2020

Copyright (c) 1996-2018 Texas Instruments Incorporated
bissc.asm                                                            PAGE   41

    2107                      .dwattr $C$DW$175, DW_AT_data_member_location[DW_OP_plus_uconst 0x0]
    2108                      .dwattr $C$DW$175, DW_AT_accessibility(DW_ACCESS_public)
    2109              
    2110              $C$DW$176       .dwtag  DW_TAG_member
    2111                      .dwattr $C$DW$176, DW_AT_type(*$C$DW$T$29)
    2112                      .dwattr $C$DW$176, DW_AT_name("SHDWBMODE")
    2113                      .dwattr $C$DW$176, DW_AT_TI_symbol_name("_SHDWBMODE")
    2114                      .dwattr $C$DW$176, DW_AT_bit_offset(0x09)
    2115                      .dwattr $C$DW$176, DW_AT_bit_size(0x01)
    2116                      .dwattr $C$DW$176, DW_AT_data_member_location[DW_OP_plus_uconst 0x0]
    2117                      .dwattr $C$DW$176, DW_AT_accessibility(DW_ACCESS_public)
    2118              
    2119              $C$DW$177       .dwtag  DW_TAG_member
    2120                      .dwattr $C$DW$177, DW_AT_type(*$C$DW$T$29)
    2121                      .dwattr $C$DW$177, DW_AT_name("rsvd2")
    2122                      .dwattr $C$DW$177, DW_AT_TI_symbol_name("_rsvd2")
    2123                      .dwattr $C$DW$177, DW_AT_bit_offset(0x08)
    2124                      .dwattr $C$DW$177, DW_AT_bit_size(0x01)
    2125                      .dwattr $C$DW$177, DW_AT_data_member_location[DW_OP_plus_uconst 0x0]
    2126                      .dwattr $C$DW$177, DW_AT_accessibility(DW_ACCESS_public)
    2127              
    2128              $C$DW$178       .dwtag  DW_TAG_member
    2129                      .dwattr $C$DW$178, DW_AT_type(*$C$DW$T$29)
    2130                      .dwattr $C$DW$178, DW_AT_name("SHDWAFULL")
    2131                      .dwattr $C$DW$178, DW_AT_TI_symbol_name("_SHDWAFULL")
    2132                      .dwattr $C$DW$178, DW_AT_bit_offset(0x07)
    2133                      .dwattr $C$DW$178, DW_AT_bit_size(0x01)
    2134                      .dwattr $C$DW$178, DW_AT_data_member_location[DW_OP_plus_uconst 0x0]
    2135                      .dwattr $C$DW$178, DW_AT_accessibility(DW_ACCESS_public)
    2136              
    2137              $C$DW$179       .dwtag  DW_TAG_member
    2138                      .dwattr $C$DW$179, DW_AT_type(*$C$DW$T$29)
    2139                      .dwattr $C$DW$179, DW_AT_name("SHDWBFULL")
    2140                      .dwattr $C$DW$179, DW_AT_TI_symbol_name("_SHDWBFULL")
    2141                      .dwattr $C$DW$179, DW_AT_bit_offset(0x06)
    2142                      .dwattr $C$DW$179, DW_AT_bit_size(0x01)
    2143                      .dwattr $C$DW$179, DW_AT_data_member_location[DW_OP_plus_uconst 0x0]
    2144                      .dwattr $C$DW$179, DW_AT_accessibility(DW_ACCESS_public)
    2145              
    2146              $C$DW$180       .dwtag  DW_TAG_member
    2147                      .dwattr $C$DW$180, DW_AT_type(*$C$DW$T$29)
    2148                      .dwattr $C$DW$180, DW_AT_name("LOADASYNC")
    2149                      .dwattr $C$DW$180, DW_AT_TI_symbol_name("_LOADASYNC")
    2150                      .dwattr $C$DW$180, DW_AT_bit_offset(0x04)
    2151                      .dwattr $C$DW$180, DW_AT_bit_size(0x02)
    2152                      .dwattr $C$DW$180, DW_AT_data_member_location[DW_OP_plus_uconst 0x0]
    2153                      .dwattr $C$DW$180, DW_AT_accessibility(DW_ACCESS_public)
    2154              
    2155              $C$DW$181       .dwtag  DW_TAG_member
    2156                      .dwattr $C$DW$181, DW_AT_type(*$C$DW$T$29)
    2157                      .dwattr $C$DW$181, DW_AT_name("LOADBSYNC")
    2158                      .dwattr $C$DW$181, DW_AT_TI_symbol_name("_LOADBSYNC")
    2159                      .dwattr $C$DW$181, DW_AT_bit_offset(0x02)
    2160                      .dwattr $C$DW$181, DW_AT_bit_size(0x02)
    2161                      .dwattr $C$DW$181, DW_AT_data_member_location[DW_OP_plus_uconst 0x0]
TMS320C2000 Assembler PC v20.2.1 Wed Oct  7 22:14:25 2020

Copyright (c) 1996-2018 Texas Instruments Incorporated
bissc.asm                                                            PAGE   42

    2162                      .dwattr $C$DW$181, DW_AT_accessibility(DW_ACCESS_public)
    2163              
    2164              $C$DW$182       .dwtag  DW_TAG_member
    2165                      .dwattr $C$DW$182, DW_AT_type(*$C$DW$T$29)
    2166                      .dwattr $C$DW$182, DW_AT_name("rsvd3")
    2167                      .dwattr $C$DW$182, DW_AT_TI_symbol_name("_rsvd3")
    2168                      .dwattr $C$DW$182, DW_AT_bit_offset(0x00)
    2169                      .dwattr $C$DW$182, DW_AT_bit_size(0x02)
    2170                      .dwattr $C$DW$182, DW_AT_data_member_location[DW_OP_plus_uconst 0x0]
    2171                      .dwattr $C$DW$182, DW_AT_accessibility(DW_ACCESS_public)
    2172              
    2173                      .dwendtag $C$DW$T$53
    2174              
    2175              
    2176              $C$DW$T$54      .dwtag  DW_TAG_union_type
    2177                      .dwattr $C$DW$T$54, DW_AT_name("CMPCTL_REG")
    2178                      .dwattr $C$DW$T$54, DW_AT_byte_size(0x01)
    2179              $C$DW$183       .dwtag  DW_TAG_member
    2180                      .dwattr $C$DW$183, DW_AT_type(*$C$DW$T$29)
    2181                      .dwattr $C$DW$183, DW_AT_name("all")
    2182                      .dwattr $C$DW$183, DW_AT_TI_symbol_name("_all")
    2183                      .dwattr $C$DW$183, DW_AT_data_member_location[DW_OP_plus_uconst 0x0]
    2184                      .dwattr $C$DW$183, DW_AT_accessibility(DW_ACCESS_public)
    2185              
    2186              $C$DW$184       .dwtag  DW_TAG_member
    2187                      .dwattr $C$DW$184, DW_AT_type(*$C$DW$T$53)
    2188                      .dwattr $C$DW$184, DW_AT_name("bit")
    2189                      .dwattr $C$DW$184, DW_AT_TI_symbol_name("_bit")
    2190                      .dwattr $C$DW$184, DW_AT_data_member_location[DW_OP_plus_uconst 0x0]
    2191                      .dwattr $C$DW$184, DW_AT_accessibility(DW_ACCESS_public)
    2192              
    2193                      .dwendtag $C$DW$T$54
    2194              
    2195              
    2196              $C$DW$T$55      .dwtag  DW_TAG_structure_type
    2197                      .dwattr $C$DW$T$55, DW_AT_name("CPUSYSLOCK1_BITS")
    2198                      .dwattr $C$DW$T$55, DW_AT_byte_size(0x02)
    2199              $C$DW$185       .dwtag  DW_TAG_member
    2200                      .dwattr $C$DW$185, DW_AT_type(*$C$DW$T$29)
    2201                      .dwattr $C$DW$185, DW_AT_name("HIBBOOTMODE")
    2202                      .dwattr $C$DW$185, DW_AT_TI_symbol_name("_HIBBOOTMODE")
    2203                      .dwattr $C$DW$185, DW_AT_bit_offset(0x0f)
    2204                      .dwattr $C$DW$185, DW_AT_bit_size(0x01)
    2205                      .dwattr $C$DW$185, DW_AT_data_member_location[DW_OP_plus_uconst 0x0]
    2206                      .dwattr $C$DW$185, DW_AT_accessibility(DW_ACCESS_public)
    2207              
    2208              $C$DW$186       .dwtag  DW_TAG_member
    2209                      .dwattr $C$DW$186, DW_AT_type(*$C$DW$T$29)
    2210                      .dwattr $C$DW$186, DW_AT_name("IORESTOREADDR")
    2211                      .dwattr $C$DW$186, DW_AT_TI_symbol_name("_IORESTOREADDR")
    2212                      .dwattr $C$DW$186, DW_AT_bit_offset(0x0e)
    2213                      .dwattr $C$DW$186, DW_AT_bit_size(0x01)
    2214                      .dwattr $C$DW$186, DW_AT_data_member_location[DW_OP_plus_uconst 0x0]
    2215                      .dwattr $C$DW$186, DW_AT_accessibility(DW_ACCESS_public)
    2216              
TMS320C2000 Assembler PC v20.2.1 Wed Oct  7 22:14:25 2020

Copyright (c) 1996-2018 Texas Instruments Incorporated
bissc.asm                                                            PAGE   43

    2217              $C$DW$187       .dwtag  DW_TAG_member
    2218                      .dwattr $C$DW$187, DW_AT_type(*$C$DW$T$29)
    2219                      .dwattr $C$DW$187, DW_AT_name("PIEVERRADDR")
    2220                      .dwattr $C$DW$187, DW_AT_TI_symbol_name("_PIEVERRADDR")
    2221                      .dwattr $C$DW$187, DW_AT_bit_offset(0x0d)
    2222                      .dwattr $C$DW$187, DW_AT_bit_size(0x01)
    2223                      .dwattr $C$DW$187, DW_AT_data_member_location[DW_OP_plus_uconst 0x0]
    2224                      .dwattr $C$DW$187, DW_AT_accessibility(DW_ACCESS_public)
    2225              
    2226              $C$DW$188       .dwtag  DW_TAG_member
    2227                      .dwattr $C$DW$188, DW_AT_type(*$C$DW$T$29)
    2228                      .dwattr $C$DW$188, DW_AT_name("PCLKCR0")
    2229                      .dwattr $C$DW$188, DW_AT_TI_symbol_name("_PCLKCR0")
    2230                      .dwattr $C$DW$188, DW_AT_bit_offset(0x0c)
    2231                      .dwattr $C$DW$188, DW_AT_bit_size(0x01)
    2232                      .dwattr $C$DW$188, DW_AT_data_member_location[DW_OP_plus_uconst 0x0]
    2233                      .dwattr $C$DW$188, DW_AT_accessibility(DW_ACCESS_public)
    2234              
    2235              $C$DW$189       .dwtag  DW_TAG_member
    2236                      .dwattr $C$DW$189, DW_AT_type(*$C$DW$T$29)
    2237                      .dwattr $C$DW$189, DW_AT_name("PCLKCR1")
    2238                      .dwattr $C$DW$189, DW_AT_TI_symbol_name("_PCLKCR1")
    2239                      .dwattr $C$DW$189, DW_AT_bit_offset(0x0b)
    2240                      .dwattr $C$DW$189, DW_AT_bit_size(0x01)
    2241                      .dwattr $C$DW$189, DW_AT_data_member_location[DW_OP_plus_uconst 0x0]
    2242                      .dwattr $C$DW$189, DW_AT_accessibility(DW_ACCESS_public)
    2243              
    2244              $C$DW$190       .dwtag  DW_TAG_member
    2245                      .dwattr $C$DW$190, DW_AT_type(*$C$DW$T$29)
    2246                      .dwattr $C$DW$190, DW_AT_name("PCLKCR2")
    2247                      .dwattr $C$DW$190, DW_AT_TI_symbol_name("_PCLKCR2")
    2248                      .dwattr $C$DW$190, DW_AT_bit_offset(0x0a)
    2249                      .dwattr $C$DW$190, DW_AT_bit_size(0x01)
    2250                      .dwattr $C$DW$190, DW_AT_data_member_location[DW_OP_plus_uconst 0x0]
    2251                      .dwattr $C$DW$190, DW_AT_accessibility(DW_ACCESS_public)
    2252              
    2253              $C$DW$191       .dwtag  DW_TAG_member
    2254                      .dwattr $C$DW$191, DW_AT_type(*$C$DW$T$29)
    2255                      .dwattr $C$DW$191, DW_AT_name("PCLKCR3")
    2256                      .dwattr $C$DW$191, DW_AT_TI_symbol_name("_PCLKCR3")
    2257                      .dwattr $C$DW$191, DW_AT_bit_offset(0x09)
    2258                      .dwattr $C$DW$191, DW_AT_bit_size(0x01)
    2259                      .dwattr $C$DW$191, DW_AT_data_member_location[DW_OP_plus_uconst 0x0]
    2260                      .dwattr $C$DW$191, DW_AT_accessibility(DW_ACCESS_public)
    2261              
    2262              $C$DW$192       .dwtag  DW_TAG_member
    2263                      .dwattr $C$DW$192, DW_AT_type(*$C$DW$T$29)
    2264                      .dwattr $C$DW$192, DW_AT_name("PCLKCR4")
    2265                      .dwattr $C$DW$192, DW_AT_TI_symbol_name("_PCLKCR4")
    2266                      .dwattr $C$DW$192, DW_AT_bit_offset(0x08)
    2267                      .dwattr $C$DW$192, DW_AT_bit_size(0x01)
    2268                      .dwattr $C$DW$192, DW_AT_data_member_location[DW_OP_plus_uconst 0x0]
    2269                      .dwattr $C$DW$192, DW_AT_accessibility(DW_ACCESS_public)
    2270              
    2271              $C$DW$193       .dwtag  DW_TAG_member
TMS320C2000 Assembler PC v20.2.1 Wed Oct  7 22:14:25 2020

Copyright (c) 1996-2018 Texas Instruments Incorporated
bissc.asm                                                            PAGE   44

    2272                      .dwattr $C$DW$193, DW_AT_type(*$C$DW$T$29)
    2273                      .dwattr $C$DW$193, DW_AT_name("PCLKCR5")
    2274                      .dwattr $C$DW$193, DW_AT_TI_symbol_name("_PCLKCR5")
    2275                      .dwattr $C$DW$193, DW_AT_bit_offset(0x07)
    2276                      .dwattr $C$DW$193, DW_AT_bit_size(0x01)
    2277                      .dwattr $C$DW$193, DW_AT_data_member_location[DW_OP_plus_uconst 0x0]
    2278                      .dwattr $C$DW$193, DW_AT_accessibility(DW_ACCESS_public)
    2279              
    2280              $C$DW$194       .dwtag  DW_TAG_member
    2281                      .dwattr $C$DW$194, DW_AT_type(*$C$DW$T$29)
    2282                      .dwattr $C$DW$194, DW_AT_name("PCLKCR6")
    2283                      .dwattr $C$DW$194, DW_AT_TI_symbol_name("_PCLKCR6")
    2284                      .dwattr $C$DW$194, DW_AT_bit_offset(0x06)
    2285                      .dwattr $C$DW$194, DW_AT_bit_size(0x01)
    2286                      .dwattr $C$DW$194, DW_AT_data_member_location[DW_OP_plus_uconst 0x0]
    2287                      .dwattr $C$DW$194, DW_AT_accessibility(DW_ACCESS_public)
    2288              
    2289              $C$DW$195       .dwtag  DW_TAG_member
    2290                      .dwattr $C$DW$195, DW_AT_type(*$C$DW$T$29)
    2291                      .dwattr $C$DW$195, DW_AT_name("PCLKCR7")
    2292                      .dwattr $C$DW$195, DW_AT_TI_symbol_name("_PCLKCR7")
    2293                      .dwattr $C$DW$195, DW_AT_bit_offset(0x05)
    2294                      .dwattr $C$DW$195, DW_AT_bit_size(0x01)
    2295                      .dwattr $C$DW$195, DW_AT_data_member_location[DW_OP_plus_uconst 0x0]
    2296                      .dwattr $C$DW$195, DW_AT_accessibility(DW_ACCESS_public)
    2297              
    2298              $C$DW$196       .dwtag  DW_TAG_member
    2299                      .dwattr $C$DW$196, DW_AT_type(*$C$DW$T$29)
    2300                      .dwattr $C$DW$196, DW_AT_name("PCLKCR8")
    2301                      .dwattr $C$DW$196, DW_AT_TI_symbol_name("_PCLKCR8")
    2302                      .dwattr $C$DW$196, DW_AT_bit_offset(0x04)
    2303                      .dwattr $C$DW$196, DW_AT_bit_size(0x01)
    2304                      .dwattr $C$DW$196, DW_AT_data_member_location[DW_OP_plus_uconst 0x0]
    2305                      .dwattr $C$DW$196, DW_AT_accessibility(DW_ACCESS_public)
    2306              
    2307              $C$DW$197       .dwtag  DW_TAG_member
    2308                      .dwattr $C$DW$197, DW_AT_type(*$C$DW$T$29)
    2309                      .dwattr $C$DW$197, DW_AT_name("PCLKCR9")
    2310                      .dwattr $C$DW$197, DW_AT_TI_symbol_name("_PCLKCR9")
    2311                      .dwattr $C$DW$197, DW_AT_bit_offset(0x03)
    2312                      .dwattr $C$DW$197, DW_AT_bit_size(0x01)
    2313                      .dwattr $C$DW$197, DW_AT_data_member_location[DW_OP_plus_uconst 0x0]
    2314                      .dwattr $C$DW$197, DW_AT_accessibility(DW_ACCESS_public)
    2315              
    2316              $C$DW$198       .dwtag  DW_TAG_member
    2317                      .dwattr $C$DW$198, DW_AT_type(*$C$DW$T$29)
    2318                      .dwattr $C$DW$198, DW_AT_name("PCLKCR10")
    2319                      .dwattr $C$DW$198, DW_AT_TI_symbol_name("_PCLKCR10")
    2320                      .dwattr $C$DW$198, DW_AT_bit_offset(0x02)
    2321                      .dwattr $C$DW$198, DW_AT_bit_size(0x01)
    2322                      .dwattr $C$DW$198, DW_AT_data_member_location[DW_OP_plus_uconst 0x0]
    2323                      .dwattr $C$DW$198, DW_AT_accessibility(DW_ACCESS_public)
    2324              
    2325              $C$DW$199       .dwtag  DW_TAG_member
    2326                      .dwattr $C$DW$199, DW_AT_type(*$C$DW$T$29)
TMS320C2000 Assembler PC v20.2.1 Wed Oct  7 22:14:25 2020

Copyright (c) 1996-2018 Texas Instruments Incorporated
bissc.asm                                                            PAGE   45

    2327                      .dwattr $C$DW$199, DW_AT_name("PCLKCR11")
    2328                      .dwattr $C$DW$199, DW_AT_TI_symbol_name("_PCLKCR11")
    2329                      .dwattr $C$DW$199, DW_AT_bit_offset(0x01)
    2330                      .dwattr $C$DW$199, DW_AT_bit_size(0x01)
    2331                      .dwattr $C$DW$199, DW_AT_data_member_location[DW_OP_plus_uconst 0x0]
    2332                      .dwattr $C$DW$199, DW_AT_accessibility(DW_ACCESS_public)
    2333              
    2334              $C$DW$200       .dwtag  DW_TAG_member
    2335                      .dwattr $C$DW$200, DW_AT_type(*$C$DW$T$29)
    2336                      .dwattr $C$DW$200, DW_AT_name("PCLKCR12")
    2337                      .dwattr $C$DW$200, DW_AT_TI_symbol_name("_PCLKCR12")
    2338                      .dwattr $C$DW$200, DW_AT_bit_offset(0x00)
    2339                      .dwattr $C$DW$200, DW_AT_bit_size(0x01)
    2340                      .dwattr $C$DW$200, DW_AT_data_member_location[DW_OP_plus_uconst 0x0]
    2341                      .dwattr $C$DW$200, DW_AT_accessibility(DW_ACCESS_public)
    2342              
    2343              $C$DW$201       .dwtag  DW_TAG_member
    2344                      .dwattr $C$DW$201, DW_AT_type(*$C$DW$T$29)
    2345                      .dwattr $C$DW$201, DW_AT_name("PCLKCR13")
    2346                      .dwattr $C$DW$201, DW_AT_TI_symbol_name("_PCLKCR13")
    2347                      .dwattr $C$DW$201, DW_AT_bit_offset(0x0f)
    2348                      .dwattr $C$DW$201, DW_AT_bit_size(0x01)
    2349                      .dwattr $C$DW$201, DW_AT_data_member_location[DW_OP_plus_uconst 0x1]
    2350                      .dwattr $C$DW$201, DW_AT_accessibility(DW_ACCESS_public)
    2351              
    2352              $C$DW$202       .dwtag  DW_TAG_member
    2353                      .dwattr $C$DW$202, DW_AT_type(*$C$DW$T$29)
    2354                      .dwattr $C$DW$202, DW_AT_name("PCLKCR14")
    2355                      .dwattr $C$DW$202, DW_AT_TI_symbol_name("_PCLKCR14")
    2356                      .dwattr $C$DW$202, DW_AT_bit_offset(0x0e)
    2357                      .dwattr $C$DW$202, DW_AT_bit_size(0x01)
    2358                      .dwattr $C$DW$202, DW_AT_data_member_location[DW_OP_plus_uconst 0x1]
    2359                      .dwattr $C$DW$202, DW_AT_accessibility(DW_ACCESS_public)
    2360              
    2361              $C$DW$203       .dwtag  DW_TAG_member
    2362                      .dwattr $C$DW$203, DW_AT_type(*$C$DW$T$29)
    2363                      .dwattr $C$DW$203, DW_AT_name("PCLKCR15")
    2364                      .dwattr $C$DW$203, DW_AT_TI_symbol_name("_PCLKCR15")
    2365                      .dwattr $C$DW$203, DW_AT_bit_offset(0x0d)
    2366                      .dwattr $C$DW$203, DW_AT_bit_size(0x01)
    2367                      .dwattr $C$DW$203, DW_AT_data_member_location[DW_OP_plus_uconst 0x1]
    2368                      .dwattr $C$DW$203, DW_AT_accessibility(DW_ACCESS_public)
    2369              
    2370              $C$DW$204       .dwtag  DW_TAG_member
    2371                      .dwattr $C$DW$204, DW_AT_type(*$C$DW$T$29)
    2372                      .dwattr $C$DW$204, DW_AT_name("PCLKCR16")
    2373                      .dwattr $C$DW$204, DW_AT_TI_symbol_name("_PCLKCR16")
    2374                      .dwattr $C$DW$204, DW_AT_bit_offset(0x0c)
    2375                      .dwattr $C$DW$204, DW_AT_bit_size(0x01)
    2376                      .dwattr $C$DW$204, DW_AT_data_member_location[DW_OP_plus_uconst 0x1]
    2377                      .dwattr $C$DW$204, DW_AT_accessibility(DW_ACCESS_public)
    2378              
    2379              $C$DW$205       .dwtag  DW_TAG_member
    2380                      .dwattr $C$DW$205, DW_AT_type(*$C$DW$T$29)
    2381                      .dwattr $C$DW$205, DW_AT_name("SECMSEL")
TMS320C2000 Assembler PC v20.2.1 Wed Oct  7 22:14:25 2020

Copyright (c) 1996-2018 Texas Instruments Incorporated
bissc.asm                                                            PAGE   46

    2382                      .dwattr $C$DW$205, DW_AT_TI_symbol_name("_SECMSEL")
    2383                      .dwattr $C$DW$205, DW_AT_bit_offset(0x0b)
    2384                      .dwattr $C$DW$205, DW_AT_bit_size(0x01)
    2385                      .dwattr $C$DW$205, DW_AT_data_member_location[DW_OP_plus_uconst 0x1]
    2386                      .dwattr $C$DW$205, DW_AT_accessibility(DW_ACCESS_public)
    2387              
    2388              $C$DW$206       .dwtag  DW_TAG_member
    2389                      .dwattr $C$DW$206, DW_AT_type(*$C$DW$T$29)
    2390                      .dwattr $C$DW$206, DW_AT_name("LPMCR")
    2391                      .dwattr $C$DW$206, DW_AT_TI_symbol_name("_LPMCR")
    2392                      .dwattr $C$DW$206, DW_AT_bit_offset(0x0a)
    2393                      .dwattr $C$DW$206, DW_AT_bit_size(0x01)
    2394                      .dwattr $C$DW$206, DW_AT_data_member_location[DW_OP_plus_uconst 0x1]
    2395                      .dwattr $C$DW$206, DW_AT_accessibility(DW_ACCESS_public)
    2396              
    2397              $C$DW$207       .dwtag  DW_TAG_member
    2398                      .dwattr $C$DW$207, DW_AT_type(*$C$DW$T$29)
    2399                      .dwattr $C$DW$207, DW_AT_name("GPIOLPMSEL0")
    2400                      .dwattr $C$DW$207, DW_AT_TI_symbol_name("_GPIOLPMSEL0")
    2401                      .dwattr $C$DW$207, DW_AT_bit_offset(0x09)
    2402                      .dwattr $C$DW$207, DW_AT_bit_size(0x01)
    2403                      .dwattr $C$DW$207, DW_AT_data_member_location[DW_OP_plus_uconst 0x1]
    2404                      .dwattr $C$DW$207, DW_AT_accessibility(DW_ACCESS_public)
    2405              
    2406              $C$DW$208       .dwtag  DW_TAG_member
    2407                      .dwattr $C$DW$208, DW_AT_type(*$C$DW$T$29)
    2408                      .dwattr $C$DW$208, DW_AT_name("GPIOLPMSEL1")
    2409                      .dwattr $C$DW$208, DW_AT_TI_symbol_name("_GPIOLPMSEL1")
    2410                      .dwattr $C$DW$208, DW_AT_bit_offset(0x08)
    2411                      .dwattr $C$DW$208, DW_AT_bit_size(0x01)
    2412                      .dwattr $C$DW$208, DW_AT_data_member_location[DW_OP_plus_uconst 0x1]
    2413                      .dwattr $C$DW$208, DW_AT_accessibility(DW_ACCESS_public)
    2414              
    2415              $C$DW$209       .dwtag  DW_TAG_member
    2416                      .dwattr $C$DW$209, DW_AT_type(*$C$DW$T$29)
    2417                      .dwattr $C$DW$209, DW_AT_name("rsvd1")
    2418                      .dwattr $C$DW$209, DW_AT_TI_symbol_name("_rsvd1")
    2419                      .dwattr $C$DW$209, DW_AT_bit_offset(0x00)
    2420                      .dwattr $C$DW$209, DW_AT_bit_size(0x08)
    2421                      .dwattr $C$DW$209, DW_AT_data_member_location[DW_OP_plus_uconst 0x1]
    2422                      .dwattr $C$DW$209, DW_AT_accessibility(DW_ACCESS_public)
    2423              
    2424                      .dwendtag $C$DW$T$55
    2425              
    2426              
    2427              $C$DW$T$56      .dwtag  DW_TAG_union_type
    2428                      .dwattr $C$DW$T$56, DW_AT_name("CPUSYSLOCK1_REG")
    2429                      .dwattr $C$DW$T$56, DW_AT_byte_size(0x02)
    2430              $C$DW$210       .dwtag  DW_TAG_member
    2431                      .dwattr $C$DW$210, DW_AT_type(*$C$DW$T$47)
    2432                      .dwattr $C$DW$210, DW_AT_name("all")
    2433                      .dwattr $C$DW$210, DW_AT_TI_symbol_name("_all")
    2434                      .dwattr $C$DW$210, DW_AT_data_member_location[DW_OP_plus_uconst 0x0]
    2435                      .dwattr $C$DW$210, DW_AT_accessibility(DW_ACCESS_public)
    2436              
TMS320C2000 Assembler PC v20.2.1 Wed Oct  7 22:14:25 2020

Copyright (c) 1996-2018 Texas Instruments Incorporated
bissc.asm                                                            PAGE   47

    2437              $C$DW$211       .dwtag  DW_TAG_member
    2438                      .dwattr $C$DW$211, DW_AT_type(*$C$DW$T$55)
    2439                      .dwattr $C$DW$211, DW_AT_name("bit")
    2440                      .dwattr $C$DW$211, DW_AT_TI_symbol_name("_bit")
    2441                      .dwattr $C$DW$211, DW_AT_data_member_location[DW_OP_plus_uconst 0x0]
    2442                      .dwattr $C$DW$211, DW_AT_accessibility(DW_ACCESS_public)
    2443              
    2444                      .dwendtag $C$DW$T$56
    2445              
    2446              
    2447              $C$DW$T$61      .dwtag  DW_TAG_structure_type
    2448                      .dwattr $C$DW$T$61, DW_AT_name("CPU_SYS_REGS")
    2449                      .dwattr $C$DW$T$61, DW_AT_byte_size(0x82)
    2450              $C$DW$212       .dwtag  DW_TAG_member
    2451                      .dwattr $C$DW$212, DW_AT_type(*$C$DW$T$56)
    2452                      .dwattr $C$DW$212, DW_AT_name("CPUSYSLOCK1")
    2453                      .dwattr $C$DW$212, DW_AT_TI_symbol_name("_CPUSYSLOCK1")
    2454                      .dwattr $C$DW$212, DW_AT_data_member_location[DW_OP_plus_uconst 0x0]
    2455                      .dwattr $C$DW$212, DW_AT_accessibility(DW_ACCESS_public)
    2456              
    2457              $C$DW$213       .dwtag  DW_TAG_member
    2458                      .dwattr $C$DW$213, DW_AT_type(*$C$DW$T$57)
    2459                      .dwattr $C$DW$213, DW_AT_name("rsvd1")
    2460                      .dwattr $C$DW$213, DW_AT_TI_symbol_name("_rsvd1")
    2461                      .dwattr $C$DW$213, DW_AT_data_member_location[DW_OP_plus_uconst 0x2]
    2462                      .dwattr $C$DW$213, DW_AT_accessibility(DW_ACCESS_public)
    2463              
    2464              $C$DW$214       .dwtag  DW_TAG_member
    2465                      .dwattr $C$DW$214, DW_AT_type(*$C$DW$T$47)
    2466                      .dwattr $C$DW$214, DW_AT_name("HIBBOOTMODE")
    2467                      .dwattr $C$DW$214, DW_AT_TI_symbol_name("_HIBBOOTMODE")
    2468                      .dwattr $C$DW$214, DW_AT_data_member_location[DW_OP_plus_uconst 0x6]
    2469                      .dwattr $C$DW$214, DW_AT_accessibility(DW_ACCESS_public)
    2470              
    2471              $C$DW$215       .dwtag  DW_TAG_member
    2472                      .dwattr $C$DW$215, DW_AT_type(*$C$DW$T$388)
    2473                      .dwattr $C$DW$215, DW_AT_name("IORESTOREADDR")
    2474                      .dwattr $C$DW$215, DW_AT_TI_symbol_name("_IORESTOREADDR")
    2475                      .dwattr $C$DW$215, DW_AT_data_member_location[DW_OP_plus_uconst 0x8]
    2476                      .dwattr $C$DW$215, DW_AT_accessibility(DW_ACCESS_public)
    2477              
    2478              $C$DW$216       .dwtag  DW_TAG_member
    2479                      .dwattr $C$DW$216, DW_AT_type(*$C$DW$T$476)
    2480                      .dwattr $C$DW$216, DW_AT_name("PIEVERRADDR")
    2481                      .dwattr $C$DW$216, DW_AT_TI_symbol_name("_PIEVERRADDR")
    2482                      .dwattr $C$DW$216, DW_AT_data_member_location[DW_OP_plus_uconst 0xa]
    2483                      .dwattr $C$DW$216, DW_AT_accessibility(DW_ACCESS_public)
    2484              
    2485              $C$DW$217       .dwtag  DW_TAG_member
    2486                      .dwattr $C$DW$217, DW_AT_type(*$C$DW$T$58)
    2487                      .dwattr $C$DW$217, DW_AT_name("rsvd2")
    2488                      .dwattr $C$DW$217, DW_AT_TI_symbol_name("_rsvd2")
    2489                      .dwattr $C$DW$217, DW_AT_data_member_location[DW_OP_plus_uconst 0xc]
    2490                      .dwattr $C$DW$217, DW_AT_accessibility(DW_ACCESS_public)
    2491              
TMS320C2000 Assembler PC v20.2.1 Wed Oct  7 22:14:25 2020

Copyright (c) 1996-2018 Texas Instruments Incorporated
bissc.asm                                                            PAGE   48

    2492              $C$DW$218       .dwtag  DW_TAG_member
    2493                      .dwattr $C$DW$218, DW_AT_type(*$C$DW$T$394)
    2494                      .dwattr $C$DW$218, DW_AT_name("PCLKCR0")
    2495                      .dwattr $C$DW$218, DW_AT_TI_symbol_name("_PCLKCR0")
    2496                      .dwattr $C$DW$218, DW_AT_data_member_location[DW_OP_plus_uconst 0x22]
    2497                      .dwattr $C$DW$218, DW_AT_accessibility(DW_ACCESS_public)
    2498              
    2499              $C$DW$219       .dwtag  DW_TAG_member
    2500                      .dwattr $C$DW$219, DW_AT_type(*$C$DW$T$408)
    2501                      .dwattr $C$DW$219, DW_AT_name("PCLKCR1")
    2502                      .dwattr $C$DW$219, DW_AT_TI_symbol_name("_PCLKCR1")
    2503                      .dwattr $C$DW$219, DW_AT_data_member_location[DW_OP_plus_uconst 0x24]
    2504                      .dwattr $C$DW$219, DW_AT_accessibility(DW_ACCESS_public)
    2505              
    2506              $C$DW$220       .dwtag  DW_TAG_member
    2507                      .dwattr $C$DW$220, DW_AT_type(*$C$DW$T$410)
    2508                      .dwattr $C$DW$220, DW_AT_name("PCLKCR2")
    2509                      .dwattr $C$DW$220, DW_AT_TI_symbol_name("_PCLKCR2")
    2510                      .dwattr $C$DW$220, DW_AT_data_member_location[DW_OP_plus_uconst 0x26]
    2511                      .dwattr $C$DW$220, DW_AT_accessibility(DW_ACCESS_public)
    2512              
    2513              $C$DW$221       .dwtag  DW_TAG_member
    2514                      .dwattr $C$DW$221, DW_AT_type(*$C$DW$T$412)
    2515                      .dwattr $C$DW$221, DW_AT_name("PCLKCR3")
    2516                      .dwattr $C$DW$221, DW_AT_TI_symbol_name("_PCLKCR3")
    2517                      .dwattr $C$DW$221, DW_AT_data_member_location[DW_OP_plus_uconst 0x28]
    2518                      .dwattr $C$DW$221, DW_AT_accessibility(DW_ACCESS_public)
    2519              
    2520              $C$DW$222       .dwtag  DW_TAG_member
    2521                      .dwattr $C$DW$222, DW_AT_type(*$C$DW$T$414)
    2522                      .dwattr $C$DW$222, DW_AT_name("PCLKCR4")
    2523                      .dwattr $C$DW$222, DW_AT_TI_symbol_name("_PCLKCR4")
    2524                      .dwattr $C$DW$222, DW_AT_data_member_location[DW_OP_plus_uconst 0x2a]
    2525                      .dwattr $C$DW$222, DW_AT_accessibility(DW_ACCESS_public)
    2526              
    2527              $C$DW$223       .dwtag  DW_TAG_member
    2528                      .dwattr $C$DW$223, DW_AT_type(*$C$DW$T$59)
    2529                      .dwattr $C$DW$223, DW_AT_name("rsvd3")
    2530                      .dwattr $C$DW$223, DW_AT_TI_symbol_name("_rsvd3")
    2531                      .dwattr $C$DW$223, DW_AT_data_member_location[DW_OP_plus_uconst 0x2c]
    2532                      .dwattr $C$DW$223, DW_AT_accessibility(DW_ACCESS_public)
    2533              
    2534              $C$DW$224       .dwtag  DW_TAG_member
    2535                      .dwattr $C$DW$224, DW_AT_type(*$C$DW$T$416)
    2536                      .dwattr $C$DW$224, DW_AT_name("PCLKCR6")
    2537                      .dwattr $C$DW$224, DW_AT_TI_symbol_name("_PCLKCR6")
    2538                      .dwattr $C$DW$224, DW_AT_data_member_location[DW_OP_plus_uconst 0x2e]
    2539                      .dwattr $C$DW$224, DW_AT_accessibility(DW_ACCESS_public)
    2540              
    2541              $C$DW$225       .dwtag  DW_TAG_member
    2542                      .dwattr $C$DW$225, DW_AT_type(*$C$DW$T$418)
    2543                      .dwattr $C$DW$225, DW_AT_name("PCLKCR7")
    2544                      .dwattr $C$DW$225, DW_AT_TI_symbol_name("_PCLKCR7")
    2545                      .dwattr $C$DW$225, DW_AT_data_member_location[DW_OP_plus_uconst 0x30]
    2546                      .dwattr $C$DW$225, DW_AT_accessibility(DW_ACCESS_public)
TMS320C2000 Assembler PC v20.2.1 Wed Oct  7 22:14:25 2020

Copyright (c) 1996-2018 Texas Instruments Incorporated
bissc.asm                                                            PAGE   49

    2547              
    2548              $C$DW$226       .dwtag  DW_TAG_member
    2549                      .dwattr $C$DW$226, DW_AT_type(*$C$DW$T$420)
    2550                      .dwattr $C$DW$226, DW_AT_name("PCLKCR8")
    2551                      .dwattr $C$DW$226, DW_AT_TI_symbol_name("_PCLKCR8")
    2552                      .dwattr $C$DW$226, DW_AT_data_member_location[DW_OP_plus_uconst 0x32]
    2553                      .dwattr $C$DW$226, DW_AT_accessibility(DW_ACCESS_public)
    2554              
    2555              $C$DW$227       .dwtag  DW_TAG_member
    2556                      .dwattr $C$DW$227, DW_AT_type(*$C$DW$T$422)
    2557                      .dwattr $C$DW$227, DW_AT_name("PCLKCR9")
    2558                      .dwattr $C$DW$227, DW_AT_TI_symbol_name("_PCLKCR9")
    2559                      .dwattr $C$DW$227, DW_AT_data_member_location[DW_OP_plus_uconst 0x34]
    2560                      .dwattr $C$DW$227, DW_AT_accessibility(DW_ACCESS_public)
    2561              
    2562              $C$DW$228       .dwtag  DW_TAG_member
    2563                      .dwattr $C$DW$228, DW_AT_type(*$C$DW$T$396)
    2564                      .dwattr $C$DW$228, DW_AT_name("PCLKCR10")
    2565                      .dwattr $C$DW$228, DW_AT_TI_symbol_name("_PCLKCR10")
    2566                      .dwattr $C$DW$228, DW_AT_data_member_location[DW_OP_plus_uconst 0x36]
    2567                      .dwattr $C$DW$228, DW_AT_accessibility(DW_ACCESS_public)
    2568              
    2569              $C$DW$229       .dwtag  DW_TAG_member
    2570                      .dwattr $C$DW$229, DW_AT_type(*$C$DW$T$398)
    2571                      .dwattr $C$DW$229, DW_AT_name("PCLKCR11")
    2572                      .dwattr $C$DW$229, DW_AT_TI_symbol_name("_PCLKCR11")
    2573                      .dwattr $C$DW$229, DW_AT_data_member_location[DW_OP_plus_uconst 0x38]
    2574                      .dwattr $C$DW$229, DW_AT_accessibility(DW_ACCESS_public)
    2575              
    2576              $C$DW$230       .dwtag  DW_TAG_member
    2577                      .dwattr $C$DW$230, DW_AT_type(*$C$DW$T$400)
    2578                      .dwattr $C$DW$230, DW_AT_name("PCLKCR12")
    2579                      .dwattr $C$DW$230, DW_AT_TI_symbol_name("_PCLKCR12")
    2580                      .dwattr $C$DW$230, DW_AT_data_member_location[DW_OP_plus_uconst 0x3a]
    2581                      .dwattr $C$DW$230, DW_AT_accessibility(DW_ACCESS_public)
    2582              
    2583              $C$DW$231       .dwtag  DW_TAG_member
    2584                      .dwattr $C$DW$231, DW_AT_type(*$C$DW$T$402)
    2585                      .dwattr $C$DW$231, DW_AT_name("PCLKCR13")
    2586                      .dwattr $C$DW$231, DW_AT_TI_symbol_name("_PCLKCR13")
    2587                      .dwattr $C$DW$231, DW_AT_data_member_location[DW_OP_plus_uconst 0x3c]
    2588                      .dwattr $C$DW$231, DW_AT_accessibility(DW_ACCESS_public)
    2589              
    2590              $C$DW$232       .dwtag  DW_TAG_member
    2591                      .dwattr $C$DW$232, DW_AT_type(*$C$DW$T$404)
    2592                      .dwattr $C$DW$232, DW_AT_name("PCLKCR14")
    2593                      .dwattr $C$DW$232, DW_AT_TI_symbol_name("_PCLKCR14")
    2594                      .dwattr $C$DW$232, DW_AT_data_member_location[DW_OP_plus_uconst 0x3e]
    2595                      .dwattr $C$DW$232, DW_AT_accessibility(DW_ACCESS_public)
    2596              
    2597              $C$DW$233       .dwtag  DW_TAG_member
    2598                      .dwattr $C$DW$233, DW_AT_type(*$C$DW$T$59)
    2599                      .dwattr $C$DW$233, DW_AT_name("rsvd4")
    2600                      .dwattr $C$DW$233, DW_AT_TI_symbol_name("_rsvd4")
    2601                      .dwattr $C$DW$233, DW_AT_data_member_location[DW_OP_plus_uconst 0x40]
TMS320C2000 Assembler PC v20.2.1 Wed Oct  7 22:14:25 2020

Copyright (c) 1996-2018 Texas Instruments Incorporated
bissc.asm                                                            PAGE   50

    2602                      .dwattr $C$DW$233, DW_AT_accessibility(DW_ACCESS_public)
    2603              
    2604              $C$DW$234       .dwtag  DW_TAG_member
    2605                      .dwattr $C$DW$234, DW_AT_type(*$C$DW$T$406)
    2606                      .dwattr $C$DW$234, DW_AT_name("PCLKCR16")
    2607                      .dwattr $C$DW$234, DW_AT_TI_symbol_name("_PCLKCR16")
    2608                      .dwattr $C$DW$234, DW_AT_data_member_location[DW_OP_plus_uconst 0x42]
    2609                      .dwattr $C$DW$234, DW_AT_accessibility(DW_ACCESS_public)
    2610              
    2611              $C$DW$235       .dwtag  DW_TAG_member
    2612                      .dwattr $C$DW$235, DW_AT_type(*$C$DW$T$60)
    2613                      .dwattr $C$DW$235, DW_AT_name("rsvd5")
    2614                      .dwattr $C$DW$235, DW_AT_TI_symbol_name("_rsvd5")
    2615                      .dwattr $C$DW$235, DW_AT_data_member_location[DW_OP_plus_uconst 0x44]
    2616                      .dwattr $C$DW$235, DW_AT_accessibility(DW_ACCESS_public)
    2617              
    2618              $C$DW$236       .dwtag  DW_TAG_member
    2619                      .dwattr $C$DW$236, DW_AT_type(*$C$DW$T$485)
    2620                      .dwattr $C$DW$236, DW_AT_name("SECMSEL")
    2621                      .dwattr $C$DW$236, DW_AT_TI_symbol_name("_SECMSEL")
    2622                      .dwattr $C$DW$236, DW_AT_data_member_location[DW_OP_plus_uconst 0x74]
    2623                      .dwattr $C$DW$236, DW_AT_accessibility(DW_ACCESS_public)
    2624              
    2625              $C$DW$237       .dwtag  DW_TAG_member
    2626                      .dwattr $C$DW$237, DW_AT_type(*$C$DW$T$390)
    2627                      .dwattr $C$DW$237, DW_AT_name("LPMCR")
    2628                      .dwattr $C$DW$237, DW_AT_TI_symbol_name("_LPMCR")
    2629                      .dwattr $C$DW$237, DW_AT_data_member_location[DW_OP_plus_uconst 0x76]
    2630                      .dwattr $C$DW$237, DW_AT_accessibility(DW_ACCESS_public)
    2631              
    2632              $C$DW$238       .dwtag  DW_TAG_member
    2633                      .dwattr $C$DW$238, DW_AT_type(*$C$DW$T$367)
    2634                      .dwattr $C$DW$238, DW_AT_name("GPIOLPMSEL0")
    2635                      .dwattr $C$DW$238, DW_AT_TI_symbol_name("_GPIOLPMSEL0")
    2636                      .dwattr $C$DW$238, DW_AT_data_member_location[DW_OP_plus_uconst 0x78]
    2637                      .dwattr $C$DW$238, DW_AT_accessibility(DW_ACCESS_public)
    2638              
    2639              $C$DW$239       .dwtag  DW_TAG_member
    2640                      .dwattr $C$DW$239, DW_AT_type(*$C$DW$T$369)
    2641                      .dwattr $C$DW$239, DW_AT_name("GPIOLPMSEL1")
    2642                      .dwattr $C$DW$239, DW_AT_TI_symbol_name("_GPIOLPMSEL1")
    2643                      .dwattr $C$DW$239, DW_AT_data_member_location[DW_OP_plus_uconst 0x7a]
    2644                      .dwattr $C$DW$239, DW_AT_accessibility(DW_ACCESS_public)
    2645              
    2646              $C$DW$240       .dwtag  DW_TAG_member
    2647                      .dwattr $C$DW$240, DW_AT_type(*$C$DW$T$512)
    2648                      .dwattr $C$DW$240, DW_AT_name("TMR2CLKCTL")
    2649                      .dwattr $C$DW$240, DW_AT_TI_symbol_name("_TMR2CLKCTL")
    2650                      .dwattr $C$DW$240, DW_AT_data_member_location[DW_OP_plus_uconst 0x7c]
    2651                      .dwattr $C$DW$240, DW_AT_accessibility(DW_ACCESS_public)
    2652              
    2653              $C$DW$241       .dwtag  DW_TAG_member
    2654                      .dwattr $C$DW$241, DW_AT_type(*$C$DW$T$59)
    2655                      .dwattr $C$DW$241, DW_AT_name("rsvd6")
    2656                      .dwattr $C$DW$241, DW_AT_TI_symbol_name("_rsvd6")
TMS320C2000 Assembler PC v20.2.1 Wed Oct  7 22:14:25 2020

Copyright (c) 1996-2018 Texas Instruments Incorporated
bissc.asm                                                            PAGE   51

    2657                      .dwattr $C$DW$241, DW_AT_data_member_location[DW_OP_plus_uconst 0x7e]
    2658                      .dwattr $C$DW$241, DW_AT_accessibility(DW_ACCESS_public)
    2659              
    2660              $C$DW$242       .dwtag  DW_TAG_member
    2661                      .dwattr $C$DW$242, DW_AT_type(*$C$DW$T$483)
    2662                      .dwattr $C$DW$242, DW_AT_name("RESC")
    2663                      .dwattr $C$DW$242, DW_AT_TI_symbol_name("_RESC")
    2664                      .dwattr $C$DW$242, DW_AT_data_member_location[DW_OP_plus_uconst 0x80]
    2665                      .dwattr $C$DW$242, DW_AT_accessibility(DW_ACCESS_public)
    2666              
    2667                      .dwendtag $C$DW$T$61
    2668              
    2669              $C$DW$243       .dwtag  DW_TAG_TI_far_type
    2670                      .dwattr $C$DW$243, DW_AT_type(*$C$DW$T$61)
    2671              
    2672              $C$DW$T$543     .dwtag  DW_TAG_volatile_type
    2673                      .dwattr $C$DW$T$543, DW_AT_type(*$C$DW$243)
    2674              
    2675              
    2676              $C$DW$T$62      .dwtag  DW_TAG_structure_type
    2677                      .dwattr $C$DW$T$62, DW_AT_name("DBCTL2_BITS")
    2678                      .dwattr $C$DW$T$62, DW_AT_byte_size(0x01)
    2679              $C$DW$244       .dwtag  DW_TAG_member
    2680                      .dwattr $C$DW$244, DW_AT_type(*$C$DW$T$29)
    2681                      .dwattr $C$DW$244, DW_AT_name("LOADDBCTLMODE")
    2682                      .dwattr $C$DW$244, DW_AT_TI_symbol_name("_LOADDBCTLMODE")
    2683                      .dwattr $C$DW$244, DW_AT_bit_offset(0x0e)
    2684                      .dwattr $C$DW$244, DW_AT_bit_size(0x02)
    2685                      .dwattr $C$DW$244, DW_AT_data_member_location[DW_OP_plus_uconst 0x0]
    2686                      .dwattr $C$DW$244, DW_AT_accessibility(DW_ACCESS_public)
    2687              
    2688              $C$DW$245       .dwtag  DW_TAG_member
    2689                      .dwattr $C$DW$245, DW_AT_type(*$C$DW$T$29)
    2690                      .dwattr $C$DW$245, DW_AT_name("SHDWDBCTLMODE")
    2691                      .dwattr $C$DW$245, DW_AT_TI_symbol_name("_SHDWDBCTLMODE")
    2692                      .dwattr $C$DW$245, DW_AT_bit_offset(0x0d)
    2693                      .dwattr $C$DW$245, DW_AT_bit_size(0x01)
    2694                      .dwattr $C$DW$245, DW_AT_data_member_location[DW_OP_plus_uconst 0x0]
    2695                      .dwattr $C$DW$245, DW_AT_accessibility(DW_ACCESS_public)
    2696              
    2697              $C$DW$246       .dwtag  DW_TAG_member
    2698                      .dwattr $C$DW$246, DW_AT_type(*$C$DW$T$29)
    2699                      .dwattr $C$DW$246, DW_AT_name("rsvd1")
    2700                      .dwattr $C$DW$246, DW_AT_TI_symbol_name("_rsvd1")
    2701                      .dwattr $C$DW$246, DW_AT_bit_offset(0x00)
    2702                      .dwattr $C$DW$246, DW_AT_bit_size(0x0d)
    2703                      .dwattr $C$DW$246, DW_AT_data_member_location[DW_OP_plus_uconst 0x0]
    2704                      .dwattr $C$DW$246, DW_AT_accessibility(DW_ACCESS_public)
    2705              
    2706                      .dwendtag $C$DW$T$62
    2707              
    2708              
    2709              $C$DW$T$63      .dwtag  DW_TAG_union_type
    2710                      .dwattr $C$DW$T$63, DW_AT_name("DBCTL2_REG")
    2711                      .dwattr $C$DW$T$63, DW_AT_byte_size(0x01)
TMS320C2000 Assembler PC v20.2.1 Wed Oct  7 22:14:25 2020

Copyright (c) 1996-2018 Texas Instruments Incorporated
bissc.asm                                                            PAGE   52

    2712              $C$DW$247       .dwtag  DW_TAG_member
    2713                      .dwattr $C$DW$247, DW_AT_type(*$C$DW$T$29)
    2714                      .dwattr $C$DW$247, DW_AT_name("all")
    2715                      .dwattr $C$DW$247, DW_AT_TI_symbol_name("_all")
    2716                      .dwattr $C$DW$247, DW_AT_data_member_location[DW_OP_plus_uconst 0x0]
    2717                      .dwattr $C$DW$247, DW_AT_accessibility(DW_ACCESS_public)
    2718              
    2719              $C$DW$248       .dwtag  DW_TAG_member
    2720                      .dwattr $C$DW$248, DW_AT_type(*$C$DW$T$62)
    2721                      .dwattr $C$DW$248, DW_AT_name("bit")
    2722                      .dwattr $C$DW$248, DW_AT_TI_symbol_name("_bit")
    2723                      .dwattr $C$DW$248, DW_AT_data_member_location[DW_OP_plus_uconst 0x0]
    2724                      .dwattr $C$DW$248, DW_AT_accessibility(DW_ACCESS_public)
    2725              
    2726                      .dwendtag $C$DW$T$63
    2727              
    2728              
    2729              $C$DW$T$64      .dwtag  DW_TAG_structure_type
    2730                      .dwattr $C$DW$T$64, DW_AT_name("DBCTL_BITS")
    2731                      .dwattr $C$DW$T$64, DW_AT_byte_size(0x01)
    2732              $C$DW$249       .dwtag  DW_TAG_member
    2733                      .dwattr $C$DW$249, DW_AT_type(*$C$DW$T$29)
    2734                      .dwattr $C$DW$249, DW_AT_name("OUT_MODE")
    2735                      .dwattr $C$DW$249, DW_AT_TI_symbol_name("_OUT_MODE")
    2736                      .dwattr $C$DW$249, DW_AT_bit_offset(0x0e)
    2737                      .dwattr $C$DW$249, DW_AT_bit_size(0x02)
    2738                      .dwattr $C$DW$249, DW_AT_data_member_location[DW_OP_plus_uconst 0x0]
    2739                      .dwattr $C$DW$249, DW_AT_accessibility(DW_ACCESS_public)
    2740              
    2741              $C$DW$250       .dwtag  DW_TAG_member
    2742                      .dwattr $C$DW$250, DW_AT_type(*$C$DW$T$29)
    2743                      .dwattr $C$DW$250, DW_AT_name("POLSEL")
    2744                      .dwattr $C$DW$250, DW_AT_TI_symbol_name("_POLSEL")
    2745                      .dwattr $C$DW$250, DW_AT_bit_offset(0x0c)
    2746                      .dwattr $C$DW$250, DW_AT_bit_size(0x02)
    2747                      .dwattr $C$DW$250, DW_AT_data_member_location[DW_OP_plus_uconst 0x0]
    2748                      .dwattr $C$DW$250, DW_AT_accessibility(DW_ACCESS_public)
    2749              
    2750              $C$DW$251       .dwtag  DW_TAG_member
    2751                      .dwattr $C$DW$251, DW_AT_type(*$C$DW$T$29)
    2752                      .dwattr $C$DW$251, DW_AT_name("IN_MODE")
    2753                      .dwattr $C$DW$251, DW_AT_TI_symbol_name("_IN_MODE")
    2754                      .dwattr $C$DW$251, DW_AT_bit_offset(0x0a)
    2755                      .dwattr $C$DW$251, DW_AT_bit_size(0x02)
    2756                      .dwattr $C$DW$251, DW_AT_data_member_location[DW_OP_plus_uconst 0x0]
    2757                      .dwattr $C$DW$251, DW_AT_accessibility(DW_ACCESS_public)
    2758              
    2759              $C$DW$252       .dwtag  DW_TAG_member
    2760                      .dwattr $C$DW$252, DW_AT_type(*$C$DW$T$29)
    2761                      .dwattr $C$DW$252, DW_AT_name("LOADREDMODE")
    2762                      .dwattr $C$DW$252, DW_AT_TI_symbol_name("_LOADREDMODE")
    2763                      .dwattr $C$DW$252, DW_AT_bit_offset(0x08)
    2764                      .dwattr $C$DW$252, DW_AT_bit_size(0x02)
    2765                      .dwattr $C$DW$252, DW_AT_data_member_location[DW_OP_plus_uconst 0x0]
    2766                      .dwattr $C$DW$252, DW_AT_accessibility(DW_ACCESS_public)
TMS320C2000 Assembler PC v20.2.1 Wed Oct  7 22:14:25 2020

Copyright (c) 1996-2018 Texas Instruments Incorporated
bissc.asm                                                            PAGE   53

    2767              
    2768              $C$DW$253       .dwtag  DW_TAG_member
    2769                      .dwattr $C$DW$253, DW_AT_type(*$C$DW$T$29)
    2770                      .dwattr $C$DW$253, DW_AT_name("LOADFEDMODE")
    2771                      .dwattr $C$DW$253, DW_AT_TI_symbol_name("_LOADFEDMODE")
    2772                      .dwattr $C$DW$253, DW_AT_bit_offset(0x06)
    2773                      .dwattr $C$DW$253, DW_AT_bit_size(0x02)
    2774                      .dwattr $C$DW$253, DW_AT_data_member_location[DW_OP_plus_uconst 0x0]
    2775                      .dwattr $C$DW$253, DW_AT_accessibility(DW_ACCESS_public)
    2776              
    2777              $C$DW$254       .dwtag  DW_TAG_member
    2778                      .dwattr $C$DW$254, DW_AT_type(*$C$DW$T$29)
    2779                      .dwattr $C$DW$254, DW_AT_name("SHDWDBREDMODE")
    2780                      .dwattr $C$DW$254, DW_AT_TI_symbol_name("_SHDWDBREDMODE")
    2781                      .dwattr $C$DW$254, DW_AT_bit_offset(0x05)
    2782                      .dwattr $C$DW$254, DW_AT_bit_size(0x01)
    2783                      .dwattr $C$DW$254, DW_AT_data_member_location[DW_OP_plus_uconst 0x0]
    2784                      .dwattr $C$DW$254, DW_AT_accessibility(DW_ACCESS_public)
    2785              
    2786              $C$DW$255       .dwtag  DW_TAG_member
    2787                      .dwattr $C$DW$255, DW_AT_type(*$C$DW$T$29)
    2788                      .dwattr $C$DW$255, DW_AT_name("SHDWDBFEDMODE")
    2789                      .dwattr $C$DW$255, DW_AT_TI_symbol_name("_SHDWDBFEDMODE")
    2790                      .dwattr $C$DW$255, DW_AT_bit_offset(0x04)
    2791                      .dwattr $C$DW$255, DW_AT_bit_size(0x01)
    2792                      .dwattr $C$DW$255, DW_AT_data_member_location[DW_OP_plus_uconst 0x0]
    2793                      .dwattr $C$DW$255, DW_AT_accessibility(DW_ACCESS_public)
    2794              
    2795              $C$DW$256       .dwtag  DW_TAG_member
    2796                      .dwattr $C$DW$256, DW_AT_type(*$C$DW$T$29)
    2797                      .dwattr $C$DW$256, DW_AT_name("OUTSWAP")
    2798                      .dwattr $C$DW$256, DW_AT_TI_symbol_name("_OUTSWAP")
    2799                      .dwattr $C$DW$256, DW_AT_bit_offset(0x02)
    2800                      .dwattr $C$DW$256, DW_AT_bit_size(0x02)
    2801                      .dwattr $C$DW$256, DW_AT_data_member_location[DW_OP_plus_uconst 0x0]
    2802                      .dwattr $C$DW$256, DW_AT_accessibility(DW_ACCESS_public)
    2803              
    2804              $C$DW$257       .dwtag  DW_TAG_member
    2805                      .dwattr $C$DW$257, DW_AT_type(*$C$DW$T$29)
    2806                      .dwattr $C$DW$257, DW_AT_name("DEDB_MODE")
    2807                      .dwattr $C$DW$257, DW_AT_TI_symbol_name("_DEDB_MODE")
    2808                      .dwattr $C$DW$257, DW_AT_bit_offset(0x01)
    2809                      .dwattr $C$DW$257, DW_AT_bit_size(0x01)
    2810                      .dwattr $C$DW$257, DW_AT_data_member_location[DW_OP_plus_uconst 0x0]
    2811                      .dwattr $C$DW$257, DW_AT_accessibility(DW_ACCESS_public)
    2812              
    2813              $C$DW$258       .dwtag  DW_TAG_member
    2814                      .dwattr $C$DW$258, DW_AT_type(*$C$DW$T$29)
    2815                      .dwattr $C$DW$258, DW_AT_name("HALFCYCLE")
    2816                      .dwattr $C$DW$258, DW_AT_TI_symbol_name("_HALFCYCLE")
    2817                      .dwattr $C$DW$258, DW_AT_bit_offset(0x00)
    2818                      .dwattr $C$DW$258, DW_AT_bit_size(0x01)
    2819                      .dwattr $C$DW$258, DW_AT_data_member_location[DW_OP_plus_uconst 0x0]
    2820                      .dwattr $C$DW$258, DW_AT_accessibility(DW_ACCESS_public)
    2821              
TMS320C2000 Assembler PC v20.2.1 Wed Oct  7 22:14:25 2020

Copyright (c) 1996-2018 Texas Instruments Incorporated
bissc.asm                                                            PAGE   54

    2822                      .dwendtag $C$DW$T$64
    2823              
    2824              
    2825              $C$DW$T$65      .dwtag  DW_TAG_union_type
    2826                      .dwattr $C$DW$T$65, DW_AT_name("DBCTL_REG")
    2827                      .dwattr $C$DW$T$65, DW_AT_byte_size(0x01)
    2828              $C$DW$259       .dwtag  DW_TAG_member
    2829                      .dwattr $C$DW$259, DW_AT_type(*$C$DW$T$29)
    2830                      .dwattr $C$DW$259, DW_AT_name("all")
    2831                      .dwattr $C$DW$259, DW_AT_TI_symbol_name("_all")
    2832                      .dwattr $C$DW$259, DW_AT_data_member_location[DW_OP_plus_uconst 0x0]
    2833                      .dwattr $C$DW$259, DW_AT_accessibility(DW_ACCESS_public)
    2834              
    2835              $C$DW$260       .dwtag  DW_TAG_member
    2836                      .dwattr $C$DW$260, DW_AT_type(*$C$DW$T$64)
    2837                      .dwattr $C$DW$260, DW_AT_name("bit")
    2838                      .dwattr $C$DW$260, DW_AT_TI_symbol_name("_bit")
    2839                      .dwattr $C$DW$260, DW_AT_data_member_location[DW_OP_plus_uconst 0x0]
    2840                      .dwattr $C$DW$260, DW_AT_accessibility(DW_ACCESS_public)
    2841              
    2842                      .dwendtag $C$DW$T$65
    2843              
    2844              
    2845              $C$DW$T$66      .dwtag  DW_TAG_structure_type
    2846                      .dwattr $C$DW$T$66, DW_AT_name("DBFEDHR_BITS")
    2847                      .dwattr $C$DW$T$66, DW_AT_byte_size(0x01)
    2848              $C$DW$261       .dwtag  DW_TAG_member
    2849                      .dwattr $C$DW$261, DW_AT_type(*$C$DW$T$29)
    2850                      .dwattr $C$DW$261, DW_AT_name("rsvd1")
    2851                      .dwattr $C$DW$261, DW_AT_TI_symbol_name("_rsvd1")
    2852                      .dwattr $C$DW$261, DW_AT_bit_offset(0x0f)
    2853                      .dwattr $C$DW$261, DW_AT_bit_size(0x01)
    2854                      .dwattr $C$DW$261, DW_AT_data_member_location[DW_OP_plus_uconst 0x0]
    2855                      .dwattr $C$DW$261, DW_AT_accessibility(DW_ACCESS_public)
    2856              
    2857              $C$DW$262       .dwtag  DW_TAG_member
    2858                      .dwattr $C$DW$262, DW_AT_type(*$C$DW$T$29)
    2859                      .dwattr $C$DW$262, DW_AT_name("rsvd2")
    2860                      .dwattr $C$DW$262, DW_AT_TI_symbol_name("_rsvd2")
    2861                      .dwattr $C$DW$262, DW_AT_bit_offset(0x08)
    2862                      .dwattr $C$DW$262, DW_AT_bit_size(0x07)
    2863                      .dwattr $C$DW$262, DW_AT_data_member_location[DW_OP_plus_uconst 0x0]
    2864                      .dwattr $C$DW$262, DW_AT_accessibility(DW_ACCESS_public)
    2865              
    2866              $C$DW$263       .dwtag  DW_TAG_member
    2867                      .dwattr $C$DW$263, DW_AT_type(*$C$DW$T$29)
    2868                      .dwattr $C$DW$263, DW_AT_name("rsvd3")
    2869                      .dwattr $C$DW$263, DW_AT_TI_symbol_name("_rsvd3")
    2870                      .dwattr $C$DW$263, DW_AT_bit_offset(0x07)
    2871                      .dwattr $C$DW$263, DW_AT_bit_size(0x01)
    2872                      .dwattr $C$DW$263, DW_AT_data_member_location[DW_OP_plus_uconst 0x0]
    2873                      .dwattr $C$DW$263, DW_AT_accessibility(DW_ACCESS_public)
    2874              
    2875              $C$DW$264       .dwtag  DW_TAG_member
    2876                      .dwattr $C$DW$264, DW_AT_type(*$C$DW$T$29)
TMS320C2000 Assembler PC v20.2.1 Wed Oct  7 22:14:25 2020

Copyright (c) 1996-2018 Texas Instruments Incorporated
bissc.asm                                                            PAGE   55

    2877                      .dwattr $C$DW$264, DW_AT_name("DBFEDHR")
    2878                      .dwattr $C$DW$264, DW_AT_TI_symbol_name("_DBFEDHR")
    2879                      .dwattr $C$DW$264, DW_AT_bit_offset(0x00)
    2880                      .dwattr $C$DW$264, DW_AT_bit_size(0x07)
    2881                      .dwattr $C$DW$264, DW_AT_data_member_location[DW_OP_plus_uconst 0x0]
    2882                      .dwattr $C$DW$264, DW_AT_accessibility(DW_ACCESS_public)
    2883              
    2884                      .dwendtag $C$DW$T$66
    2885              
    2886              
    2887              $C$DW$T$67      .dwtag  DW_TAG_union_type
    2888                      .dwattr $C$DW$T$67, DW_AT_name("DBFEDHR_REG")
    2889                      .dwattr $C$DW$T$67, DW_AT_byte_size(0x01)
    2890              $C$DW$265       .dwtag  DW_TAG_member
    2891                      .dwattr $C$DW$265, DW_AT_type(*$C$DW$T$29)
    2892                      .dwattr $C$DW$265, DW_AT_name("all")
    2893                      .dwattr $C$DW$265, DW_AT_TI_symbol_name("_all")
    2894                      .dwattr $C$DW$265, DW_AT_data_member_location[DW_OP_plus_uconst 0x0]
    2895                      .dwattr $C$DW$265, DW_AT_accessibility(DW_ACCESS_public)
    2896              
    2897              $C$DW$266       .dwtag  DW_TAG_member
    2898                      .dwattr $C$DW$266, DW_AT_type(*$C$DW$T$66)
    2899                      .dwattr $C$DW$266, DW_AT_name("bit")
    2900                      .dwattr $C$DW$266, DW_AT_TI_symbol_name("_bit")
    2901                      .dwattr $C$DW$266, DW_AT_data_member_location[DW_OP_plus_uconst 0x0]
    2902                      .dwattr $C$DW$266, DW_AT_accessibility(DW_ACCESS_public)
    2903              
    2904                      .dwendtag $C$DW$T$67
    2905              
    2906              
    2907              $C$DW$T$68      .dwtag  DW_TAG_structure_type
    2908                      .dwattr $C$DW$T$68, DW_AT_name("DBREDHR_BITS")
    2909                      .dwattr $C$DW$T$68, DW_AT_byte_size(0x01)
    2910              $C$DW$267       .dwtag  DW_TAG_member
    2911                      .dwattr $C$DW$267, DW_AT_type(*$C$DW$T$29)
    2912                      .dwattr $C$DW$267, DW_AT_name("rsvd1")
    2913                      .dwattr $C$DW$267, DW_AT_TI_symbol_name("_rsvd1")
    2914                      .dwattr $C$DW$267, DW_AT_bit_offset(0x0f)
    2915                      .dwattr $C$DW$267, DW_AT_bit_size(0x01)
    2916                      .dwattr $C$DW$267, DW_AT_data_member_location[DW_OP_plus_uconst 0x0]
    2917                      .dwattr $C$DW$267, DW_AT_accessibility(DW_ACCESS_public)
    2918              
    2919              $C$DW$268       .dwtag  DW_TAG_member
    2920                      .dwattr $C$DW$268, DW_AT_type(*$C$DW$T$29)
    2921                      .dwattr $C$DW$268, DW_AT_name("rsvd2")
    2922                      .dwattr $C$DW$268, DW_AT_TI_symbol_name("_rsvd2")
    2923                      .dwattr $C$DW$268, DW_AT_bit_offset(0x08)
    2924                      .dwattr $C$DW$268, DW_AT_bit_size(0x07)
    2925                      .dwattr $C$DW$268, DW_AT_data_member_location[DW_OP_plus_uconst 0x0]
    2926                      .dwattr $C$DW$268, DW_AT_accessibility(DW_ACCESS_public)
    2927              
    2928              $C$DW$269       .dwtag  DW_TAG_member
    2929                      .dwattr $C$DW$269, DW_AT_type(*$C$DW$T$29)
    2930                      .dwattr $C$DW$269, DW_AT_name("rsvd3")
    2931                      .dwattr $C$DW$269, DW_AT_TI_symbol_name("_rsvd3")
TMS320C2000 Assembler PC v20.2.1 Wed Oct  7 22:14:25 2020

Copyright (c) 1996-2018 Texas Instruments Incorporated
bissc.asm                                                            PAGE   56

    2932                      .dwattr $C$DW$269, DW_AT_bit_offset(0x07)
    2933                      .dwattr $C$DW$269, DW_AT_bit_size(0x01)
    2934                      .dwattr $C$DW$269, DW_AT_data_member_location[DW_OP_plus_uconst 0x0]
    2935                      .dwattr $C$DW$269, DW_AT_accessibility(DW_ACCESS_public)
    2936              
    2937              $C$DW$270       .dwtag  DW_TAG_member
    2938                      .dwattr $C$DW$270, DW_AT_type(*$C$DW$T$29)
    2939                      .dwattr $C$DW$270, DW_AT_name("DBREDHR")
    2940                      .dwattr $C$DW$270, DW_AT_TI_symbol_name("_DBREDHR")
    2941                      .dwattr $C$DW$270, DW_AT_bit_offset(0x00)
    2942                      .dwattr $C$DW$270, DW_AT_bit_size(0x07)
    2943                      .dwattr $C$DW$270, DW_AT_data_member_location[DW_OP_plus_uconst 0x0]
    2944                      .dwattr $C$DW$270, DW_AT_accessibility(DW_ACCESS_public)
    2945              
    2946                      .dwendtag $C$DW$T$68
    2947              
    2948              
    2949              $C$DW$T$69      .dwtag  DW_TAG_union_type
    2950                      .dwattr $C$DW$T$69, DW_AT_name("DBREDHR_REG")
    2951                      .dwattr $C$DW$T$69, DW_AT_byte_size(0x01)
    2952              $C$DW$271       .dwtag  DW_TAG_member
    2953                      .dwattr $C$DW$271, DW_AT_type(*$C$DW$T$29)
    2954                      .dwattr $C$DW$271, DW_AT_name("all")
    2955                      .dwattr $C$DW$271, DW_AT_TI_symbol_name("_all")
    2956                      .dwattr $C$DW$271, DW_AT_data_member_location[DW_OP_plus_uconst 0x0]
    2957                      .dwattr $C$DW$271, DW_AT_accessibility(DW_ACCESS_public)
    2958              
    2959              $C$DW$272       .dwtag  DW_TAG_member
    2960                      .dwattr $C$DW$272, DW_AT_type(*$C$DW$T$68)
    2961                      .dwattr $C$DW$272, DW_AT_name("bit")
    2962                      .dwattr $C$DW$272, DW_AT_TI_symbol_name("_bit")
    2963                      .dwattr $C$DW$272, DW_AT_data_member_location[DW_OP_plus_uconst 0x0]
    2964                      .dwattr $C$DW$272, DW_AT_accessibility(DW_ACCESS_public)
    2965              
    2966                      .dwendtag $C$DW$T$69
    2967              
    2968              
    2969              $C$DW$T$70      .dwtag  DW_TAG_structure_type
    2970                      .dwattr $C$DW$T$70, DW_AT_name("DCACTL_BITS")
    2971                      .dwattr $C$DW$T$70, DW_AT_byte_size(0x01)
    2972              $C$DW$273       .dwtag  DW_TAG_member
    2973                      .dwattr $C$DW$273, DW_AT_type(*$C$DW$T$29)
    2974                      .dwattr $C$DW$273, DW_AT_name("EVT1SRCSEL")
    2975                      .dwattr $C$DW$273, DW_AT_TI_symbol_name("_EVT1SRCSEL")
    2976                      .dwattr $C$DW$273, DW_AT_bit_offset(0x0f)
    2977                      .dwattr $C$DW$273, DW_AT_bit_size(0x01)
    2978                      .dwattr $C$DW$273, DW_AT_data_member_location[DW_OP_plus_uconst 0x0]
    2979                      .dwattr $C$DW$273, DW_AT_accessibility(DW_ACCESS_public)
    2980              
    2981              $C$DW$274       .dwtag  DW_TAG_member
    2982                      .dwattr $C$DW$274, DW_AT_type(*$C$DW$T$29)
    2983                      .dwattr $C$DW$274, DW_AT_name("EVT1FRCSYNCSEL")
    2984                      .dwattr $C$DW$274, DW_AT_TI_symbol_name("_EVT1FRCSYNCSEL")
    2985                      .dwattr $C$DW$274, DW_AT_bit_offset(0x0e)
    2986                      .dwattr $C$DW$274, DW_AT_bit_size(0x01)
TMS320C2000 Assembler PC v20.2.1 Wed Oct  7 22:14:25 2020

Copyright (c) 1996-2018 Texas Instruments Incorporated
bissc.asm                                                            PAGE   57

    2987                      .dwattr $C$DW$274, DW_AT_data_member_location[DW_OP_plus_uconst 0x0]
    2988                      .dwattr $C$DW$274, DW_AT_accessibility(DW_ACCESS_public)
    2989              
    2990              $C$DW$275       .dwtag  DW_TAG_member
    2991                      .dwattr $C$DW$275, DW_AT_type(*$C$DW$T$29)
    2992                      .dwattr $C$DW$275, DW_AT_name("EVT1SOCE")
    2993                      .dwattr $C$DW$275, DW_AT_TI_symbol_name("_EVT1SOCE")
    2994                      .dwattr $C$DW$275, DW_AT_bit_offset(0x0d)
    2995                      .dwattr $C$DW$275, DW_AT_bit_size(0x01)
    2996                      .dwattr $C$DW$275, DW_AT_data_member_location[DW_OP_plus_uconst 0x0]
    2997                      .dwattr $C$DW$275, DW_AT_accessibility(DW_ACCESS_public)
    2998              
    2999              $C$DW$276       .dwtag  DW_TAG_member
    3000                      .dwattr $C$DW$276, DW_AT_type(*$C$DW$T$29)
    3001                      .dwattr $C$DW$276, DW_AT_name("EVT1SYNCE")
    3002                      .dwattr $C$DW$276, DW_AT_TI_symbol_name("_EVT1SYNCE")
    3003                      .dwattr $C$DW$276, DW_AT_bit_offset(0x0c)
    3004                      .dwattr $C$DW$276, DW_AT_bit_size(0x01)
    3005                      .dwattr $C$DW$276, DW_AT_data_member_location[DW_OP_plus_uconst 0x0]
    3006                      .dwattr $C$DW$276, DW_AT_accessibility(DW_ACCESS_public)
    3007              
    3008              $C$DW$277       .dwtag  DW_TAG_member
    3009                      .dwattr $C$DW$277, DW_AT_type(*$C$DW$T$29)
    3010                      .dwattr $C$DW$277, DW_AT_name("rsvd1")
    3011                      .dwattr $C$DW$277, DW_AT_TI_symbol_name("_rsvd1")
    3012                      .dwattr $C$DW$277, DW_AT_bit_offset(0x08)
    3013                      .dwattr $C$DW$277, DW_AT_bit_size(0x04)
    3014                      .dwattr $C$DW$277, DW_AT_data_member_location[DW_OP_plus_uconst 0x0]
    3015                      .dwattr $C$DW$277, DW_AT_accessibility(DW_ACCESS_public)
    3016              
    3017              $C$DW$278       .dwtag  DW_TAG_member
    3018                      .dwattr $C$DW$278, DW_AT_type(*$C$DW$T$29)
    3019                      .dwattr $C$DW$278, DW_AT_name("EVT2SRCSEL")
    3020                      .dwattr $C$DW$278, DW_AT_TI_symbol_name("_EVT2SRCSEL")
    3021                      .dwattr $C$DW$278, DW_AT_bit_offset(0x07)
    3022                      .dwattr $C$DW$278, DW_AT_bit_size(0x01)
    3023                      .dwattr $C$DW$278, DW_AT_data_member_location[DW_OP_plus_uconst 0x0]
    3024                      .dwattr $C$DW$278, DW_AT_accessibility(DW_ACCESS_public)
    3025              
    3026              $C$DW$279       .dwtag  DW_TAG_member
    3027                      .dwattr $C$DW$279, DW_AT_type(*$C$DW$T$29)
    3028                      .dwattr $C$DW$279, DW_AT_name("EVT2FRCSYNCSEL")
    3029                      .dwattr $C$DW$279, DW_AT_TI_symbol_name("_EVT2FRCSYNCSEL")
    3030                      .dwattr $C$DW$279, DW_AT_bit_offset(0x06)
    3031                      .dwattr $C$DW$279, DW_AT_bit_size(0x01)
    3032                      .dwattr $C$DW$279, DW_AT_data_member_location[DW_OP_plus_uconst 0x0]
    3033                      .dwattr $C$DW$279, DW_AT_accessibility(DW_ACCESS_public)
    3034              
    3035              $C$DW$280       .dwtag  DW_TAG_member
    3036                      .dwattr $C$DW$280, DW_AT_type(*$C$DW$T$29)
    3037                      .dwattr $C$DW$280, DW_AT_name("rsvd2")
    3038                      .dwattr $C$DW$280, DW_AT_TI_symbol_name("_rsvd2")
    3039                      .dwattr $C$DW$280, DW_AT_bit_offset(0x00)
    3040                      .dwattr $C$DW$280, DW_AT_bit_size(0x06)
    3041                      .dwattr $C$DW$280, DW_AT_data_member_location[DW_OP_plus_uconst 0x0]
TMS320C2000 Assembler PC v20.2.1 Wed Oct  7 22:14:25 2020

Copyright (c) 1996-2018 Texas Instruments Incorporated
bissc.asm                                                            PAGE   58

    3042                      .dwattr $C$DW$280, DW_AT_accessibility(DW_ACCESS_public)
    3043              
    3044                      .dwendtag $C$DW$T$70
    3045              
    3046              
    3047              $C$DW$T$71      .dwtag  DW_TAG_union_type
    3048                      .dwattr $C$DW$T$71, DW_AT_name("DCACTL_REG")
    3049                      .dwattr $C$DW$T$71, DW_AT_byte_size(0x01)
    3050              $C$DW$281       .dwtag  DW_TAG_member
    3051                      .dwattr $C$DW$281, DW_AT_type(*$C$DW$T$29)
    3052                      .dwattr $C$DW$281, DW_AT_name("all")
    3053                      .dwattr $C$DW$281, DW_AT_TI_symbol_name("_all")
    3054                      .dwattr $C$DW$281, DW_AT_data_member_location[DW_OP_plus_uconst 0x0]
    3055                      .dwattr $C$DW$281, DW_AT_accessibility(DW_ACCESS_public)
    3056              
    3057              $C$DW$282       .dwtag  DW_TAG_member
    3058                      .dwattr $C$DW$282, DW_AT_type(*$C$DW$T$70)
    3059                      .dwattr $C$DW$282, DW_AT_name("bit")
    3060                      .dwattr $C$DW$282, DW_AT_TI_symbol_name("_bit")
    3061                      .dwattr $C$DW$282, DW_AT_data_member_location[DW_OP_plus_uconst 0x0]
    3062                      .dwattr $C$DW$282, DW_AT_accessibility(DW_ACCESS_public)
    3063              
    3064                      .dwendtag $C$DW$T$71
    3065              
    3066              
    3067              $C$DW$T$72      .dwtag  DW_TAG_structure_type
    3068                      .dwattr $C$DW$T$72, DW_AT_name("DCAHTRIPSEL_BITS")
    3069                      .dwattr $C$DW$T$72, DW_AT_byte_size(0x01)
    3070              $C$DW$283       .dwtag  DW_TAG_member
    3071                      .dwattr $C$DW$283, DW_AT_type(*$C$DW$T$29)
    3072                      .dwattr $C$DW$283, DW_AT_name("TRIPINPUT1")
    3073                      .dwattr $C$DW$283, DW_AT_TI_symbol_name("_TRIPINPUT1")
    3074                      .dwattr $C$DW$283, DW_AT_bit_offset(0x0f)
    3075                      .dwattr $C$DW$283, DW_AT_bit_size(0x01)
    3076                      .dwattr $C$DW$283, DW_AT_data_member_location[DW_OP_plus_uconst 0x0]
    3077                      .dwattr $C$DW$283, DW_AT_accessibility(DW_ACCESS_public)
    3078              
    3079              $C$DW$284       .dwtag  DW_TAG_member
    3080                      .dwattr $C$DW$284, DW_AT_type(*$C$DW$T$29)
    3081                      .dwattr $C$DW$284, DW_AT_name("TRIPINPUT2")
    3082                      .dwattr $C$DW$284, DW_AT_TI_symbol_name("_TRIPINPUT2")
    3083                      .dwattr $C$DW$284, DW_AT_bit_offset(0x0e)
    3084                      .dwattr $C$DW$284, DW_AT_bit_size(0x01)
    3085                      .dwattr $C$DW$284, DW_AT_data_member_location[DW_OP_plus_uconst 0x0]
    3086                      .dwattr $C$DW$284, DW_AT_accessibility(DW_ACCESS_public)
    3087              
    3088              $C$DW$285       .dwtag  DW_TAG_member
    3089                      .dwattr $C$DW$285, DW_AT_type(*$C$DW$T$29)
    3090                      .dwattr $C$DW$285, DW_AT_name("TRIPINPUT3")
    3091                      .dwattr $C$DW$285, DW_AT_TI_symbol_name("_TRIPINPUT3")
    3092                      .dwattr $C$DW$285, DW_AT_bit_offset(0x0d)
    3093                      .dwattr $C$DW$285, DW_AT_bit_size(0x01)
    3094                      .dwattr $C$DW$285, DW_AT_data_member_location[DW_OP_plus_uconst 0x0]
    3095                      .dwattr $C$DW$285, DW_AT_accessibility(DW_ACCESS_public)
    3096              
TMS320C2000 Assembler PC v20.2.1 Wed Oct  7 22:14:25 2020

Copyright (c) 1996-2018 Texas Instruments Incorporated
bissc.asm                                                            PAGE   59

    3097              $C$DW$286       .dwtag  DW_TAG_member
    3098                      .dwattr $C$DW$286, DW_AT_type(*$C$DW$T$29)
    3099                      .dwattr $C$DW$286, DW_AT_name("TRIPINPUT4")
    3100                      .dwattr $C$DW$286, DW_AT_TI_symbol_name("_TRIPINPUT4")
    3101                      .dwattr $C$DW$286, DW_AT_bit_offset(0x0c)
    3102                      .dwattr $C$DW$286, DW_AT_bit_size(0x01)
    3103                      .dwattr $C$DW$286, DW_AT_data_member_location[DW_OP_plus_uconst 0x0]
    3104                      .dwattr $C$DW$286, DW_AT_accessibility(DW_ACCESS_public)
    3105              
    3106              $C$DW$287       .dwtag  DW_TAG_member
    3107                      .dwattr $C$DW$287, DW_AT_type(*$C$DW$T$29)
    3108                      .dwattr $C$DW$287, DW_AT_name("TRIPINPUT5")
    3109                      .dwattr $C$DW$287, DW_AT_TI_symbol_name("_TRIPINPUT5")
    3110                      .dwattr $C$DW$287, DW_AT_bit_offset(0x0b)
    3111                      .dwattr $C$DW$287, DW_AT_bit_size(0x01)
    3112                      .dwattr $C$DW$287, DW_AT_data_member_location[DW_OP_plus_uconst 0x0]
    3113                      .dwattr $C$DW$287, DW_AT_accessibility(DW_ACCESS_public)
    3114              
    3115              $C$DW$288       .dwtag  DW_TAG_member
    3116                      .dwattr $C$DW$288, DW_AT_type(*$C$DW$T$29)
    3117                      .dwattr $C$DW$288, DW_AT_name("TRIPINPUT6")
    3118                      .dwattr $C$DW$288, DW_AT_TI_symbol_name("_TRIPINPUT6")
    3119                      .dwattr $C$DW$288, DW_AT_bit_offset(0x0a)
    3120                      .dwattr $C$DW$288, DW_AT_bit_size(0x01)
    3121                      .dwattr $C$DW$288, DW_AT_data_member_location[DW_OP_plus_uconst 0x0]
    3122                      .dwattr $C$DW$288, DW_AT_accessibility(DW_ACCESS_public)
    3123              
    3124              $C$DW$289       .dwtag  DW_TAG_member
    3125                      .dwattr $C$DW$289, DW_AT_type(*$C$DW$T$29)
    3126                      .dwattr $C$DW$289, DW_AT_name("TRIPINPUT7")
    3127                      .dwattr $C$DW$289, DW_AT_TI_symbol_name("_TRIPINPUT7")
    3128                      .dwattr $C$DW$289, DW_AT_bit_offset(0x09)
    3129                      .dwattr $C$DW$289, DW_AT_bit_size(0x01)
    3130                      .dwattr $C$DW$289, DW_AT_data_member_location[DW_OP_plus_uconst 0x0]
    3131                      .dwattr $C$DW$289, DW_AT_accessibility(DW_ACCESS_public)
    3132              
    3133              $C$DW$290       .dwtag  DW_TAG_member
    3134                      .dwattr $C$DW$290, DW_AT_type(*$C$DW$T$29)
    3135                      .dwattr $C$DW$290, DW_AT_name("TRIPINPUT8")
    3136                      .dwattr $C$DW$290, DW_AT_TI_symbol_name("_TRIPINPUT8")
    3137                      .dwattr $C$DW$290, DW_AT_bit_offset(0x08)
    3138                      .dwattr $C$DW$290, DW_AT_bit_size(0x01)
    3139                      .dwattr $C$DW$290, DW_AT_data_member_location[DW_OP_plus_uconst 0x0]
    3140                      .dwattr $C$DW$290, DW_AT_accessibility(DW_ACCESS_public)
    3141              
    3142              $C$DW$291       .dwtag  DW_TAG_member
    3143                      .dwattr $C$DW$291, DW_AT_type(*$C$DW$T$29)
    3144                      .dwattr $C$DW$291, DW_AT_name("TRIPINPUT9")
    3145                      .dwattr $C$DW$291, DW_AT_TI_symbol_name("_TRIPINPUT9")
    3146                      .dwattr $C$DW$291, DW_AT_bit_offset(0x07)
    3147                      .dwattr $C$DW$291, DW_AT_bit_size(0x01)
    3148                      .dwattr $C$DW$291, DW_AT_data_member_location[DW_OP_plus_uconst 0x0]
    3149                      .dwattr $C$DW$291, DW_AT_accessibility(DW_ACCESS_public)
    3150              
    3151              $C$DW$292       .dwtag  DW_TAG_member
TMS320C2000 Assembler PC v20.2.1 Wed Oct  7 22:14:25 2020

Copyright (c) 1996-2018 Texas Instruments Incorporated
bissc.asm                                                            PAGE   60

    3152                      .dwattr $C$DW$292, DW_AT_type(*$C$DW$T$29)
    3153                      .dwattr $C$DW$292, DW_AT_name("TRIPINPUT10")
    3154                      .dwattr $C$DW$292, DW_AT_TI_symbol_name("_TRIPINPUT10")
    3155                      .dwattr $C$DW$292, DW_AT_bit_offset(0x06)
    3156                      .dwattr $C$DW$292, DW_AT_bit_size(0x01)
    3157                      .dwattr $C$DW$292, DW_AT_data_member_location[DW_OP_plus_uconst 0x0]
    3158                      .dwattr $C$DW$292, DW_AT_accessibility(DW_ACCESS_public)
    3159              
    3160              $C$DW$293       .dwtag  DW_TAG_member
    3161                      .dwattr $C$DW$293, DW_AT_type(*$C$DW$T$29)
    3162                      .dwattr $C$DW$293, DW_AT_name("TRIPINPUT11")
    3163                      .dwattr $C$DW$293, DW_AT_TI_symbol_name("_TRIPINPUT11")
    3164                      .dwattr $C$DW$293, DW_AT_bit_offset(0x05)
    3165                      .dwattr $C$DW$293, DW_AT_bit_size(0x01)
    3166                      .dwattr $C$DW$293, DW_AT_data_member_location[DW_OP_plus_uconst 0x0]
    3167                      .dwattr $C$DW$293, DW_AT_accessibility(DW_ACCESS_public)
    3168              
    3169              $C$DW$294       .dwtag  DW_TAG_member
    3170                      .dwattr $C$DW$294, DW_AT_type(*$C$DW$T$29)
    3171                      .dwattr $C$DW$294, DW_AT_name("TRIPINPUT12")
    3172                      .dwattr $C$DW$294, DW_AT_TI_symbol_name("_TRIPINPUT12")
    3173                      .dwattr $C$DW$294, DW_AT_bit_offset(0x04)
    3174                      .dwattr $C$DW$294, DW_AT_bit_size(0x01)
    3175                      .dwattr $C$DW$294, DW_AT_data_member_location[DW_OP_plus_uconst 0x0]
    3176                      .dwattr $C$DW$294, DW_AT_accessibility(DW_ACCESS_public)
    3177              
    3178              $C$DW$295       .dwtag  DW_TAG_member
    3179                      .dwattr $C$DW$295, DW_AT_type(*$C$DW$T$29)
    3180                      .dwattr $C$DW$295, DW_AT_name("rsvd1")
    3181                      .dwattr $C$DW$295, DW_AT_TI_symbol_name("_rsvd1")
    3182                      .dwattr $C$DW$295, DW_AT_bit_offset(0x03)
    3183                      .dwattr $C$DW$295, DW_AT_bit_size(0x01)
    3184                      .dwattr $C$DW$295, DW_AT_data_member_location[DW_OP_plus_uconst 0x0]
    3185                      .dwattr $C$DW$295, DW_AT_accessibility(DW_ACCESS_public)
    3186              
    3187              $C$DW$296       .dwtag  DW_TAG_member
    3188                      .dwattr $C$DW$296, DW_AT_type(*$C$DW$T$29)
    3189                      .dwattr $C$DW$296, DW_AT_name("TRIPINPUT14")
    3190                      .dwattr $C$DW$296, DW_AT_TI_symbol_name("_TRIPINPUT14")
    3191                      .dwattr $C$DW$296, DW_AT_bit_offset(0x02)
    3192                      .dwattr $C$DW$296, DW_AT_bit_size(0x01)
    3193                      .dwattr $C$DW$296, DW_AT_data_member_location[DW_OP_plus_uconst 0x0]
    3194                      .dwattr $C$DW$296, DW_AT_accessibility(DW_ACCESS_public)
    3195              
    3196              $C$DW$297       .dwtag  DW_TAG_member
    3197                      .dwattr $C$DW$297, DW_AT_type(*$C$DW$T$29)
    3198                      .dwattr $C$DW$297, DW_AT_name("TRIPINPUT15")
    3199                      .dwattr $C$DW$297, DW_AT_TI_symbol_name("_TRIPINPUT15")
    3200                      .dwattr $C$DW$297, DW_AT_bit_offset(0x01)
    3201                      .dwattr $C$DW$297, DW_AT_bit_size(0x01)
    3202                      .dwattr $C$DW$297, DW_AT_data_member_location[DW_OP_plus_uconst 0x0]
    3203                      .dwattr $C$DW$297, DW_AT_accessibility(DW_ACCESS_public)
    3204              
    3205              $C$DW$298       .dwtag  DW_TAG_member
    3206                      .dwattr $C$DW$298, DW_AT_type(*$C$DW$T$29)
TMS320C2000 Assembler PC v20.2.1 Wed Oct  7 22:14:25 2020

Copyright (c) 1996-2018 Texas Instruments Incorporated
bissc.asm                                                            PAGE   61

    3207                      .dwattr $C$DW$298, DW_AT_name("rsvd2")
    3208                      .dwattr $C$DW$298, DW_AT_TI_symbol_name("_rsvd2")
    3209                      .dwattr $C$DW$298, DW_AT_bit_offset(0x00)
    3210                      .dwattr $C$DW$298, DW_AT_bit_size(0x01)
    3211                      .dwattr $C$DW$298, DW_AT_data_member_location[DW_OP_plus_uconst 0x0]
    3212                      .dwattr $C$DW$298, DW_AT_accessibility(DW_ACCESS_public)
    3213              
    3214                      .dwendtag $C$DW$T$72
    3215              
    3216              
    3217              $C$DW$T$73      .dwtag  DW_TAG_union_type
    3218                      .dwattr $C$DW$T$73, DW_AT_name("DCAHTRIPSEL_REG")
    3219                      .dwattr $C$DW$T$73, DW_AT_byte_size(0x01)
    3220              $C$DW$299       .dwtag  DW_TAG_member
    3221                      .dwattr $C$DW$299, DW_AT_type(*$C$DW$T$29)
    3222                      .dwattr $C$DW$299, DW_AT_name("all")
    3223                      .dwattr $C$DW$299, DW_AT_TI_symbol_name("_all")
    3224                      .dwattr $C$DW$299, DW_AT_data_member_location[DW_OP_plus_uconst 0x0]
    3225                      .dwattr $C$DW$299, DW_AT_accessibility(DW_ACCESS_public)
    3226              
    3227              $C$DW$300       .dwtag  DW_TAG_member
    3228                      .dwattr $C$DW$300, DW_AT_type(*$C$DW$T$72)
    3229                      .dwattr $C$DW$300, DW_AT_name("bit")
    3230                      .dwattr $C$DW$300, DW_AT_TI_symbol_name("_bit")
    3231                      .dwattr $C$DW$300, DW_AT_data_member_location[DW_OP_plus_uconst 0x0]
    3232                      .dwattr $C$DW$300, DW_AT_accessibility(DW_ACCESS_public)
    3233              
    3234                      .dwendtag $C$DW$T$73
    3235              
    3236              
    3237              $C$DW$T$74      .dwtag  DW_TAG_structure_type
    3238                      .dwattr $C$DW$T$74, DW_AT_name("DCALTRIPSEL_BITS")
    3239                      .dwattr $C$DW$T$74, DW_AT_byte_size(0x01)
    3240              $C$DW$301       .dwtag  DW_TAG_member
    3241                      .dwattr $C$DW$301, DW_AT_type(*$C$DW$T$29)
    3242                      .dwattr $C$DW$301, DW_AT_name("TRIPINPUT1")
    3243                      .dwattr $C$DW$301, DW_AT_TI_symbol_name("_TRIPINPUT1")
    3244                      .dwattr $C$DW$301, DW_AT_bit_offset(0x0f)
    3245                      .dwattr $C$DW$301, DW_AT_bit_size(0x01)
    3246                      .dwattr $C$DW$301, DW_AT_data_member_location[DW_OP_plus_uconst 0x0]
    3247                      .dwattr $C$DW$301, DW_AT_accessibility(DW_ACCESS_public)
    3248              
    3249              $C$DW$302       .dwtag  DW_TAG_member
    3250                      .dwattr $C$DW$302, DW_AT_type(*$C$DW$T$29)
    3251                      .dwattr $C$DW$302, DW_AT_name("TRIPINPUT2")
    3252                      .dwattr $C$DW$302, DW_AT_TI_symbol_name("_TRIPINPUT2")
    3253                      .dwattr $C$DW$302, DW_AT_bit_offset(0x0e)
    3254                      .dwattr $C$DW$302, DW_AT_bit_size(0x01)
    3255                      .dwattr $C$DW$302, DW_AT_data_member_location[DW_OP_plus_uconst 0x0]
    3256                      .dwattr $C$DW$302, DW_AT_accessibility(DW_ACCESS_public)
    3257              
    3258              $C$DW$303       .dwtag  DW_TAG_member
    3259                      .dwattr $C$DW$303, DW_AT_type(*$C$DW$T$29)
    3260                      .dwattr $C$DW$303, DW_AT_name("TRIPINPUT3")
    3261                      .dwattr $C$DW$303, DW_AT_TI_symbol_name("_TRIPINPUT3")
TMS320C2000 Assembler PC v20.2.1 Wed Oct  7 22:14:25 2020

Copyright (c) 1996-2018 Texas Instruments Incorporated
bissc.asm                                                            PAGE   62

    3262                      .dwattr $C$DW$303, DW_AT_bit_offset(0x0d)
    3263                      .dwattr $C$DW$303, DW_AT_bit_size(0x01)
    3264                      .dwattr $C$DW$303, DW_AT_data_member_location[DW_OP_plus_uconst 0x0]
    3265                      .dwattr $C$DW$303, DW_AT_accessibility(DW_ACCESS_public)
    3266              
    3267              $C$DW$304       .dwtag  DW_TAG_member
    3268                      .dwattr $C$DW$304, DW_AT_type(*$C$DW$T$29)
    3269                      .dwattr $C$DW$304, DW_AT_name("TRIPINPUT4")
    3270                      .dwattr $C$DW$304, DW_AT_TI_symbol_name("_TRIPINPUT4")
    3271                      .dwattr $C$DW$304, DW_AT_bit_offset(0x0c)
    3272                      .dwattr $C$DW$304, DW_AT_bit_size(0x01)
    3273                      .dwattr $C$DW$304, DW_AT_data_member_location[DW_OP_plus_uconst 0x0]
    3274                      .dwattr $C$DW$304, DW_AT_accessibility(DW_ACCESS_public)
    3275              
    3276              $C$DW$305       .dwtag  DW_TAG_member
    3277                      .dwattr $C$DW$305, DW_AT_type(*$C$DW$T$29)
    3278                      .dwattr $C$DW$305, DW_AT_name("TRIPINPUT5")
    3279                      .dwattr $C$DW$305, DW_AT_TI_symbol_name("_TRIPINPUT5")
    3280                      .dwattr $C$DW$305, DW_AT_bit_offset(0x0b)
    3281                      .dwattr $C$DW$305, DW_AT_bit_size(0x01)
    3282                      .dwattr $C$DW$305, DW_AT_data_member_location[DW_OP_plus_uconst 0x0]
    3283                      .dwattr $C$DW$305, DW_AT_accessibility(DW_ACCESS_public)
    3284              
    3285              $C$DW$306       .dwtag  DW_TAG_member
    3286                      .dwattr $C$DW$306, DW_AT_type(*$C$DW$T$29)
    3287                      .dwattr $C$DW$306, DW_AT_name("TRIPINPUT6")
    3288                      .dwattr $C$DW$306, DW_AT_TI_symbol_name("_TRIPINPUT6")
    3289                      .dwattr $C$DW$306, DW_AT_bit_offset(0x0a)
    3290                      .dwattr $C$DW$306, DW_AT_bit_size(0x01)
    3291                      .dwattr $C$DW$306, DW_AT_data_member_location[DW_OP_plus_uconst 0x0]
    3292                      .dwattr $C$DW$306, DW_AT_accessibility(DW_ACCESS_public)
    3293              
    3294              $C$DW$307       .dwtag  DW_TAG_member
    3295                      .dwattr $C$DW$307, DW_AT_type(*$C$DW$T$29)
    3296                      .dwattr $C$DW$307, DW_AT_name("TRIPINPUT7")
    3297                      .dwattr $C$DW$307, DW_AT_TI_symbol_name("_TRIPINPUT7")
    3298                      .dwattr $C$DW$307, DW_AT_bit_offset(0x09)
    3299                      .dwattr $C$DW$307, DW_AT_bit_size(0x01)
    3300                      .dwattr $C$DW$307, DW_AT_data_member_location[DW_OP_plus_uconst 0x0]
    3301                      .dwattr $C$DW$307, DW_AT_accessibility(DW_ACCESS_public)
    3302              
    3303              $C$DW$308       .dwtag  DW_TAG_member
    3304                      .dwattr $C$DW$308, DW_AT_type(*$C$DW$T$29)
    3305                      .dwattr $C$DW$308, DW_AT_name("TRIPINPUT8")
    3306                      .dwattr $C$DW$308, DW_AT_TI_symbol_name("_TRIPINPUT8")
    3307                      .dwattr $C$DW$308, DW_AT_bit_offset(0x08)
    3308                      .dwattr $C$DW$308, DW_AT_bit_size(0x01)
    3309                      .dwattr $C$DW$308, DW_AT_data_member_location[DW_OP_plus_uconst 0x0]
    3310                      .dwattr $C$DW$308, DW_AT_accessibility(DW_ACCESS_public)
    3311              
    3312              $C$DW$309       .dwtag  DW_TAG_member
    3313                      .dwattr $C$DW$309, DW_AT_type(*$C$DW$T$29)
    3314                      .dwattr $C$DW$309, DW_AT_name("TRIPINPUT9")
    3315                      .dwattr $C$DW$309, DW_AT_TI_symbol_name("_TRIPINPUT9")
    3316                      .dwattr $C$DW$309, DW_AT_bit_offset(0x07)
TMS320C2000 Assembler PC v20.2.1 Wed Oct  7 22:14:25 2020

Copyright (c) 1996-2018 Texas Instruments Incorporated
bissc.asm                                                            PAGE   63

    3317                      .dwattr $C$DW$309, DW_AT_bit_size(0x01)
    3318                      .dwattr $C$DW$309, DW_AT_data_member_location[DW_OP_plus_uconst 0x0]
    3319                      .dwattr $C$DW$309, DW_AT_accessibility(DW_ACCESS_public)
    3320              
    3321              $C$DW$310       .dwtag  DW_TAG_member
    3322                      .dwattr $C$DW$310, DW_AT_type(*$C$DW$T$29)
    3323                      .dwattr $C$DW$310, DW_AT_name("TRIPINPUT10")
    3324                      .dwattr $C$DW$310, DW_AT_TI_symbol_name("_TRIPINPUT10")
    3325                      .dwattr $C$DW$310, DW_AT_bit_offset(0x06)
    3326                      .dwattr $C$DW$310, DW_AT_bit_size(0x01)
    3327                      .dwattr $C$DW$310, DW_AT_data_member_location[DW_OP_plus_uconst 0x0]
    3328                      .dwattr $C$DW$310, DW_AT_accessibility(DW_ACCESS_public)
    3329              
    3330              $C$DW$311       .dwtag  DW_TAG_member
    3331                      .dwattr $C$DW$311, DW_AT_type(*$C$DW$T$29)
    3332                      .dwattr $C$DW$311, DW_AT_name("TRIPINPUT11")
    3333                      .dwattr $C$DW$311, DW_AT_TI_symbol_name("_TRIPINPUT11")
    3334                      .dwattr $C$DW$311, DW_AT_bit_offset(0x05)
    3335                      .dwattr $C$DW$311, DW_AT_bit_size(0x01)
    3336                      .dwattr $C$DW$311, DW_AT_data_member_location[DW_OP_plus_uconst 0x0]
    3337                      .dwattr $C$DW$311, DW_AT_accessibility(DW_ACCESS_public)
    3338              
    3339              $C$DW$312       .dwtag  DW_TAG_member
    3340                      .dwattr $C$DW$312, DW_AT_type(*$C$DW$T$29)
    3341                      .dwattr $C$DW$312, DW_AT_name("TRIPINPUT12")
    3342                      .dwattr $C$DW$312, DW_AT_TI_symbol_name("_TRIPINPUT12")
    3343                      .dwattr $C$DW$312, DW_AT_bit_offset(0x04)
    3344                      .dwattr $C$DW$312, DW_AT_bit_size(0x01)
    3345                      .dwattr $C$DW$312, DW_AT_data_member_location[DW_OP_plus_uconst 0x0]
    3346                      .dwattr $C$DW$312, DW_AT_accessibility(DW_ACCESS_public)
    3347              
    3348              $C$DW$313       .dwtag  DW_TAG_member
    3349                      .dwattr $C$DW$313, DW_AT_type(*$C$DW$T$29)
    3350                      .dwattr $C$DW$313, DW_AT_name("rsvd1")
    3351                      .dwattr $C$DW$313, DW_AT_TI_symbol_name("_rsvd1")
    3352                      .dwattr $C$DW$313, DW_AT_bit_offset(0x03)
    3353                      .dwattr $C$DW$313, DW_AT_bit_size(0x01)
    3354                      .dwattr $C$DW$313, DW_AT_data_member_location[DW_OP_plus_uconst 0x0]
    3355                      .dwattr $C$DW$313, DW_AT_accessibility(DW_ACCESS_public)
    3356              
    3357              $C$DW$314       .dwtag  DW_TAG_member
    3358                      .dwattr $C$DW$314, DW_AT_type(*$C$DW$T$29)
    3359                      .dwattr $C$DW$314, DW_AT_name("TRIPINPUT14")
    3360                      .dwattr $C$DW$314, DW_AT_TI_symbol_name("_TRIPINPUT14")
    3361                      .dwattr $C$DW$314, DW_AT_bit_offset(0x02)
    3362                      .dwattr $C$DW$314, DW_AT_bit_size(0x01)
    3363                      .dwattr $C$DW$314, DW_AT_data_member_location[DW_OP_plus_uconst 0x0]
    3364                      .dwattr $C$DW$314, DW_AT_accessibility(DW_ACCESS_public)
    3365              
    3366              $C$DW$315       .dwtag  DW_TAG_member
    3367                      .dwattr $C$DW$315, DW_AT_type(*$C$DW$T$29)
    3368                      .dwattr $C$DW$315, DW_AT_name("TRIPINPUT15")
    3369                      .dwattr $C$DW$315, DW_AT_TI_symbol_name("_TRIPINPUT15")
    3370                      .dwattr $C$DW$315, DW_AT_bit_offset(0x01)
    3371                      .dwattr $C$DW$315, DW_AT_bit_size(0x01)
TMS320C2000 Assembler PC v20.2.1 Wed Oct  7 22:14:25 2020

Copyright (c) 1996-2018 Texas Instruments Incorporated
bissc.asm                                                            PAGE   64

    3372                      .dwattr $C$DW$315, DW_AT_data_member_location[DW_OP_plus_uconst 0x0]
    3373                      .dwattr $C$DW$315, DW_AT_accessibility(DW_ACCESS_public)
    3374              
    3375              $C$DW$316       .dwtag  DW_TAG_member
    3376                      .dwattr $C$DW$316, DW_AT_type(*$C$DW$T$29)
    3377                      .dwattr $C$DW$316, DW_AT_name("rsvd2")
    3378                      .dwattr $C$DW$316, DW_AT_TI_symbol_name("_rsvd2")
    3379                      .dwattr $C$DW$316, DW_AT_bit_offset(0x00)
    3380                      .dwattr $C$DW$316, DW_AT_bit_size(0x01)
    3381                      .dwattr $C$DW$316, DW_AT_data_member_location[DW_OP_plus_uconst 0x0]
    3382                      .dwattr $C$DW$316, DW_AT_accessibility(DW_ACCESS_public)
    3383              
    3384                      .dwendtag $C$DW$T$74
    3385              
    3386              
    3387              $C$DW$T$75      .dwtag  DW_TAG_union_type
    3388                      .dwattr $C$DW$T$75, DW_AT_name("DCALTRIPSEL_REG")
    3389                      .dwattr $C$DW$T$75, DW_AT_byte_size(0x01)
    3390              $C$DW$317       .dwtag  DW_TAG_member
    3391                      .dwattr $C$DW$317, DW_AT_type(*$C$DW$T$29)
    3392                      .dwattr $C$DW$317, DW_AT_name("all")
    3393                      .dwattr $C$DW$317, DW_AT_TI_symbol_name("_all")
    3394                      .dwattr $C$DW$317, DW_AT_data_member_location[DW_OP_plus_uconst 0x0]
    3395                      .dwattr $C$DW$317, DW_AT_accessibility(DW_ACCESS_public)
    3396              
    3397              $C$DW$318       .dwtag  DW_TAG_member
    3398                      .dwattr $C$DW$318, DW_AT_type(*$C$DW$T$74)
    3399                      .dwattr $C$DW$318, DW_AT_name("bit")
    3400                      .dwattr $C$DW$318, DW_AT_TI_symbol_name("_bit")
    3401                      .dwattr $C$DW$318, DW_AT_data_member_location[DW_OP_plus_uconst 0x0]
    3402                      .dwattr $C$DW$318, DW_AT_accessibility(DW_ACCESS_public)
    3403              
    3404                      .dwendtag $C$DW$T$75
    3405              
    3406              
    3407              $C$DW$T$76      .dwtag  DW_TAG_structure_type
    3408                      .dwattr $C$DW$T$76, DW_AT_name("DCBCTL_BITS")
    3409                      .dwattr $C$DW$T$76, DW_AT_byte_size(0x01)
    3410              $C$DW$319       .dwtag  DW_TAG_member
    3411                      .dwattr $C$DW$319, DW_AT_type(*$C$DW$T$29)
    3412                      .dwattr $C$DW$319, DW_AT_name("EVT1SRCSEL")
    3413                      .dwattr $C$DW$319, DW_AT_TI_symbol_name("_EVT1SRCSEL")
    3414                      .dwattr $C$DW$319, DW_AT_bit_offset(0x0f)
    3415                      .dwattr $C$DW$319, DW_AT_bit_size(0x01)
    3416                      .dwattr $C$DW$319, DW_AT_data_member_location[DW_OP_plus_uconst 0x0]
    3417                      .dwattr $C$DW$319, DW_AT_accessibility(DW_ACCESS_public)
    3418              
