TMS320C2000 Assembler PC v20.2.1 Wed Oct  7 22:14:22 2020

Copyright (c) 1996-2018 Texas Instruments Incorporated
F2837xD_SysCtrl.asm                                                  PAGE    1

       1              ;***************************************************************
       2              ;* TMS320C2000 G3 C/C++ Codegen                               PC v20.2.1.LTS *
       3              ;* Date/Time created: Wed Oct  7 22:14:21 2020                 *
       4              ;***************************************************************
       5                      .compiler_opts --abi=coffabi --cla_support=cla0 --float_support=fpu32 --hll_source=on --mem_model:cod
       6                      .asg    XAR2, FP
       7              
       8              $C$DW$CU        .dwtag  DW_TAG_compile_unit
       9                      .dwattr $C$DW$CU, DW_AT_name("C:/ti/controlSUITE/device_support/F2837xD/v170/F2837xD_common/source/F2
      10                      .dwattr $C$DW$CU, DW_AT_producer("TI TMS320C2000 G3 C/C++ Codegen PC v20.2.1.LTS Copyright (c) 1996-2
      11                      .dwattr $C$DW$CU, DW_AT_TI_version(0x01)
      12                      .dwattr $C$DW$CU, DW_AT_comp_dir("C:\Users\hakan\workspace_v10\IDDK_PM_Servo_F2837x-v2\F2837x_RAM")
      13              
      14              $C$DW$1 .dwtag  DW_TAG_subprogram
      15                      .dwattr $C$DW$1, DW_AT_name("GPIO_EnableUnbondedIOPullups")
      16                      .dwattr $C$DW$1, DW_AT_TI_symbol_name("_GPIO_EnableUnbondedIOPullups")
      17                      .dwattr $C$DW$1, DW_AT_declaration
      18                      .dwattr $C$DW$1, DW_AT_external
      19                      .dwendtag $C$DW$1
      20              
      21              
      22              $C$DW$2 .dwtag  DW_TAG_subprogram
      23                      .dwattr $C$DW$2, DW_AT_name("F28x_usDelay")
      24                      .dwattr $C$DW$2, DW_AT_TI_symbol_name("_F28x_usDelay")
      25                      .dwattr $C$DW$2, DW_AT_declaration
      26                      .dwattr $C$DW$2, DW_AT_external
      27              $C$DW$3 .dwtag  DW_TAG_formal_parameter
      28                      .dwattr $C$DW$3, DW_AT_type(*$C$DW$T$12)
      29              
      30                      .dwendtag $C$DW$2
      31              
      32              $C$DW$4 .dwtag  DW_TAG_variable
      33                      .dwattr $C$DW$4, DW_AT_name("DcsmZ1Regs")
      34                      .dwattr $C$DW$4, DW_AT_TI_symbol_name("_DcsmZ1Regs")
      35                      .dwattr $C$DW$4, DW_AT_type(*$C$DW$T$350)
      36                      .dwattr $C$DW$4, DW_AT_declaration
      37                      .dwattr $C$DW$4, DW_AT_external
      38              
      39              $C$DW$5 .dwtag  DW_TAG_variable
      40                      .dwattr $C$DW$5, DW_AT_name("DcsmZ2Regs")
      41                      .dwattr $C$DW$5, DW_AT_TI_symbol_name("_DcsmZ2Regs")
      42                      .dwattr $C$DW$5, DW_AT_type(*$C$DW$T$351)
      43                      .dwattr $C$DW$5, DW_AT_declaration
      44                      .dwattr $C$DW$5, DW_AT_external
      45              
      46              $C$DW$6 .dwtag  DW_TAG_variable
      47                      .dwattr $C$DW$6, DW_AT_name("Flash0EccRegs")
      48                      .dwattr $C$DW$6, DW_AT_TI_symbol_name("_Flash0EccRegs")
      49                      .dwattr $C$DW$6, DW_AT_type(*$C$DW$T$356)
      50                      .dwattr $C$DW$6, DW_AT_declaration
      51                      .dwattr $C$DW$6, DW_AT_external
      52              
      53              $C$DW$7 .dwtag  DW_TAG_variable
      54                      .dwattr $C$DW$7, DW_AT_name("WdRegs")
      55                      .dwattr $C$DW$7, DW_AT_TI_symbol_name("_WdRegs")
TMS320C2000 Assembler PC v20.2.1 Wed Oct  7 22:14:22 2020

Copyright (c) 1996-2018 Texas Instruments Incorporated
F2837xD_SysCtrl.asm                                                  PAGE    2

      56                      .dwattr $C$DW$7, DW_AT_type(*$C$DW$T$375)
      57                      .dwattr $C$DW$7, DW_AT_declaration
      58                      .dwattr $C$DW$7, DW_AT_external
      59              
      60              $C$DW$8 .dwtag  DW_TAG_variable
      61                      .dwattr $C$DW$8, DW_AT_name("ClkCfgRegs")
      62                      .dwattr $C$DW$8, DW_AT_TI_symbol_name("_ClkCfgRegs")
      63                      .dwattr $C$DW$8, DW_AT_type(*$C$DW$T$346)
      64                      .dwattr $C$DW$8, DW_AT_declaration
      65                      .dwattr $C$DW$8, DW_AT_external
      66              
      67              $C$DW$9 .dwtag  DW_TAG_variable
      68                      .dwattr $C$DW$9, DW_AT_name("AnalogSubsysRegs")
      69                      .dwattr $C$DW$9, DW_AT_TI_symbol_name("_AnalogSubsysRegs")
      70                      .dwattr $C$DW$9, DW_AT_type(*$C$DW$T$340)
      71                      .dwattr $C$DW$9, DW_AT_declaration
      72                      .dwattr $C$DW$9, DW_AT_external
      73              
      74              $C$DW$10        .dwtag  DW_TAG_variable
      75                      .dwattr $C$DW$10, DW_AT_name("CpuSysRegs")
      76                      .dwattr $C$DW$10, DW_AT_TI_symbol_name("_CpuSysRegs")
      77                      .dwattr $C$DW$10, DW_AT_type(*$C$DW$T$348)
      78                      .dwattr $C$DW$10, DW_AT_declaration
      79                      .dwattr $C$DW$10, DW_AT_external
      80              
      81              $C$DW$11        .dwtag  DW_TAG_variable
      82                      .dwattr $C$DW$11, DW_AT_name("DevCfgRegs")
      83                      .dwattr $C$DW$11, DW_AT_TI_symbol_name("_DevCfgRegs")
      84                      .dwattr $C$DW$11, DW_AT_type(*$C$DW$T$352)
      85                      .dwattr $C$DW$11, DW_AT_declaration
      86                      .dwattr $C$DW$11, DW_AT_external
      87              
      88              $C$DW$12        .dwtag  DW_TAG_variable
      89                      .dwattr $C$DW$12, DW_AT_name("Flash0CtrlRegs")
      90                      .dwattr $C$DW$12, DW_AT_TI_symbol_name("_Flash0CtrlRegs")
      91                      .dwattr $C$DW$12, DW_AT_type(*$C$DW$T$354)
      92                      .dwattr $C$DW$12, DW_AT_declaration
      93                      .dwattr $C$DW$12, DW_AT_external
      94              
      95              ;       C:\ti\ccs1010\ccs\tools\compiler\ti-cgt-c2000_20.2.1.LTS\bin\opt2000.exe C:\\Users\\hakan\\AppData\\L
      96              ;       C:\ti\ccs1010\ccs\tools\compiler\ti-cgt-c2000_20.2.1.LTS\bin\ac2000.exe -@C:\\Users\\hakan\\AppData\\
      97 00000000               .sect   ".text"
      98                      .clink
      99                      .global _SysXtalOscSel
     100              
     101              $C$DW$13        .dwtag  DW_TAG_subprogram
     102                      .dwattr $C$DW$13, DW_AT_name("SysXtalOscSel")
     103                      .dwattr $C$DW$13, DW_AT_low_pc(_SysXtalOscSel)
     104                      .dwattr $C$DW$13, DW_AT_high_pc(0x00)
     105                      .dwattr $C$DW$13, DW_AT_TI_symbol_name("_SysXtalOscSel")
     106                      .dwattr $C$DW$13, DW_AT_external
     107                      .dwattr $C$DW$13, DW_AT_TI_begin_file("C:/ti/controlSUITE/device_support/F2837xD/v170/F2837xD_common/
     108                      .dwattr $C$DW$13, DW_AT_TI_begin_line(0x24c)
     109                      .dwattr $C$DW$13, DW_AT_TI_begin_column(0x06)
     110                      .dwattr $C$DW$13, DW_AT_TI_max_frame_size(-2)
TMS320C2000 Assembler PC v20.2.1 Wed Oct  7 22:14:22 2020

Copyright (c) 1996-2018 Texas Instruments Incorporated
F2837xD_SysCtrl.asm                                                  PAGE    3

     111                      .dwpsn  file "C:/ti/controlSUITE/device_support/F2837xD/v170/F2837xD_common/source/F2837xD_SysCtrl.c"
     112              
     113                      .dwfde $C$DW$CIE, _SysXtalOscSel
     114              
     115              ;***************************************************************
     116              ;* FNAME: _SysXtalOscSel                FR SIZE:   0           *
     117              ;*                                                             *
     118              ;* FUNCTION ENVIRONMENT                                        *
     119              ;*                                                             *
     120              ;* FUNCTION PROPERTIES                                         *
     121              ;*                            0 Parameter,  0 Auto,  0 SOE     *
     122              ;***************************************************************
     123              
     124 00000000       _SysXtalOscSel:
     125                      .dwcfi  cfa_offset, -2
     126                      .dwcfi  save_reg_to_mem, 26, 0
     127 00000000 7622   EALLOW
     128 00000001 761F!         MOVW      DP,#_ClkCfgRegs+8     ; [CPU_ARAU] 
         00000002 0000 
     129                      .dwpsn  file "C:/ti/controlSUITE/device_support/F2837xD/v170/F2837xD_common/source/F2837xD_SysCtrl.c"
     130 00000003 1808!         AND       @$BLOCKED(_ClkCfgRegs)+8,#0xffef ; [CPU_ALU] |591| 
         00000004 FFEF 
     131                      .dwpsn  file "C:/ti/controlSUITE/device_support/F2837xD/v170/F2837xD_common/source/F2837xD_SysCtrl.c"
     132 00000005 CC08!         AND       AL,@$BLOCKED(_ClkCfgRegs)+8,#0xfffc ; [CPU_ALU] |592| 
         00000006 FFFC 
     133 00000007 5001          ORB       AL,#0x01              ; [CPU_ALU] |592| 
     134 00000008 9608!         MOV       @$BLOCKED(_ClkCfgRegs)+8,AL ; [CPU_ALU] |592| 
     135 00000009 761A   EDIS
     136 0000000a FF69          SPM       #0                    ; [CPU_ALU] 
     137              $C$DW$14        .dwtag  DW_TAG_TI_branch
     138                      .dwattr $C$DW$14, DW_AT_low_pc(0x00)
     139                      .dwattr $C$DW$14, DW_AT_TI_return
     140              
     141 0000000b 0006          LRETR     ; [CPU_ALU] 
     142                      ; return occurs ; [] 
     143                      .dwattr $C$DW$13, DW_AT_TI_end_file("C:/ti/controlSUITE/device_support/F2837xD/v170/F2837xD_common/so
     144                      .dwattr $C$DW$13, DW_AT_TI_end_line(0x253)
     145                      .dwattr $C$DW$13, DW_AT_TI_end_column(0x01)
     146                      .dwendentry
     147                      .dwendtag $C$DW$13
     148              
     149 0000000c               .sect   ".text"
     150                      .clink
     151                      .global _SysIntOsc2Sel
     152              
     153              $C$DW$15        .dwtag  DW_TAG_subprogram
     154                      .dwattr $C$DW$15, DW_AT_name("SysIntOsc2Sel")
     155                      .dwattr $C$DW$15, DW_AT_low_pc(_SysIntOsc2Sel)
     156                      .dwattr $C$DW$15, DW_AT_high_pc(0x00)
     157                      .dwattr $C$DW$15, DW_AT_TI_symbol_name("_SysIntOsc2Sel")
     158                      .dwattr $C$DW$15, DW_AT_external
     159                      .dwattr $C$DW$15, DW_AT_TI_begin_file("C:/ti/controlSUITE/device_support/F2837xD/v170/F2837xD_common/
     160                      .dwattr $C$DW$15, DW_AT_TI_begin_line(0x23c)
     161                      .dwattr $C$DW$15, DW_AT_TI_begin_column(0x06)
     162                      .dwattr $C$DW$15, DW_AT_TI_max_frame_size(-2)
TMS320C2000 Assembler PC v20.2.1 Wed Oct  7 22:14:22 2020

Copyright (c) 1996-2018 Texas Instruments Incorporated
F2837xD_SysCtrl.asm                                                  PAGE    4

     163                      .dwpsn  file "C:/ti/controlSUITE/device_support/F2837xD/v170/F2837xD_common/source/F2837xD_SysCtrl.c"
     164              
     165                      .dwfde $C$DW$CIE, _SysIntOsc2Sel
     166              
     167              ;***************************************************************
     168              ;* FNAME: _SysIntOsc2Sel                FR SIZE:   0           *
     169              ;*                                                             *
     170              ;* FUNCTION ENVIRONMENT                                        *
     171              ;*                                                             *
     172              ;* FUNCTION PROPERTIES                                         *
     173              ;*                            0 Parameter,  0 Auto,  0 SOE     *
     174              ;***************************************************************
     175              
     176 0000000c       _SysIntOsc2Sel:
     177                      .dwcfi  cfa_offset, -2
     178                      .dwcfi  save_reg_to_mem, 26, 0
     179 0000000c 7622   EALLOW
     180 0000000d 761F!         MOVW      DP,#_ClkCfgRegs+8     ; [CPU_ARAU] 
         0000000e 0000 
     181                      .dwpsn  file "C:/ti/controlSUITE/device_support/F2837xD/v170/F2837xD_common/source/F2837xD_SysCtrl.c"
     182 0000000f 1808!         AND       @$BLOCKED(_ClkCfgRegs)+8,#0xfff7 ; [CPU_ALU] |575| 
         00000010 FFF7 
     183                      .dwpsn  file "C:/ti/controlSUITE/device_support/F2837xD/v170/F2837xD_common/source/F2837xD_SysCtrl.c"
     184 00000011 1808!         AND       @$BLOCKED(_ClkCfgRegs)+8,#0xfffc ; [CPU_ALU] |576| 
         00000012 FFFC 
     185 00000013 761A   EDIS
     186 00000014 FF69          SPM       #0                    ; [CPU_ALU] 
     187              $C$DW$16        .dwtag  DW_TAG_TI_branch
     188                      .dwattr $C$DW$16, DW_AT_low_pc(0x00)
     189                      .dwattr $C$DW$16, DW_AT_TI_return
     190              
     191 00000015 0006          LRETR     ; [CPU_ALU] 
     192                      ; return occurs ; [] 
     193                      .dwattr $C$DW$15, DW_AT_TI_end_file("C:/ti/controlSUITE/device_support/F2837xD/v170/F2837xD_common/so
     194                      .dwattr $C$DW$15, DW_AT_TI_end_line(0x243)
     195                      .dwattr $C$DW$15, DW_AT_TI_end_column(0x01)
     196                      .dwendentry
     197                      .dwendtag $C$DW$15
     198              
     199 00000016               .sect   ".text"
     200                      .clink
     201                      .global _SysIntOsc1Sel
     202              
     203              $C$DW$17        .dwtag  DW_TAG_subprogram
     204                      .dwattr $C$DW$17, DW_AT_name("SysIntOsc1Sel")
     205                      .dwattr $C$DW$17, DW_AT_low_pc(_SysIntOsc1Sel)
     206                      .dwattr $C$DW$17, DW_AT_high_pc(0x00)
     207                      .dwattr $C$DW$17, DW_AT_TI_symbol_name("_SysIntOsc1Sel")
     208                      .dwattr $C$DW$17, DW_AT_external
     209                      .dwattr $C$DW$17, DW_AT_TI_begin_file("C:/ti/controlSUITE/device_support/F2837xD/v170/F2837xD_common/
     210                      .dwattr $C$DW$17, DW_AT_TI_begin_line(0x22d)
     211                      .dwattr $C$DW$17, DW_AT_TI_begin_column(0x06)
     212                      .dwattr $C$DW$17, DW_AT_TI_max_frame_size(-2)
     213                      .dwpsn  file "C:/ti/controlSUITE/device_support/F2837xD/v170/F2837xD_common/source/F2837xD_SysCtrl.c"
     214              
TMS320C2000 Assembler PC v20.2.1 Wed Oct  7 22:14:22 2020

Copyright (c) 1996-2018 Texas Instruments Incorporated
F2837xD_SysCtrl.asm                                                  PAGE    5

     215                      .dwfde $C$DW$CIE, _SysIntOsc1Sel
     216              
     217              ;***************************************************************
     218              ;* FNAME: _SysIntOsc1Sel                FR SIZE:   0           *
     219              ;*                                                             *
     220              ;* FUNCTION ENVIRONMENT                                        *
     221              ;*                                                             *
     222              ;* FUNCTION PROPERTIES                                         *
     223              ;*                            0 Parameter,  0 Auto,  0 SOE     *
     224              ;***************************************************************
     225              
     226 00000016       _SysIntOsc1Sel:
     227                      .dwcfi  cfa_offset, -2
     228                      .dwcfi  save_reg_to_mem, 26, 0
     229 00000016 7622   EALLOW
     230 00000017 761F!         MOVW      DP,#_ClkCfgRegs+8     ; [CPU_ARAU] 
         00000018 0000 
     231                      .dwpsn  file "C:/ti/controlSUITE/device_support/F2837xD/v170/F2837xD_common/source/F2837xD_SysCtrl.c"
     232 00000019 CC08!         AND       AL,@$BLOCKED(_ClkCfgRegs)+8,#0xfffe ; [CPU_ALU] |559| 
         0000001a FFFE 
     233 0000001b 5002          ORB       AL,#0x02              ; [CPU_ALU] |559| 
     234 0000001c 9608!         MOV       @$BLOCKED(_ClkCfgRegs)+8,AL ; [CPU_ALU] |559| 
     235 0000001d 761A   EDIS
     236 0000001e FF69          SPM       #0                    ; [CPU_ALU] 
     237              $C$DW$18        .dwtag  DW_TAG_TI_branch
     238                      .dwattr $C$DW$18, DW_AT_low_pc(0x00)
     239                      .dwattr $C$DW$18, DW_AT_TI_return
     240              
     241 0000001f 0006          LRETR     ; [CPU_ALU] 
     242                      ; return occurs ; [] 
     243                      .dwattr $C$DW$17, DW_AT_TI_end_file("C:/ti/controlSUITE/device_support/F2837xD/v170/F2837xD_common/so
     244                      .dwattr $C$DW$17, DW_AT_TI_end_line(0x231)
     245                      .dwattr $C$DW$17, DW_AT_TI_end_column(0x01)
     246                      .dwendentry
     247                      .dwendtag $C$DW$17
     248              
     249 00000020               .sect   ".text"
     250                      .clink
     251                      .global _ServiceDog
     252              
     253              $C$DW$19        .dwtag  DW_TAG_subprogram
     254                      .dwattr $C$DW$19, DW_AT_name("ServiceDog")
     255                      .dwattr $C$DW$19, DW_AT_low_pc(_ServiceDog)
     256                      .dwattr $C$DW$19, DW_AT_high_pc(0x00)
     257                      .dwattr $C$DW$19, DW_AT_TI_symbol_name("_ServiceDog")
     258                      .dwattr $C$DW$19, DW_AT_external
     259                      .dwattr $C$DW$19, DW_AT_TI_begin_file("C:/ti/controlSUITE/device_support/F2837xD/v170/F2837xD_common/
     260                      .dwattr $C$DW$19, DW_AT_TI_begin_line(0x11d)
     261                      .dwattr $C$DW$19, DW_AT_TI_begin_column(0x06)
     262                      .dwattr $C$DW$19, DW_AT_TI_max_frame_size(-2)
     263                      .dwpsn  file "C:/ti/controlSUITE/device_support/F2837xD/v170/F2837xD_common/source/F2837xD_SysCtrl.c"
     264              
     265                      .dwfde $C$DW$CIE, _ServiceDog
     266              
     267              ;***************************************************************
TMS320C2000 Assembler PC v20.2.1 Wed Oct  7 22:14:22 2020

Copyright (c) 1996-2018 Texas Instruments Incorporated
F2837xD_SysCtrl.asm                                                  PAGE    6

     268              ;* FNAME: _ServiceDog                   FR SIZE:   0           *
     269              ;*                                                             *
     270              ;* FUNCTION ENVIRONMENT                                        *
     271              ;*                                                             *
     272              ;* FUNCTION PROPERTIES                                         *
     273              ;*                            0 Parameter,  0 Auto,  0 SOE     *
     274              ;***************************************************************
     275              
     276 00000020       _ServiceDog:
     277                      .dwcfi  cfa_offset, -2
     278                      .dwcfi  save_reg_to_mem, 26, 0
     279 00000020 7622   EALLOW
     280 00000021 761F!         MOVW      DP,#_WdRegs+37        ; [CPU_ARAU] 
         00000022 0000 
     281                      .dwpsn  file "C:/ti/controlSUITE/device_support/F2837xD/v170/F2837xD_common/source/F2837xD_SysCtrl.c"
     282 00000023 CC25!         AND       AL,@$BLOCKED(_WdRegs)+37,#0xff00 ; [CPU_ALU] |288| 
         00000024 FF00 
     283 00000025 5055          ORB       AL,#0x55              ; [CPU_ALU] |288| 
     284 00000026 9625!         MOV       @$BLOCKED(_WdRegs)+37,AL ; [CPU_ALU] |288| 
     285                      .dwpsn  file "C:/ti/controlSUITE/device_support/F2837xD/v170/F2837xD_common/source/F2837xD_SysCtrl.c"
     286 00000027 CC25!         AND       AL,@$BLOCKED(_WdRegs)+37,#0xff80 ; [CPU_ALU] |289| 
         00000028 FF80 
     287 00000029 50AA          ORB       AL,#0xaa              ; [CPU_ALU] |289| 
     288 0000002a 9625!         MOV       @$BLOCKED(_WdRegs)+37,AL ; [CPU_ALU] |289| 
     289 0000002b 761A   EDIS
     290 0000002c FF69          SPM       #0                    ; [CPU_ALU] 
     291              $C$DW$20        .dwtag  DW_TAG_TI_branch
     292                      .dwattr $C$DW$20, DW_AT_low_pc(0x00)
     293                      .dwattr $C$DW$20, DW_AT_TI_return
     294              
     295 0000002d 0006          LRETR     ; [CPU_ALU] 
     296                      ; return occurs ; [] 
     297                      .dwattr $C$DW$19, DW_AT_TI_end_file("C:/ti/controlSUITE/device_support/F2837xD/v170/F2837xD_common/so
     298                      .dwattr $C$DW$19, DW_AT_TI_end_line(0x123)
     299                      .dwattr $C$DW$19, DW_AT_TI_end_column(0x01)
     300                      .dwendentry
     301                      .dwendtag $C$DW$19
     302              
     303 0000002e               .sect   ".text"
     304                      .clink
     305                      .global _STANDBY
     306              
     307              $C$DW$21        .dwtag  DW_TAG_subprogram
     308                      .dwattr $C$DW$21, DW_AT_name("STANDBY")
     309                      .dwattr $C$DW$21, DW_AT_low_pc(_STANDBY)
     310                      .dwattr $C$DW$21, DW_AT_high_pc(0x00)
     311                      .dwattr $C$DW$21, DW_AT_TI_symbol_name("_STANDBY")
     312                      .dwattr $C$DW$21, DW_AT_external
     313                      .dwattr $C$DW$21, DW_AT_TI_begin_file("C:/ti/controlSUITE/device_support/F2837xD/v170/F2837xD_common/
     314                      .dwattr $C$DW$21, DW_AT_TI_begin_line(0x291)
     315                      .dwattr $C$DW$21, DW_AT_TI_begin_column(0x06)
     316                      .dwattr $C$DW$21, DW_AT_TI_max_frame_size(-2)
     317                      .dwpsn  file "C:/ti/controlSUITE/device_support/F2837xD/v170/F2837xD_common/source/F2837xD_SysCtrl.c"
     318              
     319                      .dwfde $C$DW$CIE, _STANDBY
TMS320C2000 Assembler PC v20.2.1 Wed Oct  7 22:14:22 2020

Copyright (c) 1996-2018 Texas Instruments Incorporated
F2837xD_SysCtrl.asm                                                  PAGE    7

     320              
     321              ;***************************************************************
     322              ;* FNAME: _STANDBY                      FR SIZE:   0           *
     323              ;*                                                             *
     324              ;* FUNCTION ENVIRONMENT                                        *
     325              ;*                                                             *
     326              ;* FUNCTION PROPERTIES                                         *
     327              ;*                            0 Parameter,  0 Auto,  0 SOE     *
     328              ;***************************************************************
     329              
     330 0000002e       _STANDBY:
     331                      .dwcfi  cfa_offset, -2
     332                      .dwcfi  save_reg_to_mem, 26, 0
     333 0000002e 7622   EALLOW
     334 0000002f 761F!         MOVW      DP,#_CpuSysRegs+118   ; [CPU_ARAU] 
         00000030 0001 
     335                      .dwpsn  file "C:/ti/controlSUITE/device_support/F2837xD/v170/F2837xD_common/source/F2837xD_SysCtrl.c"
     336 00000031 CC36!         AND       AL,@$BLOCKED(_CpuSysRegs)+118,#0xfffc ; [CPU_ALU] |660| 
         00000032 FFFC 
     337 00000033 5001          ORB       AL,#0x01              ; [CPU_ALU] |660| 
     338 00000034 9636!         MOV       @$BLOCKED(_CpuSysRegs)+118,AL ; [CPU_ALU] |660| 
     339 00000035 761A   EDIS
     340 00000036 7621   IDLE
     341 00000037 FF69          SPM       #0                    ; [CPU_ALU] 
     342              $C$DW$22        .dwtag  DW_TAG_TI_branch
     343                      .dwattr $C$DW$22, DW_AT_low_pc(0x00)
     344                      .dwattr $C$DW$22, DW_AT_TI_return
     345              
     346 00000038 0006          LRETR     ; [CPU_ALU] 
     347                      ; return occurs ; [] 
     348                      .dwattr $C$DW$21, DW_AT_TI_end_file("C:/ti/controlSUITE/device_support/F2837xD/v170/F2837xD_common/so
     349                      .dwattr $C$DW$21, DW_AT_TI_end_line(0x297)
     350                      .dwattr $C$DW$21, DW_AT_TI_end_column(0x01)
     351                      .dwendentry
     352                      .dwendtag $C$DW$21
     353              
     354 00000039               .sect   ".text"
     355                      .clink
     356                      .global _InitSysPll
     357              
     358              $C$DW$23        .dwtag  DW_TAG_subprogram
     359                      .dwattr $C$DW$23, DW_AT_name("InitSysPll")
     360                      .dwattr $C$DW$23, DW_AT_low_pc(_InitSysPll)
     361                      .dwattr $C$DW$23, DW_AT_high_pc(0x00)
     362                      .dwattr $C$DW$23, DW_AT_TI_symbol_name("_InitSysPll")
     363                      .dwattr $C$DW$23, DW_AT_external
     364                      .dwattr $C$DW$23, DW_AT_TI_begin_file("C:/ti/controlSUITE/device_support/F2837xD/v170/F2837xD_common/
     365                      .dwattr $C$DW$23, DW_AT_TI_begin_line(0x13c)
     366                      .dwattr $C$DW$23, DW_AT_TI_begin_column(0x06)
     367                      .dwattr $C$DW$23, DW_AT_TI_max_frame_size(-2)
     368                      .dwpsn  file "C:/ti/controlSUITE/device_support/F2837xD/v170/F2837xD_common/source/F2837xD_SysCtrl.c"
     369              
     370                      .dwfde $C$DW$CIE, _InitSysPll
     371              $C$DW$24        .dwtag  DW_TAG_formal_parameter
     372                      .dwattr $C$DW$24, DW_AT_name("clock_source")
TMS320C2000 Assembler PC v20.2.1 Wed Oct  7 22:14:22 2020

Copyright (c) 1996-2018 Texas Instruments Incorporated
F2837xD_SysCtrl.asm                                                  PAGE    8

     373                      .dwattr $C$DW$24, DW_AT_TI_symbol_name("_clock_source")
     374                      .dwattr $C$DW$24, DW_AT_type(*$C$DW$T$19)
     375                      .dwattr $C$DW$24, DW_AT_location[DW_OP_reg0]
     376              
     377              $C$DW$25        .dwtag  DW_TAG_formal_parameter
     378                      .dwattr $C$DW$25, DW_AT_name("imult")
     379                      .dwattr $C$DW$25, DW_AT_TI_symbol_name("_imult")
     380                      .dwattr $C$DW$25, DW_AT_type(*$C$DW$T$19)
     381                      .dwattr $C$DW$25, DW_AT_location[DW_OP_reg1]
     382              
     383              $C$DW$26        .dwtag  DW_TAG_formal_parameter
     384                      .dwattr $C$DW$26, DW_AT_name("fmult")
     385                      .dwattr $C$DW$26, DW_AT_TI_symbol_name("_fmult")
     386                      .dwattr $C$DW$26, DW_AT_type(*$C$DW$T$19)
     387                      .dwattr $C$DW$26, DW_AT_location[DW_OP_reg12]
     388              
     389              $C$DW$27        .dwtag  DW_TAG_formal_parameter
     390                      .dwattr $C$DW$27, DW_AT_name("divsel")
     391                      .dwattr $C$DW$27, DW_AT_TI_symbol_name("_divsel")
     392                      .dwattr $C$DW$27, DW_AT_type(*$C$DW$T$19)
     393                      .dwattr $C$DW$27, DW_AT_location[DW_OP_reg14]
     394              
     395              
     396              ;***************************************************************
     397              ;* FNAME: _InitSysPll                   FR SIZE:   0           *
     398              ;*                                                             *
     399              ;* FUNCTION ENVIRONMENT                                        *
     400              ;*                                                             *
     401              ;* FUNCTION PROPERTIES                                         *
     402              ;*                            0 Parameter,  0 Auto,  0 SOE     *
     403              ;***************************************************************
     404              
     405              _InitSysPll:
     406              ;* AR6   assigned to $O$C1
     407              ;* AR6   assigned to $O$C2
     408              ;* AR6   assigned to $O$C3
     409              ;* PH    assigned to _clock_source
     410              $C$DW$28        .dwtag  DW_TAG_variable
     411                      .dwattr $C$DW$28, DW_AT_name("clock_source")
     412                      .dwattr $C$DW$28, DW_AT_TI_symbol_name("_clock_source")
     413                      .dwattr $C$DW$28, DW_AT_type(*$C$DW$T$385)
     414                      .dwattr $C$DW$28, DW_AT_location[DW_OP_reg3]
     415              
     416              ;* PL    assigned to _imult
     417              $C$DW$29        .dwtag  DW_TAG_variable
     418                      .dwattr $C$DW$29, DW_AT_name("imult")
     419                      .dwattr $C$DW$29, DW_AT_TI_symbol_name("_imult")
     420                      .dwattr $C$DW$29, DW_AT_type(*$C$DW$T$385)
     421                      .dwattr $C$DW$29, DW_AT_location[DW_OP_reg2]
     422              
     423              ;* AR4   assigned to _fmult
     424              $C$DW$30        .dwtag  DW_TAG_variable
     425                      .dwattr $C$DW$30, DW_AT_name("fmult")
     426                      .dwattr $C$DW$30, DW_AT_TI_symbol_name("_fmult")
     427                      .dwattr $C$DW$30, DW_AT_type(*$C$DW$T$385)
TMS320C2000 Assembler PC v20.2.1 Wed Oct  7 22:14:22 2020

Copyright (c) 1996-2018 Texas Instruments Incorporated
F2837xD_SysCtrl.asm                                                  PAGE    9

     428                      .dwattr $C$DW$30, DW_AT_location[DW_OP_reg12]
     429              
     430              ;* AR5   assigned to _divsel
     431              $C$DW$31        .dwtag  DW_TAG_variable
     432                      .dwattr $C$DW$31, DW_AT_name("divsel")
     433                      .dwattr $C$DW$31, DW_AT_TI_symbol_name("_divsel")
     434                      .dwattr $C$DW$31, DW_AT_type(*$C$DW$T$385)
     435                      .dwattr $C$DW$31, DW_AT_location[DW_OP_reg14]
     436              
     437                      .dwcfi  cfa_offset, -2
     438                      .dwcfi  save_reg_to_mem, 26, 0
     439 00000039 2FA9          MOV       PH,AL                 ; [CPU_ALU] |317| 
     440                      .dwpsn  file "C:/ti/controlSUITE/device_support/F2837xD/v170/F2837xD_common/source/F2837xD_SysCtrl.c"
     441 0000003a D008          MOVB      XAR0,#8               ; [CPU_ALU] |318| 
     442 0000003b 7680!         MOVL      XAR6,#_ClkCfgRegs     ; [CPU_ARAU] |318| 
         0000003c 0000 
     443 0000003d 9296          MOV       AL,*+XAR6[AR0]        ; [CPU_ALU] |318| 
     444 0000003e 58AA          MOVZ      AR0,PH                ; [CPU_ALU] |318| 
     445 0000003f 9003          ANDB      AL,#0x03              ; [CPU_ALU] |318| 
     446                      .dwpsn  file "C:/ti/controlSUITE/device_support/F2837xD/v170/F2837xD_common/source/F2837xD_SysCtrl.c"
     447 00000040 27A8          MOV       PL,AH                 ; [CPU_FPU] |317| 
     448                      .dwpsn  file "C:/ti/controlSUITE/device_support/F2837xD/v170/F2837xD_common/source/F2837xD_SysCtrl.c"
     449 00000041 0EA9          MOVU      ACC,AL                ; [CPU_ALU] |318| 
     450 00000042 0FA0          CMPL      ACC,XAR0              ; [CPU_ALU] |318| 
     451 00000043 6018          B         $C$L1,NEQ             ; [CPU_ALU] |318| 
     452                      ; branchcc occurs ; [] |318| 
     453 00000044 D014          MOVB      XAR0,#20              ; [CPU_ALU] |318| 
     454 00000045 80AB          MOVZ      AR7,PL                ; [CPU_ALU] |318| 
     455 00000046 9396          MOV       AH,*+XAR6[AR0]        ; [CPU_ALU] |318| 
     456 00000047 917F          ANDB      AH,#0x7f              ; [CPU_ALU] |318| 
     457 00000048 0EA8          MOVU      ACC,AH                ; [CPU_ALU] |318| 
     458 00000049 0FA7          CMPL      ACC,XAR7              ; [CPU_ALU] |318| 
     459 0000004a 6011          B         $C$L1,NEQ             ; [CPU_ALU] |318| 
     460                      ; branchcc occurs ; [] |318| 
     461 0000004b 761F!         MOVW      DP,#_ClkCfgRegs+20    ; [CPU_ARAU] 
         0000004c 0000 
     462 0000004d 80A4          MOVZ      AR7,AR4               ; [CPU_ALU] |318| 
     463 0000004e CD14!         AND       AH,@$BLOCKED(_ClkCfgRegs)+20,#0x0300 ; [CPU_ALU] |318| 
         0000004f 0300 
     464 00000050 FFD7          LSR       AH,8                  ; [CPU_ALU] |318| 
     465 00000051 0EA8          MOVU      ACC,AH                ; [CPU_ALU] |318| 
     466 00000052 0FA7          CMPL      ACC,XAR7              ; [CPU_ALU] |318| 
     467 00000053 6008          B         $C$L1,NEQ             ; [CPU_ALU] |318| 
     468                      ; branchcc occurs ; [] |318| 
     469 00000054 D022          MOVB      XAR0,#34              ; [CPU_ALU] |318| 
     470 00000055 9396          MOV       AH,*+XAR6[AR0]        ; [CPU_ALU] |318| 
     471 00000056 88A5          MOVZ      AR6,AR5               ; [CPU_ALU] |318| 
     472 00000057 913F          ANDB      AH,#0x3f              ; [CPU_ALU] |318| 
     473 00000058 0EA8          MOVU      ACC,AH                ; [CPU_ALU] |318| 
     474 00000059 0FA6          CMPL      ACC,XAR6              ; [CPU_ALU] |318| 
     475 0000005a 6164          B         $C$L11,EQ             ; [CPU_ALU] |318| 
     476                      ; branchcc occurs ; [] |318| 
     477 0000005b       $C$L1:    
     478 0000005b 761F!         MOVW      DP,#_ClkCfgRegs+8     ; [CPU_ARAU] 
         0000005c 0000 
TMS320C2000 Assembler PC v20.2.1 Wed Oct  7 22:14:22 2020

Copyright (c) 1996-2018 Texas Instruments Incorporated
F2837xD_SysCtrl.asm                                                  PAGE   10

     479                      .dwpsn  file "C:/ti/controlSUITE/device_support/F2837xD/v170/F2837xD_common/source/F2837xD_SysCtrl.c"
     480 0000005d 88AA          MOVZ      AR6,PH                ; [CPU_ALU] |329| 
     481 0000005e 9308!         MOV       AH,@$BLOCKED(_ClkCfgRegs)+8 ; [CPU_ALU] |329| 
     482 0000005f 9103          ANDB      AH,#0x03              ; [CPU_ALU] |329| 
     483 00000060 0EA8          MOVU      ACC,AH                ; [CPU_ALU] |329| 
     484 00000061 0FA6          CMPL      ACC,XAR6              ; [CPU_ALU] |329| 
     485 00000062 610F          B         $C$L4,EQ              ; [CPU_ALU] |329| 
     486                      ; branchcc occurs ; [] |329| 
     487 00000063 92AA          MOV       AL,PH                 ; [CPU_ALU] |329| 
     488 00000064 610B          B         $C$L3,EQ              ; [CPU_ALU] |329| 
     489                      ; branchcc occurs ; [] |329| 
     490 00000065 5201          CMPB      AL,#1                 ; [CPU_ALU] |329| 
     491 00000066 6106          B         $C$L2,EQ              ; [CPU_ALU] |329| 
     492                      ; branchcc occurs ; [] |329| 
     493 00000067 5202          CMPB      AL,#2                 ; [CPU_ALU] |329| 
     494 00000068 6009          B         $C$L4,NEQ             ; [CPU_ALU] |329| 
     495                      ; branchcc occurs ; [] |329| 
     496                      .dwpsn  file "C:/ti/controlSUITE/device_support/F2837xD/v170/F2837xD_common/source/F2837xD_SysCtrl.c"
     497              $C$DW$32        .dwtag  DW_TAG_TI_branch
     498                      .dwattr $C$DW$32, DW_AT_low_pc(0x00)
     499                      .dwattr $C$DW$32, DW_AT_name("_SysIntOsc1Sel")
     500                      .dwattr $C$DW$32, DW_AT_TI_call
     501              
     502 00000069 7640'         LCR       #_SysIntOsc1Sel       ; [CPU_ALU] |332| 
         0000006a 0016 
     503                      ; call occurs [#_SysIntOsc1Sel] ; [] |332| 
     504                      .dwpsn  file "C:/ti/controlSUITE/device_support/F2837xD/v170/F2837xD_common/source/F2837xD_SysCtrl.c"
     505 0000006b 6F06          B         $C$L4,UNC             ; [CPU_ALU] |333| 
     506                      ; branch occurs ; [] |333| 
     507 0000006c       $C$L2:    
     508                      .dwpsn  file "C:/ti/controlSUITE/device_support/F2837xD/v170/F2837xD_common/source/F2837xD_SysCtrl.c"
     509              $C$DW$33        .dwtag  DW_TAG_TI_branch
     510                      .dwattr $C$DW$33, DW_AT_low_pc(0x00)
     511                      .dwattr $C$DW$33, DW_AT_name("_SysXtalOscSel")
     512                      .dwattr $C$DW$33, DW_AT_TI_call
     513              
     514 0000006c 7640'         LCR       #_SysXtalOscSel       ; [CPU_ALU] |340| 
         0000006d 0000 
     515                      ; call occurs [#_SysXtalOscSel] ; [] |340| 
     516                      .dwpsn  file "C:/ti/controlSUITE/device_support/F2837xD/v170/F2837xD_common/source/F2837xD_SysCtrl.c"
     517 0000006e 6F03          B         $C$L4,UNC             ; [CPU_ALU] |341| 
     518                      ; branch occurs ; [] |341| 
     519 0000006f       $C$L3:    
     520                      .dwpsn  file "C:/ti/controlSUITE/device_support/F2837xD/v170/F2837xD_common/source/F2837xD_SysCtrl.c"
     521              $C$DW$34        .dwtag  DW_TAG_TI_branch
     522                      .dwattr $C$DW$34, DW_AT_low_pc(0x00)
     523                      .dwattr $C$DW$34, DW_AT_name("_SysIntOsc2Sel")
     524                      .dwattr $C$DW$34, DW_AT_TI_call
     525              
     526 0000006f 7640'         LCR       #_SysIntOsc2Sel       ; [CPU_ALU] |336| 
         00000070 000C 
     527                      ; call occurs [#_SysIntOsc2Sel] ; [] |336| 
     528 00000071       $C$L4:    
     529 00000071 7622   EALLOW
     530                      .dwpsn  file "C:/ti/controlSUITE/device_support/F2837xD/v170/F2837xD_common/source/F2837xD_SysCtrl.c"
TMS320C2000 Assembler PC v20.2.1 Wed Oct  7 22:14:22 2020

Copyright (c) 1996-2018 Texas Instruments Incorporated
F2837xD_SysCtrl.asm                                                  PAGE   11

     531 00000072 88AB          MOVZ      AR6,PL                ; [CPU_ALU] |347| 
     532 00000073 9214!         MOV       AL,@$BLOCKED(_ClkCfgRegs)+20 ; [CPU_ALU] |347| 
     533 00000074 907F          ANDB      AL,#0x7f              ; [CPU_ALU] |347| 
     534 00000075 0EA9          MOVU      ACC,AL                ; [CPU_ALU] |347| 
     535 00000076 0FA6          CMPL      ACC,XAR6              ; [CPU_ALU] |347| 
     536 00000077 6008          B         $C$L5,NEQ             ; [CPU_ALU] |347| 
     537                      ; branchcc occurs ; [] |347| 
     538 00000078 88A4          MOVZ      AR6,AR4               ; [CPU_ALU] |347| 
     539 00000079 CC14!         AND       AL,@$BLOCKED(_ClkCfgRegs)+20,#0x0300 ; [CPU_ALU] |347| 
         0000007a 0300 
     540 0000007b FFC7          LSR       AL,8                  ; [CPU_ALU] |347| 
     541 0000007c 0EA9          MOVU      ACC,AL                ; [CPU_ALU] |347| 
     542 0000007d 0FA6          CMPL      ACC,XAR6              ; [CPU_ALU] |347| 
     543 0000007e 6120          B         $C$L8,EQ              ; [CPU_ALU] |347| 
     544                      ; branchcc occurs ; [] |347| 
     545 0000007f       $C$L5:    
     546                      .dwpsn  file "C:/ti/controlSUITE/device_support/F2837xD/v170/F2837xD_common/source/F2837xD_SysCtrl.c"
     547 0000007f 7680!         MOVL      XAR6,#_ClkCfgRegs     ; [CPU_ARAU] |350| 
         00000080 0000 
     548                      .dwpsn  file "C:/ti/controlSUITE/device_support/F2837xD/v170/F2837xD_common/source/F2837xD_SysCtrl.c"
     549 00000081 5603          MOV       ACC,AR4 << #8         ; [CPU_ALU] |355| 
         00000082 08A4 
     550                      .dwpsn  file "C:/ti/controlSUITE/device_support/F2837xD/v170/F2837xD_common/source/F2837xD_SysCtrl.c"
     551 00000083 C5A6          MOVL      XAR7,XAR6             ; [CPU_ALU] |350| 
     552                      .dwpsn  file "C:/ti/controlSUITE/device_support/F2837xD/v170/F2837xD_common/source/F2837xD_SysCtrl.c"
     553 00000084 CAAB          OR        AL,PL                 ; [CPU_ALU] |355| 
     554 00000085 2FA9          MOV       PH,AL                 ; [CPU_ALU] |355| 
     555                      .dwpsn  file "C:/ti/controlSUITE/device_support/F2837xD/v170/F2837xD_common/source/F2837xD_SysCtrl.c"
     556 00000086 DE22          ADDB      XAR6,#34              ; [CPU_ALU] |351| 
     557                      .dwpsn  file "C:/ti/controlSUITE/device_support/F2837xD/v170/F2837xD_common/source/F2837xD_SysCtrl.c"
     558 00000087 DF0E          ADDB      XAR7,#14              ; [CPU_ALU] |350| 
     559 00000088 18C7          AND       *+XAR7[0],#0xfffd     ; [CPU_ALU] |350| 
         00000089 FFFD 
     560                      .dwpsn  file "C:/ti/controlSUITE/device_support/F2837xD/v170/F2837xD_common/source/F2837xD_SysCtrl.c"
     561 0000008a 18C6          AND       *+XAR6[0],#0xffc0     ; [CPU_ALU] |351| 
         0000008b FFC0 
     562                      .dwpsn  file "C:/ti/controlSUITE/device_support/F2837xD/v170/F2837xD_common/source/F2837xD_SysCtrl.c"
     563 0000008c 0614!         MOVL      ACC,@$BLOCKED(_ClkCfgRegs)+20 ; [CPU_ALU] |354| 
     564                      .dwpsn  file "C:/ti/controlSUITE/device_support/F2837xD/v170/F2837xD_common/source/F2837xD_SysCtrl.c"
     565 0000008d 18A9          AND       AL,#64640             ; [CPU_ALU] |355| 
         0000008e FC80 
     566 0000008f 9100          ANDB      AH,#0                 ; [CPU_ALU] |355| 
     567 00000090 AFAA          OR        ACC,PH                ; [CPU_ALU] |355| 
     568 00000091 1E14!         MOVL      @$BLOCKED(_ClkCfgRegs)+20,ACC ; [CPU_ALU] |355| 
     569                      .dwpsn  file "C:/ti/controlSUITE/device_support/F2837xD/v170/F2837xD_common/source/F2837xD_SysCtrl.c"
     570 00000092 1A0E!         OR        @$BLOCKED(_ClkCfgRegs)+14,#0x0001 ; [CPU_ALU] |358| 
         00000093 0001 
     571 00000094       $C$L6:    
     572                      .dwpsn  file "C:/ti/controlSUITE/device_support/F2837xD/v170/F2837xD_common/source/F2837xD_SysCtrl.c"
     573 00000094 4016!         TBIT      @$BLOCKED(_ClkCfgRegs)+22,#0 ; [CPU_ALU] |361| 
     574 00000095 6CFF          B         $C$L6,NTC             ; [CPU_ALU] |361| 
     575                      ; branchcc occurs ; [] |361| 
     576                      .dwpsn  file "C:/ti/controlSUITE/device_support/F2837xD/v170/F2837xD_common/source/F2837xD_SysCtrl.c"
     577 00000096 CD14!         AND       AH,@$BLOCKED(_ClkCfgRegs)+20,#0xff80 ; [CPU_ALU] |369| 
         00000097 FF80 
TMS320C2000 Assembler PC v20.2.1 Wed Oct  7 22:14:22 2020

Copyright (c) 1996-2018 Texas Instruments Incorporated
F2837xD_SysCtrl.asm                                                  PAGE   12

     578 00000098 CCAB          AND       AL,PL,#0x007f         ; [CPU_ALU] |369| 
         00000099 007F 
     579 0000009a CAA8          OR        AL,AH                 ; [CPU_ALU] |369| 
     580 0000009b 9614!         MOV       @$BLOCKED(_ClkCfgRegs)+20,AL ; [CPU_ALU] |369| 
     581 0000009c       $C$L7:    
     582                      .dwpsn  file "C:/ti/controlSUITE/device_support/F2837xD/v170/F2837xD_common/source/F2837xD_SysCtrl.c"
     583 0000009c 4016!         TBIT      @$BLOCKED(_ClkCfgRegs)+22,#0 ; [CPU_ALU] |372| 
     584 0000009d 6CFF          B         $C$L7,NTC             ; [CPU_ALU] |372| 
     585                      ; branchcc occurs ; [] |372| 
     586 0000009e       $C$L8:    
     587 0000009e 92A5          MOV       AL,AR5                ; [CPU_ALU] 
     588                      .dwpsn  file "C:/ti/controlSUITE/device_support/F2837xD/v170/F2837xD_common/source/F2837xD_SysCtrl.c"
     589 0000009f 523F          CMPB      AL,#63                ; [CPU_ALU] |380| 
     590 000000a0 6007          B         $C$L9,NEQ             ; [CPU_ALU] |380| 
     591                      ; branchcc occurs ; [] |380| 
     592                      .dwpsn  file "C:/ti/controlSUITE/device_support/F2837xD/v170/F2837xD_common/source/F2837xD_SysCtrl.c"
     593 000000a1 CD22!         AND       AH,@$BLOCKED(_ClkCfgRegs)+34,#0xffc0 ; [CPU_ALU] |385| 
         000000a2 FFC0 
     594 000000a3 903F          ANDB      AL,#63                ; [CPU_ALU] |385| 
     595 000000a4 CAA8          OR        AL,AH                 ; [CPU_ALU] |385| 
     596 000000a5 9622!         MOV       @$BLOCKED(_ClkCfgRegs)+34,AL ; [CPU_ALU] |385| 
     597 000000a6 6F08          B         $C$L10,UNC            ; [CPU_ALU] |385| 
     598                      ; branch occurs ; [] |385| 
     599 000000a7       $C$L9:    
     600                      .dwpsn  file "C:/ti/controlSUITE/device_support/F2837xD/v170/F2837xD_common/source/F2837xD_SysCtrl.c"
     601 000000a7 9A01          MOVB      AL,#1                 ; [CPU_ALU] |382| 
     602 000000a8 CD22!         AND       AH,@$BLOCKED(_ClkCfgRegs)+34,#0xffc0 ; [CPU_ALU] |382| 
         000000a9 FFC0 
     603 000000aa 94A5          ADD       AL,AR5                ; [CPU_ALU] |382| 
     604 000000ab 903F          ANDB      AL,#0x3f              ; [CPU_ALU] |382| 
     605 000000ac CAA8          OR        AL,AH                 ; [CPU_ALU] |382| 
     606 000000ad 9622!         MOV       @$BLOCKED(_ClkCfgRegs)+34,AL ; [CPU_ALU] |382| 
     607 000000ae       $C$L10:    
     608                      .dwpsn  file "C:/ti/controlSUITE/device_support/F2837xD/v170/F2837xD_common/source/F2837xD_SysCtrl.c"
     609 000000ae 7680!         MOVL      XAR6,#_ClkCfgRegs     ; [CPU_ARAU] |389| 
         000000af 0000 
     610 000000b0 8AA6          MOVL      XAR4,XAR6             ; [CPU_ALU] |389| 
     611 000000b1 DC0E          ADDB      XAR4,#14              ; [CPU_ALU] |389| 
     612 000000b2 1AC4          OR        *+XAR4[0],#0x0002     ; [CPU_ALU] |389| 
         000000b3 0002 
     613 000000b4 F664   RPT #100 || NOP
         000000b5 7700 
     614                      .dwpsn  file "C:/ti/controlSUITE/device_support/F2837xD/v170/F2837xD_common/source/F2837xD_SysCtrl.c"
     615 000000b6 92A5          MOV       AL,AR5                ; [CPU_ALU] |395| 
     616 000000b7 D022          MOVB      XAR0,#34              ; [CPU_ALU] |395| 
     617 000000b8 903F          ANDB      AL,#63                ; [CPU_ALU] |395| 
     618 000000b9 CD96          AND       AH,*+XAR6[AR0],#0xffc0 ; [CPU_FPU] |395| 
         000000ba FFC0 
     619 000000bb CAA8          OR        AL,AH                 ; [CPU_ALU] |395| 
     620 000000bc 9622!         MOV       @$BLOCKED(_ClkCfgRegs)+34,AL ; [CPU_ALU] |395| 
     621 000000bd 761A   EDIS
     622 000000be       $C$L11:    
     623 000000be FF69          SPM       #0                    ; [CPU_ALU] 
     624              $C$DW$35        .dwtag  DW_TAG_TI_branch
     625                      .dwattr $C$DW$35, DW_AT_low_pc(0x00)
TMS320C2000 Assembler PC v20.2.1 Wed Oct  7 22:14:22 2020

Copyright (c) 1996-2018 Texas Instruments Incorporated
F2837xD_SysCtrl.asm                                                  PAGE   13

     626                      .dwattr $C$DW$35, DW_AT_TI_return
     627              
     628 000000bf 0006          LRETR     ; [CPU_ALU] 
     629                      ; return occurs ; [] 
     630                      .dwattr $C$DW$23, DW_AT_TI_end_file("C:/ti/controlSUITE/device_support/F2837xD/v170/F2837xD_common/so
     631                      .dwattr $C$DW$23, DW_AT_TI_end_line(0x18d)
     632                      .dwattr $C$DW$23, DW_AT_TI_end_column(0x01)
     633                      .dwendentry
     634                      .dwendtag $C$DW$23
     635              
     636 000000c0               .sect   ".text"
     637                      .clink
     638                      .global _DisableDog
     639              
     640              $C$DW$36        .dwtag  DW_TAG_subprogram
     641                      .dwattr $C$DW$36, DW_AT_name("DisableDog")
     642                      .dwattr $C$DW$36, DW_AT_low_pc(_DisableDog)
     643                      .dwattr $C$DW$36, DW_AT_high_pc(0x00)
     644                      .dwattr $C$DW$36, DW_AT_TI_symbol_name("_DisableDog")
     645                      .dwattr $C$DW$36, DW_AT_external
     646                      .dwattr $C$DW$36, DW_AT_TI_begin_file("C:/ti/controlSUITE/device_support/F2837xD/v170/F2837xD_common/
     647                      .dwattr $C$DW$36, DW_AT_TI_begin_line(0x12a)
     648                      .dwattr $C$DW$36, DW_AT_TI_begin_column(0x06)
     649                      .dwattr $C$DW$36, DW_AT_TI_max_frame_size(-4)
     650                      .dwpsn  file "C:/ti/controlSUITE/device_support/F2837xD/v170/F2837xD_common/source/F2837xD_SysCtrl.c"
     651              
     652                      .dwfde $C$DW$CIE, _DisableDog
     653              
     654              ;***************************************************************
     655              ;* FNAME: _DisableDog                   FR SIZE:   2           *
     656              ;*                                                             *
     657              ;* FUNCTION ENVIRONMENT                                        *
     658              ;*                                                             *
     659              ;* FUNCTION PROPERTIES                                         *
     660              ;*                            0 Parameter,  1 Auto,  0 SOE     *
     661              ;***************************************************************
     662              
     663              _DisableDog:
     664              $C$DW$37        .dwtag  DW_TAG_variable
     665                      .dwattr $C$DW$37, DW_AT_name("temp")
     666                      .dwattr $C$DW$37, DW_AT_TI_symbol_name("_temp")
     667                      .dwattr $C$DW$37, DW_AT_type(*$C$DW$T$384)
     668                      .dwattr $C$DW$37, DW_AT_location[DW_OP_breg20 -1]
     669              
     670                      .dwcfi  cfa_offset, -2
     671                      .dwcfi  save_reg_to_mem, 26, 0
     672 000000c0 FE02          ADDB      SP,#2                 ; [CPU_ARAU] 
     673                      .dwcfi  cfa_offset, -4
     674 000000c1 7622   EALLOW
     675 000000c2 761F!         MOVW      DP,#_WdRegs+41        ; [CPU_ARAU] 
         000000c3 0000 
     676                      .dwpsn  file "C:/ti/controlSUITE/device_support/F2837xD/v170/F2837xD_common/source/F2837xD_SysCtrl.c"
     677 000000c4 9229!         MOV       AL,@$BLOCKED(_WdRegs)+41 ; [CPU_ALU] |303| 
     678 000000c5 9007          ANDB      AL,#0x07              ; [CPU_ALU] |303| 
     679 000000c6 9641          MOV       *-SP[1],AL            ; [CPU_ALU] |303| 
TMS320C2000 Assembler PC v20.2.1 Wed Oct  7 22:14:22 2020

Copyright (c) 1996-2018 Texas Instruments Incorporated
F2837xD_SysCtrl.asm                                                  PAGE   14

     680                      .dwpsn  file "C:/ti/controlSUITE/device_support/F2837xD/v170/F2837xD_common/source/F2837xD_SysCtrl.c"
     681 000000c7 5068          ORB       AL,#0x68              ; [CPU_ALU] |304| 
     682 000000c8 9629!         MOV       @$BLOCKED(_WdRegs)+41,AL ; [CPU_ALU] |304| 
     683 000000c9 761A   EDIS
     684 000000ca FF69          SPM       #0                    ; [CPU_ALU] 
     685 000000cb FE82          SUBB      SP,#2                 ; [CPU_ARAU] 
     686                      .dwcfi  cfa_offset, -2
     687              $C$DW$38        .dwtag  DW_TAG_TI_branch
     688                      .dwattr $C$DW$38, DW_AT_low_pc(0x00)
     689                      .dwattr $C$DW$38, DW_AT_TI_return
     690              
     691 000000cc 0006          LRETR     ; [CPU_ALU] 
     692                      ; return occurs ; [] 
     693                      .dwattr $C$DW$36, DW_AT_TI_end_file("C:/ti/controlSUITE/device_support/F2837xD/v170/F2837xD_common/so
     694                      .dwattr $C$DW$36, DW_AT_TI_end_line(0x132)
     695                      .dwattr $C$DW$36, DW_AT_TI_end_column(0x01)
     696                      .dwendentry
     697                      .dwendtag $C$DW$36
     698              
     699 000000cd               .sect   ".text"
     700                      .clink
     701                      .global _InitPeripheralClocks
     702              
     703              $C$DW$39        .dwtag  DW_TAG_subprogram
     704                      .dwattr $C$DW$39, DW_AT_name("InitPeripheralClocks")
     705                      .dwattr $C$DW$39, DW_AT_low_pc(_InitPeripheralClocks)
     706                      .dwattr $C$DW$39, DW_AT_high_pc(0x00)
     707                      .dwattr $C$DW$39, DW_AT_TI_symbol_name("_InitPeripheralClocks")
     708                      .dwattr $C$DW$39, DW_AT_external
     709                      .dwattr $C$DW$39, DW_AT_TI_begin_file("C:/ti/controlSUITE/device_support/F2837xD/v170/F2837xD_common/
     710                      .dwattr $C$DW$39, DW_AT_TI_begin_line(0x67)
     711                      .dwattr $C$DW$39, DW_AT_TI_begin_column(0x06)
     712                      .dwattr $C$DW$39, DW_AT_TI_max_frame_size(-4)
     713                      .dwpsn  file "C:/ti/controlSUITE/device_support/F2837xD/v170/F2837xD_common/source/F2837xD_SysCtrl.c"
     714              
     715                      .dwfde $C$DW$CIE, _InitPeripheralClocks
     716              
     717              ;***************************************************************
     718              ;* FNAME: _InitPeripheralClocks         FR SIZE:   2           *
     719              ;*                                                             *
     720              ;* FUNCTION ENVIRONMENT                                        *
     721              ;*                                                             *
     722              ;* FUNCTION PROPERTIES                                         *
     723              ;*                            0 Parameter,  0 Auto,  2 SOE     *
     724              ;***************************************************************
     725              
     726 000000cd       _InitPeripheralClocks:
     727              ;* AR4   assigned to $O$C1
     728                      .dwcfi  cfa_offset, -2
     729                      .dwcfi  save_reg_to_mem, 26, 0
     730 000000cd B2BD          MOVL      *SP++,XAR1            ; [CPU_ALU] 
     731                      .dwcfi  save_reg_to_mem, 7, 2
     732                      .dwcfi  cfa_offset, -4
     733 000000ce 7622   EALLOW
     734                      .dwpsn  file "C:/ti/controlSUITE/device_support/F2837xD/v170/F2837xD_common/source/F2837xD_SysCtrl.c"
TMS320C2000 Assembler PC v20.2.1 Wed Oct  7 22:14:22 2020

Copyright (c) 1996-2018 Texas Instruments Incorporated
F2837xD_SysCtrl.asm                                                  PAGE   15

     735 000000cf 8F00!         MOVL      XAR4,#_CpuSysRegs     ; [CPU_ARAU] |107| 
         000000d0 0000 
     736 000000d1 761F!         MOVW      DP,#_CpuSysRegs+34    ; [CPU_ARAU] 
         000000d2 0000 
     737 000000d3 8EA4          MOVL      XAR0,XAR4             ; [CPU_ALU] |107| 
     738                      .dwpsn  file "C:/ti/controlSUITE/device_support/F2837xD/v170/F2837xD_common/source/F2837xD_SysCtrl.c"
     739 000000d4 C5A4          MOVL      XAR7,XAR4             ; [CPU_ALU] |114| 
     740                      .dwpsn  file "C:/ti/controlSUITE/device_support/F2837xD/v170/F2837xD_common/source/F2837xD_SysCtrl.c"
     741 000000d5 C4A4          MOVL      XAR6,XAR4             ; [CPU_ALU] |120| 
     742                      .dwpsn  file "C:/ti/controlSUITE/device_support/F2837xD/v170/F2837xD_common/source/F2837xD_SysCtrl.c"
     743 000000d6 83A4          MOVL      XAR5,XAR4             ; [CPU_ALU] |124| 
     744                      .dwpsn  file "C:/ti/controlSUITE/device_support/F2837xD/v170/F2837xD_common/source/F2837xD_SysCtrl.c"
     745 000000d7 D822          ADDB      XAR0,#34              ; [CPU_ALU] |107| 
     746                      .dwpsn  file "C:/ti/controlSUITE/device_support/F2837xD/v170/F2837xD_common/source/F2837xD_SysCtrl.c"
     747 000000d8 DF23          ADDB      XAR7,#35              ; [CPU_ALU] |114| 
     748                      .dwpsn  file "C:/ti/controlSUITE/device_support/F2837xD/v170/F2837xD_common/source/F2837xD_SysCtrl.c"
     749 000000d9 DE24          ADDB      XAR6,#36              ; [CPU_ALU] |120| 
     750                      .dwpsn  file "C:/ti/controlSUITE/device_support/F2837xD/v170/F2837xD_common/source/F2837xD_SysCtrl.c"
     751 000000da 1AC0          OR        *+XAR0[0],#0x0001     ; [CPU_ALU] |107| 
         000000db 0001 
     752                      .dwpsn  file "C:/ti/controlSUITE/device_support/F2837xD/v170/F2837xD_common/source/F2837xD_SysCtrl.c"
     753 000000dc 1A22!         OR        @$BLOCKED(_CpuSysRegs)+34,#0x0004 ; [CPU_ALU] |108| 
         000000dd 0004 
     754                      .dwpsn  file "C:/ti/controlSUITE/device_support/F2837xD/v170/F2837xD_common/source/F2837xD_SysCtrl.c"
     755 000000de 1A22!         OR        @$BLOCKED(_CpuSysRegs)+34,#0x0008 ; [CPU_ALU] |109| 
         000000df 0008 
     756                      .dwpsn  file "C:/ti/controlSUITE/device_support/F2837xD/v170/F2837xD_common/source/F2837xD_SysCtrl.c"
     757 000000e0 8EA4          MOVL      XAR0,XAR4             ; [CPU_ALU] |148| 
     758                      .dwpsn  file "C:/ti/controlSUITE/device_support/F2837xD/v170/F2837xD_common/source/F2837xD_SysCtrl.c"
     759 000000e1 1A22!         OR        @$BLOCKED(_CpuSysRegs)+34,#0x0010 ; [CPU_ALU] |110| 
         000000e2 0010 
     760                      .dwpsn  file "C:/ti/controlSUITE/device_support/F2837xD/v170/F2837xD_common/source/F2837xD_SysCtrl.c"
     761 000000e3 1A22!         OR        @$BLOCKED(_CpuSysRegs)+34,#0x0020 ; [CPU_ALU] |111| 
         000000e4 0020 
     762                      .dwpsn  file "C:/ti/controlSUITE/device_support/F2837xD/v170/F2837xD_common/source/F2837xD_SysCtrl.c"
     763 000000e5 1AC7          OR        *+XAR7[0],#0x0001     ; [CPU_ALU] |114| 
         000000e6 0001 
     764                      .dwpsn  file "C:/ti/controlSUITE/device_support/F2837xD/v170/F2837xD_common/source/F2837xD_SysCtrl.c"
     765 000000e7 1A23!         OR        @$BLOCKED(_CpuSysRegs)+35,#0x0004 ; [CPU_FPU] |117| 
         000000e8 0004 
     766                      .dwpsn  file "C:/ti/controlSUITE/device_support/F2837xD/v170/F2837xD_common/source/F2837xD_SysCtrl.c"
     767 000000e9 1AC6          OR        *+XAR6[0],#0x0001     ; [CPU_ALU] |120| 
         000000ea 0001 
     768                      .dwpsn  file "C:/ti/controlSUITE/device_support/F2837xD/v170/F2837xD_common/source/F2837xD_SysCtrl.c"
     769 000000eb C4A4          MOVL      XAR6,XAR4             ; [CPU_ALU] |137| 
     770                      .dwpsn  file "C:/ti/controlSUITE/device_support/F2837xD/v170/F2837xD_common/source/F2837xD_SysCtrl.c"
     771 000000ec DD26          ADDB      XAR5,#38              ; [CPU_ALU] |124| 
     772                      .dwpsn  file "C:/ti/controlSUITE/device_support/F2837xD/v170/F2837xD_common/source/F2837xD_SysCtrl.c"
     773 000000ed C5A4          MOVL      XAR7,XAR4             ; [CPU_FPU] |151| 
     774                      .dwpsn  file "C:/ti/controlSUITE/device_support/F2837xD/v170/F2837xD_common/source/F2837xD_SysCtrl.c"
     775 000000ee 1A24!         OR        @$BLOCKED(_CpuSysRegs)+36,#0x0002 ; [CPU_FPU] |121| 
         000000ef 0002 
     776                      .dwpsn  file "C:/ti/controlSUITE/device_support/F2837xD/v170/F2837xD_common/source/F2837xD_SysCtrl.c"
     777 000000f0 DE28          ADDB      XAR6,#40              ; [CPU_ALU] |137| 
     778                      .dwpsn  file "C:/ti/controlSUITE/device_support/F2837xD/v170/F2837xD_common/source/F2837xD_SysCtrl.c"
TMS320C2000 Assembler PC v20.2.1 Wed Oct  7 22:14:22 2020

Copyright (c) 1996-2018 Texas Instruments Incorporated
F2837xD_SysCtrl.asm                                                  PAGE   16

     779 000000f1 1AC5          OR        *+XAR5[0],#0x0001     ; [CPU_ALU] |124| 
         000000f2 0001 
     780                      .dwpsn  file "C:/ti/controlSUITE/device_support/F2837xD/v170/F2837xD_common/source/F2837xD_SysCtrl.c"
     781 000000f3 83A4          MOVL      XAR5,XAR4             ; [CPU_ALU] |144| 
     782                      .dwpsn  file "C:/ti/controlSUITE/device_support/F2837xD/v170/F2837xD_common/source/F2837xD_SysCtrl.c"
     783 000000f4 D82E          ADDB      XAR0,#46              ; [CPU_ALU] |148| 
     784                      .dwpsn  file "C:/ti/controlSUITE/device_support/F2837xD/v170/F2837xD_common/source/F2837xD_SysCtrl.c"
     785 000000f5 1A26!         OR        @$BLOCKED(_CpuSysRegs)+38,#0x0002 ; [CPU_FPU] |125| 
         000000f6 0002 
     786                      .dwpsn  file "C:/ti/controlSUITE/device_support/F2837xD/v170/F2837xD_common/source/F2837xD_SysCtrl.c"
     787 000000f7 1A26!         OR        @$BLOCKED(_CpuSysRegs)+38,#0x0004 ; [CPU_FPU] |126| 
         000000f8 0004 
     788                      .dwpsn  file "C:/ti/controlSUITE/device_support/F2837xD/v170/F2837xD_common/source/F2837xD_SysCtrl.c"
     789 000000f9 DD2A          ADDB      XAR5,#42              ; [CPU_ALU] |144| 
     790                      .dwpsn  file "C:/ti/controlSUITE/device_support/F2837xD/v170/F2837xD_common/source/F2837xD_SysCtrl.c"
     791 000000fa 1A26!         OR        @$BLOCKED(_CpuSysRegs)+38,#0x0008 ; [CPU_FPU] |127| 
         000000fb 0008 
     792                      .dwpsn  file "C:/ti/controlSUITE/device_support/F2837xD/v170/F2837xD_common/source/F2837xD_SysCtrl.c"
     793 000000fc 1A26!         OR        @$BLOCKED(_CpuSysRegs)+38,#0x0010 ; [CPU_FPU] |128| 
         000000fd 0010 
     794                      .dwpsn  file "C:/ti/controlSUITE/device_support/F2837xD/v170/F2837xD_common/source/F2837xD_SysCtrl.c"
     795 000000fe 1A26!         OR        @$BLOCKED(_CpuSysRegs)+38,#0x0020 ; [CPU_FPU] |129| 
         000000ff 0020 
     796                      .dwpsn  file "C:/ti/controlSUITE/device_support/F2837xD/v170/F2837xD_common/source/F2837xD_SysCtrl.c"
     797 00000100 1A26!         OR        @$BLOCKED(_CpuSysRegs)+38,#0x0040 ; [CPU_FPU] |130| 
         00000101 0040 
     798                      .dwpsn  file "C:/ti/controlSUITE/device_support/F2837xD/v170/F2837xD_common/source/F2837xD_SysCtrl.c"
     799 00000102 1A26!         OR        @$BLOCKED(_CpuSysRegs)+38,#0x0080 ; [CPU_FPU] |131| 
         00000103 0080 
     800                      .dwpsn  file "C:/ti/controlSUITE/device_support/F2837xD/v170/F2837xD_common/source/F2837xD_SysCtrl.c"
     801 00000104 1A26!         OR        @$BLOCKED(_CpuSysRegs)+38,#0x0100 ; [CPU_FPU] |132| 
         00000105 0100 
     802                      .dwpsn  file "C:/ti/controlSUITE/device_support/F2837xD/v170/F2837xD_common/source/F2837xD_SysCtrl.c"
     803 00000106 1A26!         OR        @$BLOCKED(_CpuSysRegs)+38,#0x0200 ; [CPU_FPU] |133| 
         00000107 0200 
     804                      .dwpsn  file "C:/ti/controlSUITE/device_support/F2837xD/v170/F2837xD_common/source/F2837xD_SysCtrl.c"
     805 00000108 1A26!         OR        @$BLOCKED(_CpuSysRegs)+38,#0x0400 ; [CPU_FPU] |134| 
         00000109 0400 
     806                      .dwpsn  file "C:/ti/controlSUITE/device_support/F2837xD/v170/F2837xD_common/source/F2837xD_SysCtrl.c"
     807 0000010a 1A26!         OR        @$BLOCKED(_CpuSysRegs)+38,#0x0800 ; [CPU_FPU] |135| 
         0000010b 0800 
     808                      .dwpsn  file "C:/ti/controlSUITE/device_support/F2837xD/v170/F2837xD_common/source/F2837xD_SysCtrl.c"
     809 0000010c 1AC6          OR        *+XAR6[0],#0x0001     ; [CPU_FPU] |137| 
         0000010d 0001 
     810                      .dwpsn  file "C:/ti/controlSUITE/device_support/F2837xD/v170/F2837xD_common/source/F2837xD_SysCtrl.c"
     811 0000010e C4A4          MOVL      XAR6,XAR4             ; [CPU_FPU] |156| 
     812                      .dwpsn  file "C:/ti/controlSUITE/device_support/F2837xD/v170/F2837xD_common/source/F2837xD_SysCtrl.c"
     813 0000010f 8BA4          MOVL      XAR1,XAR4             ; [CPU_FPU] |163| 
     814                      .dwpsn  file "C:/ti/controlSUITE/device_support/F2837xD/v170/F2837xD_common/source/F2837xD_SysCtrl.c"
     815 00000110 DF30          ADDB      XAR7,#48              ; [CPU_ALU] |151| 
     816                      .dwpsn  file "C:/ti/controlSUITE/device_support/F2837xD/v170/F2837xD_common/source/F2837xD_SysCtrl.c"
     817 00000111 1A28!         OR        @$BLOCKED(_CpuSysRegs)+40,#0x0002 ; [CPU_ALU] |138| 
         00000112 0002 
     818                      .dwpsn  file "C:/ti/controlSUITE/device_support/F2837xD/v170/F2837xD_common/source/F2837xD_SysCtrl.c"
     819 00000113 DE32          ADDB      XAR6,#50              ; [CPU_ALU] |156| 
TMS320C2000 Assembler PC v20.2.1 Wed Oct  7 22:14:22 2020

Copyright (c) 1996-2018 Texas Instruments Incorporated
F2837xD_SysCtrl.asm                                                  PAGE   17

     820                      .dwpsn  file "C:/ti/controlSUITE/device_support/F2837xD/v170/F2837xD_common/source/F2837xD_SysCtrl.c"
     821 00000114 1A28!         OR        @$BLOCKED(_CpuSysRegs)+40,#0x0004 ; [CPU_ALU] |139| 
         00000115 0004 
     822                      .dwpsn  file "C:/ti/controlSUITE/device_support/F2837xD/v170/F2837xD_common/source/F2837xD_SysCtrl.c"
     823 00000116 1A28!         OR        @$BLOCKED(_CpuSysRegs)+40,#0x0008 ; [CPU_ALU] |140| 
         00000117 0008 
     824                      .dwpsn  file "C:/ti/controlSUITE/device_support/F2837xD/v170/F2837xD_common/source/F2837xD_SysCtrl.c"
     825 00000118 1A28!         OR        @$BLOCKED(_CpuSysRegs)+40,#0x0010 ; [CPU_ALU] |141| 
         00000119 0010 
     826                      .dwpsn  file "C:/ti/controlSUITE/device_support/F2837xD/v170/F2837xD_common/source/F2837xD_SysCtrl.c"
     827 0000011a 1A28!         OR        @$BLOCKED(_CpuSysRegs)+40,#0x0020 ; [CPU_ALU] |142| 
         0000011b 0020 
     828                      .dwpsn  file "C:/ti/controlSUITE/device_support/F2837xD/v170/F2837xD_common/source/F2837xD_SysCtrl.c"
     829 0000011c 1AC5          OR        *+XAR5[0],#0x0001     ; [CPU_ALU] |144| 
         0000011d 0001 
     830                      .dwpsn  file "C:/ti/controlSUITE/device_support/F2837xD/v170/F2837xD_common/source/F2837xD_SysCtrl.c"
     831 0000011e 83A4          MOVL      XAR5,XAR4             ; [CPU_ALU] |160| 
     832                      .dwpsn  file "C:/ti/controlSUITE/device_support/F2837xD/v170/F2837xD_common/source/F2837xD_SysCtrl.c"
     833 0000011f 1A2A!         OR        @$BLOCKED(_CpuSysRegs)+42,#0x0002 ; [CPU_ALU] |145| 
         00000120 0002 
     834                      .dwpsn  file "C:/ti/controlSUITE/device_support/F2837xD/v170/F2837xD_common/source/F2837xD_SysCtrl.c"
     835 00000121 1A2A!         OR        @$BLOCKED(_CpuSysRegs)+42,#0x0004 ; [CPU_ALU] |146| 
         00000122 0004 
     836                      .dwpsn  file "C:/ti/controlSUITE/device_support/F2837xD/v170/F2837xD_common/source/F2837xD_SysCtrl.c"
     837 00000123 1AC0          OR        *+XAR0[0],#0x0001     ; [CPU_ALU] |148| 
         00000124 0001 
     838                      .dwpsn  file "C:/ti/controlSUITE/device_support/F2837xD/v170/F2837xD_common/source/F2837xD_SysCtrl.c"
     839 00000125 8EA4          MOVL      XAR0,XAR4             ; [CPU_ALU] |166| 
     840                      .dwpsn  file "C:/ti/controlSUITE/device_support/F2837xD/v170/F2837xD_common/source/F2837xD_SysCtrl.c"
     841 00000126 1A2E!         OR        @$BLOCKED(_CpuSysRegs)+46,#0x0002 ; [CPU_ALU] |149| 
         00000127 0002 
     842                      .dwpsn  file "C:/ti/controlSUITE/device_support/F2837xD/v170/F2837xD_common/source/F2837xD_SysCtrl.c"
     843 00000128 1AC7          OR        *+XAR7[0],#0x0001     ; [CPU_FPU] |151| 
         00000129 0001 
     844                      .dwpsn  file "C:/ti/controlSUITE/device_support/F2837xD/v170/F2837xD_common/source/F2837xD_SysCtrl.c"
     845 0000012a C5A4          MOVL      XAR7,XAR4             ; [CPU_FPU] |170| 
     846                      .dwpsn  file "C:/ti/controlSUITE/device_support/F2837xD/v170/F2837xD_common/source/F2837xD_SysCtrl.c"
     847 0000012b DD34          ADDB      XAR5,#52              ; [CPU_ALU] |160| 
     848                      .dwpsn  file "C:/ti/controlSUITE/device_support/F2837xD/v170/F2837xD_common/source/F2837xD_SysCtrl.c"
     849 0000012c D936          ADDB      XAR1,#54              ; [CPU_ALU] |163| 
     850                      .dwpsn  file "C:/ti/controlSUITE/device_support/F2837xD/v170/F2837xD_common/source/F2837xD_SysCtrl.c"
     851 0000012d D838          ADDB      XAR0,#56              ; [CPU_ALU] |166| 
     852                      .dwpsn  file "C:/ti/controlSUITE/device_support/F2837xD/v170/F2837xD_common/source/F2837xD_SysCtrl.c"
     853 0000012e DF39          ADDB      XAR7,#57              ; [CPU_ALU] |170| 
     854                      .dwpsn  file "C:/ti/controlSUITE/device_support/F2837xD/v170/F2837xD_common/source/F2837xD_SysCtrl.c"
     855 0000012f 1A30!         OR        @$BLOCKED(_CpuSysRegs)+48,#0x0002 ; [CPU_FPU] |152| 
         00000130 0002 
     856                      .dwpsn  file "C:/ti/controlSUITE/device_support/F2837xD/v170/F2837xD_common/source/F2837xD_SysCtrl.c"
     857 00000131 1A30!         OR        @$BLOCKED(_CpuSysRegs)+48,#0x0004 ; [CPU_FPU] |153| 
         00000132 0004 
     858                      .dwpsn  file "C:/ti/controlSUITE/device_support/F2837xD/v170/F2837xD_common/source/F2837xD_SysCtrl.c"
     859 00000133 1A30!         OR        @$BLOCKED(_CpuSysRegs)+48,#0x0008 ; [CPU_FPU] |154| 
         00000134 0008 
     860                      .dwpsn  file "C:/ti/controlSUITE/device_support/F2837xD/v170/F2837xD_common/source/F2837xD_SysCtrl.c"
     861 00000135 1AC6          OR        *+XAR6[0],#0x0001     ; [CPU_FPU] |156| 
TMS320C2000 Assembler PC v20.2.1 Wed Oct  7 22:14:22 2020

Copyright (c) 1996-2018 Texas Instruments Incorporated
F2837xD_SysCtrl.asm                                                  PAGE   18

         00000136 0001 
     862                      .dwpsn  file "C:/ti/controlSUITE/device_support/F2837xD/v170/F2837xD_common/source/F2837xD_SysCtrl.c"
     863 00000137 C4A4          MOVL      XAR6,XAR4             ; [CPU_FPU] |172| 
     864                      .dwpsn  file "C:/ti/controlSUITE/device_support/F2837xD/v170/F2837xD_common/source/F2837xD_SysCtrl.c"
     865 00000138 1A32!         OR        @$BLOCKED(_CpuSysRegs)+50,#0x0002 ; [CPU_FPU] |157| 
         00000139 0002 
     866                      .dwpsn  file "C:/ti/controlSUITE/device_support/F2837xD/v170/F2837xD_common/source/F2837xD_SysCtrl.c"
     867 0000013a 1A32!         OR        @$BLOCKED(_CpuSysRegs)+50,#0x0004 ; [CPU_FPU] |158| 
         0000013b 0004 
     868                      .dwpsn  file "C:/ti/controlSUITE/device_support/F2837xD/v170/F2837xD_common/source/F2837xD_SysCtrl.c"
     869 0000013c 1AC5          OR        *+XAR5[0],#0x0001     ; [CPU_FPU] |160| 
         0000013d 0001 
     870                      .dwpsn  file "C:/ti/controlSUITE/device_support/F2837xD/v170/F2837xD_common/source/F2837xD_SysCtrl.c"
     871 0000013e 83A4          MOVL      XAR5,XAR4             ; [CPU_FPU] |175| 
     872                      .dwpsn  file "C:/ti/controlSUITE/device_support/F2837xD/v170/F2837xD_common/source/F2837xD_SysCtrl.c"
     873 0000013f 1A34!         OR        @$BLOCKED(_CpuSysRegs)+52,#0x0002 ; [CPU_FPU] |161| 
         00000140 0002 
     874                      .dwpsn  file "C:/ti/controlSUITE/device_support/F2837xD/v170/F2837xD_common/source/F2837xD_SysCtrl.c"
     875 00000141 1AC1          OR        *+XAR1[0],#0x0001     ; [CPU_FPU] |163| 
         00000142 0001 
     876                      .dwpsn  file "C:/ti/controlSUITE/device_support/F2837xD/v170/F2837xD_common/source/F2837xD_SysCtrl.c"
     877 00000143 1A36!         OR        @$BLOCKED(_CpuSysRegs)+54,#0x0002 ; [CPU_FPU] |164| 
         00000144 0002 
     878                      .dwpsn  file "C:/ti/controlSUITE/device_support/F2837xD/v170/F2837xD_common/source/F2837xD_SysCtrl.c"
     879 00000145 1AC0          OR        *+XAR0[0],#0x0001     ; [CPU_FPU] |166| 
         00000146 0001 
     880                      .dwpsn  file "C:/ti/controlSUITE/device_support/F2837xD/v170/F2837xD_common/source/F2837xD_SysCtrl.c"
     881 00000147 1A38!         OR        @$BLOCKED(_CpuSysRegs)+56,#0x0002 ; [CPU_FPU] |167| 
         00000148 0002 
     882                      .dwpsn  file "C:/ti/controlSUITE/device_support/F2837xD/v170/F2837xD_common/source/F2837xD_SysCtrl.c"
     883 00000149 1AC7          OR        *+XAR7[0],#0x0001     ; [CPU_ALU] |170| 
         0000014a 0001 
     884                      .dwpsn  file "C:/ti/controlSUITE/device_support/F2837xD/v170/F2837xD_common/source/F2837xD_SysCtrl.c"
     885 0000014b C5A4          MOVL      XAR7,XAR4             ; [CPU_ALU] |180| 
     886                      .dwpsn  file "C:/ti/controlSUITE/device_support/F2837xD/v170/F2837xD_common/source/F2837xD_SysCtrl.c"
     887 0000014c DE3A          ADDB      XAR6,#58              ; [CPU_ALU] |172| 
     888                      .dwpsn  file "C:/ti/controlSUITE/device_support/F2837xD/v170/F2837xD_common/source/F2837xD_SysCtrl.c"
     889 0000014d DD3C          ADDB      XAR5,#60              ; [CPU_ALU] |175| 
     890                      .dwpsn  file "C:/ti/controlSUITE/device_support/F2837xD/v170/F2837xD_common/source/F2837xD_SysCtrl.c"
     891 0000014e DF3E          ADDB      XAR7,#62              ; [CPU_ALU] |180| 
     892                      .dwpsn  file "C:/ti/controlSUITE/device_support/F2837xD/v170/F2837xD_common/source/F2837xD_SysCtrl.c"
     893 0000014f DC43          ADDB      XAR4,#67              ; [CPU_ALU] |189| 
     894                      .dwpsn  file "C:/ti/controlSUITE/device_support/F2837xD/v170/F2837xD_common/source/F2837xD_SysCtrl.c"
     895 00000150 1AC6          OR        *+XAR6[0],#0x0001     ; [CPU_FPU] |172| 
         00000151 0001 
     896                      .dwpsn  file "C:/ti/controlSUITE/device_support/F2837xD/v170/F2837xD_common/source/F2837xD_SysCtrl.c"
     897 00000152 1AC5          OR        *+XAR5[0],#0x0001     ; [CPU_FPU] |175| 
         00000153 0001 
     898                      .dwpsn  file "C:/ti/controlSUITE/device_support/F2837xD/v170/F2837xD_common/source/F2837xD_SysCtrl.c"
     899 00000154 1A3C!         OR        @$BLOCKED(_CpuSysRegs)+60,#0x0002 ; [CPU_FPU] |176| 
         00000155 0002 
     900                      .dwpsn  file "C:/ti/controlSUITE/device_support/F2837xD/v170/F2837xD_common/source/F2837xD_SysCtrl.c"
     901 00000156 1A3C!         OR        @$BLOCKED(_CpuSysRegs)+60,#0x0004 ; [CPU_FPU] |177| 
         00000157 0004 
     902                      .dwpsn  file "C:/ti/controlSUITE/device_support/F2837xD/v170/F2837xD_common/source/F2837xD_SysCtrl.c"
TMS320C2000 Assembler PC v20.2.1 Wed Oct  7 22:14:22 2020

Copyright (c) 1996-2018 Texas Instruments Incorporated
F2837xD_SysCtrl.asm                                                  PAGE   19

     903 00000158 1A3C!         OR        @$BLOCKED(_CpuSysRegs)+60,#0x0008 ; [CPU_FPU] |178| 
         00000159 0008 
     904                      .dwpsn  file "C:/ti/controlSUITE/device_support/F2837xD/v170/F2837xD_common/source/F2837xD_SysCtrl.c"
     905 0000015a 1AC7          OR        *+XAR7[0],#0x0001     ; [CPU_FPU] |180| 
         0000015b 0001 
     906                      .dwpsn  file "C:/ti/controlSUITE/device_support/F2837xD/v170/F2837xD_common/source/F2837xD_SysCtrl.c"
     907 0000015c 1A3E!         OR        @$BLOCKED(_CpuSysRegs)+62,#0x0002 ; [CPU_FPU] |181| 
         0000015d 0002 
     908                      .dwpsn  file "C:/ti/controlSUITE/device_support/F2837xD/v170/F2837xD_common/source/F2837xD_SysCtrl.c"
     909 0000015e 1A3E!         OR        @$BLOCKED(_CpuSysRegs)+62,#0x0004 ; [CPU_FPU] |182| 
         0000015f 0004 
     910                      .dwpsn  file "C:/ti/controlSUITE/device_support/F2837xD/v170/F2837xD_common/source/F2837xD_SysCtrl.c"
     911 00000160 1A3E!         OR        @$BLOCKED(_CpuSysRegs)+62,#0x0008 ; [CPU_FPU] |183| 
         00000161 0008 
     912                      .dwpsn  file "C:/ti/controlSUITE/device_support/F2837xD/v170/F2837xD_common/source/F2837xD_SysCtrl.c"
     913 00000162 1A3E!         OR        @$BLOCKED(_CpuSysRegs)+62,#0x0010 ; [CPU_FPU] |184| 
         00000163 0010 
     914                      .dwpsn  file "C:/ti/controlSUITE/device_support/F2837xD/v170/F2837xD_common/source/F2837xD_SysCtrl.c"
     915 00000164 1A3E!         OR        @$BLOCKED(_CpuSysRegs)+62,#0x0020 ; [CPU_FPU] |185| 
         00000165 0020 
     916                      .dwpsn  file "C:/ti/controlSUITE/device_support/F2837xD/v170/F2837xD_common/source/F2837xD_SysCtrl.c"
     917 00000166 1A3E!         OR        @$BLOCKED(_CpuSysRegs)+62,#0x0040 ; [CPU_FPU] |186| 
         00000167 0040 
     918                      .dwpsn  file "C:/ti/controlSUITE/device_support/F2837xD/v170/F2837xD_common/source/F2837xD_SysCtrl.c"
     919 00000168 1A3E!         OR        @$BLOCKED(_CpuSysRegs)+62,#0x0080 ; [CPU_FPU] |187| 
         00000169 0080 
     920 0000016a 761F!         MOVW      DP,#_CpuSysRegs+67    ; [CPU_ARAU] 
         0000016b 0001 
     921                      .dwpsn  file "C:/ti/controlSUITE/device_support/F2837xD/v170/F2837xD_common/source/F2837xD_SysCtrl.c"
     922 0000016c 1AC4          OR        *+XAR4[0],#0x0001     ; [CPU_ALU] |189| 
         0000016d 0001 
     923                      .dwpsn  file "C:/ti/controlSUITE/device_support/F2837xD/v170/F2837xD_common/source/F2837xD_SysCtrl.c"
     924 0000016e 1A03!         OR        @$BLOCKED(_CpuSysRegs)+67,#0x0002 ; [CPU_ALU] |190| 
         0000016f 0002 
     925                      .dwpsn  file "C:/ti/controlSUITE/device_support/F2837xD/v170/F2837xD_common/source/F2837xD_SysCtrl.c"
     926 00000170 1A03!         OR        @$BLOCKED(_CpuSysRegs)+67,#0x0004 ; [CPU_ALU] |191| 
         00000171 0004 
     927 00000172 761A   EDIS
     928 00000173 FF69          SPM       #0                    ; [CPU_ALU] 
     929 00000174 8BBE          MOVL      XAR1,*--SP            ; [CPU_ALU] 
     930                      .dwcfi  cfa_offset, -2
     931                      .dwcfi  restore_reg, 7
     932              $C$DW$40        .dwtag  DW_TAG_TI_branch
     933                      .dwattr $C$DW$40, DW_AT_low_pc(0x00)
     934                      .dwattr $C$DW$40, DW_AT_TI_return
     935              
     936 00000175 0006          LRETR     ; [CPU_ALU] 
     937                      ; return occurs ; [] 
     938                      .dwattr $C$DW$39, DW_AT_TI_end_file("C:/ti/controlSUITE/device_support/F2837xD/v170/F2837xD_common/so
     939                      .dwattr $C$DW$39, DW_AT_TI_end_line(0xc2)
     940                      .dwattr $C$DW$39, DW_AT_TI_end_column(0x01)
     941                      .dwendentry
     942                      .dwendtag $C$DW$39
     943              
     944 00000176               .sect   ".text"
TMS320C2000 Assembler PC v20.2.1 Wed Oct  7 22:14:22 2020

Copyright (c) 1996-2018 Texas Instruments Incorporated
F2837xD_SysCtrl.asm                                                  PAGE   20

     945                      .clink
     946                      .global _InitSysCtrl
     947              
     948              $C$DW$41        .dwtag  DW_TAG_subprogram
     949                      .dwattr $C$DW$41, DW_AT_name("InitSysCtrl")
     950                      .dwattr $C$DW$41, DW_AT_low_pc(_InitSysCtrl)
     951                      .dwattr $C$DW$41, DW_AT_high_pc(0x00)
     952                      .dwattr $C$DW$41, DW_AT_TI_symbol_name("_InitSysCtrl")
     953                      .dwattr $C$DW$41, DW_AT_external
     954                      .dwattr $C$DW$41, DW_AT_TI_begin_file("C:/ti/controlSUITE/device_support/F2837xD/v170/F2837xD_common/
     955                      .dwattr $C$DW$41, DW_AT_TI_begin_line(0x20)
     956                      .dwattr $C$DW$41, DW_AT_TI_begin_column(0x06)
     957                      .dwattr $C$DW$41, DW_AT_TI_max_frame_size(-2)
     958                      .dwpsn  file "C:/ti/controlSUITE/device_support/F2837xD/v170/F2837xD_common/source/F2837xD_SysCtrl.c"
     959              
     960                      .dwfde $C$DW$CIE, _InitSysCtrl
     961              
     962              ;***************************************************************
     963              ;* FNAME: _InitSysCtrl                  FR SIZE:   0           *
     964              ;*                                                             *
     965              ;* FUNCTION ENVIRONMENT                                        *
     966              ;*                                                             *
     967              ;* FUNCTION PROPERTIES                                         *
     968              ;*                            0 Parameter,  0 Auto,  0 SOE     *
     969              ;***************************************************************
     970              
     971 00000176       _InitSysCtrl:
     972                      .dwcfi  cfa_offset, -2
     973                      .dwcfi  save_reg_to_mem, 26, 0
     974                      .dwpsn  file "C:/ti/controlSUITE/device_support/F2837xD/v170/F2837xD_common/source/F2837xD_SysCtrl.c"
     975              $C$DW$42        .dwtag  DW_TAG_TI_branch
     976                      .dwattr $C$DW$42, DW_AT_low_pc(0x00)
     977                      .dwattr $C$DW$42, DW_AT_name("_DisableDog")
     978                      .dwattr $C$DW$42, DW_AT_TI_call
     979              
     980 00000176 7640'         LCR       #_DisableDog          ; [CPU_ALU] |35| 
         00000177 00C0 
     981                      ; call occurs [#_DisableDog] ; [] |35| 
     982 00000178 7622   EALLOW
     983 00000179 FF69          SPM       #0                    ; [CPU_ALU] 
     984                      .dwpsn  file "C:/ti/controlSUITE/device_support/F2837xD/v170/F2837xD_common/source/F2837xD_SysCtrl.c"
     985              $C$DW$43        .dwtag  DW_TAG_TI_branch
     986                      .dwattr $C$DW$43, DW_AT_low_pc(0x00)
     987                      .dwattr $C$DW$43, DW_AT_name("_GPIO_EnableUnbondedIOPullups")
     988                      .dwattr $C$DW$43, DW_AT_TI_call
     989              
     990 0000017a 7640!         LCR       #_GPIO_EnableUnbondedIOPullups ; [CPU_ALU] |62| 
         0000017b 0000 
     991                      ; call occurs [#_GPIO_EnableUnbondedIOPullups] ; [] |62| 
     992 0000017c 761F!         MOVW      DP,#_CpuSysRegs+60    ; [CPU_ARAU] 
         0000017d 0000 
     993                      .dwpsn  file "C:/ti/controlSUITE/device_support/F2837xD/v170/F2837xD_common/source/F2837xD_SysCtrl.c"
     994 0000017e 8F05          MOVL      XAR4,#381366          ; [CPU_ARAU] |70| 
         0000017f D1B6 
     995                      .dwpsn  file "C:/ti/controlSUITE/device_support/F2837xD/v170/F2837xD_common/source/F2837xD_SysCtrl.c"
TMS320C2000 Assembler PC v20.2.1 Wed Oct  7 22:14:22 2020

Copyright (c) 1996-2018 Texas Instruments Incorporated
F2837xD_SysCtrl.asm                                                  PAGE   21

     996 00000180 1A3C!         OR        @$BLOCKED(_CpuSysRegs)+60,#0x0001 ; [CPU_ALU] |64| 
         00000181 0001 
     997                      .dwpsn  file "C:/ti/controlSUITE/device_support/F2837xD/v170/F2837xD_common/source/F2837xD_SysCtrl.c"
     998 00000182 1A3C!         OR        @$BLOCKED(_CpuSysRegs)+60,#0x0002 ; [CPU_ALU] |65| 
         00000183 0002 
     999                      .dwpsn  file "C:/ti/controlSUITE/device_support/F2837xD/v170/F2837xD_common/source/F2837xD_SysCtrl.c"
    1000 00000184 1A3C!         OR        @$BLOCKED(_CpuSysRegs)+60,#0x0004 ; [CPU_ALU] |66| 
         00000185 0004 
    1001                      .dwpsn  file "C:/ti/controlSUITE/device_support/F2837xD/v170/F2837xD_common/source/F2837xD_SysCtrl.c"
    1002 00000186 1A3C!         OR        @$BLOCKED(_CpuSysRegs)+60,#0x0008 ; [CPU_ALU] |67| 
         00000187 0008 
    1003                      .dwpsn  file "C:/ti/controlSUITE/device_support/F2837xD/v170/F2837xD_common/source/F2837xD_SysCtrl.c"
    1004 00000188 92C4          MOV       AL,*+XAR4[0]          ; [CPU_ALU] |70| 
    1005 00000189 600F          B         $C$L12,NEQ            ; [CPU_ALU] |70| 
    1006                      ; branchcc occurs ; [] |70| 
    1007                      .dwpsn  file "C:/ti/controlSUITE/device_support/F2837xD/v170/F2837xD_common/source/F2837xD_SysCtrl.c"
    1008 0000018a 76C0          MOVL      XAR7,#31709           ; [CPU_ARAU] |72| 
         0000018b 7BDD 
    1009 0000018c 761F!         MOVW      DP,#_AnalogSubsysRegs+54 ; [CPU_ARAU] 
         0000018d 0000 
    1010                      .dwpsn  file "C:/ti/controlSUITE/device_support/F2837xD/v170/F2837xD_common/source/F2837xD_SysCtrl.c"
    1011 0000018e 7680          MOVL      XAR6,#31709           ; [CPU_ARAU] |73| 
         0000018f 7BDD 
    1012                      .dwpsn  file "C:/ti/controlSUITE/device_support/F2837xD/v170/F2837xD_common/source/F2837xD_SysCtrl.c"
    1013 00000190 8F40          MOVL      XAR5,#31709           ; [CPU_ARAU] |74| 
         00000191 7BDD 
    1014                      .dwpsn  file "C:/ti/controlSUITE/device_support/F2837xD/v170/F2837xD_common/source/F2837xD_SysCtrl.c"
    1015 00000192 8F00          MOVL      XAR4,#31709           ; [CPU_ARAU] |75| 
         00000193 7BDD 
    1016                      .dwpsn  file "C:/ti/controlSUITE/device_support/F2837xD/v170/F2837xD_common/source/F2837xD_SysCtrl.c"
    1017 00000194 C336!         MOVL      @$BLOCKED(_AnalogSubsysRegs)+54,XAR7 ; [CPU_ALU] |72| 
    1018                      .dwpsn  file "C:/ti/controlSUITE/device_support/F2837xD/v170/F2837xD_common/source/F2837xD_SysCtrl.c"
    1019 00000195 C238!         MOVL      @$BLOCKED(_AnalogSubsysRegs)+56,XAR6 ; [CPU_ALU] |73| 
    1020                      .dwpsn  file "C:/ti/controlSUITE/device_support/F2837xD/v170/F2837xD_common/source/F2837xD_SysCtrl.c"
    1021 00000196 A03A!         MOVL      @$BLOCKED(_AnalogSubsysRegs)+58,XAR5 ; [CPU_ALU] |74| 
    1022                      .dwpsn  file "C:/ti/controlSUITE/device_support/F2837xD/v170/F2837xD_common/source/F2837xD_SysCtrl.c"
    1023 00000197 A83C!         MOVL      @$BLOCKED(_AnalogSubsysRegs)+60,XAR4 ; [CPU_ALU] |75| 
    1024 00000198       $C$L12:    
    1025 00000198 761F!         MOVW      DP,#_CpuSysRegs+60    ; [CPU_ARAU] 
         00000199 0000 
    1026                      .dwpsn  file "C:/ti/controlSUITE/device_support/F2837xD/v170/F2837xD_common/source/F2837xD_SysCtrl.c"
    1027 0000019a 183C!         AND       @$BLOCKED(_CpuSysRegs)+60,#0xfffe ; [CPU_ALU] |78| 
         0000019b FFFE 
    1028                      .dwpsn  file "C:/ti/controlSUITE/device_support/F2837xD/v170/F2837xD_common/source/F2837xD_SysCtrl.c"
    1029 0000019c 183C!         AND       @$BLOCKED(_CpuSysRegs)+60,#0xfffd ; [CPU_ALU] |79| 
         0000019d FFFD 
    1030                      .dwpsn  file "C:/ti/controlSUITE/device_support/F2837xD/v170/F2837xD_common/source/F2837xD_SysCtrl.c"
    1031 0000019e 183C!         AND       @$BLOCKED(_CpuSysRegs)+60,#0xfffb ; [CPU_ALU] |80| 
         0000019f FFFB 
    1032                      .dwpsn  file "C:/ti/controlSUITE/device_support/F2837xD/v170/F2837xD_common/source/F2837xD_SysCtrl.c"
    1033 000001a0 183C!         AND       @$BLOCKED(_CpuSysRegs)+60,#0xfff7 ; [CPU_ALU] |81| 
         000001a1 FFF7 
    1034 000001a2 761A   EDIS
    1035                      .dwpsn  file "C:/ti/controlSUITE/device_support/F2837xD/v170/F2837xD_common/source/F2837xD_SysCtrl.c"
    1036 000001a3 9A01          MOVB      AL,#1                 ; [CPU_ALU] |88| 
TMS320C2000 Assembler PC v20.2.1 Wed Oct  7 22:14:22 2020

Copyright (c) 1996-2018 Texas Instruments Incorporated
F2837xD_SysCtrl.asm                                                  PAGE   22

    1037 000001a4 D400          MOVB      XAR4,#0               ; [CPU_ALU] |88| 
    1038 000001a5 D501          MOVB      XAR5,#1               ; [CPU_ALU] |88| 
    1039 000001a6 9B14          MOVB      AH,#20                ; [CPU_ALU] |88| 
    1040 000001a7 FF69          SPM       #0                    ; [CPU_ALU] 
    1041              $C$DW$44        .dwtag  DW_TAG_TI_branch
    1042                      .dwattr $C$DW$44, DW_AT_low_pc(0x00)
    1043                      .dwattr $C$DW$44, DW_AT_name("_InitSysPll")
    1044                      .dwattr $C$DW$44, DW_AT_TI_call
    1045              
    1046 000001a8 7640'         LCR       #_InitSysPll          ; [CPU_ALU] |88| 
         000001a9 0039 
    1047                      ; call occurs [#_InitSysPll] ; [] |88| 
    1048                      .dwpsn  file "C:/ti/controlSUITE/device_support/F2837xD/v170/F2837xD_common/source/F2837xD_SysCtrl.c"
    1049              $C$DW$45        .dwtag  DW_TAG_TI_branch
    1050                      .dwattr $C$DW$45, DW_AT_low_pc(0x00)
    1051                      .dwattr $C$DW$45, DW_AT_name("_InitPeripheralClocks")
    1052                      .dwattr $C$DW$45, DW_AT_TI_call
    1053              
    1054 000001aa 7640'         LCR       #_InitPeripheralClocks ; [CPU_ALU] |92| 
         000001ab 00CD 
    1055                      ; call occurs [#_InitPeripheralClocks] ; [] |92| 
    1056              $C$DW$46        .dwtag  DW_TAG_TI_branch
    1057                      .dwattr $C$DW$46, DW_AT_low_pc(0x00)
    1058                      .dwattr $C$DW$46, DW_AT_TI_return
    1059              
    1060 000001ac 0006          LRETR     ; [CPU_ALU] 
    1061                      ; return occurs ; [] 
    1062                      .dwattr $C$DW$41, DW_AT_TI_end_file("C:/ti/controlSUITE/device_support/F2837xD/v170/F2837xD_common/so
    1063                      .dwattr $C$DW$41, DW_AT_TI_end_line(0x5d)
    1064                      .dwattr $C$DW$41, DW_AT_TI_end_column(0x01)
    1065                      .dwendentry
    1066                      .dwendtag $C$DW$41
    1067              
    1068 00000000               .sect   "ramfuncs"
    1069                      .clink
    1070                      .global _InitFlash
    1071              
    1072              $C$DW$47        .dwtag  DW_TAG_subprogram
    1073                      .dwattr $C$DW$47, DW_AT_name("InitFlash")
    1074                      .dwattr $C$DW$47, DW_AT_low_pc(_InitFlash)
    1075                      .dwattr $C$DW$47, DW_AT_high_pc(0x00)
    1076                      .dwattr $C$DW$47, DW_AT_TI_symbol_name("_InitFlash")
    1077                      .dwattr $C$DW$47, DW_AT_external
    1078                      .dwattr $C$DW$47, DW_AT_TI_begin_file("C:/ti/controlSUITE/device_support/F2837xD/v170/F2837xD_common/
    1079                      .dwattr $C$DW$47, DW_AT_TI_begin_line(0xe4)
    1080                      .dwattr $C$DW$47, DW_AT_TI_begin_column(0x06)
    1081                      .dwattr $C$DW$47, DW_AT_TI_max_frame_size(-2)
    1082                      .dwpsn  file "C:/ti/controlSUITE/device_support/F2837xD/v170/F2837xD_common/source/F2837xD_SysCtrl.c"
    1083              
    1084                      .dwfde $C$DW$CIE, _InitFlash
    1085              
    1086              ;***************************************************************
    1087              ;* FNAME: _InitFlash                    FR SIZE:   0           *
    1088              ;*                                                             *
    1089              ;* FUNCTION ENVIRONMENT                                        *
TMS320C2000 Assembler PC v20.2.1 Wed Oct  7 22:14:22 2020

Copyright (c) 1996-2018 Texas Instruments Incorporated
F2837xD_SysCtrl.asm                                                  PAGE   23

    1090              ;*                                                             *
    1091              ;* FUNCTION PROPERTIES                                         *
    1092              ;*                            0 Parameter,  0 Auto,  0 SOE     *
    1093              ;***************************************************************
    1094              
    1095 00000000       _InitFlash:
    1096              ;* AR5   assigned to $O$C1
    1097                      .dwcfi  cfa_offset, -2
    1098                      .dwcfi  save_reg_to_mem, 26, 0
    1099 00000000 7622   EALLOW
    1100                      .dwpsn  file "C:/ti/controlSUITE/device_support/F2837xD/v170/F2837xD_common/source/F2837xD_SysCtrl.c"
    1101 00000001 8F40!         MOVL      XAR5,#_Flash0CtrlRegs ; [CPU_ARAU] |237| 
         00000002 0000 
    1102                      .dwpsn  file "C:/ti/controlSUITE/device_support/F2837xD/v170/F2837xD_common/source/F2837xD_SysCtrl.c"
    1103 00000003 A0A9          MOVL      ACC,XAR5              ; [CPU_ALU] |241| 
    1104                      .dwpsn  file "C:/ti/controlSUITE/device_support/F2837xD/v170/F2837xD_common/source/F2837xD_SysCtrl.c"
    1105 00000004 C4A5          MOVL      XAR6,XAR5             ; [CPU_ALU] |237| 
    1106 00000005 761F!         MOVW      DP,#_Flash0CtrlRegs+384 ; [CPU_ARAU] 
         00000006 0006 
    1107                      .dwpsn  file "C:/ti/controlSUITE/device_support/F2837xD/v170/F2837xD_common/source/F2837xD_SysCtrl.c"
    1108 00000007 FF17          ADD       ACC,#3 << 7           ; [CPU_ALU] |241| 
         00000008 0003 
    1109                      .dwpsn  file "C:/ti/controlSUITE/device_support/F2837xD/v170/F2837xD_common/source/F2837xD_SysCtrl.c"
    1110 00000009 DD20          ADDB      XAR5,#32              ; [CPU_ALU] |238| 
    1111                      .dwpsn  file "C:/ti/controlSUITE/device_support/F2837xD/v170/F2837xD_common/source/F2837xD_SysCtrl.c"
    1112 0000000a 8AA9          MOVL      XAR4,ACC              ; [CPU_ALU] |241| 
    1113                      .dwpsn  file "C:/ti/controlSUITE/device_support/F2837xD/v170/F2837xD_common/source/F2837xD_SysCtrl.c"
    1114 0000000b DE24          ADDB      XAR6,#36              ; [CPU_ALU] |237| 
    1115 0000000c 1AC6          OR        *+XAR6[0],#0x0001     ; [CPU_ALU] |237| 
         0000000d 0001 
    1116                      .dwpsn  file "C:/ti/controlSUITE/device_support/F2837xD/v170/F2837xD_common/source/F2837xD_SysCtrl.c"
    1117 0000000e 1AC5          OR        *+XAR5[0],#0x0003     ; [CPU_ALU] |238| 
         0000000f 0003 
    1118                      .dwpsn  file "C:/ti/controlSUITE/device_support/F2837xD/v170/F2837xD_common/source/F2837xD_SysCtrl.c"
    1119 00000010 18C4          AND       *+XAR4[0],#0xfffd     ; [CPU_ALU] |241| 
         00000011 FFFD 
    1120                      .dwpsn  file "C:/ti/controlSUITE/device_support/F2837xD/v170/F2837xD_common/source/F2837xD_SysCtrl.c"
    1121 00000012 1800!         AND       @$BLOCKED(_Flash0CtrlRegs)+384,#0xfffe ; [CPU_ALU] |242| 
         00000013 FFFE 
    1122 00000014 761F!         MOVW      DP,#_Flash0CtrlRegs   ; [CPU_ARAU] 
         00000015 0000 
    1123                      .dwpsn  file "C:/ti/controlSUITE/device_support/F2837xD/v170/F2837xD_common/source/F2837xD_SysCtrl.c"
    1124 00000016 CC00!         AND       AL,@$BLOCKED(_Flash0CtrlRegs),#0xf3ff ; [CPU_ALU] |250| 
         00000017 F3FF 
    1125 00000018 1AA9          OR        AL,#0x0300            ; [CPU_ALU] |250| 
         00000019 0300 
    1126 0000001a 9600!         MOV       @$BLOCKED(_Flash0CtrlRegs),AL ; [CPU_ALU] |250| 
    1127 0000001b 761F!         MOVW      DP,#_Flash0CtrlRegs+384 ; [CPU_ARAU] 
         0000001c 0006 
    1128                      .dwpsn  file "C:/ti/controlSUITE/device_support/F2837xD/v170/F2837xD_common/source/F2837xD_SysCtrl.c"
    1129 0000001d 1A00!         OR        @$BLOCKED(_Flash0CtrlRegs)+384,#0x0002 ; [CPU_ALU] |263| 
         0000001e 0002 
    1130                      .dwpsn  file "C:/ti/controlSUITE/device_support/F2837xD/v170/F2837xD_common/source/F2837xD_SysCtrl.c"
    1131 0000001f 1A00!         OR        @$BLOCKED(_Flash0CtrlRegs)+384,#0x0001 ; [CPU_ALU] |264| 
         00000020 0001 
TMS320C2000 Assembler PC v20.2.1 Wed Oct  7 22:14:22 2020

Copyright (c) 1996-2018 Texas Instruments Incorporated
F2837xD_SysCtrl.asm                                                  PAGE   24

    1132 00000021 761F!         MOVW      DP,#_Flash0EccRegs    ; [CPU_ARAU] 
         00000022 0000 
    1133                      .dwpsn  file "C:/ti/controlSUITE/device_support/F2837xD/v170/F2837xD_common/source/F2837xD_SysCtrl.c"
    1134 00000023 CC00!         AND       AL,@$BLOCKED(_Flash0EccRegs),#0xfff8 ; [CPU_ALU] |268| 
         00000024 FFF8 
    1135 00000025 500A          ORB       AL,#0x0a              ; [CPU_ALU] |268| 
    1136 00000026 9600!         MOV       @$BLOCKED(_Flash0EccRegs),AL ; [CPU_ALU] |268| 
    1137 00000027 761A   EDIS
    1138 00000028 F607   RPT #7 || NOP
         00000029 7700 
    1139 0000002a FF69          SPM       #0                    ; [CPU_ALU] 
    1140              $C$DW$48        .dwtag  DW_TAG_TI_branch
    1141                      .dwattr $C$DW$48, DW_AT_low_pc(0x00)
    1142                      .dwattr $C$DW$48, DW_AT_TI_return
    1143              
    1144 0000002b 0006          LRETR     ; [CPU_ALU] 
    1145                      ; return occurs ; [] 
    1146                      .dwattr $C$DW$47, DW_AT_TI_end_file("C:/ti/controlSUITE/device_support/F2837xD/v170/F2837xD_common/so
    1147                      .dwattr $C$DW$47, DW_AT_TI_end_line(0x115)
    1148                      .dwattr $C$DW$47, DW_AT_TI_end_column(0x01)
    1149                      .dwendentry
    1150                      .dwendtag $C$DW$47
    1151              
    1152 000001ad               .sect   ".text"
    1153                      .clink
    1154                      .global _AuxAuxClkSel
    1155              
    1156              $C$DW$49        .dwtag  DW_TAG_subprogram
    1157                      .dwattr $C$DW$49, DW_AT_name("AuxAuxClkSel")
    1158                      .dwattr $C$DW$49, DW_AT_low_pc(_AuxAuxClkSel)
    1159                      .dwattr $C$DW$49, DW_AT_high_pc(0x00)
    1160                      .dwattr $C$DW$49, DW_AT_TI_symbol_name("_AuxAuxClkSel")
    1161                      .dwattr $C$DW$49, DW_AT_external
    1162                      .dwattr $C$DW$49, DW_AT_TI_begin_file("C:/ti/controlSUITE/device_support/F2837xD/v170/F2837xD_common/
    1163                      .dwattr $C$DW$49, DW_AT_TI_begin_line(0x27e)
    1164                      .dwattr $C$DW$49, DW_AT_TI_begin_column(0x06)
    1165                      .dwattr $C$DW$49, DW_AT_TI_max_frame_size(-2)
    1166                      .dwpsn  file "C:/ti/controlSUITE/device_support/F2837xD/v170/F2837xD_common/source/F2837xD_SysCtrl.c"
    1167              
    1168                      .dwfde $C$DW$CIE, _AuxAuxClkSel
    1169              
    1170              ;***************************************************************
    1171              ;* FNAME: _AuxAuxClkSel                 FR SIZE:   0           *
    1172              ;*                                                             *
    1173              ;* FUNCTION ENVIRONMENT                                        *
    1174              ;*                                                             *
    1175              ;* FUNCTION PROPERTIES                                         *
    1176              ;*                            0 Parameter,  0 Auto,  0 SOE     *
    1177              ;***************************************************************
    1178              
    1179 000001ad       _AuxAuxClkSel:
    1180                      .dwcfi  cfa_offset, -2
    1181                      .dwcfi  save_reg_to_mem, 26, 0
    1182 000001ad 7622   EALLOW
    1183 000001ae 761F!         MOVW      DP,#_ClkCfgRegs+10    ; [CPU_ARAU] 
TMS320C2000 Assembler PC v20.2.1 Wed Oct  7 22:14:22 2020

Copyright (c) 1996-2018 Texas Instruments Incorporated
F2837xD_SysCtrl.asm                                                  PAGE   25

         000001af 0000 
    1184                      .dwpsn  file "C:/ti/controlSUITE/device_support/F2837xD/v170/F2837xD_common/source/F2837xD_SysCtrl.c"
    1185 000001b0 CC0A!         AND       AL,@$BLOCKED(_ClkCfgRegs)+10,#0xfffe ; [CPU_ALU] |641| 
         000001b1 FFFE 
    1186 000001b2 5002          ORB       AL,#0x02              ; [CPU_ALU] |641| 
    1187 000001b3 960A!         MOV       @$BLOCKED(_ClkCfgRegs)+10,AL ; [CPU_ALU] |641| 
    1188 000001b4 761A   EDIS
    1189 000001b5 FF69          SPM       #0                    ; [CPU_ALU] 
    1190              $C$DW$50        .dwtag  DW_TAG_TI_branch
    1191                      .dwattr $C$DW$50, DW_AT_low_pc(0x00)
    1192                      .dwattr $C$DW$50, DW_AT_TI_return
    1193              
    1194 000001b6 0006          LRETR     ; [CPU_ALU] 
    1195                      ; return occurs ; [] 
    1196                      .dwattr $C$DW$49, DW_AT_TI_end_file("C:/ti/controlSUITE/device_support/F2837xD/v170/F2837xD_common/so
    1197                      .dwattr $C$DW$49, DW_AT_TI_end_line(0x284)
    1198                      .dwattr $C$DW$49, DW_AT_TI_end_column(0x01)
    1199                      .dwendentry
    1200                      .dwendtag $C$DW$49
    1201              
    1202 000001b7               .sect   ".text"
    1203                      .clink
    1204                      .global _AuxXtalOscSel
    1205              
    1206              $C$DW$51        .dwtag  DW_TAG_subprogram
    1207                      .dwattr $C$DW$51, DW_AT_name("AuxXtalOscSel")
    1208                      .dwattr $C$DW$51, DW_AT_low_pc(_AuxXtalOscSel)
    1209                      .dwattr $C$DW$51, DW_AT_high_pc(0x00)
    1210                      .dwattr $C$DW$51, DW_AT_TI_symbol_name("_AuxXtalOscSel")
    1211                      .dwattr $C$DW$51, DW_AT_external
    1212                      .dwattr $C$DW$51, DW_AT_TI_begin_file("C:/ti/controlSUITE/device_support/F2837xD/v170/F2837xD_common/
    1213                      .dwattr $C$DW$51, DW_AT_TI_begin_line(0x26e)
    1214                      .dwattr $C$DW$51, DW_AT_TI_begin_column(0x06)
    1215                      .dwattr $C$DW$51, DW_AT_TI_max_frame_size(-2)
    1216                      .dwpsn  file "C:/ti/controlSUITE/device_support/F2837xD/v170/F2837xD_common/source/F2837xD_SysCtrl.c"
    1217              
    1218                      .dwfde $C$DW$CIE, _AuxXtalOscSel
    1219              
    1220              ;***************************************************************
    1221              ;* FNAME: _AuxXtalOscSel                FR SIZE:   0           *
    1222              ;*                                                             *
    1223              ;* FUNCTION ENVIRONMENT                                        *
    1224              ;*                                                             *
    1225              ;* FUNCTION PROPERTIES                                         *
    1226              ;*                            0 Parameter,  0 Auto,  0 SOE     *
    1227              ;***************************************************************
    1228              
    1229 000001b7       _AuxXtalOscSel:
    1230              ;* AR5   assigned to $O$C1
    1231                      .dwcfi  cfa_offset, -2
    1232                      .dwcfi  save_reg_to_mem, 26, 0
    1233 000001b7 7622   EALLOW
    1234                      .dwpsn  file "C:/ti/controlSUITE/device_support/F2837xD/v170/F2837xD_common/source/F2837xD_SysCtrl.c"
    1235 000001b8 8F40!         MOVL      XAR5,#_ClkCfgRegs     ; [CPU_ARAU] |625| 
         000001b9 0000 
TMS320C2000 Assembler PC v20.2.1 Wed Oct  7 22:14:22 2020

Copyright (c) 1996-2018 Texas Instruments Incorporated
F2837xD_SysCtrl.asm                                                  PAGE   26

    1236 000001ba 8AA5          MOVL      XAR4,XAR5             ; [CPU_ALU] |625| 
    1237                      .dwpsn  file "C:/ti/controlSUITE/device_support/F2837xD/v170/F2837xD_common/source/F2837xD_SysCtrl.c"
    1238 000001bb D00A          MOVB      XAR0,#10              ; [CPU_ALU] |626| 
    1239 000001bc 761F!         MOVW      DP,#_ClkCfgRegs+10    ; [CPU_ARAU] 
         000001bd 0000 
    1240                      .dwpsn  file "C:/ti/controlSUITE/device_support/F2837xD/v170/F2837xD_common/source/F2837xD_SysCtrl.c"
    1241 000001be DC08          ADDB      XAR4,#8               ; [CPU_ALU] |625| 
    1242 000001bf 18C4          AND       *+XAR4[0],#0xffef     ; [CPU_ALU] |625| 
         000001c0 FFEF 
    1243                      .dwpsn  file "C:/ti/controlSUITE/device_support/F2837xD/v170/F2837xD_common/source/F2837xD_SysCtrl.c"
    1244 000001c1 CC95          AND       AL,*+XAR5[AR0],#0xfffc ; [CPU_ALU] |626| 
         000001c2 FFFC 
    1245 000001c3 5001          ORB       AL,#0x01              ; [CPU_ALU] |626| 
    1246 000001c4 960A!         MOV       @$BLOCKED(_ClkCfgRegs)+10,AL ; [CPU_ALU] |626| 
    1247 000001c5 761A   EDIS
    1248 000001c6 FF69          SPM       #0                    ; [CPU_ALU] 
    1249              $C$DW$52        .dwtag  DW_TAG_TI_branch
    1250                      .dwattr $C$DW$52, DW_AT_low_pc(0x00)
    1251                      .dwattr $C$DW$52, DW_AT_TI_return
    1252              
    1253 000001c7 0006          LRETR     ; [CPU_ALU] 
    1254                      ; return occurs ; [] 
    1255                      .dwattr $C$DW$51, DW_AT_TI_end_file("C:/ti/controlSUITE/device_support/F2837xD/v170/F2837xD_common/so
    1256                      .dwattr $C$DW$51, DW_AT_TI_end_line(0x275)
    1257                      .dwattr $C$DW$51, DW_AT_TI_end_column(0x01)
    1258                      .dwendentry
    1259                      .dwendtag $C$DW$51
    1260              
    1261 000001c8               .sect   ".text"
    1262                      .clink
    1263                      .global _AuxIntOsc2Sel
    1264              
    1265              $C$DW$53        .dwtag  DW_TAG_subprogram
    1266                      .dwattr $C$DW$53, DW_AT_name("AuxIntOsc2Sel")
    1267                      .dwattr $C$DW$53, DW_AT_low_pc(_AuxIntOsc2Sel)
    1268                      .dwattr $C$DW$53, DW_AT_high_pc(0x00)
    1269                      .dwattr $C$DW$53, DW_AT_TI_symbol_name("_AuxIntOsc2Sel")
    1270                      .dwattr $C$DW$53, DW_AT_external
    1271                      .dwattr $C$DW$53, DW_AT_TI_begin_file("C:/ti/controlSUITE/device_support/F2837xD/v170/F2837xD_common/
    1272                      .dwattr $C$DW$53, DW_AT_TI_begin_line(0x25e)
    1273                      .dwattr $C$DW$53, DW_AT_TI_begin_column(0x06)
    1274                      .dwattr $C$DW$53, DW_AT_TI_max_frame_size(-2)
    1275                      .dwpsn  file "C:/ti/controlSUITE/device_support/F2837xD/v170/F2837xD_common/source/F2837xD_SysCtrl.c"
    1276              
    1277                      .dwfde $C$DW$CIE, _AuxIntOsc2Sel
    1278              
    1279              ;***************************************************************
    1280              ;* FNAME: _AuxIntOsc2Sel                FR SIZE:   0           *
    1281              ;*                                                             *
    1282              ;* FUNCTION ENVIRONMENT                                        *
    1283              ;*                                                             *
    1284              ;* FUNCTION PROPERTIES                                         *
    1285              ;*                            0 Parameter,  0 Auto,  0 SOE     *
    1286              ;***************************************************************
    1287              
TMS320C2000 Assembler PC v20.2.1 Wed Oct  7 22:14:22 2020

Copyright (c) 1996-2018 Texas Instruments Incorporated
F2837xD_SysCtrl.asm                                                  PAGE   27

    1288 000001c8       _AuxIntOsc2Sel:
    1289              ;* AR4   assigned to $O$C1
    1290                      .dwcfi  cfa_offset, -2
    1291                      .dwcfi  save_reg_to_mem, 26, 0
    1292 000001c8 7622   EALLOW
    1293                      .dwpsn  file "C:/ti/controlSUITE/device_support/F2837xD/v170/F2837xD_common/source/F2837xD_SysCtrl.c"
    1294 000001c9 8F00!         MOVL      XAR4,#_ClkCfgRegs     ; [CPU_ARAU] |609| 
         000001ca 0000 
    1295 000001cb 83A4          MOVL      XAR5,XAR4             ; [CPU_ALU] |609| 
    1296                      .dwpsn  file "C:/ti/controlSUITE/device_support/F2837xD/v170/F2837xD_common/source/F2837xD_SysCtrl.c"
    1297 000001cc DC0A          ADDB      XAR4,#10              ; [CPU_ALU] |610| 
    1298                      .dwpsn  file "C:/ti/controlSUITE/device_support/F2837xD/v170/F2837xD_common/source/F2837xD_SysCtrl.c"
    1299 000001cd DD08          ADDB      XAR5,#8               ; [CPU_ALU] |609| 
    1300 000001ce 18C5          AND       *+XAR5[0],#0xfff7     ; [CPU_FPU] |609| 
         000001cf FFF7 
    1301                      .dwpsn  file "C:/ti/controlSUITE/device_support/F2837xD/v170/F2837xD_common/source/F2837xD_SysCtrl.c"
    1302 000001d0 18C4          AND       *+XAR4[0],#0xfffc     ; [CPU_ALU] |610| 
         000001d1 FFFC 
    1303 000001d2 761A   EDIS
    1304 000001d3 FF69          SPM       #0                    ; [CPU_ALU] 
    1305              $C$DW$54        .dwtag  DW_TAG_TI_branch
    1306                      .dwattr $C$DW$54, DW_AT_low_pc(0x00)
    1307                      .dwattr $C$DW$54, DW_AT_TI_return
    1308              
    1309 000001d4 0006          LRETR     ; [CPU_ALU] 
    1310                      ; return occurs ; [] 
    1311                      .dwattr $C$DW$53, DW_AT_TI_end_file("C:/ti/controlSUITE/device_support/F2837xD/v170/F2837xD_common/so
    1312                      .dwattr $C$DW$53, DW_AT_TI_end_line(0x265)
    1313                      .dwattr $C$DW$53, DW_AT_TI_end_column(0x01)
    1314                      .dwendentry
    1315                      .dwendtag $C$DW$53
    1316              
    1317 000001d5               .sect   ".text"
    1318                      .clink
    1319                      .global _InitAuxPll
    1320              
    1321              $C$DW$55        .dwtag  DW_TAG_subprogram
    1322                      .dwattr $C$DW$55, DW_AT_name("InitAuxPll")
    1323                      .dwattr $C$DW$55, DW_AT_low_pc(_InitAuxPll)
    1324                      .dwattr $C$DW$55, DW_AT_high_pc(0x00)
    1325                      .dwattr $C$DW$55, DW_AT_TI_symbol_name("_InitAuxPll")
    1326                      .dwattr $C$DW$55, DW_AT_external
    1327                      .dwattr $C$DW$55, DW_AT_TI_begin_file("C:/ti/controlSUITE/device_support/F2837xD/v170/F2837xD_common/
    1328                      .dwattr $C$DW$55, DW_AT_TI_begin_line(0x198)
    1329                      .dwattr $C$DW$55, DW_AT_TI_begin_column(0x06)
    1330                      .dwattr $C$DW$55, DW_AT_TI_max_frame_size(-6)
    1331                      .dwpsn  file "C:/ti/controlSUITE/device_support/F2837xD/v170/F2837xD_common/source/F2837xD_SysCtrl.c"
    1332              
    1333                      .dwfde $C$DW$CIE, _InitAuxPll
    1334              $C$DW$56        .dwtag  DW_TAG_formal_parameter
    1335                      .dwattr $C$DW$56, DW_AT_name("clock_source")
    1336                      .dwattr $C$DW$56, DW_AT_TI_symbol_name("_clock_source")
    1337                      .dwattr $C$DW$56, DW_AT_type(*$C$DW$T$19)
    1338                      .dwattr $C$DW$56, DW_AT_location[DW_OP_reg0]
    1339              
TMS320C2000 Assembler PC v20.2.1 Wed Oct  7 22:14:22 2020

Copyright (c) 1996-2018 Texas Instruments Incorporated
F2837xD_SysCtrl.asm                                                  PAGE   28

    1340              $C$DW$57        .dwtag  DW_TAG_formal_parameter
    1341                      .dwattr $C$DW$57, DW_AT_name("imult")
    1342                      .dwattr $C$DW$57, DW_AT_TI_symbol_name("_imult")
    1343                      .dwattr $C$DW$57, DW_AT_type(*$C$DW$T$19)
    1344                      .dwattr $C$DW$57, DW_AT_location[DW_OP_reg1]
    1345              
    1346              $C$DW$58        .dwtag  DW_TAG_formal_parameter
    1347                      .dwattr $C$DW$58, DW_AT_name("fmult")
    1348                      .dwattr $C$DW$58, DW_AT_TI_symbol_name("_fmult")
    1349                      .dwattr $C$DW$58, DW_AT_type(*$C$DW$T$19)
    1350                      .dwattr $C$DW$58, DW_AT_location[DW_OP_reg12]
    1351              
    1352              $C$DW$59        .dwtag  DW_TAG_formal_parameter
    1353                      .dwattr $C$DW$59, DW_AT_name("divsel")
    1354                      .dwattr $C$DW$59, DW_AT_TI_symbol_name("_divsel")
    1355                      .dwattr $C$DW$59, DW_AT_type(*$C$DW$T$19)
    1356                      .dwattr $C$DW$59, DW_AT_location[DW_OP_reg14]
    1357              
    1358              
    1359              ;***************************************************************
    1360              ;* FNAME: _InitAuxPll                   FR SIZE:   4           *
    1361              ;*                                                             *
    1362              ;* FUNCTION ENVIRONMENT                                        *
    1363              ;*                                                             *
    1364              ;* FUNCTION PROPERTIES                                         *
    1365              ;*                            0 Parameter,  0 Auto,  4 SOE     *
    1366              ;***************************************************************
    1367              
    1368              _InitAuxPll:
    1369              ;* AR2   assigned to $O$C1
    1370              ;* AR4   assigned to $O$C2
    1371              ;* AR6   assigned to $O$C3
    1372              ;* PH    assigned to _clock_source
    1373              $C$DW$60        .dwtag  DW_TAG_variable
    1374                      .dwattr $C$DW$60, DW_AT_name("clock_source")
    1375                      .dwattr $C$DW$60, DW_AT_TI_symbol_name("_clock_source")
    1376                      .dwattr $C$DW$60, DW_AT_type(*$C$DW$T$385)
    1377                      .dwattr $C$DW$60, DW_AT_location[DW_OP_reg3]
    1378              
    1379              ;* AR7   assigned to _imult
    1380              $C$DW$61        .dwtag  DW_TAG_variable
    1381                      .dwattr $C$DW$61, DW_AT_name("imult")
    1382                      .dwattr $C$DW$61, DW_AT_TI_symbol_name("_imult")
    1383                      .dwattr $C$DW$61, DW_AT_type(*$C$DW$T$385)
    1384                      .dwattr $C$DW$61, DW_AT_location[DW_OP_reg18]
    1385              
    1386              ;* PL    assigned to _fmult
    1387              $C$DW$62        .dwtag  DW_TAG_variable
    1388                      .dwattr $C$DW$62, DW_AT_name("fmult")
    1389                      .dwattr $C$DW$62, DW_AT_TI_symbol_name("_fmult")
    1390                      .dwattr $C$DW$62, DW_AT_type(*$C$DW$T$385)
    1391                      .dwattr $C$DW$62, DW_AT_location[DW_OP_reg2]
    1392              
    1393              ;* AR1   assigned to _divsel
    1394              $C$DW$63        .dwtag  DW_TAG_variable
TMS320C2000 Assembler PC v20.2.1 Wed Oct  7 22:14:22 2020

Copyright (c) 1996-2018 Texas Instruments Incorporated
F2837xD_SysCtrl.asm                                                  PAGE   29

    1395                      .dwattr $C$DW$63, DW_AT_name("divsel")
    1396                      .dwattr $C$DW$63, DW_AT_TI_symbol_name("_divsel")
    1397                      .dwattr $C$DW$63, DW_AT_type(*$C$DW$T$385)
    1398                      .dwattr $C$DW$63, DW_AT_location[DW_OP_reg6]
    1399              
    1400                      .dwcfi  cfa_offset, -2
    1401                      .dwcfi  save_reg_to_mem, 26, 0
    1402 000001d5 27A4          MOV       PL,AR4                ; [CPU_ALU] |409| 
    1403 000001d6 B2BD          MOVL      *SP++,XAR1            ; [CPU_ALU] 
    1404                      .dwcfi  save_reg_to_mem, 7, 2
    1405                      .dwcfi  cfa_offset, -4
    1406 000001d7 2FA9          MOV       PH,AL                 ; [CPU_ALU] |409| 
    1407                      .dwpsn  file "C:/ti/controlSUITE/device_support/F2837xD/v170/F2837xD_common/source/F2837xD_SysCtrl.c"
    1408 000001d8 D00A          MOVB      XAR0,#10              ; [CPU_ALU] |412| 
    1409 000001d9 7680!         MOVL      XAR6,#_ClkCfgRegs     ; [CPU_ARAU] |412| 
         000001da 0000 
    1410 000001db 5CA9          MOVZ      AR4,AL                ; [CPU_ALU] |412| 
    1411                      .dwpsn  file "C:/ti/controlSUITE/device_support/F2837xD/v170/F2837xD_common/source/F2837xD_SysCtrl.c"
    1412 000001dc 80A8          MOVZ      AR7,AH                ; [CPU_ALU] |409| 
    1413 000001dd AABD          MOVL      *SP++,XAR2            ; [CPU_ALU] 
    1414                      .dwcfi  save_reg_to_mem, 9, 4
    1415                      .dwcfi  cfa_offset, -6
    1416 000001de 59A5          MOVZ      AR1,AR5               ; [CPU_ALU] |409| 
    1417                      .dwpsn  file "C:/ti/controlSUITE/device_support/F2837xD/v170/F2837xD_common/source/F2837xD_SysCtrl.c"
    1418 000001df 9296          MOV       AL,*+XAR6[AR0]        ; [CPU_ALU] |412| 
    1419 000001e0 9003          ANDB      AL,#0x03              ; [CPU_ALU] |412| 
    1420 000001e1 0EA9          MOVU      ACC,AL                ; [CPU_ALU] |412| 
    1421 000001e2 0FA4          CMPL      ACC,XAR4              ; [CPU_ALU] |412| 
    1422 000001e3 6018          B         $C$L13,NEQ            ; [CPU_ALU] |412| 
    1423                      ; branchcc occurs ; [] |412| 
    1424 000001e4 D01E          MOVB      XAR0,#30              ; [CPU_ALU] |412| 
    1425 000001e5 5CA7          MOVZ      AR4,AR7               ; [CPU_ALU] |412| 
    1426 000001e6 9396          MOV       AH,*+XAR6[AR0]        ; [CPU_ALU] |412| 
    1427 000001e7 917F          ANDB      AH,#0x7f              ; [CPU_ALU] |412| 
    1428 000001e8 0EA8          MOVU      ACC,AH                ; [CPU_ALU] |412| 
    1429 000001e9 0FA4          CMPL      ACC,XAR4              ; [CPU_ALU] |412| 
    1430 000001ea 6011          B         $C$L13,NEQ            ; [CPU_ALU] |412| 
    1431                      ; branchcc occurs ; [] |412| 
    1432 000001eb 761F!         MOVW      DP,#_ClkCfgRegs+30    ; [CPU_ARAU] 
         000001ec 0000 
    1433 000001ed 5CAB          MOVZ      AR4,PL                ; [CPU_ALU] |412| 
    1434 000001ee CD1E!         AND       AH,@$BLOCKED(_ClkCfgRegs)+30,#0x0300 ; [CPU_ALU] |412| 
         000001ef 0300 
    1435 000001f0 FFD7          LSR       AH,8                  ; [CPU_ALU] |412| 
    1436 000001f1 0EA8          MOVU      ACC,AH                ; [CPU_ALU] |412| 
    1437 000001f2 0FA4          CMPL      ACC,XAR4              ; [CPU_ALU] |412| 
    1438 000001f3 6008          B         $C$L13,NEQ            ; [CPU_ALU] |412| 
    1439                      ; branchcc occurs ; [] |412| 
    1440 000001f4 D024          MOVB      XAR0,#36              ; [CPU_ALU] |412| 
    1441 000001f5 9396          MOV       AH,*+XAR6[AR0]        ; [CPU_ALU] |412| 
    1442 000001f6 88A1          MOVZ      AR6,AR1               ; [CPU_ALU] |412| 
    1443 000001f7 9103          ANDB      AH,#0x03              ; [CPU_ALU] |412| 
    1444 000001f8 0EA8          MOVU      ACC,AH                ; [CPU_ALU] |412| 
    1445 000001f9 0FA6          CMPL      ACC,XAR6              ; [CPU_ALU] |412| 
    1446 000001fa 6169          B         $C$L23,EQ             ; [CPU_ALU] |412| 
TMS320C2000 Assembler PC v20.2.1 Wed Oct  7 22:14:22 2020

Copyright (c) 1996-2018 Texas Instruments Incorporated
F2837xD_SysCtrl.asm                                                  PAGE   30

    1447                      ; branchcc occurs ; [] |412| 
    1448 000001fb       $C$L13:    
    1449                      .dwpsn  file "C:/ti/controlSUITE/device_support/F2837xD/v170/F2837xD_common/source/F2837xD_SysCtrl.c"
    1450 000001fb 92AA          MOV       AL,PH                 ; [CPU_ALU] |421| 
    1451 000001fc 610B          B         $C$L15,EQ             ; [CPU_ALU] |421| 
    1452                      ; branchcc occurs ; [] |421| 
    1453 000001fd 5201          CMPB      AL,#1                 ; [CPU_ALU] |421| 
    1454 000001fe 6106          B         $C$L14,EQ             ; [CPU_ALU] |421| 
    1455                      ; branchcc occurs ; [] |421| 
    1456 000001ff 5204          CMPB      AL,#4                 ; [CPU_ALU] |421| 
    1457 00000200 6009          B         $C$L16,NEQ            ; [CPU_ALU] |421| 
    1458                      ; branchcc occurs ; [] |421| 
    1459                      .dwpsn  file "C:/ti/controlSUITE/device_support/F2837xD/v170/F2837xD_common/source/F2837xD_SysCtrl.c"
    1460              $C$DW$64        .dwtag  DW_TAG_TI_branch
    1461                      .dwattr $C$DW$64, DW_AT_low_pc(0x00)
    1462                      .dwattr $C$DW$64, DW_AT_name("_AuxAuxClkSel")
    1463                      .dwattr $C$DW$64, DW_AT_TI_call
    1464              
    1465 00000201 7640'         LCR       #_AuxAuxClkSel        ; [CPU_ALU] |433| 
         00000202 01AD 
    1466                      ; call occurs [#_AuxAuxClkSel] ; [] |433| 
    1467                      .dwpsn  file "C:/ti/controlSUITE/device_support/F2837xD/v170/F2837xD_common/source/F2837xD_SysCtrl.c"
    1468 00000203 6F06          B         $C$L16,UNC            ; [CPU_ALU] |434| 
    1469                      ; branch occurs ; [] |434| 
    1470 00000204       $C$L14:    
    1471                      .dwpsn  file "C:/ti/controlSUITE/device_support/F2837xD/v170/F2837xD_common/source/F2837xD_SysCtrl.c"
    1472              $C$DW$65        .dwtag  DW_TAG_TI_branch
    1473                      .dwattr $C$DW$65, DW_AT_low_pc(0x00)
    1474                      .dwattr $C$DW$65, DW_AT_name("_AuxXtalOscSel")
    1475                      .dwattr $C$DW$65, DW_AT_TI_call
    1476              
    1477 00000204 7640'         LCR       #_AuxXtalOscSel       ; [CPU_ALU] |429| 
         00000205 01B7 
    1478                      ; call occurs [#_AuxXtalOscSel] ; [] |429| 
    1479                      .dwpsn  file "C:/ti/controlSUITE/device_support/F2837xD/v170/F2837xD_common/source/F2837xD_SysCtrl.c"
    1480 00000206 6F03          B         $C$L16,UNC            ; [CPU_ALU] |430| 
    1481                      ; branch occurs ; [] |430| 
    1482 00000207       $C$L15:    
    1483                      .dwpsn  file "C:/ti/controlSUITE/device_support/F2837xD/v170/F2837xD_common/source/F2837xD_SysCtrl.c"
    1484              $C$DW$66        .dwtag  DW_TAG_TI_branch
    1485                      .dwattr $C$DW$66, DW_AT_low_pc(0x00)
    1486                      .dwattr $C$DW$66, DW_AT_name("_AuxIntOsc2Sel")
    1487                      .dwattr $C$DW$66, DW_AT_TI_call
    1488              
    1489 00000207 7640'         LCR       #_AuxIntOsc2Sel       ; [CPU_ALU] |425| 
         00000208 01C8 
    1490                      ; call occurs [#_AuxIntOsc2Sel] ; [] |425| 
    1491 00000209       $C$L16:    
    1492                      .dwpsn  file "C:/ti/controlSUITE/device_support/F2837xD/v170/F2837xD_common/source/F2837xD_SysCtrl.c"
    1493 00000209 0EA7          MOVU      ACC,AR7               ; [CPU_ALU] |439| 
    1494 0000020a 761F!         MOVW      DP,#_ClkCfgRegs+30    ; [CPU_ARAU] 
         0000020b 0000 
    1495 0000020c 1EA6          MOVL      XAR6,ACC              ; [CPU_ALU] |439| 
    1496 0000020d 921E!         MOV       AL,@$BLOCKED(_ClkCfgRegs)+30 ; [CPU_ALU] |439| 
    1497 0000020e 907F          ANDB      AL,#0x7f              ; [CPU_ALU] |439| 
TMS320C2000 Assembler PC v20.2.1 Wed Oct  7 22:14:22 2020

Copyright (c) 1996-2018 Texas Instruments Incorporated
F2837xD_SysCtrl.asm                                                  PAGE   31

    1498 0000020f 5CA9          MOVZ      AR4,AL                ; [CPU_ALU] |439| 
    1499 00000210 06A6          MOVL      ACC,XAR6              ; [CPU_ALU] |439| 
    1500 00000211 0FA4          CMPL      ACC,XAR4              ; [CPU_ALU] |439| 
    1501 00000212 600A          B         $C$L17,NEQ            ; [CPU_ALU] |439| 
    1502                      ; branchcc occurs ; [] |439| 
    1503 00000213 0EAB          MOVU      ACC,PL                ; [CPU_ALU] |439| 
    1504 00000214 1EA6          MOVL      XAR6,ACC              ; [CPU_ALU] |439| 
    1505 00000215 CC1E!         AND       AL,@$BLOCKED(_ClkCfgRegs)+30,#0x0300 ; [CPU_ALU] |439| 
         00000216 0300 
    1506 00000217 FFC7          LSR       AL,8                  ; [CPU_ALU] |439| 
    1507 00000218 5CA9          MOVZ      AR4,AL                ; [CPU_ALU] |439| 
    1508 00000219 06A6          MOVL      ACC,XAR6              ; [CPU_ALU] |439| 
    1509 0000021a 0FA4          CMPL      ACC,XAR4              ; [CPU_ALU] |439| 
    1510 0000021b 6122          B         $C$L20,EQ             ; [CPU_ALU] |439| 
    1511                      ; branchcc occurs ; [] |439| 
    1512 0000021c       $C$L17:    
    1513 0000021c 7622   EALLOW
    1514                      .dwpsn  file "C:/ti/controlSUITE/device_support/F2837xD/v170/F2837xD_common/source/F2837xD_SysCtrl.c"
    1515 0000021d 8F00!         MOVL      XAR4,#_ClkCfgRegs     ; [CPU_ARAU] |442| 
         0000021e 0000 
    1516                      .dwpsn  file "C:/ti/controlSUITE/device_support/F2837xD/v170/F2837xD_common/source/F2837xD_SysCtrl.c"
    1517 0000021f 5603          MOV       ACC,PL << #8          ; [CPU_ALU] |446| 
         00000220 08AB 
    1518                      .dwpsn  file "C:/ti/controlSUITE/device_support/F2837xD/v170/F2837xD_common/source/F2837xD_SysCtrl.c"
    1519 00000221 83A4          MOVL      XAR5,XAR4             ; [CPU_ALU] |442| 
    1520                      .dwpsn  file "C:/ti/controlSUITE/device_support/F2837xD/v170/F2837xD_common/source/F2837xD_SysCtrl.c"
    1521 00000222 CAA7          OR        AL,AR7                ; [CPU_ALU] |446| 
    1522 00000223 88A9          MOVZ      AR6,AL                ; [CPU_ALU] |446| 
    1523                      .dwpsn  file "C:/ti/controlSUITE/device_support/F2837xD/v170/F2837xD_common/source/F2837xD_SysCtrl.c"
    1524 00000224 DC18          ADDB      XAR4,#24              ; [CPU_ALU] |449| 
    1525                      .dwpsn  file "C:/ti/controlSUITE/device_support/F2837xD/v170/F2837xD_common/source/F2837xD_SysCtrl.c"
    1526 00000225 DD24          ADDB      XAR5,#36              ; [CPU_ALU] |442| 
    1527 00000226 1AC5          OR        *+XAR5[0],#0x0003     ; [CPU_ALU] |442| 
         00000227 0003 
    1528                      .dwpsn  file "C:/ti/controlSUITE/device_support/F2837xD/v170/F2837xD_common/source/F2837xD_SysCtrl.c"
    1529 00000228 061E!         MOVL      ACC,@$BLOCKED(_ClkCfgRegs)+30 ; [CPU_FPU] |445| 
    1530                      .dwpsn  file "C:/ti/controlSUITE/device_support/F2837xD/v170/F2837xD_common/source/F2837xD_SysCtrl.c"
    1531 00000229 18A9          AND       AL,#64640             ; [CPU_ALU] |446| 
         0000022a FC80 
    1532 0000022b 9100          ANDB      AH,#0                 ; [CPU_ALU] |446| 
    1533 0000022c AFA6          OR        ACC,AR6               ; [CPU_ALU] |446| 
    1534 0000022d 1E1E!         MOVL      @$BLOCKED(_ClkCfgRegs)+30,ACC ; [CPU_FPU] |446| 
    1535                      .dwpsn  file "C:/ti/controlSUITE/device_support/F2837xD/v170/F2837xD_common/source/F2837xD_SysCtrl.c"
    1536 0000022e 1AC4          OR        *+XAR4[0],#0x0001     ; [CPU_ALU] |449| 
         0000022f 0001 
    1537 00000230 761A   EDIS
    1538 00000231       $C$L18:    
    1539                      .dwpsn  file "C:/ti/controlSUITE/device_support/F2837xD/v170/F2837xD_common/source/F2837xD_SysCtrl.c"
    1540 00000231 4020!         TBIT      @$BLOCKED(_ClkCfgRegs)+32,#0 ; [CPU_ALU] |453| 
    1541 00000232 6CFF          B         $C$L18,NTC            ; [CPU_ALU] |453| 
    1542                      ; branchcc occurs ; [] |453| 
    1543 00000233 7622   EALLOW
    1544                      .dwpsn  file "C:/ti/controlSUITE/device_support/F2837xD/v170/F2837xD_common/source/F2837xD_SysCtrl.c"
    1545 00000234 CD1E!         AND       AH,@$BLOCKED(_ClkCfgRegs)+30,#0xff80 ; [CPU_ALU] |462| 
         00000235 FF80 
TMS320C2000 Assembler PC v20.2.1 Wed Oct  7 22:14:22 2020

Copyright (c) 1996-2018 Texas Instruments Incorporated
F2837xD_SysCtrl.asm                                                  PAGE   32

    1546 00000236 CCA7          AND       AL,AR7,#0x007f        ; [CPU_ALU] |462| 
         00000237 007F 
    1547 00000238 CAA8          OR        AL,AH                 ; [CPU_ALU] |462| 
    1548 00000239 961E!         MOV       @$BLOCKED(_ClkCfgRegs)+30,AL ; [CPU_ALU] |462| 
    1549 0000023a 761A   EDIS
    1550 0000023b       $C$L19:    
    1551                      .dwpsn  file "C:/ti/controlSUITE/device_support/F2837xD/v170/F2837xD_common/source/F2837xD_SysCtrl.c"
    1552 0000023b 4020!         TBIT      @$BLOCKED(_ClkCfgRegs)+32,#0 ; [CPU_ALU] |466| 
    1553 0000023c 6CFF          B         $C$L19,NTC            ; [CPU_ALU] |466| 
    1554                      ; branchcc occurs ; [] |466| 
    1555 0000023d       $C$L20:    
    1556                      .dwpsn  file "C:/ti/controlSUITE/device_support/F2837xD/v170/F2837xD_common/source/F2837xD_SysCtrl.c"
    1557 0000023d D203          MOVB      XAR2,#3               ; [CPU_ALU] |474| 
    1558                      .dwpsn  file "C:/ti/controlSUITE/device_support/F2837xD/v170/F2837xD_common/source/F2837xD_SysCtrl.c"
    1559 0000023e 6F17          B         $C$L22,UNC            ; [CPU_ALU] |475| 
    1560                      ; branch occurs ; [] |475| 
    1561 0000023f       $C$L21:    
    1562 0000023f 7622   EALLOW
    1563                      .dwpsn  file "C:/ti/controlSUITE/device_support/F2837xD/v170/F2837xD_common/source/F2837xD_SysCtrl.c"
    1564 00000240 DA81          SUBB      XAR2,#1               ; [CPU_ARAU] |478| 
    1565 00000241 CD24!         AND       AH,@$BLOCKED(_ClkCfgRegs)+36,#0xfffc ; [CPU_ALU] |478| 
         00000242 FFFC 
    1566 00000243 CCA2          AND       AL,AR2,#0x0003        ; [CPU_ALU] |478| 
         00000244 0003 
    1567 00000245 CAA8          OR        AL,AH                 ; [CPU_ALU] |478| 
    1568 00000246 9624!         MOV       @$BLOCKED(_ClkCfgRegs)+36,AL ; [CPU_ALU] |478| 
    1569 00000247 761A   EDIS
    1570                      .dwpsn  file "C:/ti/controlSUITE/device_support/F2837xD/v170/F2837xD_common/source/F2837xD_SysCtrl.c"
    1571 00000248 88A1          MOVZ      AR6,AR1               ; [CPU_ALU] |482| 
    1572 00000249 9224!         MOV       AL,@$BLOCKED(_ClkCfgRegs)+36 ; [CPU_ALU] |482| 
    1573 0000024a 9003          ANDB      AL,#0x03              ; [CPU_ALU] |482| 
    1574 0000024b 80A9          MOVZ      AR7,AL                ; [CPU_ALU] |482| 
    1575                      .dwpsn  file "C:/ti/controlSUITE/device_support/F2837xD/v170/F2837xD_common/source/F2837xD_SysCtrl.c"
    1576 0000024c 06A6          MOVL      ACC,XAR6              ; [CPU_ALU] |481| 
    1577                      .dwpsn  file "C:/ti/controlSUITE/device_support/F2837xD/v170/F2837xD_common/source/F2837xD_SysCtrl.c"
    1578 0000024d 0FA7          CMPL      ACC,XAR7              ; [CPU_ALU] |482| 
    1579 0000024e 6107          B         $C$L22,EQ             ; [CPU_ALU] |482| 
    1580                      ; branchcc occurs ; [] |482| 
    1581                      .dwpsn  file "C:/ti/controlSUITE/device_support/F2837xD/v170/F2837xD_common/source/F2837xD_SysCtrl.c"
    1582 0000024f 8F00          MOVL      XAR4,#598             ; [CPU_ARAU] |484| 
         00000250 0256 
    1583 00000251 FF69          SPM       #0                    ; [CPU_ALU] 
    1584 00000252 A8A9          MOVL      ACC,XAR4              ; [CPU_ALU] |484| 
    1585              $C$DW$67        .dwtag  DW_TAG_TI_branch
    1586                      .dwattr $C$DW$67, DW_AT_low_pc(0x00)
    1587                      .dwattr $C$DW$67, DW_AT_name("_F28x_usDelay")
    1588                      .dwattr $C$DW$67, DW_AT_TI_call
    1589              
    1590 00000253 7640!         LCR       #_F28x_usDelay        ; [CPU_ALU] |484| 
         00000254 0000 
    1591                      ; call occurs [#_F28x_usDelay] ; [] |484| 
    1592 00000255       $C$L22:    
    1593                      .dwpsn  file "C:/ti/controlSUITE/device_support/F2837xD/v170/F2837xD_common/source/F2837xD_SysCtrl.c"
    1594 00000255 0EA1          MOVU      ACC,AR1               ; [CPU_ALU] |475| 
    1595 00000256 761F!         MOVW      DP,#_ClkCfgRegs+36    ; [CPU_ARAU] 
TMS320C2000 Assembler PC v20.2.1 Wed Oct  7 22:14:22 2020

Copyright (c) 1996-2018 Texas Instruments Incorporated
F2837xD_SysCtrl.asm                                                  PAGE   33

         00000257 0000 
    1596 00000258 1EA6          MOVL      XAR6,ACC              ; [CPU_ALU] |475| 
    1597 00000259 9224!         MOV       AL,@$BLOCKED(_ClkCfgRegs)+36 ; [CPU_ALU] |475| 
    1598 0000025a 9003          ANDB      AL,#0x03              ; [CPU_ALU] |475| 
    1599 0000025b 80A9          MOVZ      AR7,AL                ; [CPU_ALU] |475| 
    1600 0000025c 06A6          MOVL      ACC,XAR6              ; [CPU_ALU] |475| 
    1601 0000025d 0FA7          CMPL      ACC,XAR7              ; [CPU_ALU] |475| 
    1602 0000025e 60E1          B         $C$L21,NEQ            ; [CPU_ALU] |475| 
    1603                      ; branchcc occurs ; [] |475| 
    1604 0000025f 7622   EALLOW
    1605                      .dwpsn  file "C:/ti/controlSUITE/device_support/F2837xD/v170/F2837xD_common/source/F2837xD_SysCtrl.c"
    1606 00000260 1A18!         OR        @$BLOCKED(_ClkCfgRegs)+24,#0x0002 ; [CPU_ALU] |489| 
         00000261 0002 
    1607 00000262 761A   EDIS
    1608 00000263       $C$L23:    
    1609 00000263 86BE          MOVL      XAR2,*--SP            ; [CPU_ALU] 
    1610                      .dwcfi  cfa_offset, -4
    1611                      .dwcfi  restore_reg, 9
    1612 00000264 FF69          SPM       #0                    ; [CPU_ALU] 
    1613 00000265 8BBE          MOVL      XAR1,*--SP            ; [CPU_ALU] 
    1614                      .dwcfi  cfa_offset, -2
    1615                      .dwcfi  restore_reg, 7
    1616              $C$DW$68        .dwtag  DW_TAG_TI_branch
    1617                      .dwattr $C$DW$68, DW_AT_low_pc(0x00)
    1618                      .dwattr $C$DW$68, DW_AT_TI_return
    1619              
    1620 00000266 0006          LRETR     ; [CPU_ALU] 
    1621                      ; return occurs ; [] 
    1622                      .dwattr $C$DW$55, DW_AT_TI_end_file("C:/ti/controlSUITE/device_support/F2837xD/v170/F2837xD_common/so
    1623                      .dwattr $C$DW$55, DW_AT_TI_end_line(0x1eb)
    1624                      .dwattr $C$DW$55, DW_AT_TI_end_column(0x01)
    1625                      .dwendentry
    1626                      .dwendtag $C$DW$55
    1627              
    1628 00000267               .sect   ".text"
    1629                      .clink
    1630                      .global _IDLE
    1631              
    1632              $C$DW$69        .dwtag  DW_TAG_subprogram
    1633                      .dwattr $C$DW$69, DW_AT_name("IDLE")
    1634                      .dwattr $C$DW$69, DW_AT_low_pc(_IDLE)
    1635                      .dwattr $C$DW$69, DW_AT_high_pc(0x00)
    1636                      .dwattr $C$DW$69, DW_AT_TI_symbol_name("_IDLE")
    1637                      .dwattr $C$DW$69, DW_AT_external
    1638                      .dwattr $C$DW$69, DW_AT_TI_begin_file("C:/ti/controlSUITE/device_support/F2837xD/v170/F2837xD_common/
    1639                      .dwattr $C$DW$69, DW_AT_TI_begin_line(0x288)
    1640                      .dwattr $C$DW$69, DW_AT_TI_begin_column(0x06)
    1641                      .dwattr $C$DW$69, DW_AT_TI_max_frame_size(-2)
    1642                      .dwpsn  file "C:/ti/controlSUITE/device_support/F2837xD/v170/F2837xD_common/source/F2837xD_SysCtrl.c"
    1643              
    1644                      .dwfde $C$DW$CIE, _IDLE
    1645              
    1646              ;***************************************************************
    1647              ;* FNAME: _IDLE                         FR SIZE:   0           *
    1648              ;*                                                             *
TMS320C2000 Assembler PC v20.2.1 Wed Oct  7 22:14:22 2020

Copyright (c) 1996-2018 Texas Instruments Incorporated
F2837xD_SysCtrl.asm                                                  PAGE   34

    1649              ;* FUNCTION ENVIRONMENT                                        *
    1650              ;*                                                             *
    1651              ;* FUNCTION PROPERTIES                                         *
    1652              ;*                            0 Parameter,  0 Auto,  0 SOE     *
    1653              ;***************************************************************
    1654              
    1655 00000267       _IDLE:
    1656                      .dwcfi  cfa_offset, -2
    1657                      .dwcfi  save_reg_to_mem, 26, 0
    1658 00000267 7622   EALLOW
    1659 00000268 761F!         MOVW      DP,#_CpuSysRegs+118   ; [CPU_ARAU] 
         00000269 0001 
    1660                      .dwpsn  file "C:/ti/controlSUITE/device_support/F2837xD/v170/F2837xD_common/source/F2837xD_SysCtrl.c"
    1661 0000026a 1836!         AND       @$BLOCKED(_CpuSysRegs)+118,#0xfffc ; [CPU_ALU] |651| 
         0000026b FFFC 
    1662 0000026c 761A   EDIS
    1663 0000026d 7621   IDLE
    1664 0000026e FF69          SPM       #0                    ; [CPU_ALU] 
    1665              $C$DW$70        .dwtag  DW_TAG_TI_branch
    1666                      .dwattr $C$DW$70, DW_AT_low_pc(0x00)
    1667                      .dwattr $C$DW$70, DW_AT_TI_return
    1668              
    1669 0000026f 0006          LRETR     ; [CPU_ALU] 
    1670                      ; return occurs ; [] 
    1671                      .dwattr $C$DW$69, DW_AT_TI_end_file("C:/ti/controlSUITE/device_support/F2837xD/v170/F2837xD_common/so
    1672                      .dwattr $C$DW$69, DW_AT_TI_end_line(0x28e)
    1673                      .dwattr $C$DW$69, DW_AT_TI_end_column(0x01)
    1674                      .dwendentry
    1675                      .dwendtag $C$DW$69
    1676              
    1677 00000270               .sect   ".text"
    1678                      .clink
    1679                      .global _DisablePeripheralClocks
    1680              
    1681              $C$DW$71        .dwtag  DW_TAG_subprogram
    1682                      .dwattr $C$DW$71, DW_AT_name("DisablePeripheralClocks")
    1683                      .dwattr $C$DW$71, DW_AT_low_pc(_DisablePeripheralClocks)
    1684                      .dwattr $C$DW$71, DW_AT_high_pc(0x00)
    1685                      .dwattr $C$DW$71, DW_AT_TI_symbol_name("_DisablePeripheralClocks")
    1686                      .dwattr $C$DW$71, DW_AT_external
    1687                      .dwattr $C$DW$71, DW_AT_TI_begin_file("C:/ti/controlSUITE/device_support/F2837xD/v170/F2837xD_common/
    1688                      .dwattr $C$DW$71, DW_AT_TI_begin_line(0xc4)
    1689                      .dwattr $C$DW$71, DW_AT_TI_begin_column(0x06)
    1690                      .dwattr $C$DW$71, DW_AT_TI_max_frame_size(-2)
    1691                      .dwpsn  file "C:/ti/controlSUITE/device_support/F2837xD/v170/F2837xD_common/source/F2837xD_SysCtrl.c"
    1692              
    1693                      .dwfde $C$DW$CIE, _DisablePeripheralClocks
    1694              
    1695              ;***************************************************************
    1696              ;* FNAME: _DisablePeripheralClocks      FR SIZE:   0           *
    1697              ;*                                                             *
    1698              ;* FUNCTION ENVIRONMENT                                        *
    1699              ;*                                                             *
    1700              ;* FUNCTION PROPERTIES                                         *
    1701              ;*                            0 Parameter,  0 Auto,  0 SOE     *
TMS320C2000 Assembler PC v20.2.1 Wed Oct  7 22:14:22 2020

Copyright (c) 1996-2018 Texas Instruments Incorporated
F2837xD_SysCtrl.asm                                                  PAGE   35

    1702              ;***************************************************************
    1703              
    1704 00000270       _DisablePeripheralClocks:
    1705                      .dwcfi  cfa_offset, -2
    1706                      .dwcfi  save_reg_to_mem, 26, 0
    1707 00000270 7622   EALLOW
    1708                      .dwpsn  file "C:/ti/controlSUITE/device_support/F2837xD/v170/F2837xD_common/source/F2837xD_SysCtrl.c"
    1709 00000271 BE00          MOVB      XAR6,#0               ; [CPU_ALU] |200| 
    1710 00000272 761F!         MOVW      DP,#_CpuSysRegs+34    ; [CPU_ARAU] 
         00000273 0000 
    1711                      .dwpsn  file "C:/ti/controlSUITE/device_support/F2837xD/v170/F2837xD_common/source/F2837xD_SysCtrl.c"
    1712 00000274 D500          MOVB      XAR5,#0               ; [CPU_ALU] |201| 
    1713                      .dwpsn  file "C:/ti/controlSUITE/device_support/F2837xD/v170/F2837xD_common/source/F2837xD_SysCtrl.c"
    1714 00000275 D400          MOVB      XAR4,#0               ; [CPU_ALU] |202| 
    1715                      .dwpsn  file "C:/ti/controlSUITE/device_support/F2837xD/v170/F2837xD_common/source/F2837xD_SysCtrl.c"
    1716 00000276 3100          MOV       P,#0                  ; [CPU_ALU] |203| 
    1717                      .dwpsn  file "C:/ti/controlSUITE/device_support/F2837xD/v170/F2837xD_common/source/F2837xD_SysCtrl.c"
    1718 00000277 0200          MOVB      ACC,#0                ; [CPU_ALU] |204| 
    1719                      .dwpsn  file "C:/ti/controlSUITE/device_support/F2837xD/v170/F2837xD_common/source/F2837xD_SysCtrl.c"
    1720 00000278 B600          MOVB      XAR7,#0               ; [CPU_ALU] |205| 
    1721                      .dwpsn  file "C:/ti/controlSUITE/device_support/F2837xD/v170/F2837xD_common/source/F2837xD_SysCtrl.c"
    1722 00000279 D000          MOVB      XAR0,#0               ; [CPU_ALU] |208| 
    1723                      .dwpsn  file "C:/ti/controlSUITE/device_support/F2837xD/v170/F2837xD_common/source/F2837xD_SysCtrl.c"
    1724 0000027a C222!         MOVL      @$BLOCKED(_CpuSysRegs)+34,XAR6 ; [CPU_ALU] |200| 
    1725                      .dwpsn  file "C:/ti/controlSUITE/device_support/F2837xD/v170/F2837xD_common/source/F2837xD_SysCtrl.c"
    1726 0000027b A024!         MOVL      @$BLOCKED(_CpuSysRegs)+36,XAR5 ; [CPU_ALU] |201| 
    1727                      .dwpsn  file "C:/ti/controlSUITE/device_support/F2837xD/v170/F2837xD_common/source/F2837xD_SysCtrl.c"
    1728 0000027c A826!         MOVL      @$BLOCKED(_CpuSysRegs)+38,XAR4 ; [CPU_ALU] |202| 
    1729                      .dwpsn  file "C:/ti/controlSUITE/device_support/F2837xD/v170/F2837xD_common/source/F2837xD_SysCtrl.c"
    1730 0000027d A928!         MOVL      @$BLOCKED(_CpuSysRegs)+40,P ; [CPU_ALU] |203| 
    1731                      .dwpsn  file "C:/ti/controlSUITE/device_support/F2837xD/v170/F2837xD_common/source/F2837xD_SysCtrl.c"
    1732 0000027e 1E2A!         MOVL      @$BLOCKED(_CpuSysRegs)+42,ACC ; [CPU_ALU] |204| 
    1733                      .dwpsn  file "C:/ti/controlSUITE/device_support/F2837xD/v170/F2837xD_common/source/F2837xD_SysCtrl.c"
    1734 0000027f C32E!         MOVL      @$BLOCKED(_CpuSysRegs)+46,XAR7 ; [CPU_ALU] |205| 
    1735                      .dwpsn  file "C:/ti/controlSUITE/device_support/F2837xD/v170/F2837xD_common/source/F2837xD_SysCtrl.c"
    1736 00000280 C230!         MOVL      @$BLOCKED(_CpuSysRegs)+48,XAR6 ; [CPU_ALU] |206| 
    1737                      .dwpsn  file "C:/ti/controlSUITE/device_support/F2837xD/v170/F2837xD_common/source/F2837xD_SysCtrl.c"
    1738 00000281 1E32!         MOVL      @$BLOCKED(_CpuSysRegs)+50,ACC ; [CPU_ALU] |207| 
    1739                      .dwpsn  file "C:/ti/controlSUITE/device_support/F2837xD/v170/F2837xD_common/source/F2837xD_SysCtrl.c"
    1740 00000282 3A34!         MOVL      @$BLOCKED(_CpuSysRegs)+52,XAR0 ; [CPU_ALU] |208| 
    1741                      .dwpsn  file "C:/ti/controlSUITE/device_support/F2837xD/v170/F2837xD_common/source/F2837xD_SysCtrl.c"
    1742 00000283 A036!         MOVL      @$BLOCKED(_CpuSysRegs)+54,XAR5 ; [CPU_ALU] |209| 
    1743                      .dwpsn  file "C:/ti/controlSUITE/device_support/F2837xD/v170/F2837xD_common/source/F2837xD_SysCtrl.c"
    1744 00000284 A838!         MOVL      @$BLOCKED(_CpuSysRegs)+56,XAR4 ; [CPU_ALU] |210| 
    1745                      .dwpsn  file "C:/ti/controlSUITE/device_support/F2837xD/v170/F2837xD_common/source/F2837xD_SysCtrl.c"
    1746 00000285 A93A!         MOVL      @$BLOCKED(_CpuSysRegs)+58,P ; [CPU_ALU] |211| 
    1747                      .dwpsn  file "C:/ti/controlSUITE/device_support/F2837xD/v170/F2837xD_common/source/F2837xD_SysCtrl.c"
    1748 00000286 C33C!         MOVL      @$BLOCKED(_CpuSysRegs)+60,XAR7 ; [CPU_ALU] |212| 
    1749                      .dwpsn  file "C:/ti/controlSUITE/device_support/F2837xD/v170/F2837xD_common/source/F2837xD_SysCtrl.c"
    1750 00000287 C23E!         MOVL      @$BLOCKED(_CpuSysRegs)+62,XAR6 ; [CPU_ALU] |213| 
    1751 00000288 761F!         MOVW      DP,#_CpuSysRegs+66    ; [CPU_ARAU] 
         00000289 0001 
    1752                      .dwpsn  file "C:/ti/controlSUITE/device_support/F2837xD/v170/F2837xD_common/source/F2837xD_SysCtrl.c"
    1753 0000028a 1E02!         MOVL      @$BLOCKED(_CpuSysRegs)+66,ACC ; [CPU_ALU] |214| 
    1754 0000028b 761A   EDIS
TMS320C2000 Assembler PC v20.2.1 Wed Oct  7 22:14:22 2020

Copyright (c) 1996-2018 Texas Instruments Incorporated
F2837xD_SysCtrl.asm                                                  PAGE   36

    1755 0000028c FF69          SPM       #0                    ; [CPU_ALU] 
    1756              $C$DW$72        .dwtag  DW_TAG_TI_branch
    1757                      .dwattr $C$DW$72, DW_AT_low_pc(0x00)
    1758                      .dwattr $C$DW$72, DW_AT_TI_return
    1759              
    1760 0000028d 0006          LRETR     ; [CPU_ALU] 
    1761                      ; return occurs ; [] 
    1762                      .dwattr $C$DW$71, DW_AT_TI_end_file("C:/ti/controlSUITE/device_support/F2837xD/v170/F2837xD_common/so
    1763                      .dwattr $C$DW$71, DW_AT_TI_end_line(0xd9)
    1764                      .dwattr $C$DW$71, DW_AT_TI_end_column(0x01)
    1765                      .dwendentry
    1766                      .dwendtag $C$DW$71
    1767              
    1768 0000028e               .sect   ".text"
    1769                      .clink
    1770                      .global _HIB
    1771              
    1772              $C$DW$73        .dwtag  DW_TAG_subprogram
    1773                      .dwattr $C$DW$73, DW_AT_name("HIB")
    1774                      .dwattr $C$DW$73, DW_AT_low_pc(_HIB)
    1775                      .dwattr $C$DW$73, DW_AT_high_pc(0x00)
    1776                      .dwattr $C$DW$73, DW_AT_TI_symbol_name("_HIB")
    1777                      .dwattr $C$DW$73, DW_AT_external
    1778                      .dwattr $C$DW$73, DW_AT_TI_begin_file("C:/ti/controlSUITE/device_support/F2837xD/v170/F2837xD_common/
    1779                      .dwattr $C$DW$73, DW_AT_TI_begin_line(0x2ad)
    1780                      .dwattr $C$DW$73, DW_AT_TI_begin_column(0x06)
    1781                      .dwattr $C$DW$73, DW_AT_TI_max_frame_size(-2)
    1782                      .dwpsn  file "C:/ti/controlSUITE/device_support/F2837xD/v170/F2837xD_common/source/F2837xD_SysCtrl.c"
    1783              
    1784                      .dwfde $C$DW$CIE, _HIB
    1785              
    1786              ;***************************************************************
    1787              ;* FNAME: _HIB                          FR SIZE:   0           *
    1788              ;*                                                             *
    1789              ;* FUNCTION ENVIRONMENT                                        *
    1790              ;*                                                             *
    1791              ;* FUNCTION PROPERTIES                                         *
    1792              ;*                            0 Parameter,  0 Auto,  0 SOE     *
    1793              ;***************************************************************
    1794              
    1795 0000028e       _HIB:
    1796              ;* AR4   assigned to $O$C1
    1797                      .dwcfi  cfa_offset, -2
    1798                      .dwcfi  save_reg_to_mem, 26, 0
    1799 0000028e 7622   EALLOW
    1800 0000028f 761F!         MOVW      DP,#_CpuSysRegs+118   ; [CPU_ARAU] 
         00000290 0001 
    1801                      .dwpsn  file "C:/ti/controlSUITE/device_support/F2837xD/v170/F2837xD_common/source/F2837xD_SysCtrl.c"
    1802 00000291 1A36!         OR        @$BLOCKED(_CpuSysRegs)+118,#0x0003 ; [CPU_ALU] |691| 
         00000292 0003 
    1803 00000293 761A   EDIS
    1804                      .dwpsn  file "C:/ti/controlSUITE/device_support/F2837xD/v170/F2837xD_common/source/F2837xD_SysCtrl.c"
    1805 00000294 8F00!         MOVL      XAR4,#_DevCfgRegs     ; [CPU_ARAU] |693| 
         00000295 0000 
    1806 00000296       $C$L24:    
TMS320C2000 Assembler PC v20.2.1 Wed Oct  7 22:14:22 2020

Copyright (c) 1996-2018 Texas Instruments Incorporated
F2837xD_SysCtrl.asm                                                  PAGE   37

    1807 00000296 8D00          MOVL      XAR0,#293             ; [CPU_ALU] |693| 
         00000297 0125 
    1808 00000298 9294          MOV       AL,*+XAR4[AR0]        ; [CPU_ALU] |693| 
    1809 00000299 9003          ANDB      AL,#0x03              ; [CPU_ALU] |693| 
    1810 0000029a 6005          B         $C$L25,NEQ            ; [CPU_ALU] |693| 
    1811                      ; branchcc occurs ; [] |693| 
    1812 0000029b 8D00          MOVL      XAR0,#292             ; [CPU_ALU] |693| 
         0000029c 0124 
    1813 0000029d 4094          TBIT      *+XAR4[AR0],#0        ; [CPU_ALU] |693| 
    1814 0000029e 6DF8          B         $C$L24,TC             ; [CPU_ALU] |693| 
    1815                      ; branchcc occurs ; [] |693| 
    1816 0000029f       $C$L25:    
    1817 0000029f FF69          SPM       #0                    ; [CPU_ALU] 
    1818                      .dwpsn  file "C:/ti/controlSUITE/device_support/F2837xD/v170/F2837xD_common/source/F2837xD_SysCtrl.c"
    1819              $C$DW$74        .dwtag  DW_TAG_TI_branch
    1820                      .dwattr $C$DW$74, DW_AT_low_pc(0x00)
    1821                      .dwattr $C$DW$74, DW_AT_name("_DisablePeripheralClocks")
    1822                      .dwattr $C$DW$74, DW_AT_TI_call
    1823              
    1824 000002a0 7640'         LCR       #_DisablePeripheralClocks ; [CPU_ALU] |694| 
         000002a1 0270 
    1825                      ; call occurs [#_DisablePeripheralClocks] ; [] |694| 
    1826 000002a2 7622   EALLOW
    1827 000002a3 761F!         MOVW      DP,#_ClkCfgRegs+14    ; [CPU_ARAU] 
         000002a4 0000 
    1828                      .dwpsn  file "C:/ti/controlSUITE/device_support/F2837xD/v170/F2837xD_common/source/F2837xD_SysCtrl.c"
    1829 000002a5 180E!         AND       @$BLOCKED(_ClkCfgRegs)+14,#0xfffd ; [CPU_ALU] |696| 
         000002a6 FFFD 
    1830                      .dwpsn  file "C:/ti/controlSUITE/device_support/F2837xD/v170/F2837xD_common/source/F2837xD_SysCtrl.c"
    1831 000002a7 180E!         AND       @$BLOCKED(_ClkCfgRegs)+14,#0xfffe ; [CPU_ALU] |697| 
         000002a8 FFFE 
    1832 000002a9 761A   EDIS
    1833 000002aa 7621   IDLE
    1834 000002ab FF69          SPM       #0                    ; [CPU_ALU] 
    1835              $C$DW$75        .dwtag  DW_TAG_TI_branch
    1836                      .dwattr $C$DW$75, DW_AT_low_pc(0x00)
    1837                      .dwattr $C$DW$75, DW_AT_TI_return
    1838              
    1839 000002ac 0006          LRETR     ; [CPU_ALU] 
    1840                      ; return occurs ; [] 
    1841                      .dwattr $C$DW$73, DW_AT_TI_end_file("C:/ti/controlSUITE/device_support/F2837xD/v170/F2837xD_common/so
    1842                      .dwattr $C$DW$73, DW_AT_TI_end_line(0x2bd)
    1843                      .dwattr $C$DW$73, DW_AT_TI_end_column(0x01)
    1844                      .dwendentry
    1845                      .dwendtag $C$DW$73
    1846              
    1847 000002ad               .sect   ".text"
    1848                      .clink
    1849                      .global _HALT
    1850              
    1851              $C$DW$76        .dwtag  DW_TAG_subprogram
    1852                      .dwattr $C$DW$76, DW_AT_name("HALT")
    1853                      .dwattr $C$DW$76, DW_AT_low_pc(_HALT)
    1854                      .dwattr $C$DW$76, DW_AT_high_pc(0x00)
    1855                      .dwattr $C$DW$76, DW_AT_TI_symbol_name("_HALT")
TMS320C2000 Assembler PC v20.2.1 Wed Oct  7 22:14:22 2020

Copyright (c) 1996-2018 Texas Instruments Incorporated
F2837xD_SysCtrl.asm                                                  PAGE   38

    1856                      .dwattr $C$DW$76, DW_AT_external
    1857                      .dwattr $C$DW$76, DW_AT_TI_begin_file("C:/ti/controlSUITE/device_support/F2837xD/v170/F2837xD_common/
    1858                      .dwattr $C$DW$76, DW_AT_TI_begin_line(0x29a)
    1859                      .dwattr $C$DW$76, DW_AT_TI_begin_column(0x06)
    1860                      .dwattr $C$DW$76, DW_AT_TI_max_frame_size(-2)
    1861                      .dwpsn  file "C:/ti/controlSUITE/device_support/F2837xD/v170/F2837xD_common/source/F2837xD_SysCtrl.c"
    1862              
    1863                      .dwfde $C$DW$CIE, _HALT
    1864              
    1865              ;***************************************************************
    1866              ;* FNAME: _HALT                         FR SIZE:   0           *
    1867              ;*                                                             *
    1868              ;* FUNCTION ENVIRONMENT                                        *
    1869              ;*                                                             *
    1870              ;* FUNCTION PROPERTIES                                         *
    1871              ;*                            0 Parameter,  0 Auto,  0 SOE     *
    1872              ;***************************************************************
    1873              
    1874 000002ad       _HALT:
    1875                      .dwcfi  cfa_offset, -2
    1876                      .dwcfi  save_reg_to_mem, 26, 0
    1877 000002ad 7622   EALLOW
    1878 000002ae 761F!         MOVW      DP,#_CpuSysRegs+118   ; [CPU_ARAU] 
         000002af 0001 
    1879                      .dwpsn  file "C:/ti/controlSUITE/device_support/F2837xD/v170/F2837xD_common/source/F2837xD_SysCtrl.c"
    1880 000002b0 CC36!         AND       AL,@$BLOCKED(_CpuSysRegs)+118,#0xfffe ; [CPU_ALU] |672| 
         000002b1 FFFE 
    1881 000002b2 5002          ORB       AL,#0x02              ; [CPU_ALU] |672| 
    1882 000002b3 9636!         MOV       @$BLOCKED(_CpuSysRegs)+118,AL ; [CPU_ALU] |672| 
    1883 000002b4 761A   EDIS
    1884 000002b5       $C$L26:    
    1885 000002b5 761F!         MOVW      DP,#_DevCfgRegs+293   ; [CPU_ARAU] 
         000002b6 0004 
    1886                      .dwpsn  file "C:/ti/controlSUITE/device_support/F2837xD/v170/F2837xD_common/source/F2837xD_SysCtrl.c"
    1887 000002b7 9225!         MOV       AL,@$BLOCKED(_DevCfgRegs)+293 ; [CPU_ALU] |674| 
    1888 000002b8 9003          ANDB      AL,#0x03              ; [CPU_ALU] |674| 
    1889 000002b9 5201          CMPB      AL,#1                 ; [CPU_ALU] |674| 
    1890 000002ba 60FB          B         $C$L26,NEQ            ; [CPU_ALU] |674| 
    1891                      ; branchcc occurs ; [] |674| 
    1892 000002bb 7622   EALLOW
    1893 000002bc 761F!         MOVW      DP,#_ClkCfgRegs+14    ; [CPU_ARAU] 
         000002bd 0000 
    1894                      .dwpsn  file "C:/ti/controlSUITE/device_support/F2837xD/v170/F2837xD_common/source/F2837xD_SysCtrl.c"
    1895 000002be 180E!         AND       @$BLOCKED(_ClkCfgRegs)+14,#0xfffd ; [CPU_ALU] |676| 
         000002bf FFFD 
    1896                      .dwpsn  file "C:/ti/controlSUITE/device_support/F2837xD/v170/F2837xD_common/source/F2837xD_SysCtrl.c"
    1897 000002c0 180E!         AND       @$BLOCKED(_ClkCfgRegs)+14,#0xfffe ; [CPU_ALU] |677| 
         000002c1 FFFE 
    1898 000002c2 761A   EDIS
    1899 000002c3 7621   IDLE
    1900 000002c4 FF69          SPM       #0                    ; [CPU_ALU] 
    1901              $C$DW$77        .dwtag  DW_TAG_TI_branch
    1902                      .dwattr $C$DW$77, DW_AT_low_pc(0x00)
    1903                      .dwattr $C$DW$77, DW_AT_TI_return
    1904              
TMS320C2000 Assembler PC v20.2.1 Wed Oct  7 22:14:22 2020

Copyright (c) 1996-2018 Texas Instruments Incorporated
F2837xD_SysCtrl.asm                                                  PAGE   39

    1905 000002c5 0006          LRETR     ; [CPU_ALU] 
    1906                      ; return occurs ; [] 
    1907                      .dwattr $C$DW$76, DW_AT_TI_end_file("C:/ti/controlSUITE/device_support/F2837xD/v170/F2837xD_common/so
    1908                      .dwattr $C$DW$76, DW_AT_TI_end_line(0x2a9)
    1909                      .dwattr $C$DW$76, DW_AT_TI_end_column(0x01)
    1910                      .dwendentry
    1911                      .dwendtag $C$DW$76
    1912              
    1913 000002c6               .sect   ".text"
    1914                      .clink
    1915                      .global _CsmUnlock
    1916              
    1917              $C$DW$78        .dwtag  DW_TAG_subprogram
    1918                      .dwattr $C$DW$78, DW_AT_name("CsmUnlock")
    1919                      .dwattr $C$DW$78, DW_AT_low_pc(_CsmUnlock)
    1920                      .dwattr $C$DW$78, DW_AT_high_pc(0x00)
    1921                      .dwattr $C$DW$78, DW_AT_TI_symbol_name("_CsmUnlock")
    1922                      .dwattr $C$DW$78, DW_AT_external
    1923                      .dwattr $C$DW$78, DW_AT_type(*$C$DW$T$19)
    1924                      .dwattr $C$DW$78, DW_AT_TI_begin_file("C:/ti/controlSUITE/device_support/F2837xD/v170/F2837xD_common/
    1925                      .dwattr $C$DW$78, DW_AT_TI_begin_line(0x1f6)
    1926                      .dwattr $C$DW$78, DW_AT_TI_begin_column(0x08)
    1927                      .dwattr $C$DW$78, DW_AT_TI_max_frame_size(-2)
    1928                      .dwpsn  file "C:/ti/controlSUITE/device_support/F2837xD/v170/F2837xD_common/source/F2837xD_SysCtrl.c"
    1929              
    1930                      .dwfde $C$DW$CIE, _CsmUnlock
    1931              
    1932              ;***************************************************************
    1933              ;* FNAME: _CsmUnlock                    FR SIZE:   0           *
    1934              ;*                                                             *
    1935              ;* FUNCTION ENVIRONMENT                                        *
    1936              ;*                                                             *
    1937              ;* FUNCTION PROPERTIES                                         *
    1938              ;*                            0 Parameter,  0 Auto,  0 SOE     *
    1939              ;***************************************************************
    1940              
    1941 000002c6       _CsmUnlock:
    1942                      .dwcfi  cfa_offset, -2
    1943                      .dwcfi  save_reg_to_mem, 26, 0
    1944 000002c6 7622   EALLOW
    1945                      .dwpsn  file "C:/ti/controlSUITE/device_support/F2837xD/v170/F2837xD_common/source/F2837xD_SysCtrl.c"
    1946 000002c7 0200          MOVB      ACC,#0                ; [CPU_ALU] |519| 
    1947 000002c8 761F!         MOVW      DP,#_DcsmZ1Regs+16    ; [CPU_ARAU] 
         000002c9 0000 
    1948 000002ca 1901          SUBB      ACC,#1                ; [CPU_ALU] |519| 
    1949 000002cb 1E10!         MOVL      @$BLOCKED(_DcsmZ1Regs)+16,ACC ; [CPU_ALU] |519| 
    1950                      .dwpsn  file "C:/ti/controlSUITE/device_support/F2837xD/v170/F2837xD_common/source/F2837xD_SysCtrl.c"
    1951 000002cc 0200          MOVB      ACC,#0                ; [CPU_ALU] |520| 
    1952 000002cd 1901          SUBB      ACC,#1                ; [CPU_ALU] |520| 
    1953 000002ce 1E12!         MOVL      @$BLOCKED(_DcsmZ1Regs)+18,ACC ; [CPU_ALU] |520| 
    1954                      .dwpsn  file "C:/ti/controlSUITE/device_support/F2837xD/v170/F2837xD_common/source/F2837xD_SysCtrl.c"
    1955 000002cf 0200          MOVB      ACC,#0                ; [CPU_ALU] |521| 
    1956 000002d0 1901          SUBB      ACC,#1                ; [CPU_ALU] |521| 
    1957 000002d1 1E14!         MOVL      @$BLOCKED(_DcsmZ1Regs)+20,ACC ; [CPU_ALU] |521| 
    1958                      .dwpsn  file "C:/ti/controlSUITE/device_support/F2837xD/v170/F2837xD_common/source/F2837xD_SysCtrl.c"
TMS320C2000 Assembler PC v20.2.1 Wed Oct  7 22:14:22 2020

Copyright (c) 1996-2018 Texas Instruments Incorporated
F2837xD_SysCtrl.asm                                                  PAGE   40

    1959 000002d2 0200          MOVB      ACC,#0                ; [CPU_ALU] |522| 
    1960 000002d3 1901          SUBB      ACC,#1                ; [CPU_ALU] |522| 
    1961 000002d4 1E16!         MOVL      @$BLOCKED(_DcsmZ1Regs)+22,ACC ; [CPU_ALU] |522| 
    1962                      .dwpsn  file "C:/ti/controlSUITE/device_support/F2837xD/v170/F2837xD_common/source/F2837xD_SysCtrl.c"
    1963 000002d5 0200          MOVB      ACC,#0                ; [CPU_ALU] |524| 
    1964 000002d6 761F!         MOVW      DP,#_DcsmZ2Regs+16    ; [CPU_ARAU] 
         000002d7 0000 
    1965 000002d8 1901          SUBB      ACC,#1                ; [CPU_ALU] |524| 
    1966 000002d9 1E10!         MOVL      @$BLOCKED(_DcsmZ2Regs)+16,ACC ; [CPU_ALU] |524| 
    1967                      .dwpsn  file "C:/ti/controlSUITE/device_support/F2837xD/v170/F2837xD_common/source/F2837xD_SysCtrl.c"
    1968 000002da 0200          MOVB      ACC,#0                ; [CPU_ALU] |525| 
    1969 000002db 1901          SUBB      ACC,#1                ; [CPU_ALU] |525| 
    1970 000002dc 1E12!         MOVL      @$BLOCKED(_DcsmZ2Regs)+18,ACC ; [CPU_ALU] |525| 
    1971                      .dwpsn  file "C:/ti/controlSUITE/device_support/F2837xD/v170/F2837xD_common/source/F2837xD_SysCtrl.c"
    1972 000002dd 0200          MOVB      ACC,#0                ; [CPU_ALU] |526| 
    1973 000002de 1901          SUBB      ACC,#1                ; [CPU_ALU] |526| 
    1974 000002df 1E14!         MOVL      @$BLOCKED(_DcsmZ2Regs)+20,ACC ; [CPU_ALU] |526| 
    1975                      .dwpsn  file "C:/ti/controlSUITE/device_support/F2837xD/v170/F2837xD_common/source/F2837xD_SysCtrl.c"
    1976 000002e0 0200          MOVB      ACC,#0                ; [CPU_ALU] |527| 
    1977 000002e1 1901          SUBB      ACC,#1                ; [CPU_ALU] |527| 
    1978 000002e2 1E16!         MOVL      @$BLOCKED(_DcsmZ2Regs)+22,ACC ; [CPU_ALU] |527| 
    1979 000002e3 761A   EDIS
    1980 000002e4 FF69          SPM       #0                    ; [CPU_ALU] 
    1981                      .dwpsn  file "C:/ti/controlSUITE/device_support/F2837xD/v170/F2837xD_common/source/F2837xD_SysCtrl.c"
    1982 000002e5 9A00          MOVB      AL,#0                 ; [CPU_ALU] |547| 
    1983              $C$DW$79        .dwtag  DW_TAG_TI_branch
    1984                      .dwattr $C$DW$79, DW_AT_low_pc(0x00)
    1985                      .dwattr $C$DW$79, DW_AT_TI_return
    1986              
    1987 000002e6 0006          LRETR     ; [CPU_ALU] 
    1988                      ; return occurs ; [] 
    1989                      .dwattr $C$DW$78, DW_AT_TI_end_file("C:/ti/controlSUITE/device_support/F2837xD/v170/F2837xD_common/so
    1990                      .dwattr $C$DW$78, DW_AT_TI_end_line(0x225)
    1991                      .dwattr $C$DW$78, DW_AT_TI_end_column(0x01)
    1992                      .dwendentry
    1993                      .dwendtag $C$DW$78
    1994              
    1995              ;**************************************************************
    1996              ;* UNDEFINED EXTERNAL REFERENCES                              *
    1997              ;**************************************************************
    1998                      .global _GPIO_EnableUnbondedIOPullups
    1999                      .global _F28x_usDelay
    2000                      .global _DcsmZ1Regs
    2001                      .global _DcsmZ2Regs
    2002                      .global _Flash0EccRegs
    2003                      .global _WdRegs
    2004                      .global _ClkCfgRegs
    2005                      .global _AnalogSubsysRegs
    2006                      .global _CpuSysRegs
    2007                      .global _DevCfgRegs
    2008                      .global _Flash0CtrlRegs
    2009              
    2010              ;***************************************************************
    2011              ;* TYPE INFORMATION                                            *
    2012              ;***************************************************************
TMS320C2000 Assembler PC v20.2.1 Wed Oct  7 22:14:22 2020

Copyright (c) 1996-2018 Texas Instruments Incorporated
F2837xD_SysCtrl.asm                                                  PAGE   41

    2013              
    2014              $C$DW$T$25      .dwtag  DW_TAG_structure_type
    2015                      .dwattr $C$DW$T$25, DW_AT_name("ANALOG_SUBSYS_REGS")
    2016                      .dwattr $C$DW$T$25, DW_AT_byte_size(0x48)
    2017              $C$DW$80        .dwtag  DW_TAG_member
    2018                      .dwattr $C$DW$80, DW_AT_type(*$C$DW$T$20)
    2019                      .dwattr $C$DW$80, DW_AT_name("rsvd1")
    2020                      .dwattr $C$DW$80, DW_AT_TI_symbol_name("_rsvd1")
    2021                      .dwattr $C$DW$80, DW_AT_data_member_location[DW_OP_plus_uconst 0x0]
    2022                      .dwattr $C$DW$80, DW_AT_accessibility(DW_ACCESS_public)
    2023              
    2024              $C$DW$81        .dwtag  DW_TAG_member
    2025                      .dwattr $C$DW$81, DW_AT_type(*$C$DW$T$192)
    2026                      .dwattr $C$DW$81, DW_AT_name("INTOSC1TRIM")
    2027                      .dwattr $C$DW$81, DW_AT_TI_symbol_name("_INTOSC1TRIM")
    2028                      .dwattr $C$DW$81, DW_AT_data_member_location[DW_OP_plus_uconst 0x20]
    2029                      .dwattr $C$DW$81, DW_AT_accessibility(DW_ACCESS_public)
    2030              
    2031              $C$DW$82        .dwtag  DW_TAG_member
    2032                      .dwattr $C$DW$82, DW_AT_type(*$C$DW$T$194)
    2033                      .dwattr $C$DW$82, DW_AT_name("INTOSC2TRIM")
    2034                      .dwattr $C$DW$82, DW_AT_TI_symbol_name("_INTOSC2TRIM")
    2035                      .dwattr $C$DW$82, DW_AT_data_member_location[DW_OP_plus_uconst 0x22]
    2036                      .dwattr $C$DW$82, DW_AT_accessibility(DW_ACCESS_public)
    2037              
    2038              $C$DW$83        .dwtag  DW_TAG_member
    2039                      .dwattr $C$DW$83, DW_AT_type(*$C$DW$T$21)
    2040                      .dwattr $C$DW$83, DW_AT_name("rsvd2")
    2041                      .dwattr $C$DW$83, DW_AT_TI_symbol_name("_rsvd2")
    2042                      .dwattr $C$DW$83, DW_AT_data_member_location[DW_OP_plus_uconst 0x24]
    2043                      .dwattr $C$DW$83, DW_AT_accessibility(DW_ACCESS_public)
    2044              
    2045              $C$DW$84        .dwtag  DW_TAG_member
    2046                      .dwattr $C$DW$84, DW_AT_type(*$C$DW$T$292)
    2047                      .dwattr $C$DW$84, DW_AT_name("TSNSCTL")
    2048                      .dwattr $C$DW$84, DW_AT_TI_symbol_name("_TSNSCTL")
    2049                      .dwattr $C$DW$84, DW_AT_data_member_location[DW_OP_plus_uconst 0x26]
    2050                      .dwattr $C$DW$84, DW_AT_accessibility(DW_ACCESS_public)
    2051              
    2052              $C$DW$85        .dwtag  DW_TAG_member
    2053                      .dwattr $C$DW$85, DW_AT_type(*$C$DW$T$22)
    2054                      .dwattr $C$DW$85, DW_AT_name("rsvd3")
    2055                      .dwattr $C$DW$85, DW_AT_TI_symbol_name("_rsvd3")
    2056                      .dwattr $C$DW$85, DW_AT_data_member_location[DW_OP_plus_uconst 0x27]
    2057                      .dwattr $C$DW$85, DW_AT_accessibility(DW_ACCESS_public)
    2058              
    2059              $C$DW$86        .dwtag  DW_TAG_member
    2060                      .dwattr $C$DW$86, DW_AT_type(*$C$DW$T$198)
    2061                      .dwattr $C$DW$86, DW_AT_name("LOCK")
    2062                      .dwattr $C$DW$86, DW_AT_TI_symbol_name("_LOCK")
    2063                      .dwattr $C$DW$86, DW_AT_data_member_location[DW_OP_plus_uconst 0x2e]
    2064                      .dwattr $C$DW$86, DW_AT_accessibility(DW_ACCESS_public)
    2065              
    2066              $C$DW$87        .dwtag  DW_TAG_member
    2067                      .dwattr $C$DW$87, DW_AT_type(*$C$DW$T$23)
TMS320C2000 Assembler PC v20.2.1 Wed Oct  7 22:14:22 2020

Copyright (c) 1996-2018 Texas Instruments Incorporated
F2837xD_SysCtrl.asm                                                  PAGE   42

    2068                      .dwattr $C$DW$87, DW_AT_name("rsvd4")
    2069                      .dwattr $C$DW$87, DW_AT_TI_symbol_name("_rsvd4")
    2070                      .dwattr $C$DW$87, DW_AT_data_member_location[DW_OP_plus_uconst 0x30]
    2071                      .dwattr $C$DW$87, DW_AT_accessibility(DW_ACCESS_public)
    2072              
    2073              $C$DW$88        .dwtag  DW_TAG_member
    2074                      .dwattr $C$DW$88, DW_AT_type(*$C$DW$T$28)
    2075                      .dwattr $C$DW$88, DW_AT_name("ANAREFTRIMA")
    2076                      .dwattr $C$DW$88, DW_AT_TI_symbol_name("_ANAREFTRIMA")
    2077                      .dwattr $C$DW$88, DW_AT_data_member_location[DW_OP_plus_uconst 0x36]
    2078                      .dwattr $C$DW$88, DW_AT_accessibility(DW_ACCESS_public)
    2079              
    2080              $C$DW$89        .dwtag  DW_TAG_member
    2081                      .dwattr $C$DW$89, DW_AT_type(*$C$DW$T$30)
    2082                      .dwattr $C$DW$89, DW_AT_name("ANAREFTRIMB")
    2083                      .dwattr $C$DW$89, DW_AT_TI_symbol_name("_ANAREFTRIMB")
    2084                      .dwattr $C$DW$89, DW_AT_data_member_location[DW_OP_plus_uconst 0x38]
    2085                      .dwattr $C$DW$89, DW_AT_accessibility(DW_ACCESS_public)
    2086              
    2087              $C$DW$90        .dwtag  DW_TAG_member
    2088                      .dwattr $C$DW$90, DW_AT_type(*$C$DW$T$32)
    2089                      .dwattr $C$DW$90, DW_AT_name("ANAREFTRIMC")
    2090                      .dwattr $C$DW$90, DW_AT_TI_symbol_name("_ANAREFTRIMC")
    2091                      .dwattr $C$DW$90, DW_AT_data_member_location[DW_OP_plus_uconst 0x3a]
    2092                      .dwattr $C$DW$90, DW_AT_accessibility(DW_ACCESS_public)
    2093              
    2094              $C$DW$91        .dwtag  DW_TAG_member
    2095                      .dwattr $C$DW$91, DW_AT_type(*$C$DW$T$34)
    2096                      .dwattr $C$DW$91, DW_AT_name("ANAREFTRIMD")
    2097                      .dwattr $C$DW$91, DW_AT_TI_symbol_name("_ANAREFTRIMD")
    2098                      .dwattr $C$DW$91, DW_AT_data_member_location[DW_OP_plus_uconst 0x3c]
    2099                      .dwattr $C$DW$91, DW_AT_accessibility(DW_ACCESS_public)
    2100              
    2101              $C$DW$92        .dwtag  DW_TAG_member
    2102                      .dwattr $C$DW$92, DW_AT_type(*$C$DW$T$24)
    2103                      .dwattr $C$DW$92, DW_AT_name("rsvd5")
    2104                      .dwattr $C$DW$92, DW_AT_TI_symbol_name("_rsvd5")
    2105                      .dwattr $C$DW$92, DW_AT_data_member_location[DW_OP_plus_uconst 0x3e]
    2106                      .dwattr $C$DW$92, DW_AT_accessibility(DW_ACCESS_public)
    2107              
    2108                      .dwendtag $C$DW$T$25
    2109              
    2110              $C$DW$93        .dwtag  DW_TAG_TI_far_type
    2111                      .dwattr $C$DW$93, DW_AT_type(*$C$DW$T$25)
    2112              
    2113              $C$DW$T$340     .dwtag  DW_TAG_volatile_type
    2114                      .dwattr $C$DW$T$340, DW_AT_type(*$C$DW$93)
    2115              
    2116              
    2117              $C$DW$T$26      .dwtag  DW_TAG_structure_type
    2118                      .dwattr $C$DW$T$26, DW_AT_name("ANAREFTRIMA_BITS")
    2119                      .dwattr $C$DW$T$26, DW_AT_byte_size(0x02)
    2120              $C$DW$94        .dwtag  DW_TAG_member
    2121                      .dwattr $C$DW$94, DW_AT_type(*$C$DW$T$19)
    2122                      .dwattr $C$DW$94, DW_AT_name("BGVALTRIM")
TMS320C2000 Assembler PC v20.2.1 Wed Oct  7 22:14:22 2020

Copyright (c) 1996-2018 Texas Instruments Incorporated
F2837xD_SysCtrl.asm                                                  PAGE   43

    2123                      .dwattr $C$DW$94, DW_AT_TI_symbol_name("_BGVALTRIM")
    2124                      .dwattr $C$DW$94, DW_AT_bit_offset(0x0a)
    2125                      .dwattr $C$DW$94, DW_AT_bit_size(0x06)
    2126                      .dwattr $C$DW$94, DW_AT_data_member_location[DW_OP_plus_uconst 0x0]
    2127                      .dwattr $C$DW$94, DW_AT_accessibility(DW_ACCESS_public)
    2128              
    2129              $C$DW$95        .dwtag  DW_TAG_member
    2130                      .dwattr $C$DW$95, DW_AT_type(*$C$DW$T$19)
    2131                      .dwattr $C$DW$95, DW_AT_name("BGSLOPETRIM")
    2132                      .dwattr $C$DW$95, DW_AT_TI_symbol_name("_BGSLOPETRIM")
    2133                      .dwattr $C$DW$95, DW_AT_bit_offset(0x05)
    2134                      .dwattr $C$DW$95, DW_AT_bit_size(0x05)
    2135                      .dwattr $C$DW$95, DW_AT_data_member_location[DW_OP_plus_uconst 0x0]
    2136                      .dwattr $C$DW$95, DW_AT_accessibility(DW_ACCESS_public)
    2137              
    2138              $C$DW$96        .dwtag  DW_TAG_member
    2139                      .dwattr $C$DW$96, DW_AT_type(*$C$DW$T$19)
    2140                      .dwattr $C$DW$96, DW_AT_name("IREFTRIM")
    2141                      .dwattr $C$DW$96, DW_AT_TI_symbol_name("_IREFTRIM")
    2142                      .dwattr $C$DW$96, DW_AT_bit_offset(0x00)
    2143                      .dwattr $C$DW$96, DW_AT_bit_size(0x05)
    2144                      .dwattr $C$DW$96, DW_AT_data_member_location[DW_OP_plus_uconst 0x0]
    2145                      .dwattr $C$DW$96, DW_AT_accessibility(DW_ACCESS_public)
    2146              
    2147              $C$DW$97        .dwtag  DW_TAG_member
    2148                      .dwattr $C$DW$97, DW_AT_type(*$C$DW$T$19)
    2149                      .dwattr $C$DW$97, DW_AT_name("rsvd1")
    2150                      .dwattr $C$DW$97, DW_AT_TI_symbol_name("_rsvd1")
    2151                      .dwattr $C$DW$97, DW_AT_bit_offset(0x08)
    2152                      .dwattr $C$DW$97, DW_AT_bit_size(0x08)
    2153                      .dwattr $C$DW$97, DW_AT_data_member_location[DW_OP_plus_uconst 0x1]
    2154                      .dwattr $C$DW$97, DW_AT_accessibility(DW_ACCESS_public)
    2155              
    2156              $C$DW$98        .dwtag  DW_TAG_member
    2157                      .dwattr $C$DW$98, DW_AT_type(*$C$DW$T$19)
    2158                      .dwattr $C$DW$98, DW_AT_name("rsvd2")
    2159                      .dwattr $C$DW$98, DW_AT_TI_symbol_name("_rsvd2")
    2160                      .dwattr $C$DW$98, DW_AT_bit_offset(0x00)
    2161                      .dwattr $C$DW$98, DW_AT_bit_size(0x08)
    2162                      .dwattr $C$DW$98, DW_AT_data_member_location[DW_OP_plus_uconst 0x1]
    2163                      .dwattr $C$DW$98, DW_AT_accessibility(DW_ACCESS_public)
    2164              
    2165                      .dwendtag $C$DW$T$26
    2166              
    2167              
    2168              $C$DW$T$28      .dwtag  DW_TAG_union_type
    2169                      .dwattr $C$DW$T$28, DW_AT_name("ANAREFTRIMA_REG")
    2170                      .dwattr $C$DW$T$28, DW_AT_byte_size(0x02)
    2171              $C$DW$99        .dwtag  DW_TAG_member
    2172                      .dwattr $C$DW$99, DW_AT_type(*$C$DW$T$27)
    2173                      .dwattr $C$DW$99, DW_AT_name("all")
    2174                      .dwattr $C$DW$99, DW_AT_TI_symbol_name("_all")
    2175                      .dwattr $C$DW$99, DW_AT_data_member_location[DW_OP_plus_uconst 0x0]
    2176                      .dwattr $C$DW$99, DW_AT_accessibility(DW_ACCESS_public)
    2177              
TMS320C2000 Assembler PC v20.2.1 Wed Oct  7 22:14:22 2020

Copyright (c) 1996-2018 Texas Instruments Incorporated
F2837xD_SysCtrl.asm                                                  PAGE   44

    2178              $C$DW$100       .dwtag  DW_TAG_member
    2179                      .dwattr $C$DW$100, DW_AT_type(*$C$DW$T$26)
    2180                      .dwattr $C$DW$100, DW_AT_name("bit")
    2181                      .dwattr $C$DW$100, DW_AT_TI_symbol_name("_bit")
    2182                      .dwattr $C$DW$100, DW_AT_data_member_location[DW_OP_plus_uconst 0x0]
    2183                      .dwattr $C$DW$100, DW_AT_accessibility(DW_ACCESS_public)
    2184              
    2185                      .dwendtag $C$DW$T$28
    2186              
    2187              
    2188              $C$DW$T$29      .dwtag  DW_TAG_structure_type
    2189                      .dwattr $C$DW$T$29, DW_AT_name("ANAREFTRIMB_BITS")
    2190                      .dwattr $C$DW$T$29, DW_AT_byte_size(0x02)
    2191              $C$DW$101       .dwtag  DW_TAG_member
    2192                      .dwattr $C$DW$101, DW_AT_type(*$C$DW$T$19)
    2193                      .dwattr $C$DW$101, DW_AT_name("BGVALTRIM")
    2194                      .dwattr $C$DW$101, DW_AT_TI_symbol_name("_BGVALTRIM")
    2195                      .dwattr $C$DW$101, DW_AT_bit_offset(0x0a)
    2196                      .dwattr $C$DW$101, DW_AT_bit_size(0x06)
    2197                      .dwattr $C$DW$101, DW_AT_data_member_location[DW_OP_plus_uconst 0x0]
    2198                      .dwattr $C$DW$101, DW_AT_accessibility(DW_ACCESS_public)
    2199              
    2200              $C$DW$102       .dwtag  DW_TAG_member
    2201                      .dwattr $C$DW$102, DW_AT_type(*$C$DW$T$19)
    2202                      .dwattr $C$DW$102, DW_AT_name("BGSLOPETRIM")
    2203                      .dwattr $C$DW$102, DW_AT_TI_symbol_name("_BGSLOPETRIM")
    2204                      .dwattr $C$DW$102, DW_AT_bit_offset(0x05)
    2205                      .dwattr $C$DW$102, DW_AT_bit_size(0x05)
    2206                      .dwattr $C$DW$102, DW_AT_data_member_location[DW_OP_plus_uconst 0x0]
    2207                      .dwattr $C$DW$102, DW_AT_accessibility(DW_ACCESS_public)
    2208              
    2209              $C$DW$103       .dwtag  DW_TAG_member
    2210                      .dwattr $C$DW$103, DW_AT_type(*$C$DW$T$19)
    2211                      .dwattr $C$DW$103, DW_AT_name("IREFTRIM")
    2212                      .dwattr $C$DW$103, DW_AT_TI_symbol_name("_IREFTRIM")
    2213                      .dwattr $C$DW$103, DW_AT_bit_offset(0x00)
    2214                      .dwattr $C$DW$103, DW_AT_bit_size(0x05)
    2215                      .dwattr $C$DW$103, DW_AT_data_member_location[DW_OP_plus_uconst 0x0]
    2216                      .dwattr $C$DW$103, DW_AT_accessibility(DW_ACCESS_public)
    2217              
    2218              $C$DW$104       .dwtag  DW_TAG_member
    2219                      .dwattr $C$DW$104, DW_AT_type(*$C$DW$T$19)
    2220                      .dwattr $C$DW$104, DW_AT_name("rsvd1")
    2221                      .dwattr $C$DW$104, DW_AT_TI_symbol_name("_rsvd1")
    2222                      .dwattr $C$DW$104, DW_AT_bit_offset(0x08)
    2223                      .dwattr $C$DW$104, DW_AT_bit_size(0x08)
    2224                      .dwattr $C$DW$104, DW_AT_data_member_location[DW_OP_plus_uconst 0x1]
    2225                      .dwattr $C$DW$104, DW_AT_accessibility(DW_ACCESS_public)
    2226              
    2227              $C$DW$105       .dwtag  DW_TAG_member
    2228                      .dwattr $C$DW$105, DW_AT_type(*$C$DW$T$19)
    2229                      .dwattr $C$DW$105, DW_AT_name("rsvd2")
    2230                      .dwattr $C$DW$105, DW_AT_TI_symbol_name("_rsvd2")
    2231                      .dwattr $C$DW$105, DW_AT_bit_offset(0x00)
    2232                      .dwattr $C$DW$105, DW_AT_bit_size(0x08)
TMS320C2000 Assembler PC v20.2.1 Wed Oct  7 22:14:22 2020

Copyright (c) 1996-2018 Texas Instruments Incorporated
F2837xD_SysCtrl.asm                                                  PAGE   45

    2233                      .dwattr $C$DW$105, DW_AT_data_member_location[DW_OP_plus_uconst 0x1]
    2234                      .dwattr $C$DW$105, DW_AT_accessibility(DW_ACCESS_public)
    2235              
    2236                      .dwendtag $C$DW$T$29
    2237              
    2238              
    2239              $C$DW$T$30      .dwtag  DW_TAG_union_type
    2240                      .dwattr $C$DW$T$30, DW_AT_name("ANAREFTRIMB_REG")
    2241                      .dwattr $C$DW$T$30, DW_AT_byte_size(0x02)
    2242              $C$DW$106       .dwtag  DW_TAG_member
    2243                      .dwattr $C$DW$106, DW_AT_type(*$C$DW$T$27)
    2244                      .dwattr $C$DW$106, DW_AT_name("all")
    2245                      .dwattr $C$DW$106, DW_AT_TI_symbol_name("_all")
    2246                      .dwattr $C$DW$106, DW_AT_data_member_location[DW_OP_plus_uconst 0x0]
    2247                      .dwattr $C$DW$106, DW_AT_accessibility(DW_ACCESS_public)
    2248              
    2249              $C$DW$107       .dwtag  DW_TAG_member
    2250                      .dwattr $C$DW$107, DW_AT_type(*$C$DW$T$29)
    2251                      .dwattr $C$DW$107, DW_AT_name("bit")
    2252                      .dwattr $C$DW$107, DW_AT_TI_symbol_name("_bit")
    2253                      .dwattr $C$DW$107, DW_AT_data_member_location[DW_OP_plus_uconst 0x0]
    2254                      .dwattr $C$DW$107, DW_AT_accessibility(DW_ACCESS_public)
    2255              
    2256                      .dwendtag $C$DW$T$30
    2257              
    2258              
    2259              $C$DW$T$31      .dwtag  DW_TAG_structure_type
    2260                      .dwattr $C$DW$T$31, DW_AT_name("ANAREFTRIMC_BITS")
    2261                      .dwattr $C$DW$T$31, DW_AT_byte_size(0x02)
    2262              $C$DW$108       .dwtag  DW_TAG_member
    2263                      .dwattr $C$DW$108, DW_AT_type(*$C$DW$T$19)
    2264                      .dwattr $C$DW$108, DW_AT_name("BGVALTRIM")
    2265                      .dwattr $C$DW$108, DW_AT_TI_symbol_name("_BGVALTRIM")
    2266                      .dwattr $C$DW$108, DW_AT_bit_offset(0x0a)
    2267                      .dwattr $C$DW$108, DW_AT_bit_size(0x06)
    2268                      .dwattr $C$DW$108, DW_AT_data_member_location[DW_OP_plus_uconst 0x0]
    2269                      .dwattr $C$DW$108, DW_AT_accessibility(DW_ACCESS_public)
    2270              
    2271              $C$DW$109       .dwtag  DW_TAG_member
    2272                      .dwattr $C$DW$109, DW_AT_type(*$C$DW$T$19)
    2273                      .dwattr $C$DW$109, DW_AT_name("BGSLOPETRIM")
    2274                      .dwattr $C$DW$109, DW_AT_TI_symbol_name("_BGSLOPETRIM")
    2275                      .dwattr $C$DW$109, DW_AT_bit_offset(0x05)
    2276                      .dwattr $C$DW$109, DW_AT_bit_size(0x05)
    2277                      .dwattr $C$DW$109, DW_AT_data_member_location[DW_OP_plus_uconst 0x0]
    2278                      .dwattr $C$DW$109, DW_AT_accessibility(DW_ACCESS_public)
    2279              
    2280              $C$DW$110       .dwtag  DW_TAG_member
    2281                      .dwattr $C$DW$110, DW_AT_type(*$C$DW$T$19)
    2282                      .dwattr $C$DW$110, DW_AT_name("IREFTRIM")
    2283                      .dwattr $C$DW$110, DW_AT_TI_symbol_name("_IREFTRIM")
    2284                      .dwattr $C$DW$110, DW_AT_bit_offset(0x00)
    2285                      .dwattr $C$DW$110, DW_AT_bit_size(0x05)
    2286                      .dwattr $C$DW$110, DW_AT_data_member_location[DW_OP_plus_uconst 0x0]
    2287                      .dwattr $C$DW$110, DW_AT_accessibility(DW_ACCESS_public)
TMS320C2000 Assembler PC v20.2.1 Wed Oct  7 22:14:22 2020

Copyright (c) 1996-2018 Texas Instruments Incorporated
F2837xD_SysCtrl.asm                                                  PAGE   46

    2288              
    2289              $C$DW$111       .dwtag  DW_TAG_member
    2290                      .dwattr $C$DW$111, DW_AT_type(*$C$DW$T$19)
    2291                      .dwattr $C$DW$111, DW_AT_name("rsvd1")
    2292                      .dwattr $C$DW$111, DW_AT_TI_symbol_name("_rsvd1")
    2293                      .dwattr $C$DW$111, DW_AT_bit_offset(0x08)
    2294                      .dwattr $C$DW$111, DW_AT_bit_size(0x08)
    2295                      .dwattr $C$DW$111, DW_AT_data_member_location[DW_OP_plus_uconst 0x1]
    2296                      .dwattr $C$DW$111, DW_AT_accessibility(DW_ACCESS_public)
    2297              
    2298              $C$DW$112       .dwtag  DW_TAG_member
    2299                      .dwattr $C$DW$112, DW_AT_type(*$C$DW$T$19)
    2300                      .dwattr $C$DW$112, DW_AT_name("rsvd2")
    2301                      .dwattr $C$DW$112, DW_AT_TI_symbol_name("_rsvd2")
    2302                      .dwattr $C$DW$112, DW_AT_bit_offset(0x00)
    2303                      .dwattr $C$DW$112, DW_AT_bit_size(0x08)
    2304                      .dwattr $C$DW$112, DW_AT_data_member_location[DW_OP_plus_uconst 0x1]
    2305                      .dwattr $C$DW$112, DW_AT_accessibility(DW_ACCESS_public)
    2306              
    2307                      .dwendtag $C$DW$T$31
    2308              
    2309              
    2310              $C$DW$T$32      .dwtag  DW_TAG_union_type
    2311                      .dwattr $C$DW$T$32, DW_AT_name("ANAREFTRIMC_REG")
    2312                      .dwattr $C$DW$T$32, DW_AT_byte_size(0x02)
    2313              $C$DW$113       .dwtag  DW_TAG_member
    2314                      .dwattr $C$DW$113, DW_AT_type(*$C$DW$T$27)
    2315                      .dwattr $C$DW$113, DW_AT_name("all")
    2316                      .dwattr $C$DW$113, DW_AT_TI_symbol_name("_all")
    2317                      .dwattr $C$DW$113, DW_AT_data_member_location[DW_OP_plus_uconst 0x0]
    2318                      .dwattr $C$DW$113, DW_AT_accessibility(DW_ACCESS_public)
    2319              
    2320              $C$DW$114       .dwtag  DW_TAG_member
    2321                      .dwattr $C$DW$114, DW_AT_type(*$C$DW$T$31)
    2322                      .dwattr $C$DW$114, DW_AT_name("bit")
    2323                      .dwattr $C$DW$114, DW_AT_TI_symbol_name("_bit")
    2324                      .dwattr $C$DW$114, DW_AT_data_member_location[DW_OP_plus_uconst 0x0]
    2325                      .dwattr $C$DW$114, DW_AT_accessibility(DW_ACCESS_public)
    2326              
    2327                      .dwendtag $C$DW$T$32
    2328              
    2329              
    2330              $C$DW$T$33      .dwtag  DW_TAG_structure_type
    2331                      .dwattr $C$DW$T$33, DW_AT_name("ANAREFTRIMD_BITS")
    2332                      .dwattr $C$DW$T$33, DW_AT_byte_size(0x02)
    2333              $C$DW$115       .dwtag  DW_TAG_member
    2334                      .dwattr $C$DW$115, DW_AT_type(*$C$DW$T$19)
    2335                      .dwattr $C$DW$115, DW_AT_name("BGVALTRIM")
    2336                      .dwattr $C$DW$115, DW_AT_TI_symbol_name("_BGVALTRIM")
    2337                      .dwattr $C$DW$115, DW_AT_bit_offset(0x0a)
    2338                      .dwattr $C$DW$115, DW_AT_bit_size(0x06)
    2339                      .dwattr $C$DW$115, DW_AT_data_member_location[DW_OP_plus_uconst 0x0]
    2340                      .dwattr $C$DW$115, DW_AT_accessibility(DW_ACCESS_public)
    2341              
    2342              $C$DW$116       .dwtag  DW_TAG_member
TMS320C2000 Assembler PC v20.2.1 Wed Oct  7 22:14:22 2020

Copyright (c) 1996-2018 Texas Instruments Incorporated
F2837xD_SysCtrl.asm                                                  PAGE   47

    2343                      .dwattr $C$DW$116, DW_AT_type(*$C$DW$T$19)
    2344                      .dwattr $C$DW$116, DW_AT_name("BGSLOPETRIM")
    2345                      .dwattr $C$DW$116, DW_AT_TI_symbol_name("_BGSLOPETRIM")
    2346                      .dwattr $C$DW$116, DW_AT_bit_offset(0x05)
    2347                      .dwattr $C$DW$116, DW_AT_bit_size(0x05)
    2348                      .dwattr $C$DW$116, DW_AT_data_member_location[DW_OP_plus_uconst 0x0]
    2349                      .dwattr $C$DW$116, DW_AT_accessibility(DW_ACCESS_public)
    2350              
    2351              $C$DW$117       .dwtag  DW_TAG_member
    2352                      .dwattr $C$DW$117, DW_AT_type(*$C$DW$T$19)
    2353                      .dwattr $C$DW$117, DW_AT_name("IREFTRIM")
    2354                      .dwattr $C$DW$117, DW_AT_TI_symbol_name("_IREFTRIM")
    2355                      .dwattr $C$DW$117, DW_AT_bit_offset(0x00)
    2356                      .dwattr $C$DW$117, DW_AT_bit_size(0x05)
    2357                      .dwattr $C$DW$117, DW_AT_data_member_location[DW_OP_plus_uconst 0x0]
    2358                      .dwattr $C$DW$117, DW_AT_accessibility(DW_ACCESS_public)
    2359              
    2360              $C$DW$118       .dwtag  DW_TAG_member
    2361                      .dwattr $C$DW$118, DW_AT_type(*$C$DW$T$19)
    2362                      .dwattr $C$DW$118, DW_AT_name("rsvd1")
    2363                      .dwattr $C$DW$118, DW_AT_TI_symbol_name("_rsvd1")
    2364                      .dwattr $C$DW$118, DW_AT_bit_offset(0x08)
    2365                      .dwattr $C$DW$118, DW_AT_bit_size(0x08)
    2366                      .dwattr $C$DW$118, DW_AT_data_member_location[DW_OP_plus_uconst 0x1]
    2367                      .dwattr $C$DW$118, DW_AT_accessibility(DW_ACCESS_public)
    2368              
    2369              $C$DW$119       .dwtag  DW_TAG_member
    2370                      .dwattr $C$DW$119, DW_AT_type(*$C$DW$T$19)
    2371                      .dwattr $C$DW$119, DW_AT_name("rsvd2")
    2372                      .dwattr $C$DW$119, DW_AT_TI_symbol_name("_rsvd2")
    2373                      .dwattr $C$DW$119, DW_AT_bit_offset(0x00)
    2374                      .dwattr $C$DW$119, DW_AT_bit_size(0x08)
    2375                      .dwattr $C$DW$119, DW_AT_data_member_location[DW_OP_plus_uconst 0x1]
    2376                      .dwattr $C$DW$119, DW_AT_accessibility(DW_ACCESS_public)
    2377              
    2378                      .dwendtag $C$DW$T$33
    2379              
    2380              
    2381              $C$DW$T$34      .dwtag  DW_TAG_union_type
    2382                      .dwattr $C$DW$T$34, DW_AT_name("ANAREFTRIMD_REG")
    2383                      .dwattr $C$DW$T$34, DW_AT_byte_size(0x02)
    2384              $C$DW$120       .dwtag  DW_TAG_member
    2385                      .dwattr $C$DW$120, DW_AT_type(*$C$DW$T$27)
    2386                      .dwattr $C$DW$120, DW_AT_name("all")
    2387                      .dwattr $C$DW$120, DW_AT_TI_symbol_name("_all")
    2388                      .dwattr $C$DW$120, DW_AT_data_member_location[DW_OP_plus_uconst 0x0]
    2389                      .dwattr $C$DW$120, DW_AT_accessibility(DW_ACCESS_public)
    2390              
    2391              $C$DW$121       .dwtag  DW_TAG_member
    2392                      .dwattr $C$DW$121, DW_AT_type(*$C$DW$T$33)
    2393                      .dwattr $C$DW$121, DW_AT_name("bit")
    2394                      .dwattr $C$DW$121, DW_AT_TI_symbol_name("_bit")
    2395                      .dwattr $C$DW$121, DW_AT_data_member_location[DW_OP_plus_uconst 0x0]
    2396                      .dwattr $C$DW$121, DW_AT_accessibility(DW_ACCESS_public)
    2397              
TMS320C2000 Assembler PC v20.2.1 Wed Oct  7 22:14:22 2020

Copyright (c) 1996-2018 Texas Instruments Incorporated
F2837xD_SysCtrl.asm                                                  PAGE   48

    2398                      .dwendtag $C$DW$T$34
    2399              
    2400              
    2401              $C$DW$T$35      .dwtag  DW_TAG_structure_type
    2402                      .dwattr $C$DW$T$35, DW_AT_name("AUXCLKDIVSEL_BITS")
    2403                      .dwattr $C$DW$T$35, DW_AT_byte_size(0x02)
    2404              $C$DW$122       .dwtag  DW_TAG_member
    2405                      .dwattr $C$DW$122, DW_AT_type(*$C$DW$T$19)
    2406                      .dwattr $C$DW$122, DW_AT_name("AUXPLLDIV")
    2407                      .dwattr $C$DW$122, DW_AT_TI_symbol_name("_AUXPLLDIV")
    2408                      .dwattr $C$DW$122, DW_AT_bit_offset(0x0e)
    2409                      .dwattr $C$DW$122, DW_AT_bit_size(0x02)
    2410                      .dwattr $C$DW$122, DW_AT_data_member_location[DW_OP_plus_uconst 0x0]
    2411                      .dwattr $C$DW$122, DW_AT_accessibility(DW_ACCESS_public)
    2412              
    2413              $C$DW$123       .dwtag  DW_TAG_member
    2414                      .dwattr $C$DW$123, DW_AT_type(*$C$DW$T$19)
    2415                      .dwattr $C$DW$123, DW_AT_name("rsvd1")
    2416                      .dwattr $C$DW$123, DW_AT_TI_symbol_name("_rsvd1")
    2417                      .dwattr $C$DW$123, DW_AT_bit_offset(0x00)
    2418                      .dwattr $C$DW$123, DW_AT_bit_size(0x0e)
    2419                      .dwattr $C$DW$123, DW_AT_data_member_location[DW_OP_plus_uconst 0x0]
    2420                      .dwattr $C$DW$123, DW_AT_accessibility(DW_ACCESS_public)
    2421              
    2422              $C$DW$124       .dwtag  DW_TAG_member
    2423                      .dwattr $C$DW$124, DW_AT_type(*$C$DW$T$19)
    2424                      .dwattr $C$DW$124, DW_AT_name("rsvd2")
    2425                      .dwattr $C$DW$124, DW_AT_TI_symbol_name("_rsvd2")
    2426                      .dwattr $C$DW$124, DW_AT_bit_offset(0x00)
    2427                      .dwattr $C$DW$124, DW_AT_bit_size(0x10)
    2428                      .dwattr $C$DW$124, DW_AT_data_member_location[DW_OP_plus_uconst 0x1]
    2429                      .dwattr $C$DW$124, DW_AT_accessibility(DW_ACCESS_public)
    2430              
    2431                      .dwendtag $C$DW$T$35
    2432              
    2433              
    2434              $C$DW$T$36      .dwtag  DW_TAG_union_type
    2435                      .dwattr $C$DW$T$36, DW_AT_name("AUXCLKDIVSEL_REG")
    2436                      .dwattr $C$DW$T$36, DW_AT_byte_size(0x02)
    2437              $C$DW$125       .dwtag  DW_TAG_member
    2438                      .dwattr $C$DW$125, DW_AT_type(*$C$DW$T$27)
    2439                      .dwattr $C$DW$125, DW_AT_name("all")
    2440                      .dwattr $C$DW$125, DW_AT_TI_symbol_name("_all")
    2441                      .dwattr $C$DW$125, DW_AT_data_member_location[DW_OP_plus_uconst 0x0]
    2442                      .dwattr $C$DW$125, DW_AT_accessibility(DW_ACCESS_public)
    2443              
    2444              $C$DW$126       .dwtag  DW_TAG_member
    2445                      .dwattr $C$DW$126, DW_AT_type(*$C$DW$T$35)
    2446                      .dwattr $C$DW$126, DW_AT_name("bit")
    2447                      .dwattr $C$DW$126, DW_AT_TI_symbol_name("_bit")
    2448                      .dwattr $C$DW$126, DW_AT_data_member_location[DW_OP_plus_uconst 0x0]
    2449                      .dwattr $C$DW$126, DW_AT_accessibility(DW_ACCESS_public)
    2450              
    2451                      .dwendtag $C$DW$T$36
    2452              
TMS320C2000 Assembler PC v20.2.1 Wed Oct  7 22:14:22 2020

Copyright (c) 1996-2018 Texas Instruments Incorporated
F2837xD_SysCtrl.asm                                                  PAGE   49

    2453              
    2454              $C$DW$T$37      .dwtag  DW_TAG_structure_type
    2455                      .dwattr $C$DW$T$37, DW_AT_name("AUXPLLCTL1_BITS")
    2456                      .dwattr $C$DW$T$37, DW_AT_byte_size(0x02)
    2457              $C$DW$127       .dwtag  DW_TAG_member
    2458                      .dwattr $C$DW$127, DW_AT_type(*$C$DW$T$19)
    2459                      .dwattr $C$DW$127, DW_AT_name("PLLEN")
    2460                      .dwattr $C$DW$127, DW_AT_TI_symbol_name("_PLLEN")
    2461                      .dwattr $C$DW$127, DW_AT_bit_offset(0x0f)
    2462                      .dwattr $C$DW$127, DW_AT_bit_size(0x01)
    2463                      .dwattr $C$DW$127, DW_AT_data_member_location[DW_OP_plus_uconst 0x0]
    2464                      .dwattr $C$DW$127, DW_AT_accessibility(DW_ACCESS_public)
    2465              
    2466              $C$DW$128       .dwtag  DW_TAG_member
    2467                      .dwattr $C$DW$128, DW_AT_type(*$C$DW$T$19)
    2468                      .dwattr $C$DW$128, DW_AT_name("PLLCLKEN")
    2469                      .dwattr $C$DW$128, DW_AT_TI_symbol_name("_PLLCLKEN")
    2470                      .dwattr $C$DW$128, DW_AT_bit_offset(0x0e)
    2471                      .dwattr $C$DW$128, DW_AT_bit_size(0x01)
    2472                      .dwattr $C$DW$128, DW_AT_data_member_location[DW_OP_plus_uconst 0x0]
    2473                      .dwattr $C$DW$128, DW_AT_accessibility(DW_ACCESS_public)
    2474              
    2475              $C$DW$129       .dwtag  DW_TAG_member
    2476                      .dwattr $C$DW$129, DW_AT_type(*$C$DW$T$19)
    2477                      .dwattr $C$DW$129, DW_AT_name("rsvd1")
    2478                      .dwattr $C$DW$129, DW_AT_TI_symbol_name("_rsvd1")
    2479                      .dwattr $C$DW$129, DW_AT_bit_offset(0x00)
    2480                      .dwattr $C$DW$129, DW_AT_bit_size(0x0e)
    2481                      .dwattr $C$DW$129, DW_AT_data_member_location[DW_OP_plus_uconst 0x0]
    2482                      .dwattr $C$DW$129, DW_AT_accessibility(DW_ACCESS_public)
    2483              
    2484              $C$DW$130       .dwtag  DW_TAG_member
    2485                      .dwattr $C$DW$130, DW_AT_type(*$C$DW$T$19)
    2486                      .dwattr $C$DW$130, DW_AT_name("rsvd2")
    2487                      .dwattr $C$DW$130, DW_AT_TI_symbol_name("_rsvd2")
    2488                      .dwattr $C$DW$130, DW_AT_bit_offset(0x00)
    2489                      .dwattr $C$DW$130, DW_AT_bit_size(0x10)
    2490                      .dwattr $C$DW$130, DW_AT_data_member_location[DW_OP_plus_uconst 0x1]
    2491                      .dwattr $C$DW$130, DW_AT_accessibility(DW_ACCESS_public)
    2492              
    2493                      .dwendtag $C$DW$T$37
    2494              
    2495              
    2496              $C$DW$T$38      .dwtag  DW_TAG_union_type
    2497                      .dwattr $C$DW$T$38, DW_AT_name("AUXPLLCTL1_REG")
    2498                      .dwattr $C$DW$T$38, DW_AT_byte_size(0x02)
    2499              $C$DW$131       .dwtag  DW_TAG_member
    2500                      .dwattr $C$DW$131, DW_AT_type(*$C$DW$T$27)
    2501                      .dwattr $C$DW$131, DW_AT_name("all")
    2502                      .dwattr $C$DW$131, DW_AT_TI_symbol_name("_all")
    2503                      .dwattr $C$DW$131, DW_AT_data_member_location[DW_OP_plus_uconst 0x0]
    2504                      .dwattr $C$DW$131, DW_AT_accessibility(DW_ACCESS_public)
    2505              
    2506              $C$DW$132       .dwtag  DW_TAG_member
    2507                      .dwattr $C$DW$132, DW_AT_type(*$C$DW$T$37)
TMS320C2000 Assembler PC v20.2.1 Wed Oct  7 22:14:22 2020

Copyright (c) 1996-2018 Texas Instruments Incorporated
F2837xD_SysCtrl.asm                                                  PAGE   50

    2508                      .dwattr $C$DW$132, DW_AT_name("bit")
    2509                      .dwattr $C$DW$132, DW_AT_TI_symbol_name("_bit")
    2510                      .dwattr $C$DW$132, DW_AT_data_member_location[DW_OP_plus_uconst 0x0]
    2511                      .dwattr $C$DW$132, DW_AT_accessibility(DW_ACCESS_public)
    2512              
    2513                      .dwendtag $C$DW$T$38
    2514              
    2515              
    2516              $C$DW$T$39      .dwtag  DW_TAG_structure_type
    2517                      .dwattr $C$DW$T$39, DW_AT_name("AUXPLLMULT_BITS")
    2518                      .dwattr $C$DW$T$39, DW_AT_byte_size(0x02)
    2519              $C$DW$133       .dwtag  DW_TAG_member
    2520                      .dwattr $C$DW$133, DW_AT_type(*$C$DW$T$19)
    2521                      .dwattr $C$DW$133, DW_AT_name("IMULT")
    2522                      .dwattr $C$DW$133, DW_AT_TI_symbol_name("_IMULT")
    2523                      .dwattr $C$DW$133, DW_AT_bit_offset(0x09)
    2524                      .dwattr $C$DW$133, DW_AT_bit_size(0x07)
    2525                      .dwattr $C$DW$133, DW_AT_data_member_location[DW_OP_plus_uconst 0x0]
    2526                      .dwattr $C$DW$133, DW_AT_accessibility(DW_ACCESS_public)
    2527              
    2528              $C$DW$134       .dwtag  DW_TAG_member
    2529                      .dwattr $C$DW$134, DW_AT_type(*$C$DW$T$19)
    2530                      .dwattr $C$DW$134, DW_AT_name("rsvd1")
    2531                      .dwattr $C$DW$134, DW_AT_TI_symbol_name("_rsvd1")
    2532                      .dwattr $C$DW$134, DW_AT_bit_offset(0x08)
    2533                      .dwattr $C$DW$134, DW_AT_bit_size(0x01)
    2534                      .dwattr $C$DW$134, DW_AT_data_member_location[DW_OP_plus_uconst 0x0]
    2535                      .dwattr $C$DW$134, DW_AT_accessibility(DW_ACCESS_public)
    2536              
    2537              $C$DW$135       .dwtag  DW_TAG_member
    2538                      .dwattr $C$DW$135, DW_AT_type(*$C$DW$T$19)
    2539                      .dwattr $C$DW$135, DW_AT_name("FMULT")
    2540                      .dwattr $C$DW$135, DW_AT_TI_symbol_name("_FMULT")
    2541                      .dwattr $C$DW$135, DW_AT_bit_offset(0x06)
    2542                      .dwattr $C$DW$135, DW_AT_bit_size(0x02)
    2543                      .dwattr $C$DW$135, DW_AT_data_member_location[DW_OP_plus_uconst 0x0]
    2544                      .dwattr $C$DW$135, DW_AT_accessibility(DW_ACCESS_public)
    2545              
    2546              $C$DW$136       .dwtag  DW_TAG_member
    2547                      .dwattr $C$DW$136, DW_AT_type(*$C$DW$T$19)
    2548                      .dwattr $C$DW$136, DW_AT_name("rsvd2")
    2549                      .dwattr $C$DW$136, DW_AT_TI_symbol_name("_rsvd2")
    2550                      .dwattr $C$DW$136, DW_AT_bit_offset(0x00)
    2551                      .dwattr $C$DW$136, DW_AT_bit_size(0x06)
    2552                      .dwattr $C$DW$136, DW_AT_data_member_location[DW_OP_plus_uconst 0x0]
    2553                      .dwattr $C$DW$136, DW_AT_accessibility(DW_ACCESS_public)
    2554              
    2555              $C$DW$137       .dwtag  DW_TAG_member
    2556                      .dwattr $C$DW$137, DW_AT_type(*$C$DW$T$19)
    2557                      .dwattr $C$DW$137, DW_AT_name("rsvd3")
    2558                      .dwattr $C$DW$137, DW_AT_TI_symbol_name("_rsvd3")
    2559                      .dwattr $C$DW$137, DW_AT_bit_offset(0x00)
    2560                      .dwattr $C$DW$137, DW_AT_bit_size(0x10)
    2561                      .dwattr $C$DW$137, DW_AT_data_member_location[DW_OP_plus_uconst 0x1]
    2562                      .dwattr $C$DW$137, DW_AT_accessibility(DW_ACCESS_public)
TMS320C2000 Assembler PC v20.2.1 Wed Oct  7 22:14:22 2020

Copyright (c) 1996-2018 Texas Instruments Incorporated
F2837xD_SysCtrl.asm                                                  PAGE   51

    2563              
    2564                      .dwendtag $C$DW$T$39
    2565              
    2566              
    2567              $C$DW$T$40      .dwtag  DW_TAG_union_type
    2568                      .dwattr $C$DW$T$40, DW_AT_name("AUXPLLMULT_REG")
    2569                      .dwattr $C$DW$T$40, DW_AT_byte_size(0x02)
    2570              $C$DW$138       .dwtag  DW_TAG_member
    2571                      .dwattr $C$DW$138, DW_AT_type(*$C$DW$T$27)
    2572                      .dwattr $C$DW$138, DW_AT_name("all")
    2573                      .dwattr $C$DW$138, DW_AT_TI_symbol_name("_all")
    2574                      .dwattr $C$DW$138, DW_AT_data_member_location[DW_OP_plus_uconst 0x0]
    2575                      .dwattr $C$DW$138, DW_AT_accessibility(DW_ACCESS_public)
    2576              
    2577              $C$DW$139       .dwtag  DW_TAG_member
    2578                      .dwattr $C$DW$139, DW_AT_type(*$C$DW$T$39)
    2579                      .dwattr $C$DW$139, DW_AT_name("bit")
    2580                      .dwattr $C$DW$139, DW_AT_TI_symbol_name("_bit")
    2581                      .dwattr $C$DW$139, DW_AT_data_member_location[DW_OP_plus_uconst 0x0]
    2582                      .dwattr $C$DW$139, DW_AT_accessibility(DW_ACCESS_public)
    2583              
    2584                      .dwendtag $C$DW$T$40
    2585              
    2586              
    2587              $C$DW$T$41      .dwtag  DW_TAG_structure_type
    2588                      .dwattr $C$DW$T$41, DW_AT_name("AUXPLLSTS_BITS")
    2589                      .dwattr $C$DW$T$41, DW_AT_byte_size(0x02)
    2590              $C$DW$140       .dwtag  DW_TAG_member
    2591                      .dwattr $C$DW$140, DW_AT_type(*$C$DW$T$19)
    2592                      .dwattr $C$DW$140, DW_AT_name("LOCKS")
    2593                      .dwattr $C$DW$140, DW_AT_TI_symbol_name("_LOCKS")
    2594                      .dwattr $C$DW$140, DW_AT_bit_offset(0x0f)
    2595                      .dwattr $C$DW$140, DW_AT_bit_size(0x01)
    2596                      .dwattr $C$DW$140, DW_AT_data_member_location[DW_OP_plus_uconst 0x0]
    2597                      .dwattr $C$DW$140, DW_AT_accessibility(DW_ACCESS_public)
    2598              
    2599              $C$DW$141       .dwtag  DW_TAG_member
    2600                      .dwattr $C$DW$141, DW_AT_type(*$C$DW$T$19)
    2601                      .dwattr $C$DW$141, DW_AT_name("SLIPS")
    2602                      .dwattr $C$DW$141, DW_AT_TI_symbol_name("_SLIPS")
    2603                      .dwattr $C$DW$141, DW_AT_bit_offset(0x0e)
    2604                      .dwattr $C$DW$141, DW_AT_bit_size(0x01)
    2605                      .dwattr $C$DW$141, DW_AT_data_member_location[DW_OP_plus_uconst 0x0]
    2606                      .dwattr $C$DW$141, DW_AT_accessibility(DW_ACCESS_public)
    2607              
    2608              $C$DW$142       .dwtag  DW_TAG_member
    2609                      .dwattr $C$DW$142, DW_AT_type(*$C$DW$T$19)
    2610                      .dwattr $C$DW$142, DW_AT_name("rsvd1")
    2611                      .dwattr $C$DW$142, DW_AT_TI_symbol_name("_rsvd1")
    2612                      .dwattr $C$DW$142, DW_AT_bit_offset(0x00)
    2613                      .dwattr $C$DW$142, DW_AT_bit_size(0x0e)
    2614                      .dwattr $C$DW$142, DW_AT_data_member_location[DW_OP_plus_uconst 0x0]
    2615                      .dwattr $C$DW$142, DW_AT_accessibility(DW_ACCESS_public)
    2616              
    2617              $C$DW$143       .dwtag  DW_TAG_member
TMS320C2000 Assembler PC v20.2.1 Wed Oct  7 22:14:22 2020

Copyright (c) 1996-2018 Texas Instruments Incorporated
F2837xD_SysCtrl.asm                                                  PAGE   52

    2618                      .dwattr $C$DW$143, DW_AT_type(*$C$DW$T$19)
    2619                      .dwattr $C$DW$143, DW_AT_name("rsvd2")
    2620                      .dwattr $C$DW$143, DW_AT_TI_symbol_name("_rsvd2")
    2621                      .dwattr $C$DW$143, DW_AT_bit_offset(0x00)
    2622                      .dwattr $C$DW$143, DW_AT_bit_size(0x10)
    2623                      .dwattr $C$DW$143, DW_AT_data_member_location[DW_OP_plus_uconst 0x1]
    2624                      .dwattr $C$DW$143, DW_AT_accessibility(DW_ACCESS_public)
    2625              
    2626                      .dwendtag $C$DW$T$41
    2627              
    2628              
    2629              $C$DW$T$42      .dwtag  DW_TAG_union_type
    2630                      .dwattr $C$DW$T$42, DW_AT_name("AUXPLLSTS_REG")
    2631                      .dwattr $C$DW$T$42, DW_AT_byte_size(0x02)
    2632              $C$DW$144       .dwtag  DW_TAG_member
    2633                      .dwattr $C$DW$144, DW_AT_type(*$C$DW$T$27)
    2634                      .dwattr $C$DW$144, DW_AT_name("all")
    2635                      .dwattr $C$DW$144, DW_AT_TI_symbol_name("_all")
    2636                      .dwattr $C$DW$144, DW_AT_data_member_location[DW_OP_plus_uconst 0x0]
    2637                      .dwattr $C$DW$144, DW_AT_accessibility(DW_ACCESS_public)
    2638              
    2639              $C$DW$145       .dwtag  DW_TAG_member
    2640                      .dwattr $C$DW$145, DW_AT_type(*$C$DW$T$41)
    2641                      .dwattr $C$DW$145, DW_AT_name("bit")
    2642                      .dwattr $C$DW$145, DW_AT_TI_symbol_name("_bit")
    2643                      .dwattr $C$DW$145, DW_AT_data_member_location[DW_OP_plus_uconst 0x0]
    2644                      .dwattr $C$DW$145, DW_AT_accessibility(DW_ACCESS_public)
    2645              
    2646                      .dwendtag $C$DW$T$42
    2647              
    2648              
    2649              $C$DW$T$43      .dwtag  DW_TAG_structure_type
    2650                      .dwattr $C$DW$T$43, DW_AT_name("CLKCFGLOCK1_BITS")
    2651                      .dwattr $C$DW$T$43, DW_AT_byte_size(0x02)
    2652              $C$DW$146       .dwtag  DW_TAG_member
    2653                      .dwattr $C$DW$146, DW_AT_type(*$C$DW$T$19)
    2654                      .dwattr $C$DW$146, DW_AT_name("CLKSRCCTL1")
    2655                      .dwattr $C$DW$146, DW_AT_TI_symbol_name("_CLKSRCCTL1")
    2656                      .dwattr $C$DW$146, DW_AT_bit_offset(0x0f)
    2657                      .dwattr $C$DW$146, DW_AT_bit_size(0x01)
    2658                      .dwattr $C$DW$146, DW_AT_data_member_location[DW_OP_plus_uconst 0x0]
    2659                      .dwattr $C$DW$146, DW_AT_accessibility(DW_ACCESS_public)
    2660              
    2661              $C$DW$147       .dwtag  DW_TAG_member
    2662                      .dwattr $C$DW$147, DW_AT_type(*$C$DW$T$19)
    2663                      .dwattr $C$DW$147, DW_AT_name("CLKSRCCTL2")
    2664                      .dwattr $C$DW$147, DW_AT_TI_symbol_name("_CLKSRCCTL2")
    2665                      .dwattr $C$DW$147, DW_AT_bit_offset(0x0e)
    2666                      .dwattr $C$DW$147, DW_AT_bit_size(0x01)
    2667                      .dwattr $C$DW$147, DW_AT_data_member_location[DW_OP_plus_uconst 0x0]
    2668                      .dwattr $C$DW$147, DW_AT_accessibility(DW_ACCESS_public)
    2669              
    2670              $C$DW$148       .dwtag  DW_TAG_member
    2671                      .dwattr $C$DW$148, DW_AT_type(*$C$DW$T$19)
    2672                      .dwattr $C$DW$148, DW_AT_name("CLKSRCCTL3")
TMS320C2000 Assembler PC v20.2.1 Wed Oct  7 22:14:22 2020

Copyright (c) 1996-2018 Texas Instruments Incorporated
F2837xD_SysCtrl.asm                                                  PAGE   53

    2673                      .dwattr $C$DW$148, DW_AT_TI_symbol_name("_CLKSRCCTL3")
    2674                      .dwattr $C$DW$148, DW_AT_bit_offset(0x0d)
    2675                      .dwattr $C$DW$148, DW_AT_bit_size(0x01)
    2676                      .dwattr $C$DW$148, DW_AT_data_member_location[DW_OP_plus_uconst 0x0]
    2677                      .dwattr $C$DW$148, DW_AT_accessibility(DW_ACCESS_public)
    2678              
    2679              $C$DW$149       .dwtag  DW_TAG_member
    2680                      .dwattr $C$DW$149, DW_AT_type(*$C$DW$T$19)
    2681                      .dwattr $C$DW$149, DW_AT_name("SYSPLLCTL1")
    2682                      .dwattr $C$DW$149, DW_AT_TI_symbol_name("_SYSPLLCTL1")
    2683                      .dwattr $C$DW$149, DW_AT_bit_offset(0x0c)
    2684                      .dwattr $C$DW$149, DW_AT_bit_size(0x01)
    2685                      .dwattr $C$DW$149, DW_AT_data_member_location[DW_OP_plus_uconst 0x0]
    2686                      .dwattr $C$DW$149, DW_AT_accessibility(DW_ACCESS_public)
    2687              
    2688              $C$DW$150       .dwtag  DW_TAG_member
    2689                      .dwattr $C$DW$150, DW_AT_type(*$C$DW$T$19)
    2690                      .dwattr $C$DW$150, DW_AT_name("SYSPLLCTL2")
    2691                      .dwattr $C$DW$150, DW_AT_TI_symbol_name("_SYSPLLCTL2")
    2692                      .dwattr $C$DW$150, DW_AT_bit_offset(0x0b)
    2693                      .dwattr $C$DW$150, DW_AT_bit_size(0x01)
    2694                      .dwattr $C$DW$150, DW_AT_data_member_location[DW_OP_plus_uconst 0x0]
    2695                      .dwattr $C$DW$150, DW_AT_accessibility(DW_ACCESS_public)
    2696              
    2697              $C$DW$151       .dwtag  DW_TAG_member
    2698                      .dwattr $C$DW$151, DW_AT_type(*$C$DW$T$19)
    2699                      .dwattr $C$DW$151, DW_AT_name("SYSPLLCTL3")
    2700                      .dwattr $C$DW$151, DW_AT_TI_symbol_name("_SYSPLLCTL3")
    2701                      .dwattr $C$DW$151, DW_AT_bit_offset(0x0a)
    2702                      .dwattr $C$DW$151, DW_AT_bit_size(0x01)
    2703                      .dwattr $C$DW$151, DW_AT_data_member_location[DW_OP_plus_uconst 0x0]
    2704                      .dwattr $C$DW$151, DW_AT_accessibility(DW_ACCESS_public)
    2705              
    2706              $C$DW$152       .dwtag  DW_TAG_member
    2707                      .dwattr $C$DW$152, DW_AT_type(*$C$DW$T$19)
    2708                      .dwattr $C$DW$152, DW_AT_name("SYSPLLMULT")
    2709                      .dwattr $C$DW$152, DW_AT_TI_symbol_name("_SYSPLLMULT")
    2710                      .dwattr $C$DW$152, DW_AT_bit_offset(0x09)
    2711                      .dwattr $C$DW$152, DW_AT_bit_size(0x01)
    2712                      .dwattr $C$DW$152, DW_AT_data_member_location[DW_OP_plus_uconst 0x0]
    2713                      .dwattr $C$DW$152, DW_AT_accessibility(DW_ACCESS_public)
    2714              
    2715              $C$DW$153       .dwtag  DW_TAG_member
    2716                      .dwattr $C$DW$153, DW_AT_type(*$C$DW$T$19)
    2717                      .dwattr $C$DW$153, DW_AT_name("AUXPLLCTL1")
    2718                      .dwattr $C$DW$153, DW_AT_TI_symbol_name("_AUXPLLCTL1")
    2719                      .dwattr $C$DW$153, DW_AT_bit_offset(0x08)
    2720                      .dwattr $C$DW$153, DW_AT_bit_size(0x01)
    2721                      .dwattr $C$DW$153, DW_AT_data_member_location[DW_OP_plus_uconst 0x0]
    2722                      .dwattr $C$DW$153, DW_AT_accessibility(DW_ACCESS_public)
    2723              
    2724              $C$DW$154       .dwtag  DW_TAG_member
    2725                      .dwattr $C$DW$154, DW_AT_type(*$C$DW$T$19)
    2726                      .dwattr $C$DW$154, DW_AT_name("rsvd1")
    2727                      .dwattr $C$DW$154, DW_AT_TI_symbol_name("_rsvd1")
TMS320C2000 Assembler PC v20.2.1 Wed Oct  7 22:14:22 2020

Copyright (c) 1996-2018 Texas Instruments Incorporated
F2837xD_SysCtrl.asm                                                  PAGE   54

    2728                      .dwattr $C$DW$154, DW_AT_bit_offset(0x07)
    2729                      .dwattr $C$DW$154, DW_AT_bit_size(0x01)
    2730                      .dwattr $C$DW$154, DW_AT_data_member_location[DW_OP_plus_uconst 0x0]
    2731                      .dwattr $C$DW$154, DW_AT_accessibility(DW_ACCESS_public)
    2732              
    2733              $C$DW$155       .dwtag  DW_TAG_member
    2734                      .dwattr $C$DW$155, DW_AT_type(*$C$DW$T$19)
    2735                      .dwattr $C$DW$155, DW_AT_name("rsvd2")
    2736                      .dwattr $C$DW$155, DW_AT_TI_symbol_name("_rsvd2")
    2737                      .dwattr $C$DW$155, DW_AT_bit_offset(0x06)
    2738                      .dwattr $C$DW$155, DW_AT_bit_size(0x01)
    2739                      .dwattr $C$DW$155, DW_AT_data_member_location[DW_OP_plus_uconst 0x0]
    2740                      .dwattr $C$DW$155, DW_AT_accessibility(DW_ACCESS_public)
    2741              
    2742              $C$DW$156       .dwtag  DW_TAG_member
    2743                      .dwattr $C$DW$156, DW_AT_type(*$C$DW$T$19)
    2744                      .dwattr $C$DW$156, DW_AT_name("AUXPLLMULT")
    2745                      .dwattr $C$DW$156, DW_AT_TI_symbol_name("_AUXPLLMULT")
    2746                      .dwattr $C$DW$156, DW_AT_bit_offset(0x05)
    2747                      .dwattr $C$DW$156, DW_AT_bit_size(0x01)
    2748                      .dwattr $C$DW$156, DW_AT_data_member_location[DW_OP_plus_uconst 0x0]
    2749                      .dwattr $C$DW$156, DW_AT_accessibility(DW_ACCESS_public)
    2750              
    2751              $C$DW$157       .dwtag  DW_TAG_member
    2752                      .dwattr $C$DW$157, DW_AT_type(*$C$DW$T$19)
    2753                      .dwattr $C$DW$157, DW_AT_name("SYSCLKDIVSEL")
    2754                      .dwattr $C$DW$157, DW_AT_TI_symbol_name("_SYSCLKDIVSEL")
    2755                      .dwattr $C$DW$157, DW_AT_bit_offset(0x04)
    2756                      .dwattr $C$DW$157, DW_AT_bit_size(0x01)
    2757                      .dwattr $C$DW$157, DW_AT_data_member_location[DW_OP_plus_uconst 0x0]
    2758                      .dwattr $C$DW$157, DW_AT_accessibility(DW_ACCESS_public)
    2759              
    2760              $C$DW$158       .dwtag  DW_TAG_member
    2761                      .dwattr $C$DW$158, DW_AT_type(*$C$DW$T$19)
    2762                      .dwattr $C$DW$158, DW_AT_name("AUXCLKDIVSEL")
    2763                      .dwattr $C$DW$158, DW_AT_TI_symbol_name("_AUXCLKDIVSEL")
    2764                      .dwattr $C$DW$158, DW_AT_bit_offset(0x03)
    2765                      .dwattr $C$DW$158, DW_AT_bit_size(0x01)
    2766                      .dwattr $C$DW$158, DW_AT_data_member_location[DW_OP_plus_uconst 0x0]
    2767                      .dwattr $C$DW$158, DW_AT_accessibility(DW_ACCESS_public)
    2768              
    2769              $C$DW$159       .dwtag  DW_TAG_member
    2770                      .dwattr $C$DW$159, DW_AT_type(*$C$DW$T$19)
    2771                      .dwattr $C$DW$159, DW_AT_name("PERCLKDIVSEL")
    2772                      .dwattr $C$DW$159, DW_AT_TI_symbol_name("_PERCLKDIVSEL")
    2773                      .dwattr $C$DW$159, DW_AT_bit_offset(0x02)
    2774                      .dwattr $C$DW$159, DW_AT_bit_size(0x01)
    2775                      .dwattr $C$DW$159, DW_AT_data_member_location[DW_OP_plus_uconst 0x0]
    2776                      .dwattr $C$DW$159, DW_AT_accessibility(DW_ACCESS_public)
    2777              
    2778              $C$DW$160       .dwtag  DW_TAG_member
    2779                      .dwattr $C$DW$160, DW_AT_type(*$C$DW$T$19)
    2780                      .dwattr $C$DW$160, DW_AT_name("rsvd3")
    2781                      .dwattr $C$DW$160, DW_AT_TI_symbol_name("_rsvd3")
    2782                      .dwattr $C$DW$160, DW_AT_bit_offset(0x01)
TMS320C2000 Assembler PC v20.2.1 Wed Oct  7 22:14:22 2020

Copyright (c) 1996-2018 Texas Instruments Incorporated
F2837xD_SysCtrl.asm                                                  PAGE   55

    2783                      .dwattr $C$DW$160, DW_AT_bit_size(0x01)
    2784                      .dwattr $C$DW$160, DW_AT_data_member_location[DW_OP_plus_uconst 0x0]
    2785                      .dwattr $C$DW$160, DW_AT_accessibility(DW_ACCESS_public)
    2786              
    2787              $C$DW$161       .dwtag  DW_TAG_member
    2788                      .dwattr $C$DW$161, DW_AT_type(*$C$DW$T$19)
    2789                      .dwattr $C$DW$161, DW_AT_name("LOSPCP")
    2790                      .dwattr $C$DW$161, DW_AT_TI_symbol_name("_LOSPCP")
    2791                      .dwattr $C$DW$161, DW_AT_bit_offset(0x00)
    2792                      .dwattr $C$DW$161, DW_AT_bit_size(0x01)
    2793                      .dwattr $C$DW$161, DW_AT_data_member_location[DW_OP_plus_uconst 0x0]
    2794                      .dwattr $C$DW$161, DW_AT_accessibility(DW_ACCESS_public)
    2795              
    2796              $C$DW$162       .dwtag  DW_TAG_member
    2797                      .dwattr $C$DW$162, DW_AT_type(*$C$DW$T$19)
    2798                      .dwattr $C$DW$162, DW_AT_name("rsvd4")
    2799                      .dwattr $C$DW$162, DW_AT_TI_symbol_name("_rsvd4")
    2800                      .dwattr $C$DW$162, DW_AT_bit_offset(0x00)
    2801                      .dwattr $C$DW$162, DW_AT_bit_size(0x10)
    2802                      .dwattr $C$DW$162, DW_AT_data_member_location[DW_OP_plus_uconst 0x1]
    2803                      .dwattr $C$DW$162, DW_AT_accessibility(DW_ACCESS_public)
    2804              
    2805                      .dwendtag $C$DW$T$43
    2806              
    2807              
    2808              $C$DW$T$44      .dwtag  DW_TAG_union_type
    2809                      .dwattr $C$DW$T$44, DW_AT_name("CLKCFGLOCK1_REG")
    2810                      .dwattr $C$DW$T$44, DW_AT_byte_size(0x02)
    2811              $C$DW$163       .dwtag  DW_TAG_member
    2812                      .dwattr $C$DW$163, DW_AT_type(*$C$DW$T$27)
    2813                      .dwattr $C$DW$163, DW_AT_name("all")
    2814                      .dwattr $C$DW$163, DW_AT_TI_symbol_name("_all")
    2815                      .dwattr $C$DW$163, DW_AT_data_member_location[DW_OP_plus_uconst 0x0]
    2816                      .dwattr $C$DW$163, DW_AT_accessibility(DW_ACCESS_public)
    2817              
    2818              $C$DW$164       .dwtag  DW_TAG_member
    2819                      .dwattr $C$DW$164, DW_AT_type(*$C$DW$T$43)
    2820                      .dwattr $C$DW$164, DW_AT_name("bit")
    2821                      .dwattr $C$DW$164, DW_AT_TI_symbol_name("_bit")
    2822                      .dwattr $C$DW$164, DW_AT_data_member_location[DW_OP_plus_uconst 0x0]
    2823                      .dwattr $C$DW$164, DW_AT_accessibility(DW_ACCESS_public)
    2824              
    2825                      .dwendtag $C$DW$T$44
    2826              
    2827              
    2828              $C$DW$T$45      .dwtag  DW_TAG_structure_type
    2829                      .dwattr $C$DW$T$45, DW_AT_name("CLKSEM_BITS")
    2830                      .dwattr $C$DW$T$45, DW_AT_byte_size(0x02)
    2831              $C$DW$165       .dwtag  DW_TAG_member
    2832                      .dwattr $C$DW$165, DW_AT_type(*$C$DW$T$19)
    2833                      .dwattr $C$DW$165, DW_AT_name("SEM")
    2834                      .dwattr $C$DW$165, DW_AT_TI_symbol_name("_SEM")
    2835                      .dwattr $C$DW$165, DW_AT_bit_offset(0x0e)
    2836                      .dwattr $C$DW$165, DW_AT_bit_size(0x02)
    2837                      .dwattr $C$DW$165, DW_AT_data_member_location[DW_OP_plus_uconst 0x0]
TMS320C2000 Assembler PC v20.2.1 Wed Oct  7 22:14:22 2020

Copyright (c) 1996-2018 Texas Instruments Incorporated
F2837xD_SysCtrl.asm                                                  PAGE   56

    2838                      .dwattr $C$DW$165, DW_AT_accessibility(DW_ACCESS_public)
    2839              
    2840              $C$DW$166       .dwtag  DW_TAG_member
    2841                      .dwattr $C$DW$166, DW_AT_type(*$C$DW$T$19)
    2842                      .dwattr $C$DW$166, DW_AT_name("rsvd1")
    2843                      .dwattr $C$DW$166, DW_AT_TI_symbol_name("_rsvd1")
    2844                      .dwattr $C$DW$166, DW_AT_bit_offset(0x00)
    2845                      .dwattr $C$DW$166, DW_AT_bit_size(0x0e)
    2846                      .dwattr $C$DW$166, DW_AT_data_member_location[DW_OP_plus_uconst 0x0]
    2847                      .dwattr $C$DW$166, DW_AT_accessibility(DW_ACCESS_public)
    2848              
    2849              $C$DW$167       .dwtag  DW_TAG_member
    2850                      .dwattr $C$DW$167, DW_AT_type(*$C$DW$T$19)
    2851                      .dwattr $C$DW$167, DW_AT_name("KEY")
    2852                      .dwattr $C$DW$167, DW_AT_TI_symbol_name("_KEY")
    2853                      .dwattr $C$DW$167, DW_AT_bit_offset(0x00)
    2854                      .dwattr $C$DW$167, DW_AT_bit_size(0x10)
    2855                      .dwattr $C$DW$167, DW_AT_data_member_location[DW_OP_plus_uconst 0x1]
    2856                      .dwattr $C$DW$167, DW_AT_accessibility(DW_ACCESS_public)
    2857              
    2858                      .dwendtag $C$DW$T$45
    2859              
    2860              
    2861              $C$DW$T$46      .dwtag  DW_TAG_union_type
    2862                      .dwattr $C$DW$T$46, DW_AT_name("CLKSEM_REG")
    2863                      .dwattr $C$DW$T$46, DW_AT_byte_size(0x02)
    2864              $C$DW$168       .dwtag  DW_TAG_member
    2865                      .dwattr $C$DW$168, DW_AT_type(*$C$DW$T$27)
    2866                      .dwattr $C$DW$168, DW_AT_name("all")
    2867                      .dwattr $C$DW$168, DW_AT_TI_symbol_name("_all")
    2868                      .dwattr $C$DW$168, DW_AT_data_member_location[DW_OP_plus_uconst 0x0]
    2869                      .dwattr $C$DW$168, DW_AT_accessibility(DW_ACCESS_public)
    2870              
    2871              $C$DW$169       .dwtag  DW_TAG_member
    2872                      .dwattr $C$DW$169, DW_AT_type(*$C$DW$T$45)
    2873                      .dwattr $C$DW$169, DW_AT_name("bit")
    2874                      .dwattr $C$DW$169, DW_AT_TI_symbol_name("_bit")
    2875                      .dwattr $C$DW$169, DW_AT_data_member_location[DW_OP_plus_uconst 0x0]
    2876                      .dwattr $C$DW$169, DW_AT_accessibility(DW_ACCESS_public)
    2877              
    2878                      .dwendtag $C$DW$T$46
    2879              
    2880              
    2881              $C$DW$T$47      .dwtag  DW_TAG_structure_type
    2882                      .dwattr $C$DW$T$47, DW_AT_name("CLKSRCCTL1_BITS")
    2883                      .dwattr $C$DW$T$47, DW_AT_byte_size(0x02)
    2884              $C$DW$170       .dwtag  DW_TAG_member
    2885                      .dwattr $C$DW$170, DW_AT_type(*$C$DW$T$19)
    2886                      .dwattr $C$DW$170, DW_AT_name("OSCCLKSRCSEL")
    2887                      .dwattr $C$DW$170, DW_AT_TI_symbol_name("_OSCCLKSRCSEL")
    2888                      .dwattr $C$DW$170, DW_AT_bit_offset(0x0e)
    2889                      .dwattr $C$DW$170, DW_AT_bit_size(0x02)
    2890                      .dwattr $C$DW$170, DW_AT_data_member_location[DW_OP_plus_uconst 0x0]
    2891                      .dwattr $C$DW$170, DW_AT_accessibility(DW_ACCESS_public)
    2892              
TMS320C2000 Assembler PC v20.2.1 Wed Oct  7 22:14:22 2020

Copyright (c) 1996-2018 Texas Instruments Incorporated
F2837xD_SysCtrl.asm                                                  PAGE   57

    2893              $C$DW$171       .dwtag  DW_TAG_member
    2894                      .dwattr $C$DW$171, DW_AT_type(*$C$DW$T$19)
    2895                      .dwattr $C$DW$171, DW_AT_name("rsvd1")
    2896                      .dwattr $C$DW$171, DW_AT_TI_symbol_name("_rsvd1")
    2897                      .dwattr $C$DW$171, DW_AT_bit_offset(0x0d)
    2898                      .dwattr $C$DW$171, DW_AT_bit_size(0x01)
    2899                      .dwattr $C$DW$171, DW_AT_data_member_location[DW_OP_plus_uconst 0x0]
    2900                      .dwattr $C$DW$171, DW_AT_accessibility(DW_ACCESS_public)
    2901              
    2902              $C$DW$172       .dwtag  DW_TAG_member
    2903                      .dwattr $C$DW$172, DW_AT_type(*$C$DW$T$19)
    2904                      .dwattr $C$DW$172, DW_AT_name("INTOSC2OFF")
    2905                      .dwattr $C$DW$172, DW_AT_TI_symbol_name("_INTOSC2OFF")
    2906                      .dwattr $C$DW$172, DW_AT_bit_offset(0x0c)
    2907                      .dwattr $C$DW$172, DW_AT_bit_size(0x01)
    2908                      .dwattr $C$DW$172, DW_AT_data_member_location[DW_OP_plus_uconst 0x0]
    2909                      .dwattr $C$DW$172, DW_AT_accessibility(DW_ACCESS_public)
    2910              
    2911              $C$DW$173       .dwtag  DW_TAG_member
    2912                      .dwattr $C$DW$173, DW_AT_type(*$C$DW$T$19)
    2913                      .dwattr $C$DW$173, DW_AT_name("XTALOFF")
    2914                      .dwattr $C$DW$173, DW_AT_TI_symbol_name("_XTALOFF")
    2915                      .dwattr $C$DW$173, DW_AT_bit_offset(0x0b)
    2916                      .dwattr $C$DW$173, DW_AT_bit_size(0x01)
    2917                      .dwattr $C$DW$173, DW_AT_data_member_location[DW_OP_plus_uconst 0x0]
    2918                      .dwattr $C$DW$173, DW_AT_accessibility(DW_ACCESS_public)
    2919              
    2920              $C$DW$174       .dwtag  DW_TAG_member
    2921                      .dwattr $C$DW$174, DW_AT_type(*$C$DW$T$19)
    2922                      .dwattr $C$DW$174, DW_AT_name("WDHALTI")
    2923                      .dwattr $C$DW$174, DW_AT_TI_symbol_name("_WDHALTI")
    2924                      .dwattr $C$DW$174, DW_AT_bit_offset(0x0a)
    2925                      .dwattr $C$DW$174, DW_AT_bit_size(0x01)
    2926                      .dwattr $C$DW$174, DW_AT_data_member_location[DW_OP_plus_uconst 0x0]
    2927                      .dwattr $C$DW$174, DW_AT_accessibility(DW_ACCESS_public)
    2928              
    2929              $C$DW$175       .dwtag  DW_TAG_member
    2930                      .dwattr $C$DW$175, DW_AT_type(*$C$DW$T$19)
    2931                      .dwattr $C$DW$175, DW_AT_name("rsvd2")
    2932                      .dwattr $C$DW$175, DW_AT_TI_symbol_name("_rsvd2")
    2933                      .dwattr $C$DW$175, DW_AT_bit_offset(0x00)
    2934                      .dwattr $C$DW$175, DW_AT_bit_size(0x0a)
    2935                      .dwattr $C$DW$175, DW_AT_data_member_location[DW_OP_plus_uconst 0x0]
    2936                      .dwattr $C$DW$175, DW_AT_accessibility(DW_ACCESS_public)
    2937              
    2938              $C$DW$176       .dwtag  DW_TAG_member
    2939                      .dwattr $C$DW$176, DW_AT_type(*$C$DW$T$19)
    2940                      .dwattr $C$DW$176, DW_AT_name("rsvd3")
    2941                      .dwattr $C$DW$176, DW_AT_TI_symbol_name("_rsvd3")
    2942                      .dwattr $C$DW$176, DW_AT_bit_offset(0x00)
    2943                      .dwattr $C$DW$176, DW_AT_bit_size(0x10)
    2944                      .dwattr $C$DW$176, DW_AT_data_member_location[DW_OP_plus_uconst 0x1]
    2945                      .dwattr $C$DW$176, DW_AT_accessibility(DW_ACCESS_public)
    2946              
    2947                      .dwendtag $C$DW$T$47
TMS320C2000 Assembler PC v20.2.1 Wed Oct  7 22:14:22 2020

Copyright (c) 1996-2018 Texas Instruments Incorporated
F2837xD_SysCtrl.asm                                                  PAGE   58

    2948              
    2949              
    2950              $C$DW$T$48      .dwtag  DW_TAG_union_type
    2951                      .dwattr $C$DW$T$48, DW_AT_name("CLKSRCCTL1_REG")
    2952                      .dwattr $C$DW$T$48, DW_AT_byte_size(0x02)
    2953              $C$DW$177       .dwtag  DW_TAG_member
    2954                      .dwattr $C$DW$177, DW_AT_type(*$C$DW$T$27)
    2955                      .dwattr $C$DW$177, DW_AT_name("all")
    2956                      .dwattr $C$DW$177, DW_AT_TI_symbol_name("_all")
    2957                      .dwattr $C$DW$177, DW_AT_data_member_location[DW_OP_plus_uconst 0x0]
    2958                      .dwattr $C$DW$177, DW_AT_accessibility(DW_ACCESS_public)
    2959              
    2960              $C$DW$178       .dwtag  DW_TAG_member
    2961                      .dwattr $C$DW$178, DW_AT_type(*$C$DW$T$47)
    2962                      .dwattr $C$DW$178, DW_AT_name("bit")
    2963                      .dwattr $C$DW$178, DW_AT_TI_symbol_name("_bit")
    2964                      .dwattr $C$DW$178, DW_AT_data_member_location[DW_OP_plus_uconst 0x0]
    2965                      .dwattr $C$DW$178, DW_AT_accessibility(DW_ACCESS_public)
    2966              
    2967                      .dwendtag $C$DW$T$48
    2968              
    2969              
    2970              $C$DW$T$49      .dwtag  DW_TAG_structure_type
    2971                      .dwattr $C$DW$T$49, DW_AT_name("CLKSRCCTL2_BITS")
    2972                      .dwattr $C$DW$T$49, DW_AT_byte_size(0x02)
    2973              $C$DW$179       .dwtag  DW_TAG_member
    2974                      .dwattr $C$DW$179, DW_AT_type(*$C$DW$T$19)
    2975                      .dwattr $C$DW$179, DW_AT_name("AUXOSCCLKSRCSEL")
    2976                      .dwattr $C$DW$179, DW_AT_TI_symbol_name("_AUXOSCCLKSRCSEL")
    2977                      .dwattr $C$DW$179, DW_AT_bit_offset(0x0e)
    2978                      .dwattr $C$DW$179, DW_AT_bit_size(0x02)
    2979                      .dwattr $C$DW$179, DW_AT_data_member_location[DW_OP_plus_uconst 0x0]
    2980                      .dwattr $C$DW$179, DW_AT_accessibility(DW_ACCESS_public)
    2981              
    2982              $C$DW$180       .dwtag  DW_TAG_member
    2983                      .dwattr $C$DW$180, DW_AT_type(*$C$DW$T$19)
    2984                      .dwattr $C$DW$180, DW_AT_name("CANABCLKSEL")
    2985                      .dwattr $C$DW$180, DW_AT_TI_symbol_name("_CANABCLKSEL")
    2986                      .dwattr $C$DW$180, DW_AT_bit_offset(0x0c)
    2987                      .dwattr $C$DW$180, DW_AT_bit_size(0x02)
    2988                      .dwattr $C$DW$180, DW_AT_data_member_location[DW_OP_plus_uconst 0x0]
    2989                      .dwattr $C$DW$180, DW_AT_accessibility(DW_ACCESS_public)
    2990              
    2991              $C$DW$181       .dwtag  DW_TAG_member
    2992                      .dwattr $C$DW$181, DW_AT_type(*$C$DW$T$19)
    2993                      .dwattr $C$DW$181, DW_AT_name("CANBBCLKSEL")
    2994                      .dwattr $C$DW$181, DW_AT_TI_symbol_name("_CANBBCLKSEL")
    2995                      .dwattr $C$DW$181, DW_AT_bit_offset(0x0a)
    2996                      .dwattr $C$DW$181, DW_AT_bit_size(0x02)
    2997                      .dwattr $C$DW$181, DW_AT_data_member_location[DW_OP_plus_uconst 0x0]
    2998                      .dwattr $C$DW$181, DW_AT_accessibility(DW_ACCESS_public)
    2999              
    3000              $C$DW$182       .dwtag  DW_TAG_member
    3001                      .dwattr $C$DW$182, DW_AT_type(*$C$DW$T$19)
    3002                      .dwattr $C$DW$182, DW_AT_name("rsvd1")
TMS320C2000 Assembler PC v20.2.1 Wed Oct  7 22:14:22 2020

Copyright (c) 1996-2018 Texas Instruments Incorporated
F2837xD_SysCtrl.asm                                                  PAGE   59

    3003                      .dwattr $C$DW$182, DW_AT_TI_symbol_name("_rsvd1")
    3004                      .dwattr $C$DW$182, DW_AT_bit_offset(0x08)
    3005                      .dwattr $C$DW$182, DW_AT_bit_size(0x02)
    3006                      .dwattr $C$DW$182, DW_AT_data_member_location[DW_OP_plus_uconst 0x0]
    3007                      .dwattr $C$DW$182, DW_AT_accessibility(DW_ACCESS_public)
    3008              
    3009              $C$DW$183       .dwtag  DW_TAG_member
    3010                      .dwattr $C$DW$183, DW_AT_type(*$C$DW$T$19)
    3011                      .dwattr $C$DW$183, DW_AT_name("rsvd2")
    3012                      .dwattr $C$DW$183, DW_AT_TI_symbol_name("_rsvd2")
    3013                      .dwattr $C$DW$183, DW_AT_bit_offset(0x06)
    3014                      .dwattr $C$DW$183, DW_AT_bit_size(0x02)
    3015                      .dwattr $C$DW$183, DW_AT_data_member_location[DW_OP_plus_uconst 0x0]
    3016                      .dwattr $C$DW$183, DW_AT_accessibility(DW_ACCESS_public)
    3017              
    3018              $C$DW$184       .dwtag  DW_TAG_member
    3019                      .dwattr $C$DW$184, DW_AT_type(*$C$DW$T$19)
    3020                      .dwattr $C$DW$184, DW_AT_name("rsvd3")
    3021                      .dwattr $C$DW$184, DW_AT_TI_symbol_name("_rsvd3")
    3022                      .dwattr $C$DW$184, DW_AT_bit_offset(0x00)
    3023                      .dwattr $C$DW$184, DW_AT_bit_size(0x06)
    3024                      .dwattr $C$DW$184, DW_AT_data_member_location[DW_OP_plus_uconst 0x0]
    3025                      .dwattr $C$DW$184, DW_AT_accessibility(DW_ACCESS_public)
    3026              
    3027              $C$DW$185       .dwtag  DW_TAG_member
    3028                      .dwattr $C$DW$185, DW_AT_type(*$C$DW$T$19)
    3029                      .dwattr $C$DW$185, DW_AT_name("rsvd4")
    3030                      .dwattr $C$DW$185, DW_AT_TI_symbol_name("_rsvd4")
    3031                      .dwattr $C$DW$185, DW_AT_bit_offset(0x00)
    3032                      .dwattr $C$DW$185, DW_AT_bit_size(0x10)
    3033                      .dwattr $C$DW$185, DW_AT_data_member_location[DW_OP_plus_uconst 0x1]
    3034                      .dwattr $C$DW$185, DW_AT_accessibility(DW_ACCESS_public)
    3035              
    3036                      .dwendtag $C$DW$T$49
    3037              
    3038              
    3039              $C$DW$T$50      .dwtag  DW_TAG_union_type
    3040                      .dwattr $C$DW$T$50, DW_AT_name("CLKSRCCTL2_REG")
    3041                      .dwattr $C$DW$T$50, DW_AT_byte_size(0x02)
    3042              $C$DW$186       .dwtag  DW_TAG_member
    3043                      .dwattr $C$DW$186, DW_AT_type(*$C$DW$T$27)
    3044                      .dwattr $C$DW$186, DW_AT_name("all")
    3045                      .dwattr $C$DW$186, DW_AT_TI_symbol_name("_all")
    3046                      .dwattr $C$DW$186, DW_AT_data_member_location[DW_OP_plus_uconst 0x0]
    3047                      .dwattr $C$DW$186, DW_AT_accessibility(DW_ACCESS_public)
    3048              
    3049              $C$DW$187       .dwtag  DW_TAG_member
    3050                      .dwattr $C$DW$187, DW_AT_type(*$C$DW$T$49)
    3051                      .dwattr $C$DW$187, DW_AT_name("bit")
    3052                      .dwattr $C$DW$187, DW_AT_TI_symbol_name("_bit")
    3053                      .dwattr $C$DW$187, DW_AT_data_member_location[DW_OP_plus_uconst 0x0]
    3054                      .dwattr $C$DW$187, DW_AT_accessibility(DW_ACCESS_public)
    3055              
    3056                      .dwendtag $C$DW$T$50
    3057              
TMS320C2000 Assembler PC v20.2.1 Wed Oct  7 22:14:22 2020

Copyright (c) 1996-2018 Texas Instruments Incorporated
F2837xD_SysCtrl.asm                                                  PAGE   60

    3058              
    3059              $C$DW$T$51      .dwtag  DW_TAG_structure_type
    3060                      .dwattr $C$DW$T$51, DW_AT_name("CLKSRCCTL3_BITS")
    3061                      .dwattr $C$DW$T$51, DW_AT_byte_size(0x02)
    3062              $C$DW$188       .dwtag  DW_TAG_member
    3063                      .dwattr $C$DW$188, DW_AT_type(*$C$DW$T$19)
    3064                      .dwattr $C$DW$188, DW_AT_name("XCLKOUTSEL")
    3065                      .dwattr $C$DW$188, DW_AT_TI_symbol_name("_XCLKOUTSEL")
    3066                      .dwattr $C$DW$188, DW_AT_bit_offset(0x0d)
    3067                      .dwattr $C$DW$188, DW_AT_bit_size(0x03)
    3068                      .dwattr $C$DW$188, DW_AT_data_member_location[DW_OP_plus_uconst 0x0]
    3069                      .dwattr $C$DW$188, DW_AT_accessibility(DW_ACCESS_public)
    3070              
    3071              $C$DW$189       .dwtag  DW_TAG_member
    3072                      .dwattr $C$DW$189, DW_AT_type(*$C$DW$T$19)
    3073                      .dwattr $C$DW$189, DW_AT_name("rsvd1")
    3074                      .dwattr $C$DW$189, DW_AT_TI_symbol_name("_rsvd1")
    3075                      .dwattr $C$DW$189, DW_AT_bit_offset(0x00)
    3076                      .dwattr $C$DW$189, DW_AT_bit_size(0x0d)
    3077                      .dwattr $C$DW$189, DW_AT_data_member_location[DW_OP_plus_uconst 0x0]
    3078                      .dwattr $C$DW$189, DW_AT_accessibility(DW_ACCESS_public)
    3079              
    3080              $C$DW$190       .dwtag  DW_TAG_member
    3081                      .dwattr $C$DW$190, DW_AT_type(*$C$DW$T$19)
    3082                      .dwattr $C$DW$190, DW_AT_name("rsvd2")
    3083                      .dwattr $C$DW$190, DW_AT_TI_symbol_name("_rsvd2")
    3084                      .dwattr $C$DW$190, DW_AT_bit_offset(0x00)
    3085                      .dwattr $C$DW$190, DW_AT_bit_size(0x10)
    3086                      .dwattr $C$DW$190, DW_AT_data_member_location[DW_OP_plus_uconst 0x1]
    3087                      .dwattr $C$DW$190, DW_AT_accessibility(DW_ACCESS_public)
    3088              
    3089                      .dwendtag $C$DW$T$51
    3090              
    3091              
    3092              $C$DW$T$52      .dwtag  DW_TAG_union_type
    3093                      .dwattr $C$DW$T$52, DW_AT_name("CLKSRCCTL3_REG")
    3094                      .dwattr $C$DW$T$52, DW_AT_byte_size(0x02)
    3095              $C$DW$191       .dwtag  DW_TAG_member
    3096                      .dwattr $C$DW$191, DW_AT_type(*$C$DW$T$27)
    3097                      .dwattr $C$DW$191, DW_AT_name("all")
    3098                      .dwattr $C$DW$191, DW_AT_TI_symbol_name("_all")
    3099                      .dwattr $C$DW$191, DW_AT_data_member_location[DW_OP_plus_uconst 0x0]
    3100                      .dwattr $C$DW$191, DW_AT_accessibility(DW_ACCESS_public)
    3101              
    3102              $C$DW$192       .dwtag  DW_TAG_member
    3103                      .dwattr $C$DW$192, DW_AT_type(*$C$DW$T$51)
    3104                      .dwattr $C$DW$192, DW_AT_name("bit")
    3105                      .dwattr $C$DW$192, DW_AT_TI_symbol_name("_bit")
    3106                      .dwattr $C$DW$192, DW_AT_data_member_location[DW_OP_plus_uconst 0x0]
    3107                      .dwattr $C$DW$192, DW_AT_accessibility(DW_ACCESS_public)
    3108              
    3109                      .dwendtag $C$DW$T$52
    3110              
    3111              
    3112              $C$DW$T$54      .dwtag  DW_TAG_structure_type
TMS320C2000 Assembler PC v20.2.1 Wed Oct  7 22:14:22 2020

Copyright (c) 1996-2018 Texas Instruments Incorporated
F2837xD_SysCtrl.asm                                                  PAGE   61

    3113                      .dwattr $C$DW$T$54, DW_AT_name("CLK_CFG_REGS")
    3114                      .dwattr $C$DW$T$54, DW_AT_byte_size(0x32)
    3115              $C$DW$193       .dwtag  DW_TAG_member
    3116                      .dwattr $C$DW$193, DW_AT_type(*$C$DW$T$46)
    3117                      .dwattr $C$DW$193, DW_AT_name("CLKSEM")
    3118                      .dwattr $C$DW$193, DW_AT_TI_symbol_name("_CLKSEM")
    3119                      .dwattr $C$DW$193, DW_AT_data_member_location[DW_OP_plus_uconst 0x0]
    3120                      .dwattr $C$DW$193, DW_AT_accessibility(DW_ACCESS_public)
    3121              
    3122              $C$DW$194       .dwtag  DW_TAG_member
    3123                      .dwattr $C$DW$194, DW_AT_type(*$C$DW$T$44)
    3124                      .dwattr $C$DW$194, DW_AT_name("CLKCFGLOCK1")
    3125                      .dwattr $C$DW$194, DW_AT_TI_symbol_name("_CLKCFGLOCK1")
    3126                      .dwattr $C$DW$194, DW_AT_data_member_location[DW_OP_plus_uconst 0x2]
    3127                      .dwattr $C$DW$194, DW_AT_accessibility(DW_ACCESS_public)
    3128              
    3129              $C$DW$195       .dwtag  DW_TAG_member
    3130                      .dwattr $C$DW$195, DW_AT_type(*$C$DW$T$53)
    3131                      .dwattr $C$DW$195, DW_AT_name("rsvd1")
    3132                      .dwattr $C$DW$195, DW_AT_TI_symbol_name("_rsvd1")
    3133                      .dwattr $C$DW$195, DW_AT_data_member_location[DW_OP_plus_uconst 0x4]
    3134                      .dwattr $C$DW$195, DW_AT_accessibility(DW_ACCESS_public)
    3135              
    3136              $C$DW$196       .dwtag  DW_TAG_member
    3137                      .dwattr $C$DW$196, DW_AT_type(*$C$DW$T$48)
    3138                      .dwattr $C$DW$196, DW_AT_name("CLKSRCCTL1")
    3139                      .dwattr $C$DW$196, DW_AT_TI_symbol_name("_CLKSRCCTL1")
    3140                      .dwattr $C$DW$196, DW_AT_data_member_location[DW_OP_plus_uconst 0x8]
    3141                      .dwattr $C$DW$196, DW_AT_accessibility(DW_ACCESS_public)
    3142              
    3143              $C$DW$197       .dwtag  DW_TAG_member
    3144                      .dwattr $C$DW$197, DW_AT_type(*$C$DW$T$50)
    3145                      .dwattr $C$DW$197, DW_AT_name("CLKSRCCTL2")
    3146                      .dwattr $C$DW$197, DW_AT_TI_symbol_name("_CLKSRCCTL2")
    3147                      .dwattr $C$DW$197, DW_AT_data_member_location[DW_OP_plus_uconst 0xa]
    3148                      .dwattr $C$DW$197, DW_AT_accessibility(DW_ACCESS_public)
    3149              
    3150              $C$DW$198       .dwtag  DW_TAG_member
    3151                      .dwattr $C$DW$198, DW_AT_type(*$C$DW$T$52)
    3152                      .dwattr $C$DW$198, DW_AT_name("CLKSRCCTL3")
    3153                      .dwattr $C$DW$198, DW_AT_TI_symbol_name("_CLKSRCCTL3")
    3154                      .dwattr $C$DW$198, DW_AT_data_member_location[DW_OP_plus_uconst 0xc]
    3155                      .dwattr $C$DW$198, DW_AT_accessibility(DW_ACCESS_public)
    3156              
    3157              $C$DW$199       .dwtag  DW_TAG_member
    3158                      .dwattr $C$DW$199, DW_AT_type(*$C$DW$T$284)
    3159                      .dwattr $C$DW$199, DW_AT_name("SYSPLLCTL1")
    3160                      .dwattr $C$DW$199, DW_AT_TI_symbol_name("_SYSPLLCTL1")
