TMS320C2000 Assembler PC v20.2.1 Mon Dec  7 23:59:49 2020

Copyright (c) 1996-2018 Texas Instruments Incorporated
resolver.asm                                                         PAGE    1

       1              ;***************************************************************
       2              ;* TMS320C2000 G3 C/C++ Codegen                               PC v20.2.1.LTS *
       3              ;* Date/Time created: Mon Dec  7 23:59:49 2020                 *
       4              ;***************************************************************
       5                      .compiler_opts --abi=coffabi --cla_support=cla0 --float_support=fpu32 --hll_source=on --mem_model:cod
       6                      .asg    XAR2, FP
       7              
       8              $C$DW$CU        .dwtag  DW_TAG_compile_unit
       9                      .dwattr $C$DW$CU, DW_AT_name("../resolver.c")
      10                      .dwattr $C$DW$CU, DW_AT_producer("TI TMS320C2000 G3 C/C++ Codegen PC v20.2.1.LTS Copyright (c) 1996-2
      11                      .dwattr $C$DW$CU, DW_AT_TI_version(0x01)
      12                      .dwattr $C$DW$CU, DW_AT_comp_dir("C:\Users\hakan\OneDrive\Belgeler\GitHub\fault_tolerant_drives\Softw
      13              ;**************************************************************
      14              ;* CINIT RECORDS                                              *
      15              ;**************************************************************
      16 00000000               .sect   ".cinit"
      17                      .align  1
      18 00000000 FFFE          .field          -2,16
      19 00000001 0000-         .field          _sineTable+0,32
         00000002 0000 
      20 00000003 0000-         .bits   _SINE_TABLE,32          ; _sineTable @ 0
         00000004 0000 
      21              
      22 00000005               .sect   ".cinit"
      23                      .align  1
      24 00000005 FFFE          .field          -2,16
      25 00000006 0002-         .field          _firCoeff+0,32
         00000007 0000 
      26 00000008 0000-         .bits   _FIR_COEFF,32           ; _firCoeff @ 0
         00000009 0000 
      27              
      28 0000000a               .sect   ".cinit"
      29                      .align  1
      30 0000000a FFFE          .field          -2,16
      31 0000000b 000E-         .field          _testCntr+0,32
         0000000c 0000 
      32 0000000d 0000          .bits           0,32
         0000000e 0000 
      33                                      ; _testCntr @ 0
      34              
      35 0000000f               .sect   ".cinit"
      36                      .align  1
      37 0000000f FFFE          .field          -2,16
      38 00000010 0010-         .field          _testCntMax+0,32
         00000011 0000 
      39 00000012 03E8          .bits           0x3e8,32
         00000013 0000 
      40                                      ; _testCntMax @ 0
      41              
      42 00000014               .sect   ".cinit"
      43                      .align  1
      44 00000014 FFFE          .field          -2,16
      45 00000015 0012-         .field          _testAngleMax+0,32
         00000016 0000 
      46 00000017 CCCD          .xfloat $strtod("0x1.99999ap-1")                ; _testAngleMax @ 0
TMS320C2000 Assembler PC v20.2.1 Mon Dec  7 23:59:49 2020

Copyright (c) 1996-2018 Texas Instruments Incorporated
resolver.asm                                                         PAGE    2

         00000018 3F4C 
      47              
      48 00000019               .sect   ".cinit"
      49                      .align  1
      50 00000019 FFFE          .field          -2,16
      51 0000001a 0014-         .field          _resetAll+0,32
         0000001b 0000 
      52 0000001c 0000          .bits           0,32
         0000001d 0000 
      53                                      ; _resetAll @ 0
      54              
      55 0000001e               .sect   ".cinit"
      56                      .align  1
      57 0000001e FFFE          .field          -2,16
      58 0000001f 0016-         .field          _resMagMax+0,32
         00000020 0000 
      59 00000021 FFFE          .bits           0xfffffffe,32
         00000022 FFFF 
      60                                      ; _resMagMax @ 0
      61              
      62 00000023               .sect   ".cinit"
      63                      .align  1
      64 00000023 FFFE          .field          -2,16
      65 00000024 0018-         .field          _resMagMin+0,32
         00000025 0000 
      66 00000026 0002          .bits           0x2,32
         00000027 0000 
      67                                      ; _resMagMin @ 0
      68              
      69 00000028               .sect   ".cinit"
      70                      .align  1
      71 00000028 FFFE          .field          -2,16
      72 00000029 001A-         .field          _DOS_ERROR+0,32
         0000002a 0000 
      73 0000002b 0000          .bits           0,32
         0000002c 0000 
      74                                      ; _DOS_ERROR @ 0
      75              
      76 0000002d               .sect   ".cinit"
      77                      .align  1
      78 0000002d FFFE          .field          -2,16
      79 0000002e 001C-         .field          _LOS_ERROR+0,32
         0000002f 0000 
      80 00000030 0000          .bits           0,32
         00000031 0000 
      81                                      ; _LOS_ERROR @ 0
      82              
      83 00000032               .sect   ".cinit"
      84                      .align  1
      85 00000032 FFFE          .field          -2,16
      86 00000033 001E-         .field          _PLL_ERROR+0,32
         00000034 0000 
      87 00000035 0000          .bits           0,32
         00000036 0000 
      88                                      ; _PLL_ERROR @ 0
TMS320C2000 Assembler PC v20.2.1 Mon Dec  7 23:59:49 2020

Copyright (c) 1996-2018 Texas Instruments Incorporated
resolver.asm                                                         PAGE    3

      89              
      90 00000037               .sect   ".cinit"
      91                      .align  1
      92 00000037 FFFE          .field          -2,16
      93 00000038 0022-         .field          _dosLimit+0,32
         00000039 0000 
      94 0000003a 0000          .bits           0,32
         0000003b 0000 
      95                                      ; _dosLimit @ 0
      96              
      97 0000003c               .sect   ".cinit"
      98                      .align  1
      99 0000003c FFFE          .field          -2,16
     100 0000003d 0024-         .field          _losLimit+0,32
         0000003e 0000 
     101 0000003f 0000          .bits           0,32
         00000040 0000 
     102                                      ; _losLimit @ 0
     103              
     104 00000041               .sect   ".cinit"
     105                      .align  1
     106 00000041 FFFE          .field          -2,16
     107 00000042 0026-         .field          _skipLosCnt+0,32
         00000043 0000 
     108 00000044 0000          .bits           0,32
         00000045 0000 
     109                                      ; _skipLosCnt @ 0
     110              
     111 00000046               .sect   ".cinit"
     112                      .align  1
     113 00000046 FFFE          .field          -2,16
     114 00000047 0028-         .field          _skipLosPrd+0,32
         00000048 0000 
     115 00000049 0064          .bits           0x64,32
         0000004a 0000 
     116                                      ; _skipLosPrd @ 0
     117              
     118 0000004b               .sect   ".cinit"
     119                      .align  1
     120 0000004b FFFE          .field          -2,16
     121 0000004c 002A-         .field          _angleErrMax+0,32
         0000004d 0000 
     122 0000004e 0000          .bits           0,32
         0000004f 0000 
     123                                      ; _angleErrMax @ 0
     124              
     125 00000000               .sect   ".cinit:_SINE_TABLE"
     126                      .clink
     127                      .align  1
     128 00000000 FFE0          .field          -$C$IR_1,16
     129 00000001 0000-         .field          _SINE_TABLE+0,32
         00000002 0000 
     130 00000003 0800          .bits           0x800,32
         00000004 0000 
     131                                      ; _SINE_TABLE[0] @ 0
TMS320C2000 Assembler PC v20.2.1 Mon Dec  7 23:59:49 2020

Copyright (c) 1996-2018 Texas Instruments Incorporated
resolver.asm                                                         PAGE    4

     132 00000005 0958          .bits           0x958,32
         00000006 0000 
     133                                      ; _SINE_TABLE[1] @ 32
     134 00000007 0A7C          .bits           0xa7c,32
         00000008 0000 
     135                                      ; _SINE_TABLE[2] @ 64
     136 00000009 0B3F          .bits           0xb3f,32
         0000000a 0000 
     137                                      ; _SINE_TABLE[3] @ 96
     138 0000000b 0B84          .bits           0xb84,32
         0000000c 0000 
     139                                      ; _SINE_TABLE[4] @ 128
     140 0000000d 0B3F          .bits           0xb3f,32
         0000000e 0000 
     141                                      ; _SINE_TABLE[5] @ 160
     142 0000000f 0A7C          .bits           0xa7c,32
         00000010 0000 
     143                                      ; _SINE_TABLE[6] @ 192
     144 00000011 0958          .bits           0x958,32
         00000012 0000 
     145                                      ; _SINE_TABLE[7] @ 224
     146 00000013 0800          .bits           0x800,32
         00000014 0000 
     147                                      ; _SINE_TABLE[8] @ 256
     148 00000015 06A7          .bits           0x6a7,32
         00000016 0000 
     149                                      ; _SINE_TABLE[9] @ 288
     150 00000017 0583          .bits           0x583,32
         00000018 0000 
     151                                      ; _SINE_TABLE[10] @ 320
     152 00000019 04C0          .bits           0x4c0,32
         0000001a 0000 
     153                                      ; _SINE_TABLE[11] @ 352
     154 0000001b 047C          .bits           0x47c,32
         0000001c 0000 
     155                                      ; _SINE_TABLE[12] @ 384
     156 0000001d 04C0          .bits           0x4c0,32
         0000001e 0000 
     157                                      ; _SINE_TABLE[13] @ 416
     158 0000001f 0583          .bits           0x583,32
         00000020 0000 
     159                                      ; _SINE_TABLE[14] @ 448
     160 00000021 06A7          .bits           0x6a7,32
         00000022 0000 
     161                                      ; _SINE_TABLE[15] @ 480
     162        0020  $C$IR_1:        .set    32
     163              
     164 00000000               .sect   ".cinit:_FIR_COEFF"
     165                      .clink
     166                      .align  1
     167 00000000 FFDE          .field          -$C$IR_2,16
     168 00000001 0000-         .field          _FIR_COEFF+0,32
         00000002 0000 
     169 00000003 0EF0          .xfloat $strtod("-0x1.541dep-4")                ; _FIR_COEFF[0] @ 0
         00000004 BDAA 
TMS320C2000 Assembler PC v20.2.1 Mon Dec  7 23:59:49 2020

Copyright (c) 1996-2018 Texas Instruments Incorporated
resolver.asm                                                         PAGE    5

     170 00000005 BD38          .xfloat $strtod("-0x1.5d7a7p-4")                ; _FIR_COEFF[1] @ 32
         00000006 BDAE 
     171 00000007 D6E0          .xfloat $strtod("-0x1.27adcp-4")                ; _FIR_COEFF[2] @ 64
         00000008 BD93 
     172 00000009 7A31          .xfloat $strtod("-0x1.66f462p-5")               ; _FIR_COEFF[3] @ 96
         0000000a BD33 
     173 0000000b 2CAD          .xfloat $strtod("-0x1.0a595ap-8")               ; _FIR_COEFF[4] @ 128
         0000000c BB85 
     174 0000000d 8A14          .xfloat $strtod("0x1.491428p-5")                ; _FIR_COEFF[5] @ 160
         0000000e 3D24 
     175 0000000f A34C          .xfloat $strtod("0x1.494698p-4")                ; _FIR_COEFF[6] @ 192
         00000010 3DA4 
     176 00000011 1B6E          .xfloat $strtod("0x1.bc36dcp-4")                ; _FIR_COEFF[7] @ 224
         00000012 3DDE 
     177 00000013 B62F          .xfloat $strtod("0x1.e56c5ep-4")                ; _FIR_COEFF[8] @ 256
         00000014 3DF2 
     178 00000015 1B6E          .xfloat $strtod("0x1.bc36dcp-4")                ; _FIR_COEFF[9] @ 288
         00000016 3DDE 
     179 00000017 A34C          .xfloat $strtod("0x1.494698p-4")                ; _FIR_COEFF[10] @ 320
         00000018 3DA4 
     180 00000019 8A14          .xfloat $strtod("0x1.491428p-5")                ; _FIR_COEFF[11] @ 352
         0000001a 3D24 
     181 0000001b 2CAD          .xfloat $strtod("-0x1.0a595ap-8")               ; _FIR_COEFF[12] @ 384
         0000001c BB85 
     182 0000001d 7A31          .xfloat $strtod("-0x1.66f462p-5")               ; _FIR_COEFF[13] @ 416
         0000001e BD33 
     183 0000001f D6E0          .xfloat $strtod("-0x1.27adcp-4")                ; _FIR_COEFF[14] @ 448
         00000020 BD93 
     184 00000021 BD38          .xfloat $strtod("-0x1.5d7a7p-4")                ; _FIR_COEFF[15] @ 480
         00000022 BDAE 
     185 00000023 0EF0          .xfloat $strtod("-0x1.541dep-4")                ; _FIR_COEFF[16] @ 512
         00000024 BDAA 
     186        0022  $C$IR_2:        .set    34
     187              
     188              
     189              $C$DW$1 .dwtag  DW_TAG_subprogram
     190                      .dwattr $C$DW$1, DW_AT_name("resolver_algo_Float")
     191                      .dwattr $C$DW$1, DW_AT_TI_symbol_name("_resolver_algo_Float")
     192                      .dwattr $C$DW$1, DW_AT_type(*$C$DW$T$237)
     193                      .dwattr $C$DW$1, DW_AT_declaration
     194                      .dwattr $C$DW$1, DW_AT_external
     195                      .dwendtag $C$DW$1
     196              
     197                      .global _sineTable
     198 00000000       _sineTable:     .usect  ".ebss",2,1,1
     199              $C$DW$2 .dwtag  DW_TAG_variable
     200                      .dwattr $C$DW$2, DW_AT_name("sineTable")
     201                      .dwattr $C$DW$2, DW_AT_TI_symbol_name("_sineTable")
     202                      .dwattr $C$DW$2, DW_AT_location[DW_OP_addr _sineTable]
     203                      .dwattr $C$DW$2, DW_AT_type(*$C$DW$T$243)
     204                      .dwattr $C$DW$2, DW_AT_external
     205              
     206                      .global _firCoeff
     207 00000002       _firCoeff:      .usect  ".ebss",2,1,1
     208              $C$DW$3 .dwtag  DW_TAG_variable
TMS320C2000 Assembler PC v20.2.1 Mon Dec  7 23:59:49 2020

Copyright (c) 1996-2018 Texas Instruments Incorporated
resolver.asm                                                         PAGE    6

     209                      .dwattr $C$DW$3, DW_AT_name("firCoeff")
     210                      .dwattr $C$DW$3, DW_AT_TI_symbol_name("_firCoeff")
     211                      .dwattr $C$DW$3, DW_AT_location[DW_OP_addr _firCoeff]
     212                      .dwattr $C$DW$3, DW_AT_type(*$C$DW$T$245)
     213                      .dwattr $C$DW$3, DW_AT_external
     214              
     215                      .global _offsetFc
     216 00000004       _offsetFc:      .usect  ".ebss",2,1,1
     217              $C$DW$4 .dwtag  DW_TAG_variable
     218                      .dwattr $C$DW$4, DW_AT_name("offsetFc")
     219                      .dwattr $C$DW$4, DW_AT_TI_symbol_name("_offsetFc")
     220                      .dwattr $C$DW$4, DW_AT_location[DW_OP_addr _offsetFc]
     221                      .dwattr $C$DW$4, DW_AT_type(*$C$DW$T$16)
     222                      .dwattr $C$DW$4, DW_AT_external
     223              
     224                      .global _offsetWfT
     225 00000006       _offsetWfT:     .usect  ".ebss",2,1,1
     226              $C$DW$5 .dwtag  DW_TAG_variable
     227                      .dwattr $C$DW$5, DW_AT_name("offsetWfT")
     228                      .dwattr $C$DW$5, DW_AT_TI_symbol_name("_offsetWfT")
     229                      .dwattr $C$DW$5, DW_AT_location[DW_OP_addr _offsetWfT]
     230                      .dwattr $C$DW$5, DW_AT_type(*$C$DW$T$16)
     231                      .dwattr $C$DW$5, DW_AT_external
     232              
     233                      .global _errorFc
     234 00000008       _errorFc:       .usect  ".ebss",2,1,1
     235              $C$DW$6 .dwtag  DW_TAG_variable
     236                      .dwattr $C$DW$6, DW_AT_name("errorFc")
     237                      .dwattr $C$DW$6, DW_AT_TI_symbol_name("_errorFc")
     238                      .dwattr $C$DW$6, DW_AT_location[DW_OP_addr _errorFc]
     239                      .dwattr $C$DW$6, DW_AT_type(*$C$DW$T$16)
     240                      .dwattr $C$DW$6, DW_AT_external
     241              
     242                      .global _rslvrKp
     243 0000000a       _rslvrKp:       .usect  ".ebss",2,1,1
     244              $C$DW$7 .dwtag  DW_TAG_variable
     245                      .dwattr $C$DW$7, DW_AT_name("rslvrKp")
     246                      .dwattr $C$DW$7, DW_AT_TI_symbol_name("_rslvrKp")
     247                      .dwattr $C$DW$7, DW_AT_location[DW_OP_addr _rslvrKp]
     248                      .dwattr $C$DW$7, DW_AT_type(*$C$DW$T$16)
     249                      .dwattr $C$DW$7, DW_AT_external
     250              
     251                      .global _piconFz
     252 0000000c       _piconFz:       .usect  ".ebss",2,1,1
     253              $C$DW$8 .dwtag  DW_TAG_variable
     254                      .dwattr $C$DW$8, DW_AT_name("piconFz")
     255                      .dwattr $C$DW$8, DW_AT_TI_symbol_name("_piconFz")
     256                      .dwattr $C$DW$8, DW_AT_location[DW_OP_addr _piconFz]
     257                      .dwattr $C$DW$8, DW_AT_type(*$C$DW$T$16)
     258                      .dwattr $C$DW$8, DW_AT_external
     259              
     260                      .global _testCntr
     261 0000000e       _testCntr:      .usect  ".ebss",2,1,1
     262              $C$DW$9 .dwtag  DW_TAG_variable
     263                      .dwattr $C$DW$9, DW_AT_name("testCntr")
TMS320C2000 Assembler PC v20.2.1 Mon Dec  7 23:59:49 2020

Copyright (c) 1996-2018 Texas Instruments Incorporated
resolver.asm                                                         PAGE    7

     264                      .dwattr $C$DW$9, DW_AT_TI_symbol_name("_testCntr")
     265                      .dwattr $C$DW$9, DW_AT_location[DW_OP_addr _testCntr]
     266                      .dwattr $C$DW$9, DW_AT_type(*$C$DW$T$21)
     267                      .dwattr $C$DW$9, DW_AT_external
     268              
     269                      .global _testCntMax
     270 00000010       _testCntMax:    .usect  ".ebss",2,1,1
     271              $C$DW$10        .dwtag  DW_TAG_variable
     272                      .dwattr $C$DW$10, DW_AT_name("testCntMax")
     273                      .dwattr $C$DW$10, DW_AT_TI_symbol_name("_testCntMax")
     274                      .dwattr $C$DW$10, DW_AT_location[DW_OP_addr _testCntMax]
     275                      .dwattr $C$DW$10, DW_AT_type(*$C$DW$T$21)
     276                      .dwattr $C$DW$10, DW_AT_external
     277              
     278                      .global _testAngleMax
     279 00000012       _testAngleMax:  .usect  ".ebss",2,1,1
     280              $C$DW$11        .dwtag  DW_TAG_variable
     281                      .dwattr $C$DW$11, DW_AT_name("testAngleMax")
     282                      .dwattr $C$DW$11, DW_AT_TI_symbol_name("_testAngleMax")
     283                      .dwattr $C$DW$11, DW_AT_location[DW_OP_addr _testAngleMax]
     284                      .dwattr $C$DW$11, DW_AT_type(*$C$DW$T$16)
     285                      .dwattr $C$DW$11, DW_AT_external
     286              
     287                      .global _resetAll
     288 00000014       _resetAll:      .usect  ".ebss",2,1,1
     289              $C$DW$12        .dwtag  DW_TAG_variable
     290                      .dwattr $C$DW$12, DW_AT_name("resetAll")
     291                      .dwattr $C$DW$12, DW_AT_TI_symbol_name("_resetAll")
     292                      .dwattr $C$DW$12, DW_AT_location[DW_OP_addr _resetAll]
     293                      .dwattr $C$DW$12, DW_AT_type(*$C$DW$T$21)
     294                      .dwattr $C$DW$12, DW_AT_external
     295              
     296                      .global _resMagMax
     297 00000016       _resMagMax:     .usect  ".ebss",2,1,1
     298              $C$DW$13        .dwtag  DW_TAG_variable
     299                      .dwattr $C$DW$13, DW_AT_name("resMagMax")
     300                      .dwattr $C$DW$13, DW_AT_TI_symbol_name("_resMagMax")
     301                      .dwattr $C$DW$13, DW_AT_location[DW_OP_addr _resMagMax]
     302                      .dwattr $C$DW$13, DW_AT_type(*$C$DW$T$21)
     303                      .dwattr $C$DW$13, DW_AT_external
     304              
     305                      .global _resMagMin
     306 00000018       _resMagMin:     .usect  ".ebss",2,1,1
     307              $C$DW$14        .dwtag  DW_TAG_variable
     308                      .dwattr $C$DW$14, DW_AT_name("resMagMin")
     309                      .dwattr $C$DW$14, DW_AT_TI_symbol_name("_resMagMin")
     310                      .dwattr $C$DW$14, DW_AT_location[DW_OP_addr _resMagMin]
     311                      .dwattr $C$DW$14, DW_AT_type(*$C$DW$T$21)
     312                      .dwattr $C$DW$14, DW_AT_external
     313              
     314                      .global _DOS_ERROR
     315 0000001a       _DOS_ERROR:     .usect  ".ebss",2,1,1
     316              $C$DW$15        .dwtag  DW_TAG_variable
     317                      .dwattr $C$DW$15, DW_AT_name("DOS_ERROR")
     318                      .dwattr $C$DW$15, DW_AT_TI_symbol_name("_DOS_ERROR")
TMS320C2000 Assembler PC v20.2.1 Mon Dec  7 23:59:49 2020

Copyright (c) 1996-2018 Texas Instruments Incorporated
resolver.asm                                                         PAGE    8

     319                      .dwattr $C$DW$15, DW_AT_location[DW_OP_addr _DOS_ERROR]
     320                      .dwattr $C$DW$15, DW_AT_type(*$C$DW$T$21)
     321                      .dwattr $C$DW$15, DW_AT_external
     322              
     323                      .global _LOS_ERROR
     324 0000001c       _LOS_ERROR:     .usect  ".ebss",2,1,1
     325              $C$DW$16        .dwtag  DW_TAG_variable
     326                      .dwattr $C$DW$16, DW_AT_name("LOS_ERROR")
     327                      .dwattr $C$DW$16, DW_AT_TI_symbol_name("_LOS_ERROR")
     328                      .dwattr $C$DW$16, DW_AT_location[DW_OP_addr _LOS_ERROR]
     329                      .dwattr $C$DW$16, DW_AT_type(*$C$DW$T$21)
     330                      .dwattr $C$DW$16, DW_AT_external
     331              
     332                      .global _PLL_ERROR
     333 0000001e       _PLL_ERROR:     .usect  ".ebss",2,1,1
     334              $C$DW$17        .dwtag  DW_TAG_variable
     335                      .dwattr $C$DW$17, DW_AT_name("PLL_ERROR")
     336                      .dwattr $C$DW$17, DW_AT_TI_symbol_name("_PLL_ERROR")
     337                      .dwattr $C$DW$17, DW_AT_location[DW_OP_addr _PLL_ERROR]
     338                      .dwattr $C$DW$17, DW_AT_type(*$C$DW$T$21)
     339                      .dwattr $C$DW$17, DW_AT_external
     340              
     341                      .global _dos
     342 00000020       _dos:   .usect  ".ebss",2,1,1
     343              $C$DW$18        .dwtag  DW_TAG_variable
     344                      .dwattr $C$DW$18, DW_AT_name("dos")
     345                      .dwattr $C$DW$18, DW_AT_TI_symbol_name("_dos")
     346                      .dwattr $C$DW$18, DW_AT_location[DW_OP_addr _dos]
     347                      .dwattr $C$DW$18, DW_AT_type(*$C$DW$T$21)
     348                      .dwattr $C$DW$18, DW_AT_external
     349              
     350                      .global _dosLimit
     351 00000022       _dosLimit:      .usect  ".ebss",2,1,1
     352              $C$DW$19        .dwtag  DW_TAG_variable
     353                      .dwattr $C$DW$19, DW_AT_name("dosLimit")
     354                      .dwattr $C$DW$19, DW_AT_TI_symbol_name("_dosLimit")
     355                      .dwattr $C$DW$19, DW_AT_location[DW_OP_addr _dosLimit]
     356                      .dwattr $C$DW$19, DW_AT_type(*$C$DW$T$21)
     357                      .dwattr $C$DW$19, DW_AT_external
     358              
     359                      .global _losLimit
     360 00000024       _losLimit:      .usect  ".ebss",2,1,1
     361              $C$DW$20        .dwtag  DW_TAG_variable
     362                      .dwattr $C$DW$20, DW_AT_name("losLimit")
     363                      .dwattr $C$DW$20, DW_AT_TI_symbol_name("_losLimit")
     364                      .dwattr $C$DW$20, DW_AT_location[DW_OP_addr _losLimit]
     365                      .dwattr $C$DW$20, DW_AT_type(*$C$DW$T$21)
     366                      .dwattr $C$DW$20, DW_AT_external
     367              
     368                      .global _skipLosCnt
     369 00000026       _skipLosCnt:    .usect  ".ebss",2,1,1
     370              $C$DW$21        .dwtag  DW_TAG_variable
     371                      .dwattr $C$DW$21, DW_AT_name("skipLosCnt")
     372                      .dwattr $C$DW$21, DW_AT_TI_symbol_name("_skipLosCnt")
     373                      .dwattr $C$DW$21, DW_AT_location[DW_OP_addr _skipLosCnt]
TMS320C2000 Assembler PC v20.2.1 Mon Dec  7 23:59:49 2020

Copyright (c) 1996-2018 Texas Instruments Incorporated
resolver.asm                                                         PAGE    9

     374                      .dwattr $C$DW$21, DW_AT_type(*$C$DW$T$21)
     375                      .dwattr $C$DW$21, DW_AT_external
     376              
     377                      .global _skipLosPrd
     378 00000028       _skipLosPrd:    .usect  ".ebss",2,1,1
     379              $C$DW$22        .dwtag  DW_TAG_variable
     380                      .dwattr $C$DW$22, DW_AT_name("skipLosPrd")
     381                      .dwattr $C$DW$22, DW_AT_TI_symbol_name("_skipLosPrd")
     382                      .dwattr $C$DW$22, DW_AT_location[DW_OP_addr _skipLosPrd]
     383                      .dwattr $C$DW$22, DW_AT_type(*$C$DW$T$21)
     384                      .dwattr $C$DW$22, DW_AT_external
     385              
     386                      .global _angleErrMax
     387 0000002a       _angleErrMax:   .usect  ".ebss",2,1,1
     388              $C$DW$23        .dwtag  DW_TAG_variable
     389                      .dwattr $C$DW$23, DW_AT_name("angleErrMax")
     390                      .dwattr $C$DW$23, DW_AT_TI_symbol_name("_angleErrMax")
     391                      .dwattr $C$DW$23, DW_AT_location[DW_OP_addr _angleErrMax]
     392                      .dwattr $C$DW$23, DW_AT_type(*$C$DW$T$21)
     393                      .dwattr $C$DW$23, DW_AT_external
     394              
     395              $C$DW$24        .dwtag  DW_TAG_variable
     396                      .dwattr $C$DW$24, DW_AT_name("DacaRegs")
     397                      .dwattr $C$DW$24, DW_AT_TI_symbol_name("_DacaRegs")
     398                      .dwattr $C$DW$24, DW_AT_type(*$C$DW$T$229)
     399                      .dwattr $C$DW$24, DW_AT_declaration
     400                      .dwattr $C$DW$24, DW_AT_external
     401              
     402                      .global _rslvrIn
     403 0000002c       _rslvrIn:       .usect  ".ebss",20,1,1
     404              $C$DW$25        .dwtag  DW_TAG_variable
     405                      .dwattr $C$DW$25, DW_AT_name("rslvrIn")
     406                      .dwattr $C$DW$25, DW_AT_TI_symbol_name("_rslvrIn")
     407                      .dwattr $C$DW$25, DW_AT_location[DW_OP_addr _rslvrIn]
     408                      .dwattr $C$DW$25, DW_AT_type(*$C$DW$T$223)
     409                      .dwattr $C$DW$25, DW_AT_external
     410              
     411              $C$DW$26        .dwtag  DW_TAG_variable
     412                      .dwattr $C$DW$26, DW_AT_name("AdccResultRegs")
     413                      .dwattr $C$DW$26, DW_AT_TI_symbol_name("_AdccResultRegs")
     414                      .dwattr $C$DW$26, DW_AT_type(*$C$DW$T$228)
     415                      .dwattr $C$DW$26, DW_AT_declaration
     416                      .dwattr $C$DW$26, DW_AT_external
     417              
     418              $C$DW$27        .dwtag  DW_TAG_variable
     419                      .dwattr $C$DW$27, DW_AT_name("AdcdResultRegs")
     420                      .dwattr $C$DW$27, DW_AT_TI_symbol_name("_AdcdResultRegs")
     421                      .dwattr $C$DW$27, DW_AT_type(*$C$DW$T$228)
     422                      .dwattr $C$DW$27, DW_AT_declaration
     423                      .dwattr $C$DW$27, DW_AT_external
     424              
     425              $C$DW$28        .dwtag  DW_TAG_variable
     426                      .dwattr $C$DW$28, DW_AT_name("PieCtrlRegs")
     427                      .dwattr $C$DW$28, DW_AT_TI_symbol_name("_PieCtrlRegs")
     428                      .dwattr $C$DW$28, DW_AT_type(*$C$DW$T$232)
TMS320C2000 Assembler PC v20.2.1 Mon Dec  7 23:59:49 2020

Copyright (c) 1996-2018 Texas Instruments Incorporated
resolver.asm                                                         PAGE   10

     429                      .dwattr $C$DW$28, DW_AT_declaration
     430                      .dwattr $C$DW$28, DW_AT_external
     431              
     432                      .global _SINE_TABLE
     433 00000000       _SINE_TABLE:    .usect  ".ebss:_SINE_TABLE",32,1,1
     434                      .clink ".ebss:_SINE_TABLE"
     435              $C$DW$29        .dwtag  DW_TAG_variable
     436                      .dwattr $C$DW$29, DW_AT_name("SINE_TABLE")
     437                      .dwattr $C$DW$29, DW_AT_TI_symbol_name("_SINE_TABLE")
     438                      .dwattr $C$DW$29, DW_AT_location[DW_OP_addr _SINE_TABLE]
     439                      .dwattr $C$DW$29, DW_AT_type(*$C$DW$T$242)
     440                      .dwattr $C$DW$29, DW_AT_external
     441              
     442                      .global _FIR_COEFF
     443 00000000       _FIR_COEFF:     .usect  ".ebss:_FIR_COEFF",34,1,1
     444                      .clink ".ebss:_FIR_COEFF"
     445              $C$DW$30        .dwtag  DW_TAG_variable
     446                      .dwattr $C$DW$30, DW_AT_name("FIR_COEFF")
     447                      .dwattr $C$DW$30, DW_AT_TI_symbol_name("_FIR_COEFF")
     448                      .dwattr $C$DW$30, DW_AT_location[DW_OP_addr _FIR_COEFF]
     449                      .dwattr $C$DW$30, DW_AT_type(*$C$DW$T$246)
     450                      .dwattr $C$DW$30, DW_AT_external
     451              
     452                      .global _rslvrOut
     453 00000040       _rslvrOut:      .usect  ".ebss",34,1,1
     454              $C$DW$31        .dwtag  DW_TAG_variable
     455                      .dwattr $C$DW$31, DW_AT_name("rslvrOut")
     456                      .dwattr $C$DW$31, DW_AT_TI_symbol_name("_rslvrOut")
     457                      .dwattr $C$DW$31, DW_AT_location[DW_OP_addr _rslvrOut]
     458                      .dwattr $C$DW$31, DW_AT_type(*$C$DW$T$224)
     459                      .dwattr $C$DW$31, DW_AT_external
     460              
     461              $C$DW$32        .dwtag  DW_TAG_variable
     462                      .dwattr $C$DW$32, DW_AT_name("AdccRegs")
     463                      .dwattr $C$DW$32, DW_AT_TI_symbol_name("_AdccRegs")
     464                      .dwattr $C$DW$32, DW_AT_type(*$C$DW$T$226)
     465                      .dwattr $C$DW$32, DW_AT_declaration
     466                      .dwattr $C$DW$32, DW_AT_external
     467              
     468                      .sblock ".ebss"
     469                      .sblock ".ebss:_FIR_COEFF"
     470                      .sblock ".ebss:_SINE_TABLE"
     471              ;       C:\ti\ccs1010\ccs\tools\compiler\ti-cgt-c2000_20.2.1.LTS\bin\opt2000.exe C:\\Users\\hakan\\AppData\\L
     472              ;       C:\ti\ccs1010\ccs\tools\compiler\ti-cgt-c2000_20.2.1.LTS\bin\ac2000.exe -@C:\\Users\\hakan\\AppData\\
     473 00000000               .sect   ".text"
     474                      .clink
     475                      .global _resolver_PostProcess
     476              
     477              $C$DW$33        .dwtag  DW_TAG_subprogram
     478                      .dwattr $C$DW$33, DW_AT_name("resolver_PostProcess")
     479                      .dwattr $C$DW$33, DW_AT_low_pc(_resolver_PostProcess)
     480                      .dwattr $C$DW$33, DW_AT_high_pc(0x00)
     481                      .dwattr $C$DW$33, DW_AT_TI_symbol_name("_resolver_PostProcess")
     482                      .dwattr $C$DW$33, DW_AT_external
     483                      .dwattr $C$DW$33, DW_AT_TI_begin_file("../resolver.c")
TMS320C2000 Assembler PC v20.2.1 Mon Dec  7 23:59:49 2020

Copyright (c) 1996-2018 Texas Instruments Incorporated
resolver.asm                                                         PAGE   11

     484                      .dwattr $C$DW$33, DW_AT_TI_begin_line(0x96)
     485                      .dwattr $C$DW$33, DW_AT_TI_begin_column(0x06)
     486                      .dwattr $C$DW$33, DW_AT_TI_max_frame_size(-2)
     487                      .dwpsn  file "../resolver.c",line 151,column 1,is_stmt,address _resolver_PostProcess,isa 0
     488              
     489                      .dwfde $C$DW$CIE, _resolver_PostProcess
     490              
     491              ;***************************************************************
     492              ;* FNAME: _resolver_PostProcess         FR SIZE:   0           *
     493              ;*                                                             *
     494              ;* FUNCTION ENVIRONMENT                                        *
     495              ;*                                                             *
     496              ;* FUNCTION PROPERTIES                                         *
     497              ;*                            0 Parameter,  0 Auto,  0 SOE     *
     498              ;***************************************************************
     499              
     500 00000000       _resolver_PostProcess:
     501              ;* AL    assigned to $O$C1
     502              ;* AL    assigned to $O$C2
     503                      .dwcfi  cfa_offset, -2
     504                      .dwcfi  save_reg_to_mem, 26, 0
     505 00000000 761F-         MOVW      DP,#_rslvrOut+26      ; [CPU_ARAU] 
         00000001 0001 
     506                      .dwpsn  file "../resolver.c",line 156,column 5,is_stmt,isa 0
     507 00000002 061A!         MOVL      ACC,@$BLOCKED(_rslvrOut)+26 ; [CPU_ALU] |156| 
     508 00000003 761F-         MOVW      DP,#_resMagMax        ; [CPU_ARAU] 
         00000004 0000 
     509 00000005 0F16-         CMPL      ACC,@_resMagMax       ; [CPU_ALU] |156| 
     510 00000006 6205          B         $C$L1,GT              ; [CPU_ALU] |156| 
     511                      ; branchcc occurs ; [] |156| 
     512                      .dwpsn  file "../resolver.c",line 158,column 10,is_stmt,isa 0
     513 00000007 0F18-         CMPL      ACC,@_resMagMin       ; [CPU_ALU] |158| 
     514 00000008 6304          B         $C$L2,GEQ             ; [CPU_ALU] |158| 
     515                      ; branchcc occurs ; [] |158| 
     516                      .dwpsn  file "../resolver.c",line 159,column 6,is_stmt,isa 0
     517 00000009 1E18-         MOVL      @_resMagMin,ACC       ; [CPU_ALU] |159| 
     518 0000000a 6F02          B         $C$L2,UNC             ; [CPU_ALU] |159| 
     519                      ; branch occurs ; [] |159| 
     520 0000000b       $C$L1:    
     521                      .dwpsn  file "../resolver.c",line 157,column 6,is_stmt,isa 0
     522 0000000b 1E16-         MOVL      @_resMagMax,ACC       ; [CPU_ALU] |157| 
     523 0000000c       $C$L2:    
     524                      .dwpsn  file "../resolver.c",line 162,column 5,is_stmt,isa 0
     525 0000000c 0616-         MOVL      ACC,@_resMagMax       ; [CPU_ALU] |162| 
     526 0000000d 0318-         SUBL      ACC,@_resMagMin       ; [CPU_ALU] |162| 
     527 0000000e 1E20-         MOVL      @_dos,ACC             ; [CPU_ALU] |162| 
     528                      .dwpsn  file "../resolver.c",line 163,column 5,is_stmt,isa 0
     529 0000000f 0F22-         CMPL      ACC,@_dosLimit        ; [CPU_ALU] |163| 
     530 00000010 6503          B         $C$L3,LEQ             ; [CPU_ALU] |163| 
     531                      ; branchcc occurs ; [] |163| 
     532                      .dwpsn  file "../resolver.c",line 164,column 6,is_stmt,isa 0
     533 00000011 0201          MOVB      ACC,#1                ; [CPU_ALU] |164| 
     534 00000012 1E1A-         MOVL      @_DOS_ERROR,ACC       ; [CPU_ALU] |164| 
     535 00000013       $C$L3:    
     536                      .dwpsn  file "../resolver.c",line 167,column 5,is_stmt,isa 0
TMS320C2000 Assembler PC v20.2.1 Mon Dec  7 23:59:49 2020

Copyright (c) 1996-2018 Texas Instruments Incorporated
resolver.asm                                                         PAGE   12

     537 00000013 0628-         MOVL      ACC,@_skipLosPrd      ; [CPU_ALU] |167| 
     538 00000014 0F26-         CMPL      ACC,@_skipLosCnt      ; [CPU_ALU] |167| 
     539 00000015 620B          B         $C$L4,GT              ; [CPU_ALU] |167| 
     540                      ; branchcc occurs ; [] |167| 
     541                      .dwpsn  file "../resolver.c",line 169,column 10,is_stmt,isa 0
     542 00000016 0624-         MOVL      ACC,@_losLimit        ; [CPU_ALU] |169| 
     543 00000017 761F-         MOVW      DP,#_rslvrOut+26      ; [CPU_ARAU] 
         00000018 0001 
     544 00000019 0F1A!         CMPL      ACC,@$BLOCKED(_rslvrOut)+26 ; [CPU_ALU] |169| 
     545 0000001a 6509          B         $C$L5,LEQ             ; [CPU_ALU] |169| 
     546                      ; branchcc occurs ; [] |169| 
     547                      .dwpsn  file "../resolver.c",line 170,column 6,is_stmt,isa 0
     548 0000001b 0201          MOVB      ACC,#1                ; [CPU_ALU] |170| 
     549 0000001c 761F-         MOVW      DP,#_LOS_ERROR        ; [CPU_ARAU] 
         0000001d 0000 
     550 0000001e 1E1C-         MOVL      @_LOS_ERROR,ACC       ; [CPU_ALU] |170| 
     551                      .dwpsn  file "../resolver.c",line 174,column 5,is_stmt,isa 0
     552 0000001f 6F04          B         $C$L5,UNC             ; [CPU_ALU] |174| 
     553                      ; branch occurs ; [] |174| 
     554 00000020       $C$L4:    
     555                      .dwpsn  file "../resolver.c",line 168,column 7,is_stmt,isa 0
     556 00000020 0201          MOVB      ACC,#1                ; [CPU_ALU] |168| 
     557 00000021 5601-         ADDL      @_skipLosCnt,ACC      ; [CPU_ALU] |168| 
         00000022 0026 
     558 00000023       $C$L5:    
     559 00000023 3B01          SETC      SXM                   ; [CPU_ALU] 
     560 00000024 761F-         MOVW      DP,#_rslvrOut+24      ; [CPU_ARAU] 
         00000025 0001 
     561                      .dwpsn  file "../resolver.c",line 174,column 5,is_stmt,isa 0
     562 00000026 8518!         MOV       ACC,@$BLOCKED(_rslvrOut)+24 ; [CPU_ALU] |174| 
     563 00000027 761F-         MOVW      DP,#_angleErrMax      ; [CPU_ARAU] 
         00000028 0000 
     564 00000029 FF56          ABS       ACC                   ; [CPU_ALU] |174| 
     565 0000002a 85A9          MOV       ACC,AL                ; [CPU_ALU] |174| 
     566 0000002b 0F2A-         CMPL      ACC,@_angleErrMax     ; [CPU_ALU] |174| 
     567 0000002c 6503          B         $C$L6,LEQ             ; [CPU_ALU] |174| 
     568                      ; branchcc occurs ; [] |174| 
     569                      .dwpsn  file "../resolver.c",line 175,column 7,is_stmt,isa 0
     570 0000002d 0201          MOVB      ACC,#1                ; [CPU_ALU] |175| 
     571 0000002e 1E1E-         MOVL      @_PLL_ERROR,ACC       ; [CPU_ALU] |175| 
     572 0000002f       $C$L6:    
     573                      .dwpsn  file "../resolver.c",line 178,column 5,is_stmt,isa 0
     574 0000002f 0201          MOVB      ACC,#1                ; [CPU_ALU] |178| 
     575 00000030 0F14-         CMPL      ACC,@_resetAll        ; [CPU_ALU] |178| 
     576 00000031 6010          B         $C$L7,NEQ             ; [CPU_ALU] |178| 
     577                      ; branchcc occurs ; [] |178| 
     578                      .dwpsn  file "../resolver.c",line 183,column 6,is_stmt,isa 0
     579 00000032 3100          MOV       P,#0                  ; [CPU_ALU] |183| 
     580                      .dwpsn  file "../resolver.c",line 185,column 6,is_stmt,isa 0
     581 00000033 0200          MOVB      ACC,#0                ; [CPU_ALU] |185| 
     582                      .dwpsn  file "../resolver.c",line 180,column 6,is_stmt,isa 0
     583 00000034 D000          MOVB      XAR0,#0               ; [CPU_ALU] |180| 
     584                      .dwpsn  file "../resolver.c",line 181,column 6,is_stmt,isa 0
     585 00000035 D500          MOVB      XAR5,#0               ; [CPU_ALU] |181| 
     586                      .dwpsn  file "../resolver.c",line 182,column 6,is_stmt,isa 0
TMS320C2000 Assembler PC v20.2.1 Mon Dec  7 23:59:49 2020

Copyright (c) 1996-2018 Texas Instruments Incorporated
resolver.asm                                                         PAGE   13

     587 00000036 D400          MOVB      XAR4,#0               ; [CPU_ALU] |182| 
     588                      .dwpsn  file "../resolver.c",line 184,column 6,is_stmt,isa 0
     589 00000037 B600          MOVB      XAR7,#0               ; [CPU_ALU] |184| 
     590                      .dwpsn  file "../resolver.c",line 186,column 6,is_stmt,isa 0
     591 00000038 BE02          MOVB      XAR6,#2               ; [CPU_ALU] |186| 
     592                      .dwpsn  file "../resolver.c",line 183,column 6,is_stmt,isa 0
     593 00000039 A914-         MOVL      @_resetAll,P          ; [CPU_ALU] |183| 
     594                      .dwpsn  file "../resolver.c",line 185,column 6,is_stmt,isa 0
     595 0000003a 1902          SUBB      ACC,#2                ; [CPU_ALU] |185| 
     596                      .dwpsn  file "../resolver.c",line 180,column 6,is_stmt,isa 0
     597 0000003b 3A1A-         MOVL      @_DOS_ERROR,XAR0      ; [CPU_ALU] |180| 
     598                      .dwpsn  file "../resolver.c",line 181,column 6,is_stmt,isa 0
     599 0000003c A01C-         MOVL      @_LOS_ERROR,XAR5      ; [CPU_ALU] |181| 
     600                      .dwpsn  file "../resolver.c",line 182,column 6,is_stmt,isa 0
     601 0000003d A81E-         MOVL      @_PLL_ERROR,XAR4      ; [CPU_ALU] |182| 
     602                      .dwpsn  file "../resolver.c",line 184,column 6,is_stmt,isa 0
     603 0000003e C326-         MOVL      @_skipLosCnt,XAR7     ; [CPU_ALU] |184| 
     604                      .dwpsn  file "../resolver.c",line 186,column 6,is_stmt,isa 0
     605 0000003f C218-         MOVL      @_resMagMin,XAR6      ; [CPU_ALU] |186| 
     606                      .dwpsn  file "../resolver.c",line 185,column 6,is_stmt,isa 0
     607 00000040 1E16-         MOVL      @_resMagMax,ACC       ; [CPU_ALU] |185| 
     608              $C$L7:    
     609              $C$DW$34        .dwtag  DW_TAG_TI_branch
     610                      .dwattr $C$DW$34, DW_AT_low_pc(0x00)
     611                      .dwattr $C$DW$34, DW_AT_TI_return
     612              
     613 00000041 0006          LRETR     ; [CPU_ALU] 
     614                      ; return occurs ; [] 
     615                      .dwattr $C$DW$33, DW_AT_TI_end_file("../resolver.c")
     616                      .dwattr $C$DW$33, DW_AT_TI_end_line(0xbe)
     617                      .dwattr $C$DW$33, DW_AT_TI_end_column(0x01)
     618                      .dwendentry
     619                      .dwendtag $C$DW$33
     620              
     621 00000042               .sect   ".text"
     622                      .clink
     623                      .global _derivParamsCal
     624              
     625              $C$DW$35        .dwtag  DW_TAG_subprogram
     626                      .dwattr $C$DW$35, DW_AT_name("derivParamsCal")
     627                      .dwattr $C$DW$35, DW_AT_low_pc(_derivParamsCal)
     628                      .dwattr $C$DW$35, DW_AT_high_pc(0x00)
     629                      .dwattr $C$DW$35, DW_AT_TI_symbol_name("_derivParamsCal")
     630                      .dwattr $C$DW$35, DW_AT_external
     631                      .dwattr $C$DW$35, DW_AT_TI_begin_file("../resolver.c")
     632                      .dwattr $C$DW$35, DW_AT_TI_begin_line(0x86)
     633                      .dwattr $C$DW$35, DW_AT_TI_begin_column(0x06)
     634                      .dwattr $C$DW$35, DW_AT_TI_max_frame_size(-6)
     635                      .dwpsn  file "../resolver.c",line 134,column 27,is_stmt,address _derivParamsCal,isa 0
     636              
     637                      .dwfde $C$DW$CIE, _derivParamsCal
     638              
     639              ;***************************************************************
     640              ;* FNAME: _derivParamsCal               FR SIZE:   4           *
     641              ;*                                                             *
TMS320C2000 Assembler PC v20.2.1 Mon Dec  7 23:59:49 2020

Copyright (c) 1996-2018 Texas Instruments Incorporated
resolver.asm                                                         PAGE   14

     642              ;* FUNCTION ENVIRONMENT                                        *
     643              ;*                                                             *
     644              ;* FUNCTION PROPERTIES                                         *
     645              ;*                            0 Parameter,  0 Auto,  4 SOE     *
     646              ;***************************************************************
     647              
     648              _derivParamsCal:
     649              ;* R1    assigned to _kiTsBy2
     650              $C$DW$36        .dwtag  DW_TAG_variable
     651                      .dwattr $C$DW$36, DW_AT_name("kiTsBy2")
     652                      .dwattr $C$DW$36, DW_AT_TI_symbol_name("_kiTsBy2")
     653                      .dwattr $C$DW$36, DW_AT_type(*$C$DW$T$16)
     654                      .dwattr $C$DW$36, DW_AT_location[DW_OP_regx 0x2f]
     655              
     656                      .dwcfi  cfa_offset, -2
     657                      .dwcfi  save_reg_to_mem, 26, 0
     658 00000042 E203          MOV32     *SP++,R4H             ; [CPU_FPU] 
         00000043 04BD 
     659                      .dwcfi  save_reg_to_mem, 59, 2
     660                      .dwcfi  cfa_offset, -4
     661 00000044 761F-         MOVW      DP,#_errorFc          ; [CPU_ARAU] 
         00000045 0000 
     662                      .dwpsn  file "../resolver.c",line 137,column 2,is_stmt,isa 0
     663 00000046 E802          MOVIZ     R1H,#16585            ; [CPU_FPU] |137| 
         00000047 0649 
     664                      .dwpsn  file "../resolver.c",line 139,column 2,is_stmt,isa 0
     665 00000048 E802          MOVIZ     R0H,#16585            ; [CPU_FPU] |139| 
         00000049 0648 
     666                      .dwpsn  file "../resolver.c",line 137,column 2,is_stmt,isa 0
     667 0000004a E2AF-         MOV32     R4H,@_errorFc         ; [CPU_FPU] |137| 
         0000004b 0408 
     668                      .dwpsn  file "../resolver.c",line 139,column 2,is_stmt,isa 0
     669 0000004c E2AF-         MOV32     R2H,@_piconFz         ; [CPU_FPU] |139| 
         0000004d 020C 
     670                      .dwpsn  file "../resolver.c",line 137,column 2,is_stmt,isa 0
     671 0000004e E808          MOVXI     R1H,#4059             ; [CPU_FPU] |137| 
         0000004f 7ED9 
     672                      .dwpsn  file "../resolver.c",line 139,column 2,is_stmt,isa 0
     673 00000050 E808          MOVXI     R0H,#4059             ; [CPU_FPU] |139| 
         00000051 7ED8 
     674                      .dwpsn  file "../resolver.c",line 137,column 2,is_stmt,isa 0
     675              
     676 00000052 E008          MPYF32    R1H,R1H,R4H           ; [CPU_FPU] |137| 
         00000053 4DBD 
     677              ||      MOV32     *SP++,R5H             ; [CPU_FPU] 
     678                      .dwcfi  save_reg_to_mem, 63, 4
     679                      .dwcfi  cfa_offset, -6
     680              
     681 00000054 E304!         MPYF32    R0H,R0H,R2H           ; [CPU_FPU] |139| 
         00000055 0536 
     682              ||      MOV32     R5H,@$BLOCKED(_rslvrIn)+10 ; [CPU_FPU] |137| 
     683              
     684 00000056 E700          MPYF32    R1H,R5H,R1H           ; [CPU_FPU] |137| 
         00000057 0069 
     685                      .dwpsn  file "../resolver.c",line 139,column 2,is_stmt,isa 0
TMS320C2000 Assembler PC v20.2.1 Mon Dec  7 23:59:49 2020

Copyright (c) 1996-2018 Texas Instruments Incorporated
resolver.asm                                                         PAGE   15

     686 00000058 E2AF-         MOV32     R3H,@_rslvrKp         ; [CPU_FPU] |139| 
         00000059 030A 
     687                      .dwpsn  file "../resolver.c",line 137,column 2,is_stmt,isa 0
     688              
     689                      MOV32     @$BLOCKED(_rslvrIn)+12,R1H ; [CPU_FPU] |137| 
     690 0000005a E000! ||      MPYF32    R2H,R3H,R0H           ; [CPU_FPU] |139| 
         0000005b D138 
     691              
     692                      .dwpsn  file "../resolver.c",line 139,column 2,is_stmt,isa 0
     693 0000005c E2AF!         MOV32     R1H,@$BLOCKED(_rslvrIn)+10 ; [CPU_FPU] |139| 
         0000005d 0136 
     694 0000005e E700          MPYF32    R1H,R1H,R2H           ; [CPU_FPU] |139| 
         0000005f 0089 
     695 00000060 7700          NOP       ; [CPU_ALU] 
     696 00000061 E84F          MPYF32    R1H,R1H,#16128        ; [CPU_FPU] |139| 
         00000062 C009 
     697                      .dwpsn  file "../resolver.c",line 140,column 2,is_stmt,isa 0
     698 00000063 E2AF-         MOV32     R2H,@_rslvrKp         ; [CPU_FPU] |140| 
         00000064 020A 
     699              
     700 00000065 E312-         ADDF32    R2H,R2H,R1H           ; [CPU_FPU] |140| 
         00000066 900A 
     701              ||      MOV32     R0H,@_rslvrKp         ; [CPU_FPU] |141| 
     702              
     703                      .dwpsn  file "../resolver.c",line 141,column 2,is_stmt,isa 0
     704 00000067 E6AF          NEGF32    R0H,R0H               ; [CPU_FPU] |141| 
         00000068 0000 
     705                      .dwpsn  file "../resolver.c",line 140,column 2,is_stmt,isa 0
     706              
     707                      MOV32     @$BLOCKED(_rslvrIn)+14,R2H ; [CPU_FPU] |140| 
     708 00000069 E012! ||      ADDF32    R0H,R0H,R1H           ; [CPU_FPU] |141| 
         0000006a 023A 
     709              
     710 0000006b E2AF          MOV32     R5H,*--SP             ; [CPU_FPU] 
         0000006c 05BE 
     711                      .dwcfi  cfa_offset, -4
     712                      .dwcfi  restore_reg, 63
     713                      .dwpsn  file "../resolver.c",line 141,column 2,is_stmt,isa 0
     714 0000006d E203!         MOV32     @$BLOCKED(_rslvrIn)+16,R0H ; [CPU_FPU] |141| 
         0000006e 003C 
     715 0000006f E2AF          MOV32     R4H,*--SP             ; [CPU_FPU] 
         00000070 04BE 
     716                      .dwcfi  cfa_offset, -2
     717                      .dwcfi  restore_reg, 59
     718              $C$DW$37        .dwtag  DW_TAG_TI_branch
     719                      .dwattr $C$DW$37, DW_AT_low_pc(0x00)
     720                      .dwattr $C$DW$37, DW_AT_TI_return
     721              
     722 00000071 0006          LRETR     ; [CPU_ALU] 
     723                      ; return occurs ; [] 
     724                      .dwattr $C$DW$35, DW_AT_TI_end_file("../resolver.c")
     725                      .dwattr $C$DW$35, DW_AT_TI_end_line(0x90)
     726                      .dwattr $C$DW$35, DW_AT_TI_end_column(0x01)
     727                      .dwendentry
     728                      .dwendtag $C$DW$35
TMS320C2000 Assembler PC v20.2.1 Mon Dec  7 23:59:49 2020

Copyright (c) 1996-2018 Texas Instruments Incorporated
resolver.asm                                                         PAGE   16

     729              
     730 00000072               .sect   ".text"
     731                      .clink
     732                      .global _baseParamsInit
     733              
     734              $C$DW$38        .dwtag  DW_TAG_subprogram
     735                      .dwattr $C$DW$38, DW_AT_name("baseParamsInit")
     736                      .dwattr $C$DW$38, DW_AT_low_pc(_baseParamsInit)
     737                      .dwattr $C$DW$38, DW_AT_high_pc(0x00)
     738                      .dwattr $C$DW$38, DW_AT_TI_symbol_name("_baseParamsInit")
     739                      .dwattr $C$DW$38, DW_AT_external
     740                      .dwattr $C$DW$38, DW_AT_TI_begin_file("../resolver.c")
     741                      .dwattr $C$DW$38, DW_AT_TI_begin_line(0x74)
     742                      .dwattr $C$DW$38, DW_AT_TI_begin_column(0x06)
     743                      .dwattr $C$DW$38, DW_AT_TI_max_frame_size(-6)
     744                      .dwpsn  file "../resolver.c",line 116,column 27,is_stmt,address _baseParamsInit,isa 0
     745              
     746                      .dwfde $C$DW$CIE, _baseParamsInit
     747              
     748              ;***************************************************************
     749              ;* FNAME: _baseParamsInit               FR SIZE:   4           *
     750              ;*                                                             *
     751              ;* FUNCTION ENVIRONMENT                                        *
     752              ;*                                                             *
     753              ;* FUNCTION PROPERTIES                                         *
     754              ;*                            0 Parameter,  0 Auto,  4 SOE     *
     755              ;***************************************************************
     756              
     757 00000072       _baseParamsInit:
     758                      .dwcfi  cfa_offset, -2
     759                      .dwcfi  save_reg_to_mem, 26, 0
     760 00000072 E203          MOV32     *SP++,R4H             ; [CPU_FPU] 
         00000073 04BD 
     761                      .dwcfi  save_reg_to_mem, 59, 2
     762                      .dwcfi  cfa_offset, -4
     763                      .dwpsn  file "../resolver.c",line 118,column 2,is_stmt,isa 0
     764 00000074 E801          MOVIZ     R0H,#14545            ; [CPU_FPU] |118| 
         00000075 C688 
     765                      .dwpsn  file "../resolver.c",line 126,column 2,is_stmt,isa 0
     766 00000076 E802          MOVIZ     R1H,#17055            ; [CPU_FPU] |126| 
         00000077 14F9 
     767 00000078 761F-         MOVW      DP,#_rslvrIn+10       ; [CPU_ARAU] 
         00000079 0000 
     768                      .dwpsn  file "../resolver.c",line 127,column 2,is_stmt,isa 0
     769 0000007a E802          MOVIZ     R3H,#17530            ; [CPU_FPU] |127| 
         0000007b 23D3 
     770                      .dwpsn  file "../resolver.c",line 128,column 2,is_stmt,isa 0
     771 0000007c E802          MOVIZ     R2H,#17224            ; [CPU_FPU] |128| 
         0000007d 1A42 
     772 0000007e E203          MOV32     *SP++,R5H             ; [CPU_FPU] 
         0000007f 05BD 
     773                      .dwcfi  save_reg_to_mem, 63, 4
     774                      .dwcfi  cfa_offset, -6
     775                      .dwpsn  file "../resolver.c",line 118,column 2,is_stmt,isa 0
     776 00000080 E80D          MOVXI     R0H,#46871            ; [CPU_FPU] |118| 
TMS320C2000 Assembler PC v20.2.1 Mon Dec  7 23:59:49 2020

Copyright (c) 1996-2018 Texas Instruments Incorporated
resolver.asm                                                         PAGE   17

         00000081 B8B8 
     777                      .dwpsn  file "../resolver.c",line 123,column 2,is_stmt,isa 0
     778 00000082 E802          MOVIZ     R4H,#17224            ; [CPU_FPU] |123| 
         00000083 1A44 
     779                      .dwpsn  file "../resolver.c",line 126,column 2,is_stmt,isa 0
     780 00000084 E809          MOVXI     R1H,#10154            ; [CPU_FPU] |126| 
         00000085 3D51 
     781                      .dwpsn  file "../resolver.c",line 118,column 2,is_stmt,isa 0
     782 00000086 E203!         MOV32     @$BLOCKED(_rslvrIn)+10,R0H ; [CPU_FPU] |118| 
         00000087 0036 
     783                      .dwpsn  file "../resolver.c",line 122,column 2,is_stmt,isa 0
     784 00000088 E595          ZERO      R5H                   ; [CPU_FPU] |122| 
     785                      .dwpsn  file "../resolver.c",line 119,column 2,is_stmt,isa 0
     786 00000089 56BF!         MOVB      @$BLOCKED(_rslvrIn)+3,#16,UNC ; [CPU_ALU] |119| 
         0000008a 102F 
     787                      .dwpsn  file "../resolver.c",line 127,column 2,is_stmt,isa 0
     788 0000008b E203-         MOV32     @_errorFc,R3H         ; [CPU_FPU] |127| 
         0000008c 0308 
     789                      .dwpsn  file "../resolver.c",line 128,column 2,is_stmt,isa 0
     790 0000008d E203-         MOV32     @_piconFz,R2H         ; [CPU_FPU] |128| 
         0000008e 020C 
     791                      .dwpsn  file "../resolver.c",line 129,column 2,is_stmt,isa 0
     792 0000008f E802          MOVIZ     R0H,#17820            ; [CPU_FPU] |129| 
         00000090 2CE0 
     793                      .dwpsn  file "../resolver.c",line 120,column 2,is_stmt,isa 0
     794 00000091 2B2E!         MOV       @$BLOCKED(_rslvrIn)+2,#0 ; [CPU_ALU] |120| 
     795                      .dwpsn  file "../resolver.c",line 126,column 2,is_stmt,isa 0
     796 00000092 E203-         MOV32     @_offsetFc,R1H        ; [CPU_FPU] |126| 
         00000093 0104 
     797                      .dwpsn  file "../resolver.c",line 129,column 2,is_stmt,isa 0
     798 00000094 E80A          MOVXI     R0H,#16384            ; [CPU_FPU] |129| 
         00000095 0000 
     799                      .dwpsn  file "../resolver.c",line 121,column 2,is_stmt,isa 0
     800 00000096 2B2D!         MOV       @$BLOCKED(_rslvrIn)+1,#0 ; [CPU_ALU] |121| 
     801                      .dwpsn  file "../resolver.c",line 129,column 2,is_stmt,isa 0
     802 00000097 E203-         MOV32     @_rslvrKp,R0H         ; [CPU_FPU] |129| 
         00000098 000A 
     803                      .dwpsn  file "../resolver.c",line 122,column 2,is_stmt,isa 0
     804 00000099 E203!         MOV32     @$BLOCKED(_rslvrIn)+8,R5H ; [CPU_FPU] |122| 
         0000009a 0534 
     805                      .dwpsn  file "../resolver.c",line 123,column 2,is_stmt,isa 0
     806 0000009b E203!         MOV32     @$BLOCKED(_rslvrIn)+18,R4H ; [CPU_FPU] |123| 
         0000009c 043E 
     807                      .dwpsn  file "../resolver.c",line 124,column 2,is_stmt,isa 0
     808 0000009d 56BF!         MOVB      @$BLOCKED(_rslvrIn),#3,UNC ; [CPU_ALU] |124| 
         0000009e 032C 
     809 0000009f E2AF          MOV32     R5H,*--SP             ; [CPU_FPU] 
         000000a0 05BE 
     810                      .dwcfi  cfa_offset, -4
     811                      .dwcfi  restore_reg, 63
     812 000000a1 E2AF          MOV32     R4H,*--SP             ; [CPU_FPU] 
         000000a2 04BE 
     813                      .dwcfi  cfa_offset, -2
     814                      .dwcfi  restore_reg, 59
     815              $C$DW$39        .dwtag  DW_TAG_TI_branch
TMS320C2000 Assembler PC v20.2.1 Mon Dec  7 23:59:49 2020

Copyright (c) 1996-2018 Texas Instruments Incorporated
resolver.asm                                                         PAGE   18

     816                      .dwattr $C$DW$39, DW_AT_low_pc(0x00)
     817                      .dwattr $C$DW$39, DW_AT_TI_return
     818              
     819 000000a3 0006          LRETR     ; [CPU_ALU] 
     820                      ; return occurs ; [] 
     821                      .dwattr $C$DW$38, DW_AT_TI_end_file("../resolver.c")
     822                      .dwattr $C$DW$38, DW_AT_TI_end_line(0x84)
     823                      .dwattr $C$DW$38, DW_AT_TI_end_column(0x01)
     824                      .dwendentry
     825                      .dwendtag $C$DW$38
     826              
     827 00000000               .sect   ".text:retain"
     828                      .retain
     829                      .retainrefs
     830                      .global _ResolverISR
     831              
     832              $C$DW$40        .dwtag  DW_TAG_subprogram
     833                      .dwattr $C$DW$40, DW_AT_name("ResolverISR")
     834                      .dwattr $C$DW$40, DW_AT_low_pc(_ResolverISR)
     835                      .dwattr $C$DW$40, DW_AT_high_pc(0x00)
     836                      .dwattr $C$DW$40, DW_AT_TI_symbol_name("_ResolverISR")
     837                      .dwattr $C$DW$40, DW_AT_external
     838                      .dwattr $C$DW$40, DW_AT_TI_begin_file("../resolver.c")
     839                      .dwattr $C$DW$40, DW_AT_TI_begin_line(0xc6)
     840                      .dwattr $C$DW$40, DW_AT_TI_begin_column(0x10)
     841                      .dwattr $C$DW$40, DW_AT_TI_interrupt
     842                      .dwattr $C$DW$40, DW_AT_TI_max_frame_size(-28)
     843                      .dwpsn  file "../resolver.c",line 199,column 1,is_stmt,address _ResolverISR,isa 0
     844              
     845                      .dwfde $C$DW$CIE, _ResolverISR
     846              
     847              ;***************************************************************
     848              ;* FNAME: _ResolverISR                  FR SIZE:  26           *
     849              ;*                                                             *
     850              ;* FUNCTION ENVIRONMENT                                        *
     851              ;*                                                             *
     852              ;* FUNCTION PROPERTIES                                         *
     853              ;*                            2 Parameter,  0 Auto, 24 SOE     *
     854              ;***************************************************************
     855              
     856 00000000       _ResolverISR:
     857                      .dwcfi  cfa_offset, -2
     858                      .dwcfi  save_reg_to_mem, 26, 0
     859 00000000 761B          ASP       ; [CPU_ALU] 
     860 00000001 FFF0          PUSH      RB                    ; [CPU_FPU] 
     861                      .dwcfi  save_reg_to_mem, 74, 4
     862                      .dwcfi  cfa_offset, -4
     863 00000002 0005          PUSH      AR1H:AR0H             ; [CPU_ALU] 
     864                      .dwcfi  save_reg_to_mem, 5, 4
     865                      .dwcfi  save_reg_to_mem, 7, 5
     866                      .dwcfi  cfa_offset, -6
     867 00000003 ABBD          MOVL      *SP++,XT              ; [CPU_ALU] 
     868                      .dwcfi  save_reg_to_mem, 21, 6
     869                      .dwcfi  save_reg_to_mem, 22, 7
     870                      .dwcfi  cfa_offset, -8
TMS320C2000 Assembler PC v20.2.1 Mon Dec  7 23:59:49 2020

Copyright (c) 1996-2018 Texas Instruments Incorporated
resolver.asm                                                         PAGE   19

     871 00000004 A8BD          MOVL      *SP++,XAR4            ; [CPU_ALU] 
     872                      .dwcfi  save_reg_to_mem, 12, 8
     873                      .dwcfi  save_reg_to_mem, 13, 9
     874                      .dwcfi  cfa_offset, -10
     875 00000005 A0BD          MOVL      *SP++,XAR5            ; [CPU_ALU] 
     876                      .dwcfi  save_reg_to_mem, 14, 10
     877                      .dwcfi  save_reg_to_mem, 15, 11
     878                      .dwcfi  cfa_offset, -12
     879 00000006 C2BD          MOVL      *SP++,XAR6            ; [CPU_ALU] 
     880                      .dwcfi  save_reg_to_mem, 16, 12
     881                      .dwcfi  save_reg_to_mem, 17, 13
     882                      .dwcfi  cfa_offset, -14
     883 00000007 C3BD          MOVL      *SP++,XAR7            ; [CPU_ALU] 
     884                      .dwcfi  save_reg_to_mem, 18, 14
     885                      .dwcfi  save_reg_to_mem, 19, 15
     886                      .dwcfi  cfa_offset, -16
     887 00000008 E200          MOV32     *SP++,STF             ; [CPU_FPU] 
         00000009 00BD 
     888                      .dwcfi  save_reg_to_mem, 40, 18
     889                      .dwcfi  cfa_offset, -18
     890 0000000a E203          MOV32     *SP++,R0H             ; [CPU_FPU] 
         0000000b 00BD 
     891                      .dwcfi  save_reg_to_mem, 43, 20
     892                      .dwcfi  cfa_offset, -20
     893 0000000c E203          MOV32     *SP++,R1H             ; [CPU_FPU] 
         0000000d 01BD 
     894                      .dwcfi  save_reg_to_mem, 47, 22
     895                      .dwcfi  cfa_offset, -22
     896 0000000e E203          MOV32     *SP++,R2H             ; [CPU_FPU] 
         0000000f 02BD 
     897                      .dwcfi  save_reg_to_mem, 51, 24
     898                      .dwcfi  cfa_offset, -24
     899 00000010 E203          MOV32     *SP++,R3H             ; [CPU_FPU] 
         00000011 03BD 
     900                      .dwcfi  save_reg_to_mem, 55, 26
     901                      .dwcfi  cfa_offset, -26
     902 00000012 E630          SETFLG    RNDF32=1, RNDF64=1    ; [CPU_FPU] 
         00000013 0600 
     903 00000014 FE02          ADDB      SP,#2                 ; [CPU_ARAU] 
     904                      .dwcfi  cfa_offset, -28
     905 00000015 FF69          SPM       0                     ; [CPU_ALU] 
     906 00000016 2942          CLRC      PAGE0,OVM             ; [CPU_ALU] 
     907 00000017 5616          CLRC      AMODE                 ; [CPU_ALU] 
     908 00000018 761F-         MOVW      DP,#_rslvrOut+32      ; [CPU_ARAU] 
         00000019 0001 
     909                      .dwpsn  file "../resolver.c",line 201,column 2,is_stmt,isa 0
     910 0000001a 9320!         MOV       AH,@$BLOCKED(_rslvrOut)+32 ; [CPU_ALU] |201| 
     911 0000001b 2901          CLRC      SXM                   ; [CPU_ALU] 
     912 0000001c 761F-         MOVW      DP,#_rslvrIn+3        ; [CPU_ARAU] 
         0000001d 0000 
     913 0000001e 9DFF          ADDB      AH,#-1                ; [CPU_ALU] |201| 
     914 0000001f 922F!         MOV       AL,@$BLOCKED(_rslvrIn)+3 ; [CPU_ALU] |201| 
     915 00000020 9CFF          ADDB      AL,#-1                ; [CPU_ALU] |201| 
     916 00000021 761F-         MOVW      DP,#_rslvrOut+32      ; [CPU_ARAU] 
         00000022 0001 
TMS320C2000 Assembler PC v20.2.1 Mon Dec  7 23:59:49 2020

Copyright (c) 1996-2018 Texas Instruments Incorporated
resolver.asm                                                         PAGE   20

     917 00000023 CEA8          AND       AL,AH                 ; [CPU_ALU] |201| 
     918 00000024 9620!         MOV       @$BLOCKED(_rslvrOut)+32,AL ; [CPU_ALU] |201| 
     919                      .dwpsn  file "../resolver.c",line 202,column 2,is_stmt,isa 0
     920 00000025 5603!         MOV       ACC,@$BLOCKED(_rslvrOut)+32 << 1 ; [CPU_ALU] |202| 
         00000026 0120 
     921 00000027 761F-         MOVW      DP,#_sineTable        ; [CPU_ARAU] 
         00000028 0000 
     922 00000029 0700-         ADDL      ACC,@_sineTable       ; [CPU_ALU] |202| 
     923 0000002a 8AA9          MOVL      XAR4,ACC              ; [CPU_ALU] |202| 
     924 0000002b 761F!         MOVW      DP,#_DacaRegs+3       ; [CPU_ARAU] 
         0000002c 0000 
     925 0000002d CD03!         AND       AH,@$BLOCKED(_DacaRegs)+3,#0xf000 ; [CPU_ALU] |202| 
         0000002e F000 
     926 0000002f CCC4          AND       AL,*+XAR4[0],#0x0fff  ; [CPU_ALU] |202| 
         00000030 0FFF 
     927 00000031 CAA8          OR        AL,AH                 ; [CPU_ALU] |202| 
     928 00000032 9603!         MOV       @$BLOCKED(_DacaRegs)+3,AL ; [CPU_ALU] |202| 
     929 00000033 761F!         MOVW      DP,#_AdcdResultRegs+16 ; [CPU_ARAU] 
         00000034 0000 
     930                      .dwpsn  file "../resolver.c",line 206,column 2,is_stmt,isa 0
     931 00000035 E2AF!         MOV32     R1H,@$BLOCKED(_AdcdResultRegs)+16 ; [CPU_FPU] |206| 
         00000036 0110 
     932 00000037 761F!         MOVW      DP,#_AdccResultRegs+16 ; [CPU_ARAU] 
         00000038 0000 
     933 00000039 E68D          I16TOF32  R1H,R1H               ; [CPU_FPU] |206| 
         0000003a 0009 
     934                      .dwpsn  file "../resolver.c",line 207,column 2,is_stmt,isa 0
     935 0000003b E2AF!         MOV32     R0H,@$BLOCKED(_AdccResultRegs)+16 ; [CPU_FPU] |207| 
         0000003c 0010 
     936                      .dwpsn  file "../resolver.c",line 206,column 2,is_stmt,isa 0
     937 0000003d E84E          MPYF32    R1H,R1H,#14848        ; [CPU_FPU] |206| 
         0000003e 8009 
     938                      .dwpsn  file "../resolver.c",line 207,column 2,is_stmt,isa 0
     939 0000003f E68D          I16TOF32  R0H,R0H               ; [CPU_FPU] |207| 
         00000040 0000 
     940 00000041 761F-         MOVW      DP,#_rslvrOut+28      ; [CPU_ARAU] 
         00000042 0001 
     941 00000043 E84E          MPYF32    R0H,R0H,#14848        ; [CPU_FPU] |207| 
         00000044 8000 
     942                      .dwpsn  file "../resolver.c",line 206,column 2,is_stmt,isa 0
     943 00000045 E203!         MOV32     @$BLOCKED(_rslvrOut)+28,R1H ; [CPU_FPU] |206| 
         00000046 011C 
     944                      .dwpsn  file "../resolver.c",line 207,column 2,is_stmt,isa 0
     945 00000047 E203!         MOV32     @$BLOCKED(_rslvrOut)+30,R0H ; [CPU_FPU] |207| 
         00000048 001E 
     946                      .dwpsn  file "../resolver.c",line 209,column 2,is_stmt,isa 0
     947              $C$DW$41        .dwtag  DW_TAG_TI_branch
     948                      .dwattr $C$DW$41, DW_AT_low_pc(0x00)
     949                      .dwattr $C$DW$41, DW_AT_name("_resolver_algo_Float")
     950                      .dwattr $C$DW$41, DW_AT_TI_call
     951              
     952 00000049 7640!         LCR       #_resolver_algo_Float ; [CPU_ALU] |209| 
         0000004a 0000 
     953                      ; call occurs [#_resolver_algo_Float] ; [] |209| 
     954 0000004b 5200          CMPB      AL,#0                 ; [CPU_ALU] |209| 
TMS320C2000 Assembler PC v20.2.1 Mon Dec  7 23:59:49 2020

Copyright (c) 1996-2018 Texas Instruments Incorporated
resolver.asm                                                         PAGE   21

     955 0000004c 6122          B         $C$L11,EQ             ; [CPU_ALU] |209| 
     956                      ; branchcc occurs ; [] |209| 
     957 0000004d 761F-         MOVW      DP,#_rslvrIn+2        ; [CPU_ARAU] 
         0000004e 0000 
     958                      .dwpsn  file "../resolver.c",line 213,column 6,is_stmt,isa 0
     959 0000004f 922E!         MOV       AL,@$BLOCKED(_rslvrIn)+2 ; [CPU_ALU] |213| 
     960 00000050 611C          B         $C$L10,EQ             ; [CPU_ALU] |213| 
     961                      ; branchcc occurs ; [] |213| 
     962                      .dwpsn  file "../resolver.c",line 215,column 7,is_stmt,isa 0
     963 00000051 0201          MOVB      ACC,#1                ; [CPU_ALU] |215| 
     964 00000052 5601-         ADDL      @_testCntr,ACC        ; [CPU_ALU] |215| 
         00000053 000E 
     965 00000054 0610-         MOVL      ACC,@_testCntMax      ; [CPU_ALU] |215| 
     966 00000055 0F0E-         CMPL      ACC,@_testCntr        ; [CPU_ALU] |215| 
     967 00000056 6218          B         $C$L11,GT             ; [CPU_ALU] |215| 
     968                      ; branchcc occurs ; [] |215| 
     969                      .dwpsn  file "../resolver.c",line 217,column 8,is_stmt,isa 0
     970              $C$DW$42        .dwtag  DW_TAG_TI_branch
     971                      .dwattr $C$DW$42, DW_AT_low_pc(0x00)
     972                      .dwattr $C$DW$42, DW_AT_name("_derivParamsCal")
     973                      .dwattr $C$DW$42, DW_AT_TI_call
     974              
     975 00000057 7640'         LCR       #_derivParamsCal      ; [CPU_ALU] |217| 
         00000058 0042 
     976                      ; call occurs [#_derivParamsCal] ; [] |217| 
     977                      .dwpsn  file "../resolver.c",line 219,column 9,is_stmt,isa 0
     978 00000059 E801          MOVIZ     R0H,#15897            ; [CPU_FPU] |219| 
         0000005a F0C8 
     979 0000005b E2AF!         MOV32     R1H,@$BLOCKED(_rslvrIn)+8 ; [CPU_FPU] |219| 
         0000005c 0134 
     980 0000005d E80C          MOVXI     R0H,#39322            ; [CPU_FPU] |219| 
         0000005e CCD0 
     981 0000005f E694          CMPF32    R1H,R0H               ; [CPU_FPU] |219| 
         00000060 0001 
     982 00000061 AD14          MOVST0    ZF, NF                ; [CPU_FPU] |219| 
     983 00000062 6503          B         $C$L8,LEQ             ; [CPU_ALU] |219| 
     984                      ; branchcc occurs ; [] |219| 
     985 00000063 E590          ZERO      R0H                   ; [CPU_FPU] |219| 
     986 00000064 6F03          B         $C$L9,UNC             ; [CPU_ALU] |219| 
     987                      ; branch occurs ; [] |219| 
     988 00000065       $C$L8:    
     989 00000065 E2AF-         MOV32     R0H,@_testAngleMax    ; [CPU_FPU] |219| 
         00000066 0012 
     990 00000067       $C$L9:    
     991                      .dwpsn  file "../resolver.c",line 222,column 11,is_stmt,isa 0
     992 00000067 0200          MOVB      ACC,#0                ; [CPU_ALU] |222| 
     993                      .dwpsn  file "../resolver.c",line 219,column 9,is_stmt,isa 0
     994 00000068 E203!         MOV32     @$BLOCKED(_rslvrIn)+8,R0H ; [CPU_FPU] |219| 
         00000069 0034 
     995                      .dwpsn  file "../resolver.c",line 222,column 11,is_stmt,isa 0
     996 0000006a 1E0E-         MOVL      @_testCntr,ACC        ; [CPU_ALU] |222| 
     997 0000006b 6F03          B         $C$L11,UNC            ; [CPU_ALU] |222| 
     998                      ; branch occurs ; [] |222| 
     999 0000006c       $C$L10:    
    1000                      .dwpsn  file "../resolver.c",line 228,column 7,is_stmt,isa 0
TMS320C2000 Assembler PC v20.2.1 Mon Dec  7 23:59:49 2020

Copyright (c) 1996-2018 Texas Instruments Incorporated
resolver.asm                                                         PAGE   22

    1001              $C$DW$43        .dwtag  DW_TAG_TI_branch
    1002                      .dwattr $C$DW$43, DW_AT_low_pc(0x00)
    1003                      .dwattr $C$DW$43, DW_AT_name("_resolver_PostProcess")
    1004                      .dwattr $C$DW$43, DW_AT_TI_call
    1005              
    1006 0000006c 7640'         LCR       #_resolver_PostProcess ; [CPU_ALU] |228| 
         0000006d 0000 
    1007                      ; call occurs [#_resolver_PostProcess] ; [] |228| 
    1008 0000006e       $C$L11:    
    1009 0000006e 761F!         MOVW      DP,#_AdccRegs+4       ; [CPU_ARAU] 
         0000006f 0000 
    1010                      .dwpsn  file "../resolver.c",line 232,column 2,is_stmt,isa 0
    1011 00000070 1A04!         OR        @$BLOCKED(_AdccRegs)+4,#0x0001 ; [CPU_ALU] |232| 
         00000071 0001 
    1012 00000072 FE82          SUBB      SP,#2                 ; [CPU_ARAU] 
    1013                      .dwcfi  cfa_offset, -26
    1014 00000073 761F!         MOVW      DP,#_PieCtrlRegs+1    ; [CPU_ARAU] 
         00000074 0000 
    1015 00000075 E2AF          MOV32     R3H,*--SP             ; [CPU_FPU] 
         00000076 03BE 
    1016                      .dwcfi  cfa_offset, -24
    1017                      .dwcfi  restore_reg, 55
    1018                      .dwpsn  file "../resolver.c",line 233,column 2,is_stmt,isa 0
    1019 00000077 56BF!         MOVB      @$BLOCKED(_PieCtrlRegs)+1,#1,UNC ; [CPU_ALU] |233| 
         00000078 0101 
    1020 00000079 E2AF          MOV32     R2H,*--SP             ; [CPU_FPU] 
         0000007a 02BE 
    1021                      .dwcfi  cfa_offset, -22
    1022                      .dwcfi  restore_reg, 51
    1023 0000007b E2AF          MOV32     R1H,*--SP             ; [CPU_FPU] 
         0000007c 01BE 
    1024                      .dwcfi  cfa_offset, -20
    1025                      .dwcfi  restore_reg, 47
    1026 0000007d E2AF          MOV32     R0H,*--SP             ; [CPU_FPU] 
         0000007e 00BE 
    1027                      .dwcfi  cfa_offset, -18
    1028                      .dwcfi  restore_reg, 43
    1029 0000007f E280          MOV32     STF,*--SP             ; [CPU_FPU] 
         00000080 00BE 
    1030                      .dwcfi  cfa_offset, -16
    1031                      .dwcfi  restore_reg, 40
    1032 00000081 C5BE          MOVL      XAR7,*--SP            ; [CPU_ALU] 
    1033                      .dwcfi  cfa_offset, -14
    1034                      .dwcfi  restore_reg, 18
    1035 00000082 C4BE          MOVL      XAR6,*--SP            ; [CPU_ALU] 
    1036                      .dwcfi  cfa_offset, -12
    1037                      .dwcfi  restore_reg, 16
    1038 00000083 83BE          MOVL      XAR5,*--SP            ; [CPU_ALU] 
    1039                      .dwcfi  cfa_offset, -10
    1040                      .dwcfi  restore_reg, 14
    1041 00000084 8ABE          MOVL      XAR4,*--SP            ; [CPU_ALU] 
    1042                      .dwcfi  cfa_offset, -8
    1043                      .dwcfi  restore_reg, 12
    1044 00000085 87BE          MOVL      XT,*--SP              ; [CPU_ALU] 
    1045                      .dwcfi  cfa_offset, -6
TMS320C2000 Assembler PC v20.2.1 Mon Dec  7 23:59:49 2020

Copyright (c) 1996-2018 Texas Instruments Incorporated
resolver.asm                                                         PAGE   23

    1046                      .dwcfi  restore_reg, 22
    1047                      .dwcfi  restore_reg, 21
    1048 00000086 0003          POP       AR1H:AR0H             ; [CPU_ALU] 
    1049                      .dwcfi  cfa_offset, -4
    1050                      .dwcfi  restore_reg, 5
    1051                      .dwcfi  restore_reg, 7
    1052 00000087 3B30          SETC      INTM, DBGM            ; [CPU_ALU] 
    1053 00000088 FFF1          POP       RB                    ; [CPU_FPU] 
    1054                      .dwcfi  cfa_offset, -2
    1055                      .dwcfi  restore_reg, 74
    1056 00000089 7617          NASP      ; [CPU_ALU] 
    1057              $C$DW$44        .dwtag  DW_TAG_TI_branch
    1058                      .dwattr $C$DW$44, DW_AT_low_pc(0x00)
    1059                      .dwattr $C$DW$44, DW_AT_TI_return
    1060              
    1061 0000008a 7602          IRET      ; [CPU_ALU] 
    1062                      ; return occurs ; [] 
    1063                      .dwattr $C$DW$40, DW_AT_TI_end_file("../resolver.c")
    1064                      .dwattr $C$DW$40, DW_AT_TI_end_line(0xec)
    1065                      .dwattr $C$DW$40, DW_AT_TI_end_column(0x01)
    1066                      .dwendentry
    1067                      .dwendtag $C$DW$40
    1068              
    1069              ;**************************************************************
    1070              ;* UNDEFINED EXTERNAL REFERENCES                              *
    1071              ;**************************************************************
    1072                      .global _resolver_algo_Float
    1073                      .global _DacaRegs
    1074                      .global _AdccResultRegs
    1075                      .global _AdcdResultRegs
    1076                      .global _PieCtrlRegs
    1077                      .global _AdccRegs
    1078              
    1079              ;***************************************************************
    1080              ;* TYPE INFORMATION                                            *
    1081              ;***************************************************************
    1082              
    1083              $C$DW$T$20      .dwtag  DW_TAG_structure_type
    1084                      .dwattr $C$DW$T$20, DW_AT_byte_size(0x14)
    1085              $C$DW$45        .dwtag  DW_TAG_member
    1086                      .dwattr $C$DW$45, DW_AT_type(*$C$DW$T$19)
    1087                      .dwattr $C$DW$45, DW_AT_name("firLag")
    1088                      .dwattr $C$DW$45, DW_AT_TI_symbol_name("_firLag")
    1089                      .dwattr $C$DW$45, DW_AT_data_member_location[DW_OP_plus_uconst 0x0]
    1090                      .dwattr $C$DW$45, DW_AT_accessibility(DW_ACCESS_public)
    1091              
    1092              $C$DW$46        .dwtag  DW_TAG_member
    1093                      .dwattr $C$DW$46, DW_AT_type(*$C$DW$T$19)
    1094                      .dwattr $C$DW$46, DW_AT_name("FIR32")
    1095                      .dwattr $C$DW$46, DW_AT_TI_symbol_name("_FIR32")
    1096                      .dwattr $C$DW$46, DW_AT_data_member_location[DW_OP_plus_uconst 0x1]
    1097                      .dwattr $C$DW$46, DW_AT_accessibility(DW_ACCESS_public)
    1098              
    1099              $C$DW$47        .dwtag  DW_TAG_member
    1100                      .dwattr $C$DW$47, DW_AT_type(*$C$DW$T$19)
TMS320C2000 Assembler PC v20.2.1 Mon Dec  7 23:59:49 2020

Copyright (c) 1996-2018 Texas Instruments Incorporated
resolver.asm                                                         PAGE   24

    1101                      .dwattr $C$DW$47, DW_AT_name("TUNING")
    1102                      .dwattr $C$DW$47, DW_AT_TI_symbol_name("_TUNING")
    1103                      .dwattr $C$DW$47, DW_AT_data_member_location[DW_OP_plus_uconst 0x2]
    1104                      .dwattr $C$DW$47, DW_AT_accessibility(DW_ACCESS_public)
    1105              
    1106              $C$DW$48        .dwtag  DW_TAG_member
    1107                      .dwattr $C$DW$48, DW_AT_type(*$C$DW$T$19)
    1108                      .dwattr $C$DW$48, DW_AT_name("TABLE_LENGTH")
    1109                      .dwattr $C$DW$48, DW_AT_TI_symbol_name("_TABLE_LENGTH")
    1110                      .dwattr $C$DW$48, DW_AT_data_member_location[DW_OP_plus_uconst 0x3]
    1111                      .dwattr $C$DW$48, DW_AT_accessibility(DW_ACCESS_public)
    1112              
    1113              $C$DW$49        .dwtag  DW_TAG_member
    1114                      .dwattr $C$DW$49, DW_AT_type(*$C$DW$T$16)
    1115                      .dwattr $C$DW$49, DW_AT_name("offsetS")
    1116                      .dwattr $C$DW$49, DW_AT_TI_symbol_name("_offsetS")
    1117                      .dwattr $C$DW$49, DW_AT_data_member_location[DW_OP_plus_uconst 0x4]
    1118                      .dwattr $C$DW$49, DW_AT_accessibility(DW_ACCESS_public)
    1119              
    1120              $C$DW$50        .dwtag  DW_TAG_member
    1121                      .dwattr $C$DW$50, DW_AT_type(*$C$DW$T$16)
    1122                      .dwattr $C$DW$50, DW_AT_name("offsetC")
    1123                      .dwattr $C$DW$50, DW_AT_TI_symbol_name("_offsetC")
    1124                      .dwattr $C$DW$50, DW_AT_data_member_location[DW_OP_plus_uconst 0x6]
    1125                      .dwattr $C$DW$50, DW_AT_accessibility(DW_ACCESS_public)
    1126              
    1127              $C$DW$51        .dwtag  DW_TAG_member
    1128                      .dwattr $C$DW$51, DW_AT_type(*$C$DW$T$16)
    1129                      .dwattr $C$DW$51, DW_AT_name("testAngle")
    1130                      .dwattr $C$DW$51, DW_AT_TI_symbol_name("_testAngle")
    1131                      .dwattr $C$DW$51, DW_AT_data_member_location[DW_OP_plus_uconst 0x8]
    1132                      .dwattr $C$DW$51, DW_AT_accessibility(DW_ACCESS_public)
    1133              
    1134              $C$DW$52        .dwtag  DW_TAG_member
    1135                      .dwattr $C$DW$52, DW_AT_type(*$C$DW$T$16)
    1136                      .dwattr $C$DW$52, DW_AT_name("SAMPLING_TIME")
    1137                      .dwattr $C$DW$52, DW_AT_TI_symbol_name("_SAMPLING_TIME")
    1138                      .dwattr $C$DW$52, DW_AT_data_member_location[DW_OP_plus_uconst 0xa]
    1139                      .dwattr $C$DW$52, DW_AT_accessibility(DW_ACCESS_public)
    1140              
    1141              $C$DW$53        .dwtag  DW_TAG_member
    1142                      .dwattr $C$DW$53, DW_AT_type(*$C$DW$T$16)
    1143                      .dwattr $C$DW$53, DW_AT_name("errorWfT")
    1144                      .dwattr $C$DW$53, DW_AT_TI_symbol_name("_errorWfT")
    1145                      .dwattr $C$DW$53, DW_AT_data_member_location[DW_OP_plus_uconst 0xc]
    1146                      .dwattr $C$DW$53, DW_AT_accessibility(DW_ACCESS_public)
    1147              
    1148              $C$DW$54        .dwtag  DW_TAG_member
    1149                      .dwattr $C$DW$54, DW_AT_type(*$C$DW$T$16)
    1150                      .dwattr $C$DW$54, DW_AT_name("picon_K0")
    1151                      .dwattr $C$DW$54, DW_AT_TI_symbol_name("_picon_K0")
    1152                      .dwattr $C$DW$54, DW_AT_data_member_location[DW_OP_plus_uconst 0xe]
    1153                      .dwattr $C$DW$54, DW_AT_accessibility(DW_ACCESS_public)
    1154              
    1155              $C$DW$55        .dwtag  DW_TAG_member
TMS320C2000 Assembler PC v20.2.1 Mon Dec  7 23:59:49 2020

Copyright (c) 1996-2018 Texas Instruments Incorporated
resolver.asm                                                         PAGE   25

    1156                      .dwattr $C$DW$55, DW_AT_type(*$C$DW$T$16)
    1157                      .dwattr $C$DW$55, DW_AT_name("picon_K1")
    1158                      .dwattr $C$DW$55, DW_AT_TI_symbol_name("_picon_K1")
    1159                      .dwattr $C$DW$55, DW_AT_data_member_location[DW_OP_plus_uconst 0x10]
    1160                      .dwattr $C$DW$55, DW_AT_accessibility(DW_ACCESS_public)
    1161              
    1162              $C$DW$56        .dwtag  DW_TAG_member
    1163                      .dwattr $C$DW$56, DW_AT_type(*$C$DW$T$16)
    1164                      .dwattr $C$DW$56, DW_AT_name("rpsMax")
    1165                      .dwattr $C$DW$56, DW_AT_TI_symbol_name("_rpsMax")
    1166                      .dwattr $C$DW$56, DW_AT_data_member_location[DW_OP_plus_uconst 0x12]
    1167                      .dwattr $C$DW$56, DW_AT_accessibility(DW_ACCESS_public)
    1168              
    1169                      .dwendtag $C$DW$T$20
    1170              
    1171              $C$DW$T$223     .dwtag  DW_TAG_typedef
    1172                      .dwattr $C$DW$T$223, DW_AT_name("RESOLVER_INPUT")
    1173                      .dwattr $C$DW$T$223, DW_AT_type(*$C$DW$T$20)
    1174                      .dwattr $C$DW$T$223, DW_AT_language(DW_LANG_C)
    1175              
    1176              
    1177              $C$DW$T$22      .dwtag  DW_TAG_structure_type
    1178                      .dwattr $C$DW$T$22, DW_AT_byte_size(0x22)
    1179              $C$DW$57        .dwtag  DW_TAG_member
    1180                      .dwattr $C$DW$57, DW_AT_type(*$C$DW$T$16)
    1181                      .dwattr $C$DW$57, DW_AT_name("angleRaw")
    1182                      .dwattr $C$DW$57, DW_AT_TI_symbol_name("_angleRaw")
    1183                      .dwattr $C$DW$57, DW_AT_data_member_location[DW_OP_plus_uconst 0x0]
    1184                      .dwattr $C$DW$57, DW_AT_accessibility(DW_ACCESS_public)
    1185              
    1186              $C$DW$58        .dwtag  DW_TAG_member
    1187                      .dwattr $C$DW$58, DW_AT_type(*$C$DW$T$16)
    1188                      .dwattr $C$DW$58, DW_AT_name("angleObs")
    1189                      .dwattr $C$DW$58, DW_AT_TI_symbol_name("_angleObs")
    1190                      .dwattr $C$DW$58, DW_AT_data_member_location[DW_OP_plus_uconst 0x2]
    1191                      .dwattr $C$DW$58, DW_AT_accessibility(DW_ACCESS_public)
    1192              
    1193              $C$DW$59        .dwtag  DW_TAG_member
    1194                      .dwattr $C$DW$59, DW_AT_type(*$C$DW$T$16)
    1195                      .dwattr $C$DW$59, DW_AT_name("angleOut")
    1196                      .dwattr $C$DW$59, DW_AT_TI_symbol_name("_angleOut")
    1197                      .dwattr $C$DW$59, DW_AT_data_member_location[DW_OP_plus_uconst 0x4]
    1198                      .dwattr $C$DW$59, DW_AT_accessibility(DW_ACCESS_public)
    1199              
    1200              $C$DW$60        .dwtag  DW_TAG_member
    1201                      .dwattr $C$DW$60, DW_AT_type(*$C$DW$T$16)
    1202                      .dwattr $C$DW$60, DW_AT_name("rpsObs")
    1203                      .dwattr $C$DW$60, DW_AT_TI_symbol_name("_rpsObs")
    1204                      .dwattr $C$DW$60, DW_AT_data_member_location[DW_OP_plus_uconst 0x6]
    1205                      .dwattr $C$DW$60, DW_AT_accessibility(DW_ACCESS_public)
    1206              
    1207              $C$DW$61        .dwtag  DW_TAG_member
    1208                      .dwattr $C$DW$61, DW_AT_type(*$C$DW$T$16)
    1209                      .dwattr $C$DW$61, DW_AT_name("errorNew")
    1210                      .dwattr $C$DW$61, DW_AT_TI_symbol_name("_errorNew")
TMS320C2000 Assembler PC v20.2.1 Mon Dec  7 23:59:49 2020

Copyright (c) 1996-2018 Texas Instruments Incorporated
resolver.asm                                                         PAGE   26

    1211                      .dwattr $C$DW$61, DW_AT_data_member_location[DW_OP_plus_uconst 0x8]
    1212                      .dwattr $C$DW$61, DW_AT_accessibility(DW_ACCESS_public)
    1213              
    1214              $C$DW$62        .dwtag  DW_TAG_member
    1215                      .dwattr $C$DW$62, DW_AT_type(*$C$DW$T$16)
    1216                      .dwattr $C$DW$62, DW_AT_name("resMag")
    1217                      .dwattr $C$DW$62, DW_AT_TI_symbol_name("_resMag")
    1218                      .dwattr $C$DW$62, DW_AT_data_member_location[DW_OP_plus_uconst 0xa]
    1219                      .dwattr $C$DW$62, DW_AT_accessibility(DW_ACCESS_public)
    1220              
    1221              $C$DW$63        .dwtag  DW_TAG_member
    1222                      .dwattr $C$DW$63, DW_AT_type(*$C$DW$T$16)
    1223                      .dwattr $C$DW$63, DW_AT_name("sinFIRout")
    1224                      .dwattr $C$DW$63, DW_AT_TI_symbol_name("_sinFIRout")
    1225                      .dwattr $C$DW$63, DW_AT_data_member_location[DW_OP_plus_uconst 0xc]
    1226                      .dwattr $C$DW$63, DW_AT_accessibility(DW_ACCESS_public)
    1227              
    1228              $C$DW$64        .dwtag  DW_TAG_member
    1229                      .dwattr $C$DW$64, DW_AT_type(*$C$DW$T$16)
    1230                      .dwattr $C$DW$64, DW_AT_name("cosFIRout")
    1231                      .dwattr $C$DW$64, DW_AT_TI_symbol_name("_cosFIRout")
    1232                      .dwattr $C$DW$64, DW_AT_data_member_location[DW_OP_plus_uconst 0xe]
    1233                      .dwattr $C$DW$64, DW_AT_accessibility(DW_ACCESS_public)
    1234              
    1235              $C$DW$65        .dwtag  DW_TAG_member
    1236                      .dwattr $C$DW$65, DW_AT_type(*$C$DW$T$21)
    1237                      .dwattr $C$DW$65, DW_AT_name("angleRaw20")
    1238                      .dwattr $C$DW$65, DW_AT_TI_symbol_name("_angleRaw20")
    1239                      .dwattr $C$DW$65, DW_AT_data_member_location[DW_OP_plus_uconst 0x10]
    1240                      .dwattr $C$DW$65, DW_AT_accessibility(DW_ACCESS_public)
    1241              
    1242              $C$DW$66        .dwtag  DW_TAG_member
    1243                      .dwattr $C$DW$66, DW_AT_type(*$C$DW$T$21)
    1244                      .dwattr $C$DW$66, DW_AT_name("angleObs20")
    1245                      .dwattr $C$DW$66, DW_AT_TI_symbol_name("_angleObs20")
    1246                      .dwattr $C$DW$66, DW_AT_data_member_location[DW_OP_plus_uconst 0x12]
    1247                      .dwattr $C$DW$66, DW_AT_accessibility(DW_ACCESS_public)
    1248              
    1249              $C$DW$67        .dwtag  DW_TAG_member
    1250                      .dwattr $C$DW$67, DW_AT_type(*$C$DW$T$21)
    1251                      .dwattr $C$DW$67, DW_AT_name("angleOut20")
    1252                      .dwattr $C$DW$67, DW_AT_TI_symbol_name("_angleOut20")
    1253                      .dwattr $C$DW$67, DW_AT_data_member_location[DW_OP_plus_uconst 0x14]
    1254                      .dwattr $C$DW$67, DW_AT_accessibility(DW_ACCESS_public)
    1255              
    1256              $C$DW$68        .dwtag  DW_TAG_member
    1257                      .dwattr $C$DW$68, DW_AT_type(*$C$DW$T$21)
    1258                      .dwattr $C$DW$68, DW_AT_name("rpsObs20")
    1259                      .dwattr $C$DW$68, DW_AT_TI_symbol_name("_rpsObs20")
    1260                      .dwattr $C$DW$68, DW_AT_data_member_location[DW_OP_plus_uconst 0x16]
    1261                      .dwattr $C$DW$68, DW_AT_accessibility(DW_ACCESS_public)
    1262              
    1263              $C$DW$69        .dwtag  DW_TAG_member
    1264                      .dwattr $C$DW$69, DW_AT_type(*$C$DW$T$21)
    1265                      .dwattr $C$DW$69, DW_AT_name("errorNew20")
TMS320C2000 Assembler PC v20.2.1 Mon Dec  7 23:59:49 2020

Copyright (c) 1996-2018 Texas Instruments Incorporated
resolver.asm                                                         PAGE   27

    1266                      .dwattr $C$DW$69, DW_AT_TI_symbol_name("_errorNew20")
    1267                      .dwattr $C$DW$69, DW_AT_data_member_location[DW_OP_plus_uconst 0x18]
    1268                      .dwattr $C$DW$69, DW_AT_accessibility(DW_ACCESS_public)
    1269              
    1270              $C$DW$70        .dwtag  DW_TAG_member
    1271                      .dwattr $C$DW$70, DW_AT_type(*$C$DW$T$21)
    1272                      .dwattr $C$DW$70, DW_AT_name("resMag20")
    1273                      .dwattr $C$DW$70, DW_AT_TI_symbol_name("_resMag20")
    1274                      .dwattr $C$DW$70, DW_AT_data_member_location[DW_OP_plus_uconst 0x1a]
    1275                      .dwattr $C$DW$70, DW_AT_accessibility(DW_ACCESS_public)
    1276              
    1277              $C$DW$71        .dwtag  DW_TAG_member
    1278                      .dwattr $C$DW$71, DW_AT_type(*$C$DW$T$16)
    1279                      .dwattr $C$DW$71, DW_AT_name("sin_input")
    1280                      .dwattr $C$DW$71, DW_AT_TI_symbol_name("_sin_input")
    1281                      .dwattr $C$DW$71, DW_AT_data_member_location[DW_OP_plus_uconst 0x1c]
    1282                      .dwattr $C$DW$71, DW_AT_accessibility(DW_ACCESS_public)
    1283              
    1284              $C$DW$72        .dwtag  DW_TAG_member
    1285                      .dwattr $C$DW$72, DW_AT_type(*$C$DW$T$16)
    1286                      .dwattr $C$DW$72, DW_AT_name("cos_input")
    1287                      .dwattr $C$DW$72, DW_AT_TI_symbol_name("_cos_input")
    1288                      .dwattr $C$DW$72, DW_AT_data_member_location[DW_OP_plus_uconst 0x1e]
    1289                      .dwattr $C$DW$72, DW_AT_accessibility(DW_ACCESS_public)
    1290              
    1291              $C$DW$73        .dwtag  DW_TAG_member
    1292                      .dwattr $C$DW$73, DW_AT_type(*$C$DW$T$19)
    1293                      .dwattr $C$DW$73, DW_AT_name("sineIndex")
    1294                      .dwattr $C$DW$73, DW_AT_TI_symbol_name("_sineIndex")
    1295                      .dwattr $C$DW$73, DW_AT_data_member_location[DW_OP_plus_uconst 0x20]
    1296                      .dwattr $C$DW$73, DW_AT_accessibility(DW_ACCESS_public)
    1297              
    1298                      .dwendtag $C$DW$T$22
    1299              
    1300              $C$DW$T$224     .dwtag  DW_TAG_typedef
    1301                      .dwattr $C$DW$T$224, DW_AT_name("RESOLVER_OUTPUT")
    1302                      .dwattr $C$DW$T$224, DW_AT_type(*$C$DW$T$22)
    1303                      .dwattr $C$DW$T$224, DW_AT_language(DW_LANG_C)
    1304              
    1305              
    1306              $C$DW$T$23      .dwtag  DW_TAG_structure_type
    1307                      .dwattr $C$DW$T$23, DW_AT_name("ADCBURSTCTL_BITS")
    1308                      .dwattr $C$DW$T$23, DW_AT_byte_size(0x01)
    1309              $C$DW$74        .dwtag  DW_TAG_member
    1310                      .dwattr $C$DW$74, DW_AT_type(*$C$DW$T$19)
    1311                      .dwattr $C$DW$74, DW_AT_name("BURSTTRIGSEL")
    1312                      .dwattr $C$DW$74, DW_AT_TI_symbol_name("_BURSTTRIGSEL")
    1313                      .dwattr $C$DW$74, DW_AT_bit_offset(0x0a)
    1314                      .dwattr $C$DW$74, DW_AT_bit_size(0x06)
    1315                      .dwattr $C$DW$74, DW_AT_data_member_location[DW_OP_plus_uconst 0x0]
    1316                      .dwattr $C$DW$74, DW_AT_accessibility(DW_ACCESS_public)
    1317              
    1318              $C$DW$75        .dwtag  DW_TAG_member
    1319                      .dwattr $C$DW$75, DW_AT_type(*$C$DW$T$19)
    1320                      .dwattr $C$DW$75, DW_AT_name("rsvd1")
TMS320C2000 Assembler PC v20.2.1 Mon Dec  7 23:59:49 2020

Copyright (c) 1996-2018 Texas Instruments Incorporated
resolver.asm                                                         PAGE   28

    1321                      .dwattr $C$DW$75, DW_AT_TI_symbol_name("_rsvd1")
    1322                      .dwattr $C$DW$75, DW_AT_bit_offset(0x08)
    1323                      .dwattr $C$DW$75, DW_AT_bit_size(0x02)
    1324                      .dwattr $C$DW$75, DW_AT_data_member_location[DW_OP_plus_uconst 0x0]
    1325                      .dwattr $C$DW$75, DW_AT_accessibility(DW_ACCESS_public)
    1326              
    1327              $C$DW$76        .dwtag  DW_TAG_member
    1328                      .dwattr $C$DW$76, DW_AT_type(*$C$DW$T$19)
    1329                      .dwattr $C$DW$76, DW_AT_name("BURSTSIZE")
    1330                      .dwattr $C$DW$76, DW_AT_TI_symbol_name("_BURSTSIZE")
    1331                      .dwattr $C$DW$76, DW_AT_bit_offset(0x04)
    1332                      .dwattr $C$DW$76, DW_AT_bit_size(0x04)
    1333                      .dwattr $C$DW$76, DW_AT_data_member_location[DW_OP_plus_uconst 0x0]
    1334                      .dwattr $C$DW$76, DW_AT_accessibility(DW_ACCESS_public)
    1335              
    1336              $C$DW$77        .dwtag  DW_TAG_member
    1337                      .dwattr $C$DW$77, DW_AT_type(*$C$DW$T$19)
    1338                      .dwattr $C$DW$77, DW_AT_name("rsvd2")
    1339                      .dwattr $C$DW$77, DW_AT_TI_symbol_name("_rsvd2")
    1340                      .dwattr $C$DW$77, DW_AT_bit_offset(0x01)
    1341                      .dwattr $C$DW$77, DW_AT_bit_size(0x03)
    1342                      .dwattr $C$DW$77, DW_AT_data_member_location[DW_OP_plus_uconst 0x0]
    1343                      .dwattr $C$DW$77, DW_AT_accessibility(DW_ACCESS_public)
    1344              
    1345              $C$DW$78        .dwtag  DW_TAG_member
    1346                      .dwattr $C$DW$78, DW_AT_type(*$C$DW$T$19)
    1347                      .dwattr $C$DW$78, DW_AT_name("BURSTEN")
    1348                      .dwattr $C$DW$78, DW_AT_TI_symbol_name("_BURSTEN")
    1349                      .dwattr $C$DW$78, DW_AT_bit_offset(0x00)
    1350                      .dwattr $C$DW$78, DW_AT_bit_size(0x01)
    1351                      .dwattr $C$DW$78, DW_AT_data_member_location[DW_OP_plus_uconst 0x0]
    1352                      .dwattr $C$DW$78, DW_AT_accessibility(DW_ACCESS_public)
    1353              
    1354                      .dwendtag $C$DW$T$23
    1355              
    1356              
    1357              $C$DW$T$24      .dwtag  DW_TAG_union_type
    1358                      .dwattr $C$DW$T$24, DW_AT_name("ADCBURSTCTL_REG")
    1359                      .dwattr $C$DW$T$24, DW_AT_byte_size(0x01)
    1360              $C$DW$79        .dwtag  DW_TAG_member
    1361                      .dwattr $C$DW$79, DW_AT_type(*$C$DW$T$19)
    1362                      .dwattr $C$DW$79, DW_AT_name("all")
    1363                      .dwattr $C$DW$79, DW_AT_TI_symbol_name("_all")
    1364                      .dwattr $C$DW$79, DW_AT_data_member_location[DW_OP_plus_uconst 0x0]
    1365                      .dwattr $C$DW$79, DW_AT_accessibility(DW_ACCESS_public)
    1366              
    1367              $C$DW$80        .dwtag  DW_TAG_member
    1368                      .dwattr $C$DW$80, DW_AT_type(*$C$DW$T$23)
    1369                      .dwattr $C$DW$80, DW_AT_name("bit")
    1370                      .dwattr $C$DW$80, DW_AT_TI_symbol_name("_bit")
    1371                      .dwattr $C$DW$80, DW_AT_data_member_location[DW_OP_plus_uconst 0x0]
    1372                      .dwattr $C$DW$80, DW_AT_accessibility(DW_ACCESS_public)
    1373              
    1374                      .dwendtag $C$DW$T$24
    1375              
TMS320C2000 Assembler PC v20.2.1 Mon Dec  7 23:59:49 2020

Copyright (c) 1996-2018 Texas Instruments Incorporated
resolver.asm                                                         PAGE   29

    1376              
    1377              $C$DW$T$25      .dwtag  DW_TAG_structure_type
    1378                      .dwattr $C$DW$T$25, DW_AT_name("ADCCOUNTER_BITS")
    1379                      .dwattr $C$DW$T$25, DW_AT_byte_size(0x01)
    1380              $C$DW$81        .dwtag  DW_TAG_member
    1381                      .dwattr $C$DW$81, DW_AT_type(*$C$DW$T$19)
    1382                      .dwattr $C$DW$81, DW_AT_name("FREECOUNT")
    1383                      .dwattr $C$DW$81, DW_AT_TI_symbol_name("_FREECOUNT")
    1384                      .dwattr $C$DW$81, DW_AT_bit_offset(0x04)
    1385                      .dwattr $C$DW$81, DW_AT_bit_size(0x0c)
    1386                      .dwattr $C$DW$81, DW_AT_data_member_location[DW_OP_plus_uconst 0x0]
    1387                      .dwattr $C$DW$81, DW_AT_accessibility(DW_ACCESS_public)
    1388              
    1389              $C$DW$82        .dwtag  DW_TAG_member
    1390                      .dwattr $C$DW$82, DW_AT_type(*$C$DW$T$19)
    1391                      .dwattr $C$DW$82, DW_AT_name("rsvd1")
    1392                      .dwattr $C$DW$82, DW_AT_TI_symbol_name("_rsvd1")
    1393                      .dwattr $C$DW$82, DW_AT_bit_offset(0x00)
    1394                      .dwattr $C$DW$82, DW_AT_bit_size(0x04)
    1395                      .dwattr $C$DW$82, DW_AT_data_member_location[DW_OP_plus_uconst 0x0]
    1396                      .dwattr $C$DW$82, DW_AT_accessibility(DW_ACCESS_public)
    1397              
    1398                      .dwendtag $C$DW$T$25
    1399              
    1400              
    1401              $C$DW$T$26      .dwtag  DW_TAG_union_type
    1402                      .dwattr $C$DW$T$26, DW_AT_name("ADCCOUNTER_REG")
    1403                      .dwattr $C$DW$T$26, DW_AT_byte_size(0x01)
    1404              $C$DW$83        .dwtag  DW_TAG_member
    1405                      .dwattr $C$DW$83, DW_AT_type(*$C$DW$T$19)
    1406                      .dwattr $C$DW$83, DW_AT_name("all")
    1407                      .dwattr $C$DW$83, DW_AT_TI_symbol_name("_all")
    1408                      .dwattr $C$DW$83, DW_AT_data_member_location[DW_OP_plus_uconst 0x0]
    1409                      .dwattr $C$DW$83, DW_AT_accessibility(DW_ACCESS_public)
    1410              
    1411              $C$DW$84        .dwtag  DW_TAG_member
    1412                      .dwattr $C$DW$84, DW_AT_type(*$C$DW$T$25)
    1413                      .dwattr $C$DW$84, DW_AT_name("bit")
    1414                      .dwattr $C$DW$84, DW_AT_TI_symbol_name("_bit")
    1415                      .dwattr $C$DW$84, DW_AT_data_member_location[DW_OP_plus_uconst 0x0]
    1416                      .dwattr $C$DW$84, DW_AT_accessibility(DW_ACCESS_public)
    1417              
    1418                      .dwendtag $C$DW$T$26
    1419              
    1420              
    1421              $C$DW$T$27      .dwtag  DW_TAG_structure_type
    1422                      .dwattr $C$DW$T$27, DW_AT_name("ADCCTL1_BITS")
    1423                      .dwattr $C$DW$T$27, DW_AT_byte_size(0x01)
    1424              $C$DW$85        .dwtag  DW_TAG_member
    1425                      .dwattr $C$DW$85, DW_AT_type(*$C$DW$T$19)
    1426                      .dwattr $C$DW$85, DW_AT_name("rsvd1")
    1427                      .dwattr $C$DW$85, DW_AT_TI_symbol_name("_rsvd1")
    1428                      .dwattr $C$DW$85, DW_AT_bit_offset(0x0e)
    1429                      .dwattr $C$DW$85, DW_AT_bit_size(0x02)
    1430                      .dwattr $C$DW$85, DW_AT_data_member_location[DW_OP_plus_uconst 0x0]
TMS320C2000 Assembler PC v20.2.1 Mon Dec  7 23:59:49 2020

Copyright (c) 1996-2018 Texas Instruments Incorporated
resolver.asm                                                         PAGE   30

    1431                      .dwattr $C$DW$85, DW_AT_accessibility(DW_ACCESS_public)
    1432              
    1433              $C$DW$86        .dwtag  DW_TAG_member
    1434                      .dwattr $C$DW$86, DW_AT_type(*$C$DW$T$19)
    1435                      .dwattr $C$DW$86, DW_AT_name("INTPULSEPOS")
    1436                      .dwattr $C$DW$86, DW_AT_TI_symbol_name("_INTPULSEPOS")
    1437                      .dwattr $C$DW$86, DW_AT_bit_offset(0x0d)
    1438                      .dwattr $C$DW$86, DW_AT_bit_size(0x01)
    1439                      .dwattr $C$DW$86, DW_AT_data_member_location[DW_OP_plus_uconst 0x0]
    1440                      .dwattr $C$DW$86, DW_AT_accessibility(DW_ACCESS_public)
    1441              
    1442              $C$DW$87        .dwtag  DW_TAG_member
    1443                      .dwattr $C$DW$87, DW_AT_type(*$C$DW$T$19)
    1444                      .dwattr $C$DW$87, DW_AT_name("rsvd2")
    1445                      .dwattr $C$DW$87, DW_AT_TI_symbol_name("_rsvd2")
    1446                      .dwattr $C$DW$87, DW_AT_bit_offset(0x09)
    1447                      .dwattr $C$DW$87, DW_AT_bit_size(0x04)
    1448                      .dwattr $C$DW$87, DW_AT_data_member_location[DW_OP_plus_uconst 0x0]
    1449                      .dwattr $C$DW$87, DW_AT_accessibility(DW_ACCESS_public)
    1450              
    1451              $C$DW$88        .dwtag  DW_TAG_member
    1452                      .dwattr $C$DW$88, DW_AT_type(*$C$DW$T$19)
    1453                      .dwattr $C$DW$88, DW_AT_name("ADCPWDNZ")
    1454                      .dwattr $C$DW$88, DW_AT_TI_symbol_name("_ADCPWDNZ")
    1455                      .dwattr $C$DW$88, DW_AT_bit_offset(0x08)
    1456                      .dwattr $C$DW$88, DW_AT_bit_size(0x01)
    1457                      .dwattr $C$DW$88, DW_AT_data_member_location[DW_OP_plus_uconst 0x0]
    1458                      .dwattr $C$DW$88, DW_AT_accessibility(DW_ACCESS_public)
    1459              
    1460              $C$DW$89        .dwtag  DW_TAG_member
    1461                      .dwattr $C$DW$89, DW_AT_type(*$C$DW$T$19)
    1462                      .dwattr $C$DW$89, DW_AT_name("ADCBSYCHN")
    1463                      .dwattr $C$DW$89, DW_AT_TI_symbol_name("_ADCBSYCHN")
    1464                      .dwattr $C$DW$89, DW_AT_bit_offset(0x04)
    1465                      .dwattr $C$DW$89, DW_AT_bit_size(0x04)
    1466                      .dwattr $C$DW$89, DW_AT_data_member_location[DW_OP_plus_uconst 0x0]
    1467                      .dwattr $C$DW$89, DW_AT_accessibility(DW_ACCESS_public)
    1468              
    1469              $C$DW$90        .dwtag  DW_TAG_member
    1470                      .dwattr $C$DW$90, DW_AT_type(*$C$DW$T$19)
    1471                      .dwattr $C$DW$90, DW_AT_name("rsvd3")
    1472                      .dwattr $C$DW$90, DW_AT_TI_symbol_name("_rsvd3")
    1473                      .dwattr $C$DW$90, DW_AT_bit_offset(0x03)
    1474                      .dwattr $C$DW$90, DW_AT_bit_size(0x01)
    1475                      .dwattr $C$DW$90, DW_AT_data_member_location[DW_OP_plus_uconst 0x0]
    1476                      .dwattr $C$DW$90, DW_AT_accessibility(DW_ACCESS_public)
    1477              
    1478              $C$DW$91        .dwtag  DW_TAG_member
    1479                      .dwattr $C$DW$91, DW_AT_type(*$C$DW$T$19)
    1480                      .dwattr $C$DW$91, DW_AT_name("ADCBSY")
    1481                      .dwattr $C$DW$91, DW_AT_TI_symbol_name("_ADCBSY")
    1482                      .dwattr $C$DW$91, DW_AT_bit_offset(0x02)
    1483                      .dwattr $C$DW$91, DW_AT_bit_size(0x01)
    1484                      .dwattr $C$DW$91, DW_AT_data_member_location[DW_OP_plus_uconst 0x0]
    1485                      .dwattr $C$DW$91, DW_AT_accessibility(DW_ACCESS_public)
TMS320C2000 Assembler PC v20.2.1 Mon Dec  7 23:59:49 2020

Copyright (c) 1996-2018 Texas Instruments Incorporated
resolver.asm                                                         PAGE   31

    1486              
    1487              $C$DW$92        .dwtag  DW_TAG_member
    1488                      .dwattr $C$DW$92, DW_AT_type(*$C$DW$T$19)
    1489                      .dwattr $C$DW$92, DW_AT_name("rsvd4")
    1490                      .dwattr $C$DW$92, DW_AT_TI_symbol_name("_rsvd4")
    1491                      .dwattr $C$DW$92, DW_AT_bit_offset(0x00)
    1492                      .dwattr $C$DW$92, DW_AT_bit_size(0x02)
    1493                      .dwattr $C$DW$92, DW_AT_data_member_location[DW_OP_plus_uconst 0x0]
    1494                      .dwattr $C$DW$92, DW_AT_accessibility(DW_ACCESS_public)
    1495              
    1496                      .dwendtag $C$DW$T$27
    1497              
    1498              
    1499              $C$DW$T$28      .dwtag  DW_TAG_union_type
    1500                      .dwattr $C$DW$T$28, DW_AT_name("ADCCTL1_REG")
    1501                      .dwattr $C$DW$T$28, DW_AT_byte_size(0x01)
    1502              $C$DW$93        .dwtag  DW_TAG_member
    1503                      .dwattr $C$DW$93, DW_AT_type(*$C$DW$T$19)
    1504                      .dwattr $C$DW$93, DW_AT_name("all")
    1505                      .dwattr $C$DW$93, DW_AT_TI_symbol_name("_all")
    1506                      .dwattr $C$DW$93, DW_AT_data_member_location[DW_OP_plus_uconst 0x0]
    1507                      .dwattr $C$DW$93, DW_AT_accessibility(DW_ACCESS_public)
    1508              
    1509              $C$DW$94        .dwtag  DW_TAG_member
    1510                      .dwattr $C$DW$94, DW_AT_type(*$C$DW$T$27)
    1511                      .dwattr $C$DW$94, DW_AT_name("bit")
    1512                      .dwattr $C$DW$94, DW_AT_TI_symbol_name("_bit")
    1513                      .dwattr $C$DW$94, DW_AT_data_member_location[DW_OP_plus_uconst 0x0]
    1514                      .dwattr $C$DW$94, DW_AT_accessibility(DW_ACCESS_public)
    1515              
    1516                      .dwendtag $C$DW$T$28
    1517              
    1518              
    1519              $C$DW$T$29      .dwtag  DW_TAG_structure_type
    1520                      .dwattr $C$DW$T$29, DW_AT_name("ADCCTL2_BITS")
    1521                      .dwattr $C$DW$T$29, DW_AT_byte_size(0x01)
    1522              $C$DW$95        .dwtag  DW_TAG_member
    1523                      .dwattr $C$DW$95, DW_AT_type(*$C$DW$T$19)
    1524                      .dwattr $C$DW$95, DW_AT_name("PRESCALE")
    1525                      .dwattr $C$DW$95, DW_AT_TI_symbol_name("_PRESCALE")
    1526                      .dwattr $C$DW$95, DW_AT_bit_offset(0x0c)
    1527                      .dwattr $C$DW$95, DW_AT_bit_size(0x04)
    1528                      .dwattr $C$DW$95, DW_AT_data_member_location[DW_OP_plus_uconst 0x0]
    1529                      .dwattr $C$DW$95, DW_AT_accessibility(DW_ACCESS_public)
    1530              
    1531              $C$DW$96        .dwtag  DW_TAG_member
    1532                      .dwattr $C$DW$96, DW_AT_type(*$C$DW$T$19)
    1533                      .dwattr $C$DW$96, DW_AT_name("rsvd1")
    1534                      .dwattr $C$DW$96, DW_AT_TI_symbol_name("_rsvd1")
    1535                      .dwattr $C$DW$96, DW_AT_bit_offset(0x0a)
    1536                      .dwattr $C$DW$96, DW_AT_bit_size(0x02)
    1537                      .dwattr $C$DW$96, DW_AT_data_member_location[DW_OP_plus_uconst 0x0]
    1538                      .dwattr $C$DW$96, DW_AT_accessibility(DW_ACCESS_public)
    1539              
    1540              $C$DW$97        .dwtag  DW_TAG_member
TMS320C2000 Assembler PC v20.2.1 Mon Dec  7 23:59:49 2020

Copyright (c) 1996-2018 Texas Instruments Incorporated
resolver.asm                                                         PAGE   32

    1541                      .dwattr $C$DW$97, DW_AT_type(*$C$DW$T$19)
    1542                      .dwattr $C$DW$97, DW_AT_name("RESOLUTION")
    1543                      .dwattr $C$DW$97, DW_AT_TI_symbol_name("_RESOLUTION")
    1544                      .dwattr $C$DW$97, DW_AT_bit_offset(0x09)
    1545                      .dwattr $C$DW$97, DW_AT_bit_size(0x01)
    1546                      .dwattr $C$DW$97, DW_AT_data_member_location[DW_OP_plus_uconst 0x0]
    1547                      .dwattr $C$DW$97, DW_AT_accessibility(DW_ACCESS_public)
    1548              
    1549              $C$DW$98        .dwtag  DW_TAG_member
    1550                      .dwattr $C$DW$98, DW_AT_type(*$C$DW$T$19)
    1551                      .dwattr $C$DW$98, DW_AT_name("SIGNALMODE")
    1552                      .dwattr $C$DW$98, DW_AT_TI_symbol_name("_SIGNALMODE")
    1553                      .dwattr $C$DW$98, DW_AT_bit_offset(0x08)
    1554                      .dwattr $C$DW$98, DW_AT_bit_size(0x01)
    1555                      .dwattr $C$DW$98, DW_AT_data_member_location[DW_OP_plus_uconst 0x0]
    1556                      .dwattr $C$DW$98, DW_AT_accessibility(DW_ACCESS_public)
    1557              
    1558              $C$DW$99        .dwtag  DW_TAG_member
    1559                      .dwattr $C$DW$99, DW_AT_type(*$C$DW$T$19)
    1560                      .dwattr $C$DW$99, DW_AT_name("rsvd2")
    1561                      .dwattr $C$DW$99, DW_AT_TI_symbol_name("_rsvd2")
    1562                      .dwattr $C$DW$99, DW_AT_bit_offset(0x03)
    1563                      .dwattr $C$DW$99, DW_AT_bit_size(0x05)
    1564                      .dwattr $C$DW$99, DW_AT_data_member_location[DW_OP_plus_uconst 0x0]
    1565                      .dwattr $C$DW$99, DW_AT_accessibility(DW_ACCESS_public)
    1566              
    1567              $C$DW$100       .dwtag  DW_TAG_member
    1568                      .dwattr $C$DW$100, DW_AT_type(*$C$DW$T$19)
    1569                      .dwattr $C$DW$100, DW_AT_name("rsvd3")
    1570                      .dwattr $C$DW$100, DW_AT_TI_symbol_name("_rsvd3")
    1571                      .dwattr $C$DW$100, DW_AT_bit_offset(0x00)
    1572                      .dwattr $C$DW$100, DW_AT_bit_size(0x03)
    1573                      .dwattr $C$DW$100, DW_AT_data_member_location[DW_OP_plus_uconst 0x0]
    1574                      .dwattr $C$DW$100, DW_AT_accessibility(DW_ACCESS_public)
    1575              
    1576                      .dwendtag $C$DW$T$29
    1577              
    1578              
    1579              $C$DW$T$30      .dwtag  DW_TAG_union_type
    1580                      .dwattr $C$DW$T$30, DW_AT_name("ADCCTL2_REG")
    1581                      .dwattr $C$DW$T$30, DW_AT_byte_size(0x01)
    1582              $C$DW$101       .dwtag  DW_TAG_member
    1583                      .dwattr $C$DW$101, DW_AT_type(*$C$DW$T$19)
    1584                      .dwattr $C$DW$101, DW_AT_name("all")
    1585                      .dwattr $C$DW$101, DW_AT_TI_symbol_name("_all")
    1586                      .dwattr $C$DW$101, DW_AT_data_member_location[DW_OP_plus_uconst 0x0]
    1587                      .dwattr $C$DW$101, DW_AT_accessibility(DW_ACCESS_public)
    1588              
    1589              $C$DW$102       .dwtag  DW_TAG_member
    1590                      .dwattr $C$DW$102, DW_AT_type(*$C$DW$T$29)
    1591                      .dwattr $C$DW$102, DW_AT_name("bit")
    1592                      .dwattr $C$DW$102, DW_AT_TI_symbol_name("_bit")
    1593                      .dwattr $C$DW$102, DW_AT_data_member_location[DW_OP_plus_uconst 0x0]
    1594                      .dwattr $C$DW$102, DW_AT_accessibility(DW_ACCESS_public)
    1595              
TMS320C2000 Assembler PC v20.2.1 Mon Dec  7 23:59:49 2020

Copyright (c) 1996-2018 Texas Instruments Incorporated
resolver.asm                                                         PAGE   33

    1596                      .dwendtag $C$DW$T$30
    1597              
    1598              
    1599              $C$DW$T$31      .dwtag  DW_TAG_structure_type
    1600                      .dwattr $C$DW$T$31, DW_AT_name("ADCEVTCLR_BITS")
    1601                      .dwattr $C$DW$T$31, DW_AT_byte_size(0x01)
    1602              $C$DW$103       .dwtag  DW_TAG_member
    1603                      .dwattr $C$DW$103, DW_AT_type(*$C$DW$T$19)
    1604                      .dwattr $C$DW$103, DW_AT_name("PPB1TRIPHI")
    1605                      .dwattr $C$DW$103, DW_AT_TI_symbol_name("_PPB1TRIPHI")
    1606                      .dwattr $C$DW$103, DW_AT_bit_offset(0x0f)
    1607                      .dwattr $C$DW$103, DW_AT_bit_size(0x01)
    1608                      .dwattr $C$DW$103, DW_AT_data_member_location[DW_OP_plus_uconst 0x0]
    1609                      .dwattr $C$DW$103, DW_AT_accessibility(DW_ACCESS_public)
    1610              
    1611              $C$DW$104       .dwtag  DW_TAG_member
    1612                      .dwattr $C$DW$104, DW_AT_type(*$C$DW$T$19)
    1613                      .dwattr $C$DW$104, DW_AT_name("PPB1TRIPLO")
    1614                      .dwattr $C$DW$104, DW_AT_TI_symbol_name("_PPB1TRIPLO")
    1615                      .dwattr $C$DW$104, DW_AT_bit_offset(0x0e)
    1616                      .dwattr $C$DW$104, DW_AT_bit_size(0x01)
    1617                      .dwattr $C$DW$104, DW_AT_data_member_location[DW_OP_plus_uconst 0x0]
    1618                      .dwattr $C$DW$104, DW_AT_accessibility(DW_ACCESS_public)
    1619              
    1620              $C$DW$105       .dwtag  DW_TAG_member
    1621                      .dwattr $C$DW$105, DW_AT_type(*$C$DW$T$19)
    1622                      .dwattr $C$DW$105, DW_AT_name("PPB1ZERO")
    1623                      .dwattr $C$DW$105, DW_AT_TI_symbol_name("_PPB1ZERO")
    1624                      .dwattr $C$DW$105, DW_AT_bit_offset(0x0d)
    1625                      .dwattr $C$DW$105, DW_AT_bit_size(0x01)
    1626                      .dwattr $C$DW$105, DW_AT_data_member_location[DW_OP_plus_uconst 0x0]
    1627                      .dwattr $C$DW$105, DW_AT_accessibility(DW_ACCESS_public)
    1628              
    1629              $C$DW$106       .dwtag  DW_TAG_member
    1630                      .dwattr $C$DW$106, DW_AT_type(*$C$DW$T$19)
    1631                      .dwattr $C$DW$106, DW_AT_name("rsvd1")
    1632                      .dwattr $C$DW$106, DW_AT_TI_symbol_name("_rsvd1")
    1633                      .dwattr $C$DW$106, DW_AT_bit_offset(0x0c)
    1634                      .dwattr $C$DW$106, DW_AT_bit_size(0x01)
    1635                      .dwattr $C$DW$106, DW_AT_data_member_location[DW_OP_plus_uconst 0x0]
    1636                      .dwattr $C$DW$106, DW_AT_accessibility(DW_ACCESS_public)
    1637              
    1638              $C$DW$107       .dwtag  DW_TAG_member
    1639                      .dwattr $C$DW$107, DW_AT_type(*$C$DW$T$19)
    1640                      .dwattr $C$DW$107, DW_AT_name("PPB2TRIPHI")
    1641                      .dwattr $C$DW$107, DW_AT_TI_symbol_name("_PPB2TRIPHI")
    1642                      .dwattr $C$DW$107, DW_AT_bit_offset(0x0b)
    1643                      .dwattr $C$DW$107, DW_AT_bit_size(0x01)
    1644                      .dwattr $C$DW$107, DW_AT_data_member_location[DW_OP_plus_uconst 0x0]
    1645                      .dwattr $C$DW$107, DW_AT_accessibility(DW_ACCESS_public)
    1646              
    1647              $C$DW$108       .dwtag  DW_TAG_member
    1648                      .dwattr $C$DW$108, DW_AT_type(*$C$DW$T$19)
    1649                      .dwattr $C$DW$108, DW_AT_name("PPB2TRIPLO")
    1650                      .dwattr $C$DW$108, DW_AT_TI_symbol_name("_PPB2TRIPLO")
TMS320C2000 Assembler PC v20.2.1 Mon Dec  7 23:59:49 2020

Copyright (c) 1996-2018 Texas Instruments Incorporated
resolver.asm                                                         PAGE   34

    1651                      .dwattr $C$DW$108, DW_AT_bit_offset(0x0a)
    1652                      .dwattr $C$DW$108, DW_AT_bit_size(0x01)
    1653                      .dwattr $C$DW$108, DW_AT_data_member_location[DW_OP_plus_uconst 0x0]
    1654                      .dwattr $C$DW$108, DW_AT_accessibility(DW_ACCESS_public)
    1655              
    1656              $C$DW$109       .dwtag  DW_TAG_member
    1657                      .dwattr $C$DW$109, DW_AT_type(*$C$DW$T$19)
    1658                      .dwattr $C$DW$109, DW_AT_name("PPB2ZERO")
    1659                      .dwattr $C$DW$109, DW_AT_TI_symbol_name("_PPB2ZERO")
    1660                      .dwattr $C$DW$109, DW_AT_bit_offset(0x09)
    1661                      .dwattr $C$DW$109, DW_AT_bit_size(0x01)
    1662                      .dwattr $C$DW$109, DW_AT_data_member_location[DW_OP_plus_uconst 0x0]
    1663                      .dwattr $C$DW$109, DW_AT_accessibility(DW_ACCESS_public)
    1664              
    1665              $C$DW$110       .dwtag  DW_TAG_member
    1666                      .dwattr $C$DW$110, DW_AT_type(*$C$DW$T$19)
    1667                      .dwattr $C$DW$110, DW_AT_name("rsvd2")
    1668                      .dwattr $C$DW$110, DW_AT_TI_symbol_name("_rsvd2")
    1669                      .dwattr $C$DW$110, DW_AT_bit_offset(0x08)
    1670                      .dwattr $C$DW$110, DW_AT_bit_size(0x01)
    1671                      .dwattr $C$DW$110, DW_AT_data_member_location[DW_OP_plus_uconst 0x0]
    1672                      .dwattr $C$DW$110, DW_AT_accessibility(DW_ACCESS_public)
    1673              
    1674              $C$DW$111       .dwtag  DW_TAG_member
    1675                      .dwattr $C$DW$111, DW_AT_type(*$C$DW$T$19)
    1676                      .dwattr $C$DW$111, DW_AT_name("PPB3TRIPHI")
    1677                      .dwattr $C$DW$111, DW_AT_TI_symbol_name("_PPB3TRIPHI")
    1678                      .dwattr $C$DW$111, DW_AT_bit_offset(0x07)
    1679                      .dwattr $C$DW$111, DW_AT_bit_size(0x01)
    1680                      .dwattr $C$DW$111, DW_AT_data_member_location[DW_OP_plus_uconst 0x0]
    1681                      .dwattr $C$DW$111, DW_AT_accessibility(DW_ACCESS_public)
    1682              
    1683              $C$DW$112       .dwtag  DW_TAG_member
    1684                      .dwattr $C$DW$112, DW_AT_type(*$C$DW$T$19)
    1685                      .dwattr $C$DW$112, DW_AT_name("PPB3TRIPLO")
    1686                      .dwattr $C$DW$112, DW_AT_TI_symbol_name("_PPB3TRIPLO")
    1687                      .dwattr $C$DW$112, DW_AT_bit_offset(0x06)
    1688                      .dwattr $C$DW$112, DW_AT_bit_size(0x01)
    1689                      .dwattr $C$DW$112, DW_AT_data_member_location[DW_OP_plus_uconst 0x0]
    1690                      .dwattr $C$DW$112, DW_AT_accessibility(DW_ACCESS_public)
    1691              
    1692              $C$DW$113       .dwtag  DW_TAG_member
    1693                      .dwattr $C$DW$113, DW_AT_type(*$C$DW$T$19)
    1694                      .dwattr $C$DW$113, DW_AT_name("PPB3ZERO")
    1695                      .dwattr $C$DW$113, DW_AT_TI_symbol_name("_PPB3ZERO")
    1696                      .dwattr $C$DW$113, DW_AT_bit_offset(0x05)
    1697                      .dwattr $C$DW$113, DW_AT_bit_size(0x01)
    1698                      .dwattr $C$DW$113, DW_AT_data_member_location[DW_OP_plus_uconst 0x0]
    1699                      .dwattr $C$DW$113, DW_AT_accessibility(DW_ACCESS_public)
    1700              
    1701              $C$DW$114       .dwtag  DW_TAG_member
    1702                      .dwattr $C$DW$114, DW_AT_type(*$C$DW$T$19)
    1703                      .dwattr $C$DW$114, DW_AT_name("rsvd3")
    1704                      .dwattr $C$DW$114, DW_AT_TI_symbol_name("_rsvd3")
    1705                      .dwattr $C$DW$114, DW_AT_bit_offset(0x04)
TMS320C2000 Assembler PC v20.2.1 Mon Dec  7 23:59:49 2020

Copyright (c) 1996-2018 Texas Instruments Incorporated
resolver.asm                                                         PAGE   35

    1706                      .dwattr $C$DW$114, DW_AT_bit_size(0x01)
    1707                      .dwattr $C$DW$114, DW_AT_data_member_location[DW_OP_plus_uconst 0x0]
    1708                      .dwattr $C$DW$114, DW_AT_accessibility(DW_ACCESS_public)
    1709              
    1710              $C$DW$115       .dwtag  DW_TAG_member
    1711                      .dwattr $C$DW$115, DW_AT_type(*$C$DW$T$19)
    1712                      .dwattr $C$DW$115, DW_AT_name("PPB4TRIPHI")
    1713                      .dwattr $C$DW$115, DW_AT_TI_symbol_name("_PPB4TRIPHI")
    1714                      .dwattr $C$DW$115, DW_AT_bit_offset(0x03)
    1715                      .dwattr $C$DW$115, DW_AT_bit_size(0x01)
    1716                      .dwattr $C$DW$115, DW_AT_data_member_location[DW_OP_plus_uconst 0x0]
    1717                      .dwattr $C$DW$115, DW_AT_accessibility(DW_ACCESS_public)
    1718              
    1719              $C$DW$116       .dwtag  DW_TAG_member
    1720                      .dwattr $C$DW$116, DW_AT_type(*$C$DW$T$19)
    1721                      .dwattr $C$DW$116, DW_AT_name("PPB4TRIPLO")
    1722                      .dwattr $C$DW$116, DW_AT_TI_symbol_name("_PPB4TRIPLO")
    1723                      .dwattr $C$DW$116, DW_AT_bit_offset(0x02)
    1724                      .dwattr $C$DW$116, DW_AT_bit_size(0x01)
    1725                      .dwattr $C$DW$116, DW_AT_data_member_location[DW_OP_plus_uconst 0x0]
    1726                      .dwattr $C$DW$116, DW_AT_accessibility(DW_ACCESS_public)
    1727              
    1728              $C$DW$117       .dwtag  DW_TAG_member
    1729                      .dwattr $C$DW$117, DW_AT_type(*$C$DW$T$19)
    1730                      .dwattr $C$DW$117, DW_AT_name("PPB4ZERO")
    1731                      .dwattr $C$DW$117, DW_AT_TI_symbol_name("_PPB4ZERO")
    1732                      .dwattr $C$DW$117, DW_AT_bit_offset(0x01)
    1733                      .dwattr $C$DW$117, DW_AT_bit_size(0x01)
    1734                      .dwattr $C$DW$117, DW_AT_data_member_location[DW_OP_plus_uconst 0x0]
    1735                      .dwattr $C$DW$117, DW_AT_accessibility(DW_ACCESS_public)
    1736              
    1737              $C$DW$118       .dwtag  DW_TAG_member
    1738                      .dwattr $C$DW$118, DW_AT_type(*$C$DW$T$19)
    1739                      .dwattr $C$DW$118, DW_AT_name("rsvd4")
    1740                      .dwattr $C$DW$118, DW_AT_TI_symbol_name("_rsvd4")
    1741                      .dwattr $C$DW$118, DW_AT_bit_offset(0x00)
    1742                      .dwattr $C$DW$118, DW_AT_bit_size(0x01)
    1743                      .dwattr $C$DW$118, DW_AT_data_member_location[DW_OP_plus_uconst 0x0]
    1744                      .dwattr $C$DW$118, DW_AT_accessibility(DW_ACCESS_public)
    1745              
    1746                      .dwendtag $C$DW$T$31
    1747              
    1748              
    1749              $C$DW$T$32      .dwtag  DW_TAG_union_type
    1750                      .dwattr $C$DW$T$32, DW_AT_name("ADCEVTCLR_REG")
    1751                      .dwattr $C$DW$T$32, DW_AT_byte_size(0x01)
    1752              $C$DW$119       .dwtag  DW_TAG_member
    1753                      .dwattr $C$DW$119, DW_AT_type(*$C$DW$T$19)
    1754                      .dwattr $C$DW$119, DW_AT_name("all")
    1755                      .dwattr $C$DW$119, DW_AT_TI_symbol_name("_all")
    1756                      .dwattr $C$DW$119, DW_AT_data_member_location[DW_OP_plus_uconst 0x0]
    1757                      .dwattr $C$DW$119, DW_AT_accessibility(DW_ACCESS_public)
    1758              
    1759              $C$DW$120       .dwtag  DW_TAG_member
    1760                      .dwattr $C$DW$120, DW_AT_type(*$C$DW$T$31)
TMS320C2000 Assembler PC v20.2.1 Mon Dec  7 23:59:49 2020

Copyright (c) 1996-2018 Texas Instruments Incorporated
resolver.asm                                                         PAGE   36

    1761                      .dwattr $C$DW$120, DW_AT_name("bit")
    1762                      .dwattr $C$DW$120, DW_AT_TI_symbol_name("_bit")
    1763                      .dwattr $C$DW$120, DW_AT_data_member_location[DW_OP_plus_uconst 0x0]
    1764                      .dwattr $C$DW$120, DW_AT_accessibility(DW_ACCESS_public)
    1765              
    1766                      .dwendtag $C$DW$T$32
    1767              
    1768              
    1769              $C$DW$T$33      .dwtag  DW_TAG_structure_type
    1770                      .dwattr $C$DW$T$33, DW_AT_name("ADCEVTINTSEL_BITS")
    1771                      .dwattr $C$DW$T$33, DW_AT_byte_size(0x01)
    1772              $C$DW$121       .dwtag  DW_TAG_member
    1773                      .dwattr $C$DW$121, DW_AT_type(*$C$DW$T$19)
    1774                      .dwattr $C$DW$121, DW_AT_name("PPB1TRIPHI")
    1775                      .dwattr $C$DW$121, DW_AT_TI_symbol_name("_PPB1TRIPHI")
    1776                      .dwattr $C$DW$121, DW_AT_bit_offset(0x0f)
    1777                      .dwattr $C$DW$121, DW_AT_bit_size(0x01)
    1778                      .dwattr $C$DW$121, DW_AT_data_member_location[DW_OP_plus_uconst 0x0]
    1779                      .dwattr $C$DW$121, DW_AT_accessibility(DW_ACCESS_public)
    1780              
    1781              $C$DW$122       .dwtag  DW_TAG_member
    1782                      .dwattr $C$DW$122, DW_AT_type(*$C$DW$T$19)
    1783                      .dwattr $C$DW$122, DW_AT_name("PPB1TRIPLO")
    1784                      .dwattr $C$DW$122, DW_AT_TI_symbol_name("_PPB1TRIPLO")
    1785                      .dwattr $C$DW$122, DW_AT_bit_offset(0x0e)
    1786                      .dwattr $C$DW$122, DW_AT_bit_size(0x01)
    1787                      .dwattr $C$DW$122, DW_AT_data_member_location[DW_OP_plus_uconst 0x0]
    1788                      .dwattr $C$DW$122, DW_AT_accessibility(DW_ACCESS_public)
    1789              
    1790              $C$DW$123       .dwtag  DW_TAG_member
    1791                      .dwattr $C$DW$123, DW_AT_type(*$C$DW$T$19)
    1792                      .dwattr $C$DW$123, DW_AT_name("PPB1ZERO")
    1793                      .dwattr $C$DW$123, DW_AT_TI_symbol_name("_PPB1ZERO")
    1794                      .dwattr $C$DW$123, DW_AT_bit_offset(0x0d)
    1795                      .dwattr $C$DW$123, DW_AT_bit_size(0x01)
    1796                      .dwattr $C$DW$123, DW_AT_data_member_location[DW_OP_plus_uconst 0x0]
    1797                      .dwattr $C$DW$123, DW_AT_accessibility(DW_ACCESS_public)
    1798              
    1799              $C$DW$124       .dwtag  DW_TAG_member
    1800                      .dwattr $C$DW$124, DW_AT_type(*$C$DW$T$19)
    1801                      .dwattr $C$DW$124, DW_AT_name("rsvd1")
    1802                      .dwattr $C$DW$124, DW_AT_TI_symbol_name("_rsvd1")
    1803                      .dwattr $C$DW$124, DW_AT_bit_offset(0x0c)
    1804                      .dwattr $C$DW$124, DW_AT_bit_size(0x01)
    1805                      .dwattr $C$DW$124, DW_AT_data_member_location[DW_OP_plus_uconst 0x0]
    1806                      .dwattr $C$DW$124, DW_AT_accessibility(DW_ACCESS_public)
    1807              
    1808              $C$DW$125       .dwtag  DW_TAG_member
    1809                      .dwattr $C$DW$125, DW_AT_type(*$C$DW$T$19)
    1810                      .dwattr $C$DW$125, DW_AT_name("PPB2TRIPHI")
    1811                      .dwattr $C$DW$125, DW_AT_TI_symbol_name("_PPB2TRIPHI")
    1812                      .dwattr $C$DW$125, DW_AT_bit_offset(0x0b)
    1813                      .dwattr $C$DW$125, DW_AT_bit_size(0x01)
    1814                      .dwattr $C$DW$125, DW_AT_data_member_location[DW_OP_plus_uconst 0x0]
    1815                      .dwattr $C$DW$125, DW_AT_accessibility(DW_ACCESS_public)
TMS320C2000 Assembler PC v20.2.1 Mon Dec  7 23:59:49 2020

Copyright (c) 1996-2018 Texas Instruments Incorporated
resolver.asm                                                         PAGE   37

    1816              
    1817              $C$DW$126       .dwtag  DW_TAG_member
    1818                      .dwattr $C$DW$126, DW_AT_type(*$C$DW$T$19)
    1819                      .dwattr $C$DW$126, DW_AT_name("PPB2TRIPLO")
    1820                      .dwattr $C$DW$126, DW_AT_TI_symbol_name("_PPB2TRIPLO")
    1821                      .dwattr $C$DW$126, DW_AT_bit_offset(0x0a)
    1822                      .dwattr $C$DW$126, DW_AT_bit_size(0x01)
    1823                      .dwattr $C$DW$126, DW_AT_data_member_location[DW_OP_plus_uconst 0x0]
    1824                      .dwattr $C$DW$126, DW_AT_accessibility(DW_ACCESS_public)
    1825              
    1826              $C$DW$127       .dwtag  DW_TAG_member
    1827                      .dwattr $C$DW$127, DW_AT_type(*$C$DW$T$19)
    1828                      .dwattr $C$DW$127, DW_AT_name("PPB2ZERO")
    1829                      .dwattr $C$DW$127, DW_AT_TI_symbol_name("_PPB2ZERO")
    1830                      .dwattr $C$DW$127, DW_AT_bit_offset(0x09)
    1831                      .dwattr $C$DW$127, DW_AT_bit_size(0x01)
    1832                      .dwattr $C$DW$127, DW_AT_data_member_location[DW_OP_plus_uconst 0x0]
    1833                      .dwattr $C$DW$127, DW_AT_accessibility(DW_ACCESS_public)
    1834              
    1835              $C$DW$128       .dwtag  DW_TAG_member
    1836                      .dwattr $C$DW$128, DW_AT_type(*$C$DW$T$19)
    1837                      .dwattr $C$DW$128, DW_AT_name("rsvd2")
    1838                      .dwattr $C$DW$128, DW_AT_TI_symbol_name("_rsvd2")
    1839                      .dwattr $C$DW$128, DW_AT_bit_offset(0x08)
    1840                      .dwattr $C$DW$128, DW_AT_bit_size(0x01)
    1841                      .dwattr $C$DW$128, DW_AT_data_member_location[DW_OP_plus_uconst 0x0]
    1842                      .dwattr $C$DW$128, DW_AT_accessibility(DW_ACCESS_public)
    1843              
    1844              $C$DW$129       .dwtag  DW_TAG_member
    1845                      .dwattr $C$DW$129, DW_AT_type(*$C$DW$T$19)
    1846                      .dwattr $C$DW$129, DW_AT_name("PPB3TRIPHI")
    1847                      .dwattr $C$DW$129, DW_AT_TI_symbol_name("_PPB3TRIPHI")
    1848                      .dwattr $C$DW$129, DW_AT_bit_offset(0x07)
    1849                      .dwattr $C$DW$129, DW_AT_bit_size(0x01)
    1850                      .dwattr $C$DW$129, DW_AT_data_member_location[DW_OP_plus_uconst 0x0]
    1851                      .dwattr $C$DW$129, DW_AT_accessibility(DW_ACCESS_public)
    1852              
    1853              $C$DW$130       .dwtag  DW_TAG_member
    1854                      .dwattr $C$DW$130, DW_AT_type(*$C$DW$T$19)
    1855                      .dwattr $C$DW$130, DW_AT_name("PPB3TRIPLO")
    1856                      .dwattr $C$DW$130, DW_AT_TI_symbol_name("_PPB3TRIPLO")
    1857                      .dwattr $C$DW$130, DW_AT_bit_offset(0x06)
    1858                      .dwattr $C$DW$130, DW_AT_bit_size(0x01)
    1859                      .dwattr $C$DW$130, DW_AT_data_member_location[DW_OP_plus_uconst 0x0]
    1860                      .dwattr $C$DW$130, DW_AT_accessibility(DW_ACCESS_public)
    1861              
    1862              $C$DW$131       .dwtag  DW_TAG_member
    1863                      .dwattr $C$DW$131, DW_AT_type(*$C$DW$T$19)
    1864                      .dwattr $C$DW$131, DW_AT_name("PPB3ZERO")
    1865                      .dwattr $C$DW$131, DW_AT_TI_symbol_name("_PPB3ZERO")
    1866                      .dwattr $C$DW$131, DW_AT_bit_offset(0x05)
    1867                      .dwattr $C$DW$131, DW_AT_bit_size(0x01)
    1868                      .dwattr $C$DW$131, DW_AT_data_member_location[DW_OP_plus_uconst 0x0]
    1869                      .dwattr $C$DW$131, DW_AT_accessibility(DW_ACCESS_public)
    1870              
TMS320C2000 Assembler PC v20.2.1 Mon Dec  7 23:59:49 2020

Copyright (c) 1996-2018 Texas Instruments Incorporated
resolver.asm                                                         PAGE   38

    1871              $C$DW$132       .dwtag  DW_TAG_member
    1872                      .dwattr $C$DW$132, DW_AT_type(*$C$DW$T$19)
    1873                      .dwattr $C$DW$132, DW_AT_name("rsvd3")
    1874                      .dwattr $C$DW$132, DW_AT_TI_symbol_name("_rsvd3")
    1875                      .dwattr $C$DW$132, DW_AT_bit_offset(0x04)
    1876                      .dwattr $C$DW$132, DW_AT_bit_size(0x01)
    1877                      .dwattr $C$DW$132, DW_AT_data_member_location[DW_OP_plus_uconst 0x0]
    1878                      .dwattr $C$DW$132, DW_AT_accessibility(DW_ACCESS_public)
    1879              
    1880              $C$DW$133       .dwtag  DW_TAG_member
    1881                      .dwattr $C$DW$133, DW_AT_type(*$C$DW$T$19)
    1882                      .dwattr $C$DW$133, DW_AT_name("PPB4TRIPHI")
    1883                      .dwattr $C$DW$133, DW_AT_TI_symbol_name("_PPB4TRIPHI")
    1884                      .dwattr $C$DW$133, DW_AT_bit_offset(0x03)
    1885                      .dwattr $C$DW$133, DW_AT_bit_size(0x01)
    1886                      .dwattr $C$DW$133, DW_AT_data_member_location[DW_OP_plus_uconst 0x0]
    1887                      .dwattr $C$DW$133, DW_AT_accessibility(DW_ACCESS_public)
    1888              
    1889              $C$DW$134       .dwtag  DW_TAG_member
    1890                      .dwattr $C$DW$134, DW_AT_type(*$C$DW$T$19)
    1891                      .dwattr $C$DW$134, DW_AT_name("PPB4TRIPLO")
    1892                      .dwattr $C$DW$134, DW_AT_TI_symbol_name("_PPB4TRIPLO")
    1893                      .dwattr $C$DW$134, DW_AT_bit_offset(0x02)
    1894                      .dwattr $C$DW$134, DW_AT_bit_size(0x01)
    1895                      .dwattr $C$DW$134, DW_AT_data_member_location[DW_OP_plus_uconst 0x0]
    1896                      .dwattr $C$DW$134, DW_AT_accessibility(DW_ACCESS_public)
    1897              
    1898              $C$DW$135       .dwtag  DW_TAG_member
    1899                      .dwattr $C$DW$135, DW_AT_type(*$C$DW$T$19)
    1900                      .dwattr $C$DW$135, DW_AT_name("PPB4ZERO")
    1901                      .dwattr $C$DW$135, DW_AT_TI_symbol_name("_PPB4ZERO")
    1902                      .dwattr $C$DW$135, DW_AT_bit_offset(0x01)
    1903                      .dwattr $C$DW$135, DW_AT_bit_size(0x01)
    1904                      .dwattr $C$DW$135, DW_AT_data_member_location[DW_OP_plus_uconst 0x0]
    1905                      .dwattr $C$DW$135, DW_AT_accessibility(DW_ACCESS_public)
    1906              
    1907              $C$DW$136       .dwtag  DW_TAG_member
    1908                      .dwattr $C$DW$136, DW_AT_type(*$C$DW$T$19)
    1909                      .dwattr $C$DW$136, DW_AT_name("rsvd4")
    1910                      .dwattr $C$DW$136, DW_AT_TI_symbol_name("_rsvd4")
    1911                      .dwattr $C$DW$136, DW_AT_bit_offset(0x00)
    1912                      .dwattr $C$DW$136, DW_AT_bit_size(0x01)
    1913                      .dwattr $C$DW$136, DW_AT_data_member_location[DW_OP_plus_uconst 0x0]
    1914                      .dwattr $C$DW$136, DW_AT_accessibility(DW_ACCESS_public)
    1915              
    1916                      .dwendtag $C$DW$T$33
    1917              
    1918              
    1919              $C$DW$T$34      .dwtag  DW_TAG_union_type
    1920                      .dwattr $C$DW$T$34, DW_AT_name("ADCEVTINTSEL_REG")
    1921                      .dwattr $C$DW$T$34, DW_AT_byte_size(0x01)
    1922              $C$DW$137       .dwtag  DW_TAG_member
    1923                      .dwattr $C$DW$137, DW_AT_type(*$C$DW$T$19)
    1924                      .dwattr $C$DW$137, DW_AT_name("all")
    1925                      .dwattr $C$DW$137, DW_AT_TI_symbol_name("_all")
TMS320C2000 Assembler PC v20.2.1 Mon Dec  7 23:59:49 2020

Copyright (c) 1996-2018 Texas Instruments Incorporated
resolver.asm                                                         PAGE   39

    1926                      .dwattr $C$DW$137, DW_AT_data_member_location[DW_OP_plus_uconst 0x0]
    1927                      .dwattr $C$DW$137, DW_AT_accessibility(DW_ACCESS_public)
    1928              
    1929              $C$DW$138       .dwtag  DW_TAG_member
    1930                      .dwattr $C$DW$138, DW_AT_type(*$C$DW$T$33)
    1931                      .dwattr $C$DW$138, DW_AT_name("bit")
    1932                      .dwattr $C$DW$138, DW_AT_TI_symbol_name("_bit")
    1933                      .dwattr $C$DW$138, DW_AT_data_member_location[DW_OP_plus_uconst 0x0]
    1934                      .dwattr $C$DW$138, DW_AT_accessibility(DW_ACCESS_public)
    1935              
    1936                      .dwendtag $C$DW$T$34
    1937              
    1938              
    1939              $C$DW$T$35      .dwtag  DW_TAG_structure_type
    1940                      .dwattr $C$DW$T$35, DW_AT_name("ADCEVTSEL_BITS")
    1941                      .dwattr $C$DW$T$35, DW_AT_byte_size(0x01)
    1942              $C$DW$139       .dwtag  DW_TAG_member
    1943                      .dwattr $C$DW$139, DW_AT_type(*$C$DW$T$19)
    1944                      .dwattr $C$DW$139, DW_AT_name("PPB1TRIPHI")
    1945                      .dwattr $C$DW$139, DW_AT_TI_symbol_name("_PPB1TRIPHI")
    1946                      .dwattr $C$DW$139, DW_AT_bit_offset(0x0f)
    1947                      .dwattr $C$DW$139, DW_AT_bit_size(0x01)
    1948                      .dwattr $C$DW$139, DW_AT_data_member_location[DW_OP_plus_uconst 0x0]
    1949                      .dwattr $C$DW$139, DW_AT_accessibility(DW_ACCESS_public)
    1950              
    1951              $C$DW$140       .dwtag  DW_TAG_member
    1952                      .dwattr $C$DW$140, DW_AT_type(*$C$DW$T$19)
    1953                      .dwattr $C$DW$140, DW_AT_name("PPB1TRIPLO")
    1954                      .dwattr $C$DW$140, DW_AT_TI_symbol_name("_PPB1TRIPLO")
    1955                      .dwattr $C$DW$140, DW_AT_bit_offset(0x0e)
    1956                      .dwattr $C$DW$140, DW_AT_bit_size(0x01)
    1957                      .dwattr $C$DW$140, DW_AT_data_member_location[DW_OP_plus_uconst 0x0]
    1958                      .dwattr $C$DW$140, DW_AT_accessibility(DW_ACCESS_public)
    1959              
    1960              $C$DW$141       .dwtag  DW_TAG_member
    1961                      .dwattr $C$DW$141, DW_AT_type(*$C$DW$T$19)
    1962                      .dwattr $C$DW$141, DW_AT_name("PPB1ZERO")
    1963                      .dwattr $C$DW$141, DW_AT_TI_symbol_name("_PPB1ZERO")
    1964                      .dwattr $C$DW$141, DW_AT_bit_offset(0x0d)
    1965                      .dwattr $C$DW$141, DW_AT_bit_size(0x01)
    1966                      .dwattr $C$DW$141, DW_AT_data_member_location[DW_OP_plus_uconst 0x0]
    1967                      .dwattr $C$DW$141, DW_AT_accessibility(DW_ACCESS_public)
    1968              
    1969              $C$DW$142       .dwtag  DW_TAG_member
    1970                      .dwattr $C$DW$142, DW_AT_type(*$C$DW$T$19)
    1971                      .dwattr $C$DW$142, DW_AT_name("rsvd1")
    1972                      .dwattr $C$DW$142, DW_AT_TI_symbol_name("_rsvd1")
    1973                      .dwattr $C$DW$142, DW_AT_bit_offset(0x0c)
    1974                      .dwattr $C$DW$142, DW_AT_bit_size(0x01)
    1975                      .dwattr $C$DW$142, DW_AT_data_member_location[DW_OP_plus_uconst 0x0]
    1976                      .dwattr $C$DW$142, DW_AT_accessibility(DW_ACCESS_public)
    1977              
    1978              $C$DW$143       .dwtag  DW_TAG_member
    1979                      .dwattr $C$DW$143, DW_AT_type(*$C$DW$T$19)
    1980                      .dwattr $C$DW$143, DW_AT_name("PPB2TRIPHI")
TMS320C2000 Assembler PC v20.2.1 Mon Dec  7 23:59:49 2020

Copyright (c) 1996-2018 Texas Instruments Incorporated
resolver.asm                                                         PAGE   40

    1981                      .dwattr $C$DW$143, DW_AT_TI_symbol_name("_PPB2TRIPHI")
    1982                      .dwattr $C$DW$143, DW_AT_bit_offset(0x0b)
    1983                      .dwattr $C$DW$143, DW_AT_bit_size(0x01)
    1984                      .dwattr $C$DW$143, DW_AT_data_member_location[DW_OP_plus_uconst 0x0]
    1985                      .dwattr $C$DW$143, DW_AT_accessibility(DW_ACCESS_public)
    1986              
    1987              $C$DW$144       .dwtag  DW_TAG_member
    1988                      .dwattr $C$DW$144, DW_AT_type(*$C$DW$T$19)
    1989                      .dwattr $C$DW$144, DW_AT_name("PPB2TRIPLO")
    1990                      .dwattr $C$DW$144, DW_AT_TI_symbol_name("_PPB2TRIPLO")
    1991                      .dwattr $C$DW$144, DW_AT_bit_offset(0x0a)
    1992                      .dwattr $C$DW$144, DW_AT_bit_size(0x01)
    1993                      .dwattr $C$DW$144, DW_AT_data_member_location[DW_OP_plus_uconst 0x0]
    1994                      .dwattr $C$DW$144, DW_AT_accessibility(DW_ACCESS_public)
    1995              
    1996              $C$DW$145       .dwtag  DW_TAG_member
    1997                      .dwattr $C$DW$145, DW_AT_type(*$C$DW$T$19)
    1998                      .dwattr $C$DW$145, DW_AT_name("PPB2ZERO")
    1999                      .dwattr $C$DW$145, DW_AT_TI_symbol_name("_PPB2ZERO")
    2000                      .dwattr $C$DW$145, DW_AT_bit_offset(0x09)
    2001                      .dwattr $C$DW$145, DW_AT_bit_size(0x01)
    2002                      .dwattr $C$DW$145, DW_AT_data_member_location[DW_OP_plus_uconst 0x0]
    2003                      .dwattr $C$DW$145, DW_AT_accessibility(DW_ACCESS_public)
    2004              
    2005              $C$DW$146       .dwtag  DW_TAG_member
    2006                      .dwattr $C$DW$146, DW_AT_type(*$C$DW$T$19)
    2007                      .dwattr $C$DW$146, DW_AT_name("rsvd2")
    2008                      .dwattr $C$DW$146, DW_AT_TI_symbol_name("_rsvd2")
    2009                      .dwattr $C$DW$146, DW_AT_bit_offset(0x08)
    2010                      .dwattr $C$DW$146, DW_AT_bit_size(0x01)
    2011                      .dwattr $C$DW$146, DW_AT_data_member_location[DW_OP_plus_uconst 0x0]
    2012                      .dwattr $C$DW$146, DW_AT_accessibility(DW_ACCESS_public)
    2013              
    2014              $C$DW$147       .dwtag  DW_TAG_member
    2015                      .dwattr $C$DW$147, DW_AT_type(*$C$DW$T$19)
    2016                      .dwattr $C$DW$147, DW_AT_name("PPB3TRIPHI")
    2017                      .dwattr $C$DW$147, DW_AT_TI_symbol_name("_PPB3TRIPHI")
    2018                      .dwattr $C$DW$147, DW_AT_bit_offset(0x07)
    2019                      .dwattr $C$DW$147, DW_AT_bit_size(0x01)
    2020                      .dwattr $C$DW$147, DW_AT_data_member_location[DW_OP_plus_uconst 0x0]
    2021                      .dwattr $C$DW$147, DW_AT_accessibility(DW_ACCESS_public)
    2022              
    2023              $C$DW$148       .dwtag  DW_TAG_member
    2024                      .dwattr $C$DW$148, DW_AT_type(*$C$DW$T$19)
    2025                      .dwattr $C$DW$148, DW_AT_name("PPB3TRIPLO")
    2026                      .dwattr $C$DW$148, DW_AT_TI_symbol_name("_PPB3TRIPLO")
    2027                      .dwattr $C$DW$148, DW_AT_bit_offset(0x06)
    2028                      .dwattr $C$DW$148, DW_AT_bit_size(0x01)
    2029                      .dwattr $C$DW$148, DW_AT_data_member_location[DW_OP_plus_uconst 0x0]
    2030                      .dwattr $C$DW$148, DW_AT_accessibility(DW_ACCESS_public)
    2031              
    2032              $C$DW$149       .dwtag  DW_TAG_member
    2033                      .dwattr $C$DW$149, DW_AT_type(*$C$DW$T$19)
    2034                      .dwattr $C$DW$149, DW_AT_name("PPB3ZERO")
    2035                      .dwattr $C$DW$149, DW_AT_TI_symbol_name("_PPB3ZERO")
TMS320C2000 Assembler PC v20.2.1 Mon Dec  7 23:59:49 2020

Copyright (c) 1996-2018 Texas Instruments Incorporated
resolver.asm                                                         PAGE   41

    2036                      .dwattr $C$DW$149, DW_AT_bit_offset(0x05)
    2037                      .dwattr $C$DW$149, DW_AT_bit_size(0x01)
    2038                      .dwattr $C$DW$149, DW_AT_data_member_location[DW_OP_plus_uconst 0x0]
    2039                      .dwattr $C$DW$149, DW_AT_accessibility(DW_ACCESS_public)
    2040              
    2041              $C$DW$150       .dwtag  DW_TAG_member
    2042                      .dwattr $C$DW$150, DW_AT_type(*$C$DW$T$19)
    2043                      .dwattr $C$DW$150, DW_AT_name("rsvd3")
    2044                      .dwattr $C$DW$150, DW_AT_TI_symbol_name("_rsvd3")
    2045                      .dwattr $C$DW$150, DW_AT_bit_offset(0x04)
    2046                      .dwattr $C$DW$150, DW_AT_bit_size(0x01)
    2047                      .dwattr $C$DW$150, DW_AT_data_member_location[DW_OP_plus_uconst 0x0]
    2048                      .dwattr $C$DW$150, DW_AT_accessibility(DW_ACCESS_public)
    2049              
    2050              $C$DW$151       .dwtag  DW_TAG_member
    2051                      .dwattr $C$DW$151, DW_AT_type(*$C$DW$T$19)
    2052                      .dwattr $C$DW$151, DW_AT_name("PPB4TRIPHI")
    2053                      .dwattr $C$DW$151, DW_AT_TI_symbol_name("_PPB4TRIPHI")
    2054                      .dwattr $C$DW$151, DW_AT_bit_offset(0x03)
    2055                      .dwattr $C$DW$151, DW_AT_bit_size(0x01)
    2056                      .dwattr $C$DW$151, DW_AT_data_member_location[DW_OP_plus_uconst 0x0]
    2057                      .dwattr $C$DW$151, DW_AT_accessibility(DW_ACCESS_public)
    2058              
    2059              $C$DW$152       .dwtag  DW_TAG_member
    2060                      .dwattr $C$DW$152, DW_AT_type(*$C$DW$T$19)
    2061                      .dwattr $C$DW$152, DW_AT_name("PPB4TRIPLO")
    2062                      .dwattr $C$DW$152, DW_AT_TI_symbol_name("_PPB4TRIPLO")
    2063                      .dwattr $C$DW$152, DW_AT_bit_offset(0x02)
    2064                      .dwattr $C$DW$152, DW_AT_bit_size(0x01)
    2065                      .dwattr $C$DW$152, DW_AT_data_member_location[DW_OP_plus_uconst 0x0]
    2066                      .dwattr $C$DW$152, DW_AT_accessibility(DW_ACCESS_public)
    2067              
    2068              $C$DW$153       .dwtag  DW_TAG_member
    2069                      .dwattr $C$DW$153, DW_AT_type(*$C$DW$T$19)
    2070                      .dwattr $C$DW$153, DW_AT_name("PPB4ZERO")
    2071                      .dwattr $C$DW$153, DW_AT_TI_symbol_name("_PPB4ZERO")
    2072                      .dwattr $C$DW$153, DW_AT_bit_offset(0x01)
    2073                      .dwattr $C$DW$153, DW_AT_bit_size(0x01)
    2074                      .dwattr $C$DW$153, DW_AT_data_member_location[DW_OP_plus_uconst 0x0]
    2075                      .dwattr $C$DW$153, DW_AT_accessibility(DW_ACCESS_public)
    2076              
    2077              $C$DW$154       .dwtag  DW_TAG_member
    2078                      .dwattr $C$DW$154, DW_AT_type(*$C$DW$T$19)
    2079                      .dwattr $C$DW$154, DW_AT_name("rsvd4")
    2080                      .dwattr $C$DW$154, DW_AT_TI_symbol_name("_rsvd4")
    2081                      .dwattr $C$DW$154, DW_AT_bit_offset(0x00)
    2082                      .dwattr $C$DW$154, DW_AT_bit_size(0x01)
    2083                      .dwattr $C$DW$154, DW_AT_data_member_location[DW_OP_plus_uconst 0x0]
    2084                      .dwattr $C$DW$154, DW_AT_accessibility(DW_ACCESS_public)
    2085              
    2086                      .dwendtag $C$DW$T$35
    2087              
    2088              
    2089              $C$DW$T$36      .dwtag  DW_TAG_union_type
    2090                      .dwattr $C$DW$T$36, DW_AT_name("ADCEVTSEL_REG")
TMS320C2000 Assembler PC v20.2.1 Mon Dec  7 23:59:49 2020

Copyright (c) 1996-2018 Texas Instruments Incorporated
resolver.asm                                                         PAGE   42

    2091                      .dwattr $C$DW$T$36, DW_AT_byte_size(0x01)
    2092              $C$DW$155       .dwtag  DW_TAG_member
    2093                      .dwattr $C$DW$155, DW_AT_type(*$C$DW$T$19)
    2094                      .dwattr $C$DW$155, DW_AT_name("all")
    2095                      .dwattr $C$DW$155, DW_AT_TI_symbol_name("_all")
    2096                      .dwattr $C$DW$155, DW_AT_data_member_location[DW_OP_plus_uconst 0x0]
    2097                      .dwattr $C$DW$155, DW_AT_accessibility(DW_ACCESS_public)
    2098              
    2099              $C$DW$156       .dwtag  DW_TAG_member
    2100                      .dwattr $C$DW$156, DW_AT_type(*$C$DW$T$35)
    2101                      .dwattr $C$DW$156, DW_AT_name("bit")
    2102                      .dwattr $C$DW$156, DW_AT_TI_symbol_name("_bit")
    2103                      .dwattr $C$DW$156, DW_AT_data_member_location[DW_OP_plus_uconst 0x0]
    2104                      .dwattr $C$DW$156, DW_AT_accessibility(DW_ACCESS_public)
    2105              
    2106                      .dwendtag $C$DW$T$36
    2107              
    2108              
    2109              $C$DW$T$37      .dwtag  DW_TAG_structure_type
    2110                      .dwattr $C$DW$T$37, DW_AT_name("ADCEVTSTAT_BITS")
    2111                      .dwattr $C$DW$T$37, DW_AT_byte_size(0x01)
    2112              $C$DW$157       .dwtag  DW_TAG_member
    2113                      .dwattr $C$DW$157, DW_AT_type(*$C$DW$T$19)
    2114                      .dwattr $C$DW$157, DW_AT_name("PPB1TRIPHI")
    2115                      .dwattr $C$DW$157, DW_AT_TI_symbol_name("_PPB1TRIPHI")
    2116                      .dwattr $C$DW$157, DW_AT_bit_offset(0x0f)
    2117                      .dwattr $C$DW$157, DW_AT_bit_size(0x01)
    2118                      .dwattr $C$DW$157, DW_AT_data_member_location[DW_OP_plus_uconst 0x0]
    2119                      .dwattr $C$DW$157, DW_AT_accessibility(DW_ACCESS_public)
    2120              
    2121              $C$DW$158       .dwtag  DW_TAG_member
    2122                      .dwattr $C$DW$158, DW_AT_type(*$C$DW$T$19)
    2123                      .dwattr $C$DW$158, DW_AT_name("PPB1TRIPLO")
    2124                      .dwattr $C$DW$158, DW_AT_TI_symbol_name("_PPB1TRIPLO")
    2125                      .dwattr $C$DW$158, DW_AT_bit_offset(0x0e)
    2126                      .dwattr $C$DW$158, DW_AT_bit_size(0x01)
    2127                      .dwattr $C$DW$158, DW_AT_data_member_location[DW_OP_plus_uconst 0x0]
    2128                      .dwattr $C$DW$158, DW_AT_accessibility(DW_ACCESS_public)
    2129              
    2130              $C$DW$159       .dwtag  DW_TAG_member
    2131                      .dwattr $C$DW$159, DW_AT_type(*$C$DW$T$19)
    2132                      .dwattr $C$DW$159, DW_AT_name("PPB1ZERO")
    2133                      .dwattr $C$DW$159, DW_AT_TI_symbol_name("_PPB1ZERO")
    2134                      .dwattr $C$DW$159, DW_AT_bit_offset(0x0d)
    2135                      .dwattr $C$DW$159, DW_AT_bit_size(0x01)
    2136                      .dwattr $C$DW$159, DW_AT_data_member_location[DW_OP_plus_uconst 0x0]
    2137                      .dwattr $C$DW$159, DW_AT_accessibility(DW_ACCESS_public)
    2138              
    2139              $C$DW$160       .dwtag  DW_TAG_member
    2140                      .dwattr $C$DW$160, DW_AT_type(*$C$DW$T$19)
    2141                      .dwattr $C$DW$160, DW_AT_name("rsvd1")
    2142                      .dwattr $C$DW$160, DW_AT_TI_symbol_name("_rsvd1")
    2143                      .dwattr $C$DW$160, DW_AT_bit_offset(0x0c)
    2144                      .dwattr $C$DW$160, DW_AT_bit_size(0x01)
    2145                      .dwattr $C$DW$160, DW_AT_data_member_location[DW_OP_plus_uconst 0x0]
TMS320C2000 Assembler PC v20.2.1 Mon Dec  7 23:59:49 2020

Copyright (c) 1996-2018 Texas Instruments Incorporated
resolver.asm                                                         PAGE   43

    2146                      .dwattr $C$DW$160, DW_AT_accessibility(DW_ACCESS_public)
    2147              
    2148              $C$DW$161       .dwtag  DW_TAG_member
    2149                      .dwattr $C$DW$161, DW_AT_type(*$C$DW$T$19)
    2150                      .dwattr $C$DW$161, DW_AT_name("PPB2TRIPHI")
    2151                      .dwattr $C$DW$161, DW_AT_TI_symbol_name("_PPB2TRIPHI")
    2152                      .dwattr $C$DW$161, DW_AT_bit_offset(0x0b)
    2153                      .dwattr $C$DW$161, DW_AT_bit_size(0x01)
    2154                      .dwattr $C$DW$161, DW_AT_data_member_location[DW_OP_plus_uconst 0x0]
    2155                      .dwattr $C$DW$161, DW_AT_accessibility(DW_ACCESS_public)
    2156              
    2157              $C$DW$162       .dwtag  DW_TAG_member
    2158                      .dwattr $C$DW$162, DW_AT_type(*$C$DW$T$19)
    2159                      .dwattr $C$DW$162, DW_AT_name("PPB2TRIPLO")
    2160                      .dwattr $C$DW$162, DW_AT_TI_symbol_name("_PPB2TRIPLO")
    2161                      .dwattr $C$DW$162, DW_AT_bit_offset(0x0a)
    2162                      .dwattr $C$DW$162, DW_AT_bit_size(0x01)
    2163                      .dwattr $C$DW$162, DW_AT_data_member_location[DW_OP_plus_uconst 0x0]
    2164                      .dwattr $C$DW$162, DW_AT_accessibility(DW_ACCESS_public)
    2165              
    2166              $C$DW$163       .dwtag  DW_TAG_member
    2167                      .dwattr $C$DW$163, DW_AT_type(*$C$DW$T$19)
    2168                      .dwattr $C$DW$163, DW_AT_name("PPB2ZERO")
    2169                      .dwattr $C$DW$163, DW_AT_TI_symbol_name("_PPB2ZERO")
    2170                      .dwattr $C$DW$163, DW_AT_bit_offset(0x09)
    2171                      .dwattr $C$DW$163, DW_AT_bit_size(0x01)
    2172                      .dwattr $C$DW$163, DW_AT_data_member_location[DW_OP_plus_uconst 0x0]
    2173                      .dwattr $C$DW$163, DW_AT_accessibility(DW_ACCESS_public)
    2174              
    2175              $C$DW$164       .dwtag  DW_TAG_member
    2176                      .dwattr $C$DW$164, DW_AT_type(*$C$DW$T$19)
    2177                      .dwattr $C$DW$164, DW_AT_name("rsvd2")
    2178                      .dwattr $C$DW$164, DW_AT_TI_symbol_name("_rsvd2")
    2179                      .dwattr $C$DW$164, DW_AT_bit_offset(0x08)
    2180                      .dwattr $C$DW$164, DW_AT_bit_size(0x01)
    2181                      .dwattr $C$DW$164, DW_AT_data_member_location[DW_OP_plus_uconst 0x0]
    2182                      .dwattr $C$DW$164, DW_AT_accessibility(DW_ACCESS_public)
    2183              
    2184              $C$DW$165       .dwtag  DW_TAG_member
    2185                      .dwattr $C$DW$165, DW_AT_type(*$C$DW$T$19)
    2186                      .dwattr $C$DW$165, DW_AT_name("PPB3TRIPHI")
    2187                      .dwattr $C$DW$165, DW_AT_TI_symbol_name("_PPB3TRIPHI")
    2188                      .dwattr $C$DW$165, DW_AT_bit_offset(0x07)
    2189                      .dwattr $C$DW$165, DW_AT_bit_size(0x01)
    2190                      .dwattr $C$DW$165, DW_AT_data_member_location[DW_OP_plus_uconst 0x0]
    2191                      .dwattr $C$DW$165, DW_AT_accessibility(DW_ACCESS_public)
    2192              
    2193              $C$DW$166       .dwtag  DW_TAG_member
    2194                      .dwattr $C$DW$166, DW_AT_type(*$C$DW$T$19)
    2195                      .dwattr $C$DW$166, DW_AT_name("PPB3TRIPLO")
    2196                      .dwattr $C$DW$166, DW_AT_TI_symbol_name("_PPB3TRIPLO")
    2197                      .dwattr $C$DW$166, DW_AT_bit_offset(0x06)
    2198                      .dwattr $C$DW$166, DW_AT_bit_size(0x01)
    2199                      .dwattr $C$DW$166, DW_AT_data_member_location[DW_OP_plus_uconst 0x0]
    2200                      .dwattr $C$DW$166, DW_AT_accessibility(DW_ACCESS_public)
TMS320C2000 Assembler PC v20.2.1 Mon Dec  7 23:59:49 2020

Copyright (c) 1996-2018 Texas Instruments Incorporated
resolver.asm                                                         PAGE   44

    2201              
    2202              $C$DW$167       .dwtag  DW_TAG_member
    2203                      .dwattr $C$DW$167, DW_AT_type(*$C$DW$T$19)
    2204                      .dwattr $C$DW$167, DW_AT_name("PPB3ZERO")
    2205                      .dwattr $C$DW$167, DW_AT_TI_symbol_name("_PPB3ZERO")
    2206                      .dwattr $C$DW$167, DW_AT_bit_offset(0x05)
    2207                      .dwattr $C$DW$167, DW_AT_bit_size(0x01)
    2208                      .dwattr $C$DW$167, DW_AT_data_member_location[DW_OP_plus_uconst 0x0]
    2209                      .dwattr $C$DW$167, DW_AT_accessibility(DW_ACCESS_public)
    2210              
    2211              $C$DW$168       .dwtag  DW_TAG_member
    2212                      .dwattr $C$DW$168, DW_AT_type(*$C$DW$T$19)
    2213                      .dwattr $C$DW$168, DW_AT_name("rsvd3")
    2214                      .dwattr $C$DW$168, DW_AT_TI_symbol_name("_rsvd3")
    2215                      .dwattr $C$DW$168, DW_AT_bit_offset(0x04)
    2216                      .dwattr $C$DW$168, DW_AT_bit_size(0x01)
    2217                      .dwattr $C$DW$168, DW_AT_data_member_location[DW_OP_plus_uconst 0x0]
    2218                      .dwattr $C$DW$168, DW_AT_accessibility(DW_ACCESS_public)
    2219              
    2220              $C$DW$169       .dwtag  DW_TAG_member
    2221                      .dwattr $C$DW$169, DW_AT_type(*$C$DW$T$19)
    2222                      .dwattr $C$DW$169, DW_AT_name("PPB4TRIPHI")
    2223                      .dwattr $C$DW$169, DW_AT_TI_symbol_name("_PPB4TRIPHI")
    2224                      .dwattr $C$DW$169, DW_AT_bit_offset(0x03)
    2225                      .dwattr $C$DW$169, DW_AT_bit_size(0x01)
    2226                      .dwattr $C$DW$169, DW_AT_data_member_location[DW_OP_plus_uconst 0x0]
    2227                      .dwattr $C$DW$169, DW_AT_accessibility(DW_ACCESS_public)
    2228              
    2229              $C$DW$170       .dwtag  DW_TAG_member
    2230                      .dwattr $C$DW$170, DW_AT_type(*$C$DW$T$19)
    2231                      .dwattr $C$DW$170, DW_AT_name("PPB4TRIPLO")
    2232                      .dwattr $C$DW$170, DW_AT_TI_symbol_name("_PPB4TRIPLO")
    2233                      .dwattr $C$DW$170, DW_AT_bit_offset(0x02)
    2234                      .dwattr $C$DW$170, DW_AT_bit_size(0x01)
    2235                      .dwattr $C$DW$170, DW_AT_data_member_location[DW_OP_plus_uconst 0x0]
    2236                      .dwattr $C$DW$170, DW_AT_accessibility(DW_ACCESS_public)
    2237              
    2238              $C$DW$171       .dwtag  DW_TAG_member
    2239                      .dwattr $C$DW$171, DW_AT_type(*$C$DW$T$19)
    2240                      .dwattr $C$DW$171, DW_AT_name("PPB4ZERO")
    2241                      .dwattr $C$DW$171, DW_AT_TI_symbol_name("_PPB4ZERO")
    2242                      .dwattr $C$DW$171, DW_AT_bit_offset(0x01)
    2243                      .dwattr $C$DW$171, DW_AT_bit_size(0x01)
    2244                      .dwattr $C$DW$171, DW_AT_data_member_location[DW_OP_plus_uconst 0x0]
    2245                      .dwattr $C$DW$171, DW_AT_accessibility(DW_ACCESS_public)
    2246              
    2247              $C$DW$172       .dwtag  DW_TAG_member
    2248                      .dwattr $C$DW$172, DW_AT_type(*$C$DW$T$19)
    2249                      .dwattr $C$DW$172, DW_AT_name("rsvd4")
    2250                      .dwattr $C$DW$172, DW_AT_TI_symbol_name("_rsvd4")
    2251                      .dwattr $C$DW$172, DW_AT_bit_offset(0x00)
    2252                      .dwattr $C$DW$172, DW_AT_bit_size(0x01)
    2253                      .dwattr $C$DW$172, DW_AT_data_member_location[DW_OP_plus_uconst 0x0]
    2254                      .dwattr $C$DW$172, DW_AT_accessibility(DW_ACCESS_public)
    2255              
TMS320C2000 Assembler PC v20.2.1 Mon Dec  7 23:59:49 2020

Copyright (c) 1996-2018 Texas Instruments Incorporated
resolver.asm                                                         PAGE   45

    2256                      .dwendtag $C$DW$T$37
    2257              
    2258              
    2259              $C$DW$T$38      .dwtag  DW_TAG_union_type
    2260                      .dwattr $C$DW$T$38, DW_AT_name("ADCEVTSTAT_REG")
    2261                      .dwattr $C$DW$T$38, DW_AT_byte_size(0x01)
    2262              $C$DW$173       .dwtag  DW_TAG_member
    2263                      .dwattr $C$DW$173, DW_AT_type(*$C$DW$T$19)
    2264                      .dwattr $C$DW$173, DW_AT_name("all")
    2265                      .dwattr $C$DW$173, DW_AT_TI_symbol_name("_all")
    2266                      .dwattr $C$DW$173, DW_AT_data_member_location[DW_OP_plus_uconst 0x0]
    2267                      .dwattr $C$DW$173, DW_AT_accessibility(DW_ACCESS_public)
    2268              
    2269              $C$DW$174       .dwtag  DW_TAG_member
    2270                      .dwattr $C$DW$174, DW_AT_type(*$C$DW$T$37)
    2271                      .dwattr $C$DW$174, DW_AT_name("bit")
    2272                      .dwattr $C$DW$174, DW_AT_TI_symbol_name("_bit")
    2273                      .dwattr $C$DW$174, DW_AT_data_member_location[DW_OP_plus_uconst 0x0]
    2274                      .dwattr $C$DW$174, DW_AT_accessibility(DW_ACCESS_public)
    2275              
    2276                      .dwendtag $C$DW$T$38
    2277              
    2278              
    2279              $C$DW$T$39      .dwtag  DW_TAG_structure_type
    2280                      .dwattr $C$DW$T$39, DW_AT_name("ADCINTFLGCLR_BITS")
    2281                      .dwattr $C$DW$T$39, DW_AT_byte_size(0x01)
    2282              $C$DW$175       .dwtag  DW_TAG_member
    2283                      .dwattr $C$DW$175, DW_AT_type(*$C$DW$T$19)
    2284                      .dwattr $C$DW$175, DW_AT_name("ADCINT1")
    2285                      .dwattr $C$DW$175, DW_AT_TI_symbol_name("_ADCINT1")
    2286                      .dwattr $C$DW$175, DW_AT_bit_offset(0x0f)
    2287                      .dwattr $C$DW$175, DW_AT_bit_size(0x01)
    2288                      .dwattr $C$DW$175, DW_AT_data_member_location[DW_OP_plus_uconst 0x0]
    2289                      .dwattr $C$DW$175, DW_AT_accessibility(DW_ACCESS_public)
    2290              
    2291              $C$DW$176       .dwtag  DW_TAG_member
    2292                      .dwattr $C$DW$176, DW_AT_type(*$C$DW$T$19)
    2293                      .dwattr $C$DW$176, DW_AT_name("ADCINT2")
    2294                      .dwattr $C$DW$176, DW_AT_TI_symbol_name("_ADCINT2")
    2295                      .dwattr $C$DW$176, DW_AT_bit_offset(0x0e)
    2296                      .dwattr $C$DW$176, DW_AT_bit_size(0x01)
    2297                      .dwattr $C$DW$176, DW_AT_data_member_location[DW_OP_plus_uconst 0x0]
    2298                      .dwattr $C$DW$176, DW_AT_accessibility(DW_ACCESS_public)
    2299              
    2300              $C$DW$177       .dwtag  DW_TAG_member
    2301                      .dwattr $C$DW$177, DW_AT_type(*$C$DW$T$19)
    2302                      .dwattr $C$DW$177, DW_AT_name("ADCINT3")
    2303                      .dwattr $C$DW$177, DW_AT_TI_symbol_name("_ADCINT3")
    2304                      .dwattr $C$DW$177, DW_AT_bit_offset(0x0d)
    2305                      .dwattr $C$DW$177, DW_AT_bit_size(0x01)
    2306                      .dwattr $C$DW$177, DW_AT_data_member_location[DW_OP_plus_uconst 0x0]
    2307                      .dwattr $C$DW$177, DW_AT_accessibility(DW_ACCESS_public)
    2308              
    2309              $C$DW$178       .dwtag  DW_TAG_member
    2310                      .dwattr $C$DW$178, DW_AT_type(*$C$DW$T$19)
TMS320C2000 Assembler PC v20.2.1 Mon Dec  7 23:59:49 2020

Copyright (c) 1996-2018 Texas Instruments Incorporated
resolver.asm                                                         PAGE   46

    2311                      .dwattr $C$DW$178, DW_AT_name("ADCINT4")
    2312                      .dwattr $C$DW$178, DW_AT_TI_symbol_name("_ADCINT4")
    2313                      .dwattr $C$DW$178, DW_AT_bit_offset(0x0c)
    2314                      .dwattr $C$DW$178, DW_AT_bit_size(0x01)
    2315                      .dwattr $C$DW$178, DW_AT_data_member_location[DW_OP_plus_uconst 0x0]
    2316                      .dwattr $C$DW$178, DW_AT_accessibility(DW_ACCESS_public)
    2317              
    2318              $C$DW$179       .dwtag  DW_TAG_member
    2319                      .dwattr $C$DW$179, DW_AT_type(*$C$DW$T$19)
    2320                      .dwattr $C$DW$179, DW_AT_name("rsvd1")
    2321                      .dwattr $C$DW$179, DW_AT_TI_symbol_name("_rsvd1")
    2322                      .dwattr $C$DW$179, DW_AT_bit_offset(0x00)
    2323                      .dwattr $C$DW$179, DW_AT_bit_size(0x0c)
    2324                      .dwattr $C$DW$179, DW_AT_data_member_location[DW_OP_plus_uconst 0x0]
    2325                      .dwattr $C$DW$179, DW_AT_accessibility(DW_ACCESS_public)
    2326              
    2327                      .dwendtag $C$DW$T$39
    2328              
    2329              
    2330              $C$DW$T$40      .dwtag  DW_TAG_union_type
    2331                      .dwattr $C$DW$T$40, DW_AT_name("ADCINTFLGCLR_REG")
    2332                      .dwattr $C$DW$T$40, DW_AT_byte_size(0x01)
    2333              $C$DW$180       .dwtag  DW_TAG_member
    2334                      .dwattr $C$DW$180, DW_AT_type(*$C$DW$T$19)
    2335                      .dwattr $C$DW$180, DW_AT_name("all")
    2336                      .dwattr $C$DW$180, DW_AT_TI_symbol_name("_all")
    2337                      .dwattr $C$DW$180, DW_AT_data_member_location[DW_OP_plus_uconst 0x0]
    2338                      .dwattr $C$DW$180, DW_AT_accessibility(DW_ACCESS_public)
    2339              
    2340              $C$DW$181       .dwtag  DW_TAG_member
    2341                      .dwattr $C$DW$181, DW_AT_type(*$C$DW$T$39)
    2342                      .dwattr $C$DW$181, DW_AT_name("bit")
    2343                      .dwattr $C$DW$181, DW_AT_TI_symbol_name("_bit")
    2344                      .dwattr $C$DW$181, DW_AT_data_member_location[DW_OP_plus_uconst 0x0]
    2345                      .dwattr $C$DW$181, DW_AT_accessibility(DW_ACCESS_public)
    2346              
    2347                      .dwendtag $C$DW$T$40
    2348              
    2349              
    2350              $C$DW$T$41      .dwtag  DW_TAG_structure_type
    2351                      .dwattr $C$DW$T$41, DW_AT_name("ADCINTFLG_BITS")
    2352                      .dwattr $C$DW$T$41, DW_AT_byte_size(0x01)
    2353              $C$DW$182       .dwtag  DW_TAG_member
    2354                      .dwattr $C$DW$182, DW_AT_type(*$C$DW$T$19)
    2355                      .dwattr $C$DW$182, DW_AT_name("ADCINT1")
    2356                      .dwattr $C$DW$182, DW_AT_TI_symbol_name("_ADCINT1")
    2357                      .dwattr $C$DW$182, DW_AT_bit_offset(0x0f)
    2358                      .dwattr $C$DW$182, DW_AT_bit_size(0x01)
    2359                      .dwattr $C$DW$182, DW_AT_data_member_location[DW_OP_plus_uconst 0x0]
    2360                      .dwattr $C$DW$182, DW_AT_accessibility(DW_ACCESS_public)
    2361              
    2362              $C$DW$183       .dwtag  DW_TAG_member
    2363                      .dwattr $C$DW$183, DW_AT_type(*$C$DW$T$19)
    2364                      .dwattr $C$DW$183, DW_AT_name("ADCINT2")
    2365                      .dwattr $C$DW$183, DW_AT_TI_symbol_name("_ADCINT2")
TMS320C2000 Assembler PC v20.2.1 Mon Dec  7 23:59:49 2020

Copyright (c) 1996-2018 Texas Instruments Incorporated
resolver.asm                                                         PAGE   47

    2366                      .dwattr $C$DW$183, DW_AT_bit_offset(0x0e)
    2367                      .dwattr $C$DW$183, DW_AT_bit_size(0x01)
    2368                      .dwattr $C$DW$183, DW_AT_data_member_location[DW_OP_plus_uconst 0x0]
    2369                      .dwattr $C$DW$183, DW_AT_accessibility(DW_ACCESS_public)
    2370              
    2371              $C$DW$184       .dwtag  DW_TAG_member
    2372                      .dwattr $C$DW$184, DW_AT_type(*$C$DW$T$19)
    2373                      .dwattr $C$DW$184, DW_AT_name("ADCINT3")
    2374                      .dwattr $C$DW$184, DW_AT_TI_symbol_name("_ADCINT3")
    2375                      .dwattr $C$DW$184, DW_AT_bit_offset(0x0d)
    2376                      .dwattr $C$DW$184, DW_AT_bit_size(0x01)
    2377                      .dwattr $C$DW$184, DW_AT_data_member_location[DW_OP_plus_uconst 0x0]
    2378                      .dwattr $C$DW$184, DW_AT_accessibility(DW_ACCESS_public)
    2379              
    2380              $C$DW$185       .dwtag  DW_TAG_member
    2381                      .dwattr $C$DW$185, DW_AT_type(*$C$DW$T$19)
    2382                      .dwattr $C$DW$185, DW_AT_name("ADCINT4")
    2383                      .dwattr $C$DW$185, DW_AT_TI_symbol_name("_ADCINT4")
    2384                      .dwattr $C$DW$185, DW_AT_bit_offset(0x0c)
    2385                      .dwattr $C$DW$185, DW_AT_bit_size(0x01)
    2386                      .dwattr $C$DW$185, DW_AT_data_member_location[DW_OP_plus_uconst 0x0]
    2387                      .dwattr $C$DW$185, DW_AT_accessibility(DW_ACCESS_public)
    2388              
    2389              $C$DW$186       .dwtag  DW_TAG_member
    2390                      .dwattr $C$DW$186, DW_AT_type(*$C$DW$T$19)
    2391                      .dwattr $C$DW$186, DW_AT_name("rsvd1")
    2392                      .dwattr $C$DW$186, DW_AT_TI_symbol_name("_rsvd1")
    2393                      .dwattr $C$DW$186, DW_AT_bit_offset(0x00)
    2394                      .dwattr $C$DW$186, DW_AT_bit_size(0x0c)
    2395                      .dwattr $C$DW$186, DW_AT_data_member_location[DW_OP_plus_uconst 0x0]
    2396                      .dwattr $C$DW$186, DW_AT_accessibility(DW_ACCESS_public)
    2397              
    2398                      .dwendtag $C$DW$T$41
    2399              
    2400              
    2401              $C$DW$T$42      .dwtag  DW_TAG_union_type
    2402                      .dwattr $C$DW$T$42, DW_AT_name("ADCINTFLG_REG")
    2403                      .dwattr $C$DW$T$42, DW_AT_byte_size(0x01)
    2404              $C$DW$187       .dwtag  DW_TAG_member
    2405                      .dwattr $C$DW$187, DW_AT_type(*$C$DW$T$19)
    2406                      .dwattr $C$DW$187, DW_AT_name("all")
    2407                      .dwattr $C$DW$187, DW_AT_TI_symbol_name("_all")
    2408                      .dwattr $C$DW$187, DW_AT_data_member_location[DW_OP_plus_uconst 0x0]
    2409                      .dwattr $C$DW$187, DW_AT_accessibility(DW_ACCESS_public)
    2410              
    2411              $C$DW$188       .dwtag  DW_TAG_member
    2412                      .dwattr $C$DW$188, DW_AT_type(*$C$DW$T$41)
    2413                      .dwattr $C$DW$188, DW_AT_name("bit")
    2414                      .dwattr $C$DW$188, DW_AT_TI_symbol_name("_bit")
    2415                      .dwattr $C$DW$188, DW_AT_data_member_location[DW_OP_plus_uconst 0x0]
    2416                      .dwattr $C$DW$188, DW_AT_accessibility(DW_ACCESS_public)
    2417              
    2418                      .dwendtag $C$DW$T$42
    2419              
    2420              
TMS320C2000 Assembler PC v20.2.1 Mon Dec  7 23:59:49 2020

Copyright (c) 1996-2018 Texas Instruments Incorporated
resolver.asm                                                         PAGE   48

    2421              $C$DW$T$43      .dwtag  DW_TAG_structure_type
    2422                      .dwattr $C$DW$T$43, DW_AT_name("ADCINTOVFCLR_BITS")
    2423                      .dwattr $C$DW$T$43, DW_AT_byte_size(0x01)
    2424              $C$DW$189       .dwtag  DW_TAG_member
    2425                      .dwattr $C$DW$189, DW_AT_type(*$C$DW$T$19)
    2426                      .dwattr $C$DW$189, DW_AT_name("ADCINT1")
    2427                      .dwattr $C$DW$189, DW_AT_TI_symbol_name("_ADCINT1")
    2428                      .dwattr $C$DW$189, DW_AT_bit_offset(0x0f)
    2429                      .dwattr $C$DW$189, DW_AT_bit_size(0x01)
    2430                      .dwattr $C$DW$189, DW_AT_data_member_location[DW_OP_plus_uconst 0x0]
    2431                      .dwattr $C$DW$189, DW_AT_accessibility(DW_ACCESS_public)
    2432              
    2433              $C$DW$190       .dwtag  DW_TAG_member
    2434                      .dwattr $C$DW$190, DW_AT_type(*$C$DW$T$19)
    2435                      .dwattr $C$DW$190, DW_AT_name("ADCINT2")
    2436                      .dwattr $C$DW$190, DW_AT_TI_symbol_name("_ADCINT2")
    2437                      .dwattr $C$DW$190, DW_AT_bit_offset(0x0e)
    2438                      .dwattr $C$DW$190, DW_AT_bit_size(0x01)
    2439                      .dwattr $C$DW$190, DW_AT_data_member_location[DW_OP_plus_uconst 0x0]
    2440                      .dwattr $C$DW$190, DW_AT_accessibility(DW_ACCESS_public)
    2441              
    2442              $C$DW$191       .dwtag  DW_TAG_member
    2443                      .dwattr $C$DW$191, DW_AT_type(*$C$DW$T$19)
    2444                      .dwattr $C$DW$191, DW_AT_name("ADCINT3")
    2445                      .dwattr $C$DW$191, DW_AT_TI_symbol_name("_ADCINT3")
    2446                      .dwattr $C$DW$191, DW_AT_bit_offset(0x0d)
    2447                      .dwattr $C$DW$191, DW_AT_bit_size(0x01)
    2448                      .dwattr $C$DW$191, DW_AT_data_member_location[DW_OP_plus_uconst 0x0]
    2449                      .dwattr $C$DW$191, DW_AT_accessibility(DW_ACCESS_public)
    2450              
    2451              $C$DW$192       .dwtag  DW_TAG_member
    2452                      .dwattr $C$DW$192, DW_AT_type(*$C$DW$T$19)
    2453                      .dwattr $C$DW$192, DW_AT_name("ADCINT4")
    2454                      .dwattr $C$DW$192, DW_AT_TI_symbol_name("_ADCINT4")
    2455                      .dwattr $C$DW$192, DW_AT_bit_offset(0x0c)
    2456                      .dwattr $C$DW$192, DW_AT_bit_size(0x01)
    2457                      .dwattr $C$DW$192, DW_AT_data_member_location[DW_OP_plus_uconst 0x0]
    2458                      .dwattr $C$DW$192, DW_AT_accessibility(DW_ACCESS_public)
    2459              
    2460              $C$DW$193       .dwtag  DW_TAG_member
    2461                      .dwattr $C$DW$193, DW_AT_type(*$C$DW$T$19)
    2462                      .dwattr $C$DW$193, DW_AT_name("rsvd1")
    2463                      .dwattr $C$DW$193, DW_AT_TI_symbol_name("_rsvd1")
    2464                      .dwattr $C$DW$193, DW_AT_bit_offset(0x00)
    2465                      .dwattr $C$DW$193, DW_AT_bit_size(0x0c)
    2466                      .dwattr $C$DW$193, DW_AT_data_member_location[DW_OP_plus_uconst 0x0]
    2467                      .dwattr $C$DW$193, DW_AT_accessibility(DW_ACCESS_public)
    2468              
    2469                      .dwendtag $C$DW$T$43
    2470              
    2471              
    2472              $C$DW$T$44      .dwtag  DW_TAG_union_type
    2473                      .dwattr $C$DW$T$44, DW_AT_name("ADCINTOVFCLR_REG")
    2474                      .dwattr $C$DW$T$44, DW_AT_byte_size(0x01)
    2475              $C$DW$194       .dwtag  DW_TAG_member
TMS320C2000 Assembler PC v20.2.1 Mon Dec  7 23:59:49 2020

Copyright (c) 1996-2018 Texas Instruments Incorporated
resolver.asm                                                         PAGE   49

    2476                      .dwattr $C$DW$194, DW_AT_type(*$C$DW$T$19)
    2477                      .dwattr $C$DW$194, DW_AT_name("all")
    2478                      .dwattr $C$DW$194, DW_AT_TI_symbol_name("_all")
    2479                      .dwattr $C$DW$194, DW_AT_data_member_location[DW_OP_plus_uconst 0x0]
    2480                      .dwattr $C$DW$194, DW_AT_accessibility(DW_ACCESS_public)
    2481              
    2482              $C$DW$195       .dwtag  DW_TAG_member
    2483                      .dwattr $C$DW$195, DW_AT_type(*$C$DW$T$43)
    2484                      .dwattr $C$DW$195, DW_AT_name("bit")
    2485                      .dwattr $C$DW$195, DW_AT_TI_symbol_name("_bit")
    2486                      .dwattr $C$DW$195, DW_AT_data_member_location[DW_OP_plus_uconst 0x0]
    2487                      .dwattr $C$DW$195, DW_AT_accessibility(DW_ACCESS_public)
    2488              
    2489                      .dwendtag $C$DW$T$44
    2490              
    2491              
    2492              $C$DW$T$45      .dwtag  DW_TAG_structure_type
    2493                      .dwattr $C$DW$T$45, DW_AT_name("ADCINTOVF_BITS")
    2494                      .dwattr $C$DW$T$45, DW_AT_byte_size(0x01)
    2495              $C$DW$196       .dwtag  DW_TAG_member
    2496                      .dwattr $C$DW$196, DW_AT_type(*$C$DW$T$19)
    2497                      .dwattr $C$DW$196, DW_AT_name("ADCINT1")
    2498                      .dwattr $C$DW$196, DW_AT_TI_symbol_name("_ADCINT1")
    2499                      .dwattr $C$DW$196, DW_AT_bit_offset(0x0f)
    2500                      .dwattr $C$DW$196, DW_AT_bit_size(0x01)
    2501                      .dwattr $C$DW$196, DW_AT_data_member_location[DW_OP_plus_uconst 0x0]
    2502                      .dwattr $C$DW$196, DW_AT_accessibility(DW_ACCESS_public)
    2503              
    2504              $C$DW$197       .dwtag  DW_TAG_member
    2505                      .dwattr $C$DW$197, DW_AT_type(*$C$DW$T$19)
    2506                      .dwattr $C$DW$197, DW_AT_name("ADCINT2")
    2507                      .dwattr $C$DW$197, DW_AT_TI_symbol_name("_ADCINT2")
    2508                      .dwattr $C$DW$197, DW_AT_bit_offset(0x0e)
    2509                      .dwattr $C$DW$197, DW_AT_bit_size(0x01)
    2510                      .dwattr $C$DW$197, DW_AT_data_member_location[DW_OP_plus_uconst 0x0]
    2511                      .dwattr $C$DW$197, DW_AT_accessibility(DW_ACCESS_public)
    2512              
    2513              $C$DW$198       .dwtag  DW_TAG_member
    2514                      .dwattr $C$DW$198, DW_AT_type(*$C$DW$T$19)
    2515                      .dwattr $C$DW$198, DW_AT_name("ADCINT3")
    2516                      .dwattr $C$DW$198, DW_AT_TI_symbol_name("_ADCINT3")
    2517                      .dwattr $C$DW$198, DW_AT_bit_offset(0x0d)
    2518                      .dwattr $C$DW$198, DW_AT_bit_size(0x01)
    2519                      .dwattr $C$DW$198, DW_AT_data_member_location[DW_OP_plus_uconst 0x0]
    2520                      .dwattr $C$DW$198, DW_AT_accessibility(DW_ACCESS_public)
    2521              
    2522              $C$DW$199       .dwtag  DW_TAG_member
    2523                      .dwattr $C$DW$199, DW_AT_type(*$C$DW$T$19)
    2524                      .dwattr $C$DW$199, DW_AT_name("ADCINT4")
    2525                      .dwattr $C$DW$199, DW_AT_TI_symbol_name("_ADCINT4")
    2526                      .dwattr $C$DW$199, DW_AT_bit_offset(0x0c)
    2527                      .dwattr $C$DW$199, DW_AT_bit_size(0x01)
    2528                      .dwattr $C$DW$199, DW_AT_data_member_location[DW_OP_plus_uconst 0x0]
    2529                      .dwattr $C$DW$199, DW_AT_accessibility(DW_ACCESS_public)
    2530              
TMS320C2000 Assembler PC v20.2.1 Mon Dec  7 23:59:49 2020

Copyright (c) 1996-2018 Texas Instruments Incorporated
resolver.asm                                                         PAGE   50

    2531              $C$DW$200       .dwtag  DW_TAG_member
    2532                      .dwattr $C$DW$200, DW_AT_type(*$C$DW$T$19)
    2533                      .dwattr $C$DW$200, DW_AT_name("rsvd1")
    2534                      .dwattr $C$DW$200, DW_AT_TI_symbol_name("_rsvd1")
    2535                      .dwattr $C$DW$200, DW_AT_bit_offset(0x00)
    2536                      .dwattr $C$DW$200, DW_AT_bit_size(0x0c)
    2537                      .dwattr $C$DW$200, DW_AT_data_member_location[DW_OP_plus_uconst 0x0]
    2538                      .dwattr $C$DW$200, DW_AT_accessibility(DW_ACCESS_public)
    2539              
    2540                      .dwendtag $C$DW$T$45
    2541              
    2542              
    2543              $C$DW$T$46      .dwtag  DW_TAG_union_type
    2544                      .dwattr $C$DW$T$46, DW_AT_name("ADCINTOVF_REG")
    2545                      .dwattr $C$DW$T$46, DW_AT_byte_size(0x01)
    2546              $C$DW$201       .dwtag  DW_TAG_member
    2547                      .dwattr $C$DW$201, DW_AT_type(*$C$DW$T$19)
    2548                      .dwattr $C$DW$201, DW_AT_name("all")
    2549                      .dwattr $C$DW$201, DW_AT_TI_symbol_name("_all")
    2550                      .dwattr $C$DW$201, DW_AT_data_member_location[DW_OP_plus_uconst 0x0]
    2551                      .dwattr $C$DW$201, DW_AT_accessibility(DW_ACCESS_public)
    2552              
    2553              $C$DW$202       .dwtag  DW_TAG_member
    2554                      .dwattr $C$DW$202, DW_AT_type(*$C$DW$T$45)
    2555                      .dwattr $C$DW$202, DW_AT_name("bit")
    2556                      .dwattr $C$DW$202, DW_AT_TI_symbol_name("_bit")
    2557                      .dwattr $C$DW$202, DW_AT_data_member_location[DW_OP_plus_uconst 0x0]
    2558                      .dwattr $C$DW$202, DW_AT_accessibility(DW_ACCESS_public)
    2559              
    2560                      .dwendtag $C$DW$T$46
    2561              
    2562              
    2563              $C$DW$T$47      .dwtag  DW_TAG_structure_type
    2564                      .dwattr $C$DW$T$47, DW_AT_name("ADCINTSEL1N2_BITS")
    2565                      .dwattr $C$DW$T$47, DW_AT_byte_size(0x01)
    2566              $C$DW$203       .dwtag  DW_TAG_member
    2567                      .dwattr $C$DW$203, DW_AT_type(*$C$DW$T$19)
    2568                      .dwattr $C$DW$203, DW_AT_name("INT1SEL")
    2569                      .dwattr $C$DW$203, DW_AT_TI_symbol_name("_INT1SEL")
    2570                      .dwattr $C$DW$203, DW_AT_bit_offset(0x0c)
    2571                      .dwattr $C$DW$203, DW_AT_bit_size(0x04)
    2572                      .dwattr $C$DW$203, DW_AT_data_member_location[DW_OP_plus_uconst 0x0]
    2573                      .dwattr $C$DW$203, DW_AT_accessibility(DW_ACCESS_public)
    2574              
    2575              $C$DW$204       .dwtag  DW_TAG_member
    2576                      .dwattr $C$DW$204, DW_AT_type(*$C$DW$T$19)
    2577                      .dwattr $C$DW$204, DW_AT_name("rsvd1")
    2578                      .dwattr $C$DW$204, DW_AT_TI_symbol_name("_rsvd1")
    2579                      .dwattr $C$DW$204, DW_AT_bit_offset(0x0b)
    2580                      .dwattr $C$DW$204, DW_AT_bit_size(0x01)
    2581                      .dwattr $C$DW$204, DW_AT_data_member_location[DW_OP_plus_uconst 0x0]
    2582                      .dwattr $C$DW$204, DW_AT_accessibility(DW_ACCESS_public)
    2583              
    2584              $C$DW$205       .dwtag  DW_TAG_member
    2585                      .dwattr $C$DW$205, DW_AT_type(*$C$DW$T$19)
TMS320C2000 Assembler PC v20.2.1 Mon Dec  7 23:59:49 2020

Copyright (c) 1996-2018 Texas Instruments Incorporated
resolver.asm                                                         PAGE   51

    2586                      .dwattr $C$DW$205, DW_AT_name("INT1E")
    2587                      .dwattr $C$DW$205, DW_AT_TI_symbol_name("_INT1E")
    2588                      .dwattr $C$DW$205, DW_AT_bit_offset(0x0a)
    2589                      .dwattr $C$DW$205, DW_AT_bit_size(0x01)
    2590                      .dwattr $C$DW$205, DW_AT_data_member_location[DW_OP_plus_uconst 0x0]
    2591                      .dwattr $C$DW$205, DW_AT_accessibility(DW_ACCESS_public)
    2592              
    2593              $C$DW$206       .dwtag  DW_TAG_member
    2594                      .dwattr $C$DW$206, DW_AT_type(*$C$DW$T$19)
    2595                      .dwattr $C$DW$206, DW_AT_name("INT1CONT")
    2596                      .dwattr $C$DW$206, DW_AT_TI_symbol_name("_INT1CONT")
    2597                      .dwattr $C$DW$206, DW_AT_bit_offset(0x09)
    2598                      .dwattr $C$DW$206, DW_AT_bit_size(0x01)
    2599                      .dwattr $C$DW$206, DW_AT_data_member_location[DW_OP_plus_uconst 0x0]
    2600                      .dwattr $C$DW$206, DW_AT_accessibility(DW_ACCESS_public)
    2601              
    2602              $C$DW$207       .dwtag  DW_TAG_member
    2603                      .dwattr $C$DW$207, DW_AT_type(*$C$DW$T$19)
    2604                      .dwattr $C$DW$207, DW_AT_name("rsvd2")
    2605                      .dwattr $C$DW$207, DW_AT_TI_symbol_name("_rsvd2")
    2606                      .dwattr $C$DW$207, DW_AT_bit_offset(0x08)
    2607                      .dwattr $C$DW$207, DW_AT_bit_size(0x01)
    2608                      .dwattr $C$DW$207, DW_AT_data_member_location[DW_OP_plus_uconst 0x0]
    2609                      .dwattr $C$DW$207, DW_AT_accessibility(DW_ACCESS_public)
    2610              
    2611              $C$DW$208       .dwtag  DW_TAG_member
    2612                      .dwattr $C$DW$208, DW_AT_type(*$C$DW$T$19)
    2613                      .dwattr $C$DW$208, DW_AT_name("INT2SEL")
    2614                      .dwattr $C$DW$208, DW_AT_TI_symbol_name("_INT2SEL")
    2615                      .dwattr $C$DW$208, DW_AT_bit_offset(0x04)
    2616                      .dwattr $C$DW$208, DW_AT_bit_size(0x04)
    2617                      .dwattr $C$DW$208, DW_AT_data_member_location[DW_OP_plus_uconst 0x0]
    2618                      .dwattr $C$DW$208, DW_AT_accessibility(DW_ACCESS_public)
    2619              
    2620              $C$DW$209       .dwtag  DW_TAG_member
    2621                      .dwattr $C$DW$209, DW_AT_type(*$C$DW$T$19)
    2622                      .dwattr $C$DW$209, DW_AT_name("rsvd3")
    2623                      .dwattr $C$DW$209, DW_AT_TI_symbol_name("_rsvd3")
    2624                      .dwattr $C$DW$209, DW_AT_bit_offset(0x03)
    2625                      .dwattr $C$DW$209, DW_AT_bit_size(0x01)
    2626                      .dwattr $C$DW$209, DW_AT_data_member_location[DW_OP_plus_uconst 0x0]
    2627                      .dwattr $C$DW$209, DW_AT_accessibility(DW_ACCESS_public)
    2628              
    2629              $C$DW$210       .dwtag  DW_TAG_member
    2630                      .dwattr $C$DW$210, DW_AT_type(*$C$DW$T$19)
    2631                      .dwattr $C$DW$210, DW_AT_name("INT2E")
    2632                      .dwattr $C$DW$210, DW_AT_TI_symbol_name("_INT2E")
    2633                      .dwattr $C$DW$210, DW_AT_bit_offset(0x02)
    2634                      .dwattr $C$DW$210, DW_AT_bit_size(0x01)
    2635                      .dwattr $C$DW$210, DW_AT_data_member_location[DW_OP_plus_uconst 0x0]
    2636                      .dwattr $C$DW$210, DW_AT_accessibility(DW_ACCESS_public)
    2637              
    2638              $C$DW$211       .dwtag  DW_TAG_member
    2639                      .dwattr $C$DW$211, DW_AT_type(*$C$DW$T$19)
    2640                      .dwattr $C$DW$211, DW_AT_name("INT2CONT")
TMS320C2000 Assembler PC v20.2.1 Mon Dec  7 23:59:49 2020

Copyright (c) 1996-2018 Texas Instruments Incorporated
resolver.asm                                                         PAGE   52

    2641                      .dwattr $C$DW$211, DW_AT_TI_symbol_name("_INT2CONT")
    2642                      .dwattr $C$DW$211, DW_AT_bit_offset(0x01)
    2643                      .dwattr $C$DW$211, DW_AT_bit_size(0x01)
    2644                      .dwattr $C$DW$211, DW_AT_data_member_location[DW_OP_plus_uconst 0x0]
    2645                      .dwattr $C$DW$211, DW_AT_accessibility(DW_ACCESS_public)
    2646              
    2647              $C$DW$212       .dwtag  DW_TAG_member
    2648                      .dwattr $C$DW$212, DW_AT_type(*$C$DW$T$19)
    2649                      .dwattr $C$DW$212, DW_AT_name("rsvd4")
    2650                      .dwattr $C$DW$212, DW_AT_TI_symbol_name("_rsvd4")
    2651                      .dwattr $C$DW$212, DW_AT_bit_offset(0x00)
    2652                      .dwattr $C$DW$212, DW_AT_bit_size(0x01)
    2653                      .dwattr $C$DW$212, DW_AT_data_member_location[DW_OP_plus_uconst 0x0]
    2654                      .dwattr $C$DW$212, DW_AT_accessibility(DW_ACCESS_public)
    2655              
    2656                      .dwendtag $C$DW$T$47
    2657              
    2658              
    2659              $C$DW$T$48      .dwtag  DW_TAG_union_type
    2660                      .dwattr $C$DW$T$48, DW_AT_name("ADCINTSEL1N2_REG")
    2661                      .dwattr $C$DW$T$48, DW_AT_byte_size(0x01)
    2662              $C$DW$213       .dwtag  DW_TAG_member
    2663                      .dwattr $C$DW$213, DW_AT_type(*$C$DW$T$19)
    2664                      .dwattr $C$DW$213, DW_AT_name("all")
    2665                      .dwattr $C$DW$213, DW_AT_TI_symbol_name("_all")
    2666                      .dwattr $C$DW$213, DW_AT_data_member_location[DW_OP_plus_uconst 0x0]
    2667                      .dwattr $C$DW$213, DW_AT_accessibility(DW_ACCESS_public)
    2668              
    2669              $C$DW$214       .dwtag  DW_TAG_member
    2670                      .dwattr $C$DW$214, DW_AT_type(*$C$DW$T$47)
    2671                      .dwattr $C$DW$214, DW_AT_name("bit")
    2672                      .dwattr $C$DW$214, DW_AT_TI_symbol_name("_bit")
    2673                      .dwattr $C$DW$214, DW_AT_data_member_location[DW_OP_plus_uconst 0x0]
    2674                      .dwattr $C$DW$214, DW_AT_accessibility(DW_ACCESS_public)
    2675              
    2676                      .dwendtag $C$DW$T$48
    2677              
    2678              
    2679              $C$DW$T$49      .dwtag  DW_TAG_structure_type
    2680                      .dwattr $C$DW$T$49, DW_AT_name("ADCINTSEL3N4_BITS")
    2681                      .dwattr $C$DW$T$49, DW_AT_byte_size(0x01)
    2682              $C$DW$215       .dwtag  DW_TAG_member
    2683                      .dwattr $C$DW$215, DW_AT_type(*$C$DW$T$19)
    2684                      .dwattr $C$DW$215, DW_AT_name("INT3SEL")
    2685                      .dwattr $C$DW$215, DW_AT_TI_symbol_name("_INT3SEL")
    2686                      .dwattr $C$DW$215, DW_AT_bit_offset(0x0c)
    2687                      .dwattr $C$DW$215, DW_AT_bit_size(0x04)
    2688                      .dwattr $C$DW$215, DW_AT_data_member_location[DW_OP_plus_uconst 0x0]
    2689                      .dwattr $C$DW$215, DW_AT_accessibility(DW_ACCESS_public)
    2690              
    2691              $C$DW$216       .dwtag  DW_TAG_member
    2692                      .dwattr $C$DW$216, DW_AT_type(*$C$DW$T$19)
    2693                      .dwattr $C$DW$216, DW_AT_name("rsvd1")
    2694                      .dwattr $C$DW$216, DW_AT_TI_symbol_name("_rsvd1")
    2695                      .dwattr $C$DW$216, DW_AT_bit_offset(0x0b)
TMS320C2000 Assembler PC v20.2.1 Mon Dec  7 23:59:49 2020

Copyright (c) 1996-2018 Texas Instruments Incorporated
resolver.asm                                                         PAGE   53

    2696                      .dwattr $C$DW$216, DW_AT_bit_size(0x01)
    2697                      .dwattr $C$DW$216, DW_AT_data_member_location[DW_OP_plus_uconst 0x0]
    2698                      .dwattr $C$DW$216, DW_AT_accessibility(DW_ACCESS_public)
    2699              
    2700              $C$DW$217       .dwtag  DW_TAG_member
    2701                      .dwattr $C$DW$217, DW_AT_type(*$C$DW$T$19)
    2702                      .dwattr $C$DW$217, DW_AT_name("INT3E")
    2703                      .dwattr $C$DW$217, DW_AT_TI_symbol_name("_INT3E")
    2704                      .dwattr $C$DW$217, DW_AT_bit_offset(0x0a)
    2705                      .dwattr $C$DW$217, DW_AT_bit_size(0x01)
    2706                      .dwattr $C$DW$217, DW_AT_data_member_location[DW_OP_plus_uconst 0x0]
    2707                      .dwattr $C$DW$217, DW_AT_accessibility(DW_ACCESS_public)
    2708              
    2709              $C$DW$218       .dwtag  DW_TAG_member
    2710                      .dwattr $C$DW$218, DW_AT_type(*$C$DW$T$19)
    2711                      .dwattr $C$DW$218, DW_AT_name("INT3CONT")
    2712                      .dwattr $C$DW$218, DW_AT_TI_symbol_name("_INT3CONT")
    2713                      .dwattr $C$DW$218, DW_AT_bit_offset(0x09)
    2714                      .dwattr $C$DW$218, DW_AT_bit_size(0x01)
    2715                      .dwattr $C$DW$218, DW_AT_data_member_location[DW_OP_plus_uconst 0x0]
    2716                      .dwattr $C$DW$218, DW_AT_accessibility(DW_ACCESS_public)
    2717              
    2718              $C$DW$219       .dwtag  DW_TAG_member
    2719                      .dwattr $C$DW$219, DW_AT_type(*$C$DW$T$19)
    2720                      .dwattr $C$DW$219, DW_AT_name("rsvd2")
    2721                      .dwattr $C$DW$219, DW_AT_TI_symbol_name("_rsvd2")
    2722                      .dwattr $C$DW$219, DW_AT_bit_offset(0x08)
    2723                      .dwattr $C$DW$219, DW_AT_bit_size(0x01)
    2724                      .dwattr $C$DW$219, DW_AT_data_member_location[DW_OP_plus_uconst 0x0]
    2725                      .dwattr $C$DW$219, DW_AT_accessibility(DW_ACCESS_public)
    2726              
    2727              $C$DW$220       .dwtag  DW_TAG_member
    2728                      .dwattr $C$DW$220, DW_AT_type(*$C$DW$T$19)
    2729                      .dwattr $C$DW$220, DW_AT_name("INT4SEL")
    2730                      .dwattr $C$DW$220, DW_AT_TI_symbol_name("_INT4SEL")
    2731                      .dwattr $C$DW$220, DW_AT_bit_offset(0x04)
    2732                      .dwattr $C$DW$220, DW_AT_bit_size(0x04)
    2733                      .dwattr $C$DW$220, DW_AT_data_member_location[DW_OP_plus_uconst 0x0]
    2734                      .dwattr $C$DW$220, DW_AT_accessibility(DW_ACCESS_public)
    2735              
    2736              $C$DW$221       .dwtag  DW_TAG_member
    2737                      .dwattr $C$DW$221, DW_AT_type(*$C$DW$T$19)
    2738                      .dwattr $C$DW$221, DW_AT_name("rsvd3")
    2739                      .dwattr $C$DW$221, DW_AT_TI_symbol_name("_rsvd3")
    2740                      .dwattr $C$DW$221, DW_AT_bit_offset(0x03)
    2741                      .dwattr $C$DW$221, DW_AT_bit_size(0x01)
    2742                      .dwattr $C$DW$221, DW_AT_data_member_location[DW_OP_plus_uconst 0x0]
    2743                      .dwattr $C$DW$221, DW_AT_accessibility(DW_ACCESS_public)
    2744              
    2745              $C$DW$222       .dwtag  DW_TAG_member
    2746                      .dwattr $C$DW$222, DW_AT_type(*$C$DW$T$19)
    2747                      .dwattr $C$DW$222, DW_AT_name("INT4E")
    2748                      .dwattr $C$DW$222, DW_AT_TI_symbol_name("_INT4E")
    2749                      .dwattr $C$DW$222, DW_AT_bit_offset(0x02)
    2750                      .dwattr $C$DW$222, DW_AT_bit_size(0x01)
TMS320C2000 Assembler PC v20.2.1 Mon Dec  7 23:59:49 2020

Copyright (c) 1996-2018 Texas Instruments Incorporated
resolver.asm                                                         PAGE   54

    2751                      .dwattr $C$DW$222, DW_AT_data_member_location[DW_OP_plus_uconst 0x0]
    2752                      .dwattr $C$DW$222, DW_AT_accessibility(DW_ACCESS_public)
    2753              
    2754              $C$DW$223       .dwtag  DW_TAG_member
    2755                      .dwattr $C$DW$223, DW_AT_type(*$C$DW$T$19)
    2756                      .dwattr $C$DW$223, DW_AT_name("INT4CONT")
    2757                      .dwattr $C$DW$223, DW_AT_TI_symbol_name("_INT4CONT")
    2758                      .dwattr $C$DW$223, DW_AT_bit_offset(0x01)
    2759                      .dwattr $C$DW$223, DW_AT_bit_size(0x01)
    2760                      .dwattr $C$DW$223, DW_AT_data_member_location[DW_OP_plus_uconst 0x0]
    2761                      .dwattr $C$DW$223, DW_AT_accessibility(DW_ACCESS_public)
    2762              
    2763              $C$DW$224       .dwtag  DW_TAG_member
    2764                      .dwattr $C$DW$224, DW_AT_type(*$C$DW$T$19)
    2765                      .dwattr $C$DW$224, DW_AT_name("rsvd4")
    2766                      .dwattr $C$DW$224, DW_AT_TI_symbol_name("_rsvd4")
    2767                      .dwattr $C$DW$224, DW_AT_bit_offset(0x00)
    2768                      .dwattr $C$DW$224, DW_AT_bit_size(0x01)
    2769                      .dwattr $C$DW$224, DW_AT_data_member_location[DW_OP_plus_uconst 0x0]
    2770                      .dwattr $C$DW$224, DW_AT_accessibility(DW_ACCESS_public)
    2771              
    2772                      .dwendtag $C$DW$T$49
    2773              
    2774              
    2775              $C$DW$T$50      .dwtag  DW_TAG_union_type
    2776                      .dwattr $C$DW$T$50, DW_AT_name("ADCINTSEL3N4_REG")
    2777                      .dwattr $C$DW$T$50, DW_AT_byte_size(0x01)
    2778              $C$DW$225       .dwtag  DW_TAG_member
    2779                      .dwattr $C$DW$225, DW_AT_type(*$C$DW$T$19)
    2780                      .dwattr $C$DW$225, DW_AT_name("all")
    2781                      .dwattr $C$DW$225, DW_AT_TI_symbol_name("_all")
    2782                      .dwattr $C$DW$225, DW_AT_data_member_location[DW_OP_plus_uconst 0x0]
    2783                      .dwattr $C$DW$225, DW_AT_accessibility(DW_ACCESS_public)
    2784              
    2785              $C$DW$226       .dwtag  DW_TAG_member
    2786                      .dwattr $C$DW$226, DW_AT_type(*$C$DW$T$49)
    2787                      .dwattr $C$DW$226, DW_AT_name("bit")
    2788                      .dwattr $C$DW$226, DW_AT_TI_symbol_name("_bit")
    2789                      .dwattr $C$DW$226, DW_AT_data_member_location[DW_OP_plus_uconst 0x0]
    2790                      .dwattr $C$DW$226, DW_AT_accessibility(DW_ACCESS_public)
    2791              
    2792                      .dwendtag $C$DW$T$50
    2793              
    2794              
    2795              $C$DW$T$51      .dwtag  DW_TAG_structure_type
    2796                      .dwattr $C$DW$T$51, DW_AT_name("ADCINTSOCSEL1_BITS")
    2797                      .dwattr $C$DW$T$51, DW_AT_byte_size(0x01)
    2798              $C$DW$227       .dwtag  DW_TAG_member
    2799                      .dwattr $C$DW$227, DW_AT_type(*$C$DW$T$19)
    2800                      .dwattr $C$DW$227, DW_AT_name("SOC0")
    2801                      .dwattr $C$DW$227, DW_AT_TI_symbol_name("_SOC0")
    2802                      .dwattr $C$DW$227, DW_AT_bit_offset(0x0e)
    2803                      .dwattr $C$DW$227, DW_AT_bit_size(0x02)
    2804                      .dwattr $C$DW$227, DW_AT_data_member_location[DW_OP_plus_uconst 0x0]
    2805                      .dwattr $C$DW$227, DW_AT_accessibility(DW_ACCESS_public)
TMS320C2000 Assembler PC v20.2.1 Mon Dec  7 23:59:49 2020

Copyright (c) 1996-2018 Texas Instruments Incorporated
resolver.asm                                                         PAGE   55

    2806              
    2807              $C$DW$228       .dwtag  DW_TAG_member
    2808                      .dwattr $C$DW$228, DW_AT_type(*$C$DW$T$19)
    2809                      .dwattr $C$DW$228, DW_AT_name("SOC1")
    2810                      .dwattr $C$DW$228, DW_AT_TI_symbol_name("_SOC1")
    2811                      .dwattr $C$DW$228, DW_AT_bit_offset(0x0c)
    2812                      .dwattr $C$DW$228, DW_AT_bit_size(0x02)
    2813                      .dwattr $C$DW$228, DW_AT_data_member_location[DW_OP_plus_uconst 0x0]
    2814                      .dwattr $C$DW$228, DW_AT_accessibility(DW_ACCESS_public)
    2815              
    2816              $C$DW$229       .dwtag  DW_TAG_member
    2817                      .dwattr $C$DW$229, DW_AT_type(*$C$DW$T$19)
    2818                      .dwattr $C$DW$229, DW_AT_name("SOC2")
    2819                      .dwattr $C$DW$229, DW_AT_TI_symbol_name("_SOC2")
    2820                      .dwattr $C$DW$229, DW_AT_bit_offset(0x0a)
    2821                      .dwattr $C$DW$229, DW_AT_bit_size(0x02)
    2822                      .dwattr $C$DW$229, DW_AT_data_member_location[DW_OP_plus_uconst 0x0]
    2823                      .dwattr $C$DW$229, DW_AT_accessibility(DW_ACCESS_public)
    2824              
    2825              $C$DW$230       .dwtag  DW_TAG_member
    2826                      .dwattr $C$DW$230, DW_AT_type(*$C$DW$T$19)
    2827                      .dwattr $C$DW$230, DW_AT_name("SOC3")
    2828                      .dwattr $C$DW$230, DW_AT_TI_symbol_name("_SOC3")
    2829                      .dwattr $C$DW$230, DW_AT_bit_offset(0x08)
    2830                      .dwattr $C$DW$230, DW_AT_bit_size(0x02)
    2831                      .dwattr $C$DW$230, DW_AT_data_member_location[DW_OP_plus_uconst 0x0]
    2832                      .dwattr $C$DW$230, DW_AT_accessibility(DW_ACCESS_public)
    2833              
    2834              $C$DW$231       .dwtag  DW_TAG_member
    2835                      .dwattr $C$DW$231, DW_AT_type(*$C$DW$T$19)
    2836                      .dwattr $C$DW$231, DW_AT_name("SOC4")
    2837                      .dwattr $C$DW$231, DW_AT_TI_symbol_name("_SOC4")
    2838                      .dwattr $C$DW$231, DW_AT_bit_offset(0x06)
    2839                      .dwattr $C$DW$231, DW_AT_bit_size(0x02)
    2840                      .dwattr $C$DW$231, DW_AT_data_member_location[DW_OP_plus_uconst 0x0]
    2841                      .dwattr $C$DW$231, DW_AT_accessibility(DW_ACCESS_public)
    2842              
    2843              $C$DW$232       .dwtag  DW_TAG_member
    2844                      .dwattr $C$DW$232, DW_AT_type(*$C$DW$T$19)
    2845                      .dwattr $C$DW$232, DW_AT_name("SOC5")
    2846                      .dwattr $C$DW$232, DW_AT_TI_symbol_name("_SOC5")
    2847                      .dwattr $C$DW$232, DW_AT_bit_offset(0x04)
    2848                      .dwattr $C$DW$232, DW_AT_bit_size(0x02)
    2849                      .dwattr $C$DW$232, DW_AT_data_member_location[DW_OP_plus_uconst 0x0]
    2850                      .dwattr $C$DW$232, DW_AT_accessibility(DW_ACCESS_public)
    2851              
    2852              $C$DW$233       .dwtag  DW_TAG_member
    2853                      .dwattr $C$DW$233, DW_AT_type(*$C$DW$T$19)
    2854                      .dwattr $C$DW$233, DW_AT_name("SOC6")
    2855                      .dwattr $C$DW$233, DW_AT_TI_symbol_name("_SOC6")
    2856                      .dwattr $C$DW$233, DW_AT_bit_offset(0x02)
    2857                      .dwattr $C$DW$233, DW_AT_bit_size(0x02)
    2858                      .dwattr $C$DW$233, DW_AT_data_member_location[DW_OP_plus_uconst 0x0]
    2859                      .dwattr $C$DW$233, DW_AT_accessibility(DW_ACCESS_public)
    2860              
TMS320C2000 Assembler PC v20.2.1 Mon Dec  7 23:59:49 2020

Copyright (c) 1996-2018 Texas Instruments Incorporated
resolver.asm                                                         PAGE   56

    2861              $C$DW$234       .dwtag  DW_TAG_member
    2862                      .dwattr $C$DW$234, DW_AT_type(*$C$DW$T$19)
    2863                      .dwattr $C$DW$234, DW_AT_name("SOC7")
    2864                      .dwattr $C$DW$234, DW_AT_TI_symbol_name("_SOC7")
    2865                      .dwattr $C$DW$234, DW_AT_bit_offset(0x00)
    2866                      .dwattr $C$DW$234, DW_AT_bit_size(0x02)
    2867                      .dwattr $C$DW$234, DW_AT_data_member_location[DW_OP_plus_uconst 0x0]
    2868                      .dwattr $C$DW$234, DW_AT_accessibility(DW_ACCESS_public)
    2869              
    2870                      .dwendtag $C$DW$T$51
    2871              
    2872              
    2873              $C$DW$T$52      .dwtag  DW_TAG_union_type
    2874                      .dwattr $C$DW$T$52, DW_AT_name("ADCINTSOCSEL1_REG")
    2875                      .dwattr $C$DW$T$52, DW_AT_byte_size(0x01)
    2876              $C$DW$235       .dwtag  DW_TAG_member
    2877                      .dwattr $C$DW$235, DW_AT_type(*$C$DW$T$19)
    2878                      .dwattr $C$DW$235, DW_AT_name("all")
    2879                      .dwattr $C$DW$235, DW_AT_TI_symbol_name("_all")
    2880                      .dwattr $C$DW$235, DW_AT_data_member_location[DW_OP_plus_uconst 0x0]
    2881                      .dwattr $C$DW$235, DW_AT_accessibility(DW_ACCESS_public)
    2882              
    2883              $C$DW$236       .dwtag  DW_TAG_member
    2884                      .dwattr $C$DW$236, DW_AT_type(*$C$DW$T$51)
    2885                      .dwattr $C$DW$236, DW_AT_name("bit")
    2886                      .dwattr $C$DW$236, DW_AT_TI_symbol_name("_bit")
    2887                      .dwattr $C$DW$236, DW_AT_data_member_location[DW_OP_plus_uconst 0x0]
    2888                      .dwattr $C$DW$236, DW_AT_accessibility(DW_ACCESS_public)
    2889              
    2890                      .dwendtag $C$DW$T$52
    2891              
    2892              
    2893              $C$DW$T$53      .dwtag  DW_TAG_structure_type
    2894                      .dwattr $C$DW$T$53, DW_AT_name("ADCINTSOCSEL2_BITS")
    2895                      .dwattr $C$DW$T$53, DW_AT_byte_size(0x01)
    2896              $C$DW$237       .dwtag  DW_TAG_member
    2897                      .dwattr $C$DW$237, DW_AT_type(*$C$DW$T$19)
    2898                      .dwattr $C$DW$237, DW_AT_name("SOC8")
    2899                      .dwattr $C$DW$237, DW_AT_TI_symbol_name("_SOC8")
    2900                      .dwattr $C$DW$237, DW_AT_bit_offset(0x0e)
    2901                      .dwattr $C$DW$237, DW_AT_bit_size(0x02)
    2902                      .dwattr $C$DW$237, DW_AT_data_member_location[DW_OP_plus_uconst 0x0]
    2903                      .dwattr $C$DW$237, DW_AT_accessibility(DW_ACCESS_public)
    2904              
    2905              $C$DW$238       .dwtag  DW_TAG_member
    2906                      .dwattr $C$DW$238, DW_AT_type(*$C$DW$T$19)
    2907                      .dwattr $C$DW$238, DW_AT_name("SOC9")
    2908                      .dwattr $C$DW$238, DW_AT_TI_symbol_name("_SOC9")
    2909                      .dwattr $C$DW$238, DW_AT_bit_offset(0x0c)
    2910                      .dwattr $C$DW$238, DW_AT_bit_size(0x02)
    2911                      .dwattr $C$DW$238, DW_AT_data_member_location[DW_OP_plus_uconst 0x0]
    2912                      .dwattr $C$DW$238, DW_AT_accessibility(DW_ACCESS_public)
    2913              
    2914              $C$DW$239       .dwtag  DW_TAG_member
    2915                      .dwattr $C$DW$239, DW_AT_type(*$C$DW$T$19)
TMS320C2000 Assembler PC v20.2.1 Mon Dec  7 23:59:49 2020

Copyright (c) 1996-2018 Texas Instruments Incorporated
resolver.asm                                                         PAGE   57

    2916                      .dwattr $C$DW$239, DW_AT_name("SOC10")
    2917                      .dwattr $C$DW$239, DW_AT_TI_symbol_name("_SOC10")
    2918                      .dwattr $C$DW$239, DW_AT_bit_offset(0x0a)
    2919                      .dwattr $C$DW$239, DW_AT_bit_size(0x02)
    2920                      .dwattr $C$DW$239, DW_AT_data_member_location[DW_OP_plus_uconst 0x0]
    2921                      .dwattr $C$DW$239, DW_AT_accessibility(DW_ACCESS_public)
    2922              
    2923              $C$DW$240       .dwtag  DW_TAG_member
    2924                      .dwattr $C$DW$240, DW_AT_type(*$C$DW$T$19)
    2925                      .dwattr $C$DW$240, DW_AT_name("SOC11")
    2926                      .dwattr $C$DW$240, DW_AT_TI_symbol_name("_SOC11")
    2927                      .dwattr $C$DW$240, DW_AT_bit_offset(0x08)
    2928                      .dwattr $C$DW$240, DW_AT_bit_size(0x02)
    2929                      .dwattr $C$DW$240, DW_AT_data_member_location[DW_OP_plus_uconst 0x0]
    2930                      .dwattr $C$DW$240, DW_AT_accessibility(DW_ACCESS_public)
    2931              
    2932              $C$DW$241       .dwtag  DW_TAG_member
    2933                      .dwattr $C$DW$241, DW_AT_type(*$C$DW$T$19)
    2934                      .dwattr $C$DW$241, DW_AT_name("SOC12")
    2935                      .dwattr $C$DW$241, DW_AT_TI_symbol_name("_SOC12")
    2936                      .dwattr $C$DW$241, DW_AT_bit_offset(0x06)
    2937                      .dwattr $C$DW$241, DW_AT_bit_size(0x02)
    2938                      .dwattr $C$DW$241, DW_AT_data_member_location[DW_OP_plus_uconst 0x0]
    2939                      .dwattr $C$DW$241, DW_AT_accessibility(DW_ACCESS_public)
    2940              
    2941              $C$DW$242       .dwtag  DW_TAG_member
    2942                      .dwattr $C$DW$242, DW_AT_type(*$C$DW$T$19)
    2943                      .dwattr $C$DW$242, DW_AT_name("SOC13")
    2944                      .dwattr $C$DW$242, DW_AT_TI_symbol_name("_SOC13")
    2945                      .dwattr $C$DW$242, DW_AT_bit_offset(0x04)
    2946                      .dwattr $C$DW$242, DW_AT_bit_size(0x02)
    2947                      .dwattr $C$DW$242, DW_AT_data_member_location[DW_OP_plus_uconst 0x0]
    2948                      .dwattr $C$DW$242, DW_AT_accessibility(DW_ACCESS_public)
    2949              
    2950              $C$DW$243       .dwtag  DW_TAG_member
    2951                      .dwattr $C$DW$243, DW_AT_type(*$C$DW$T$19)
    2952                      .dwattr $C$DW$243, DW_AT_name("SOC14")
    2953                      .dwattr $C$DW$243, DW_AT_TI_symbol_name("_SOC14")
    2954                      .dwattr $C$DW$243, DW_AT_bit_offset(0x02)
    2955                      .dwattr $C$DW$243, DW_AT_bit_size(0x02)
    2956                      .dwattr $C$DW$243, DW_AT_data_member_location[DW_OP_plus_uconst 0x0]
    2957                      .dwattr $C$DW$243, DW_AT_accessibility(DW_ACCESS_public)
    2958              
    2959              $C$DW$244       .dwtag  DW_TAG_member
    2960                      .dwattr $C$DW$244, DW_AT_type(*$C$DW$T$19)
    2961                      .dwattr $C$DW$244, DW_AT_name("SOC15")
    2962                      .dwattr $C$DW$244, DW_AT_TI_symbol_name("_SOC15")
    2963                      .dwattr $C$DW$244, DW_AT_bit_offset(0x00)
    2964                      .dwattr $C$DW$244, DW_AT_bit_size(0x02)
    2965                      .dwattr $C$DW$244, DW_AT_data_member_location[DW_OP_plus_uconst 0x0]
    2966                      .dwattr $C$DW$244, DW_AT_accessibility(DW_ACCESS_public)
    2967              
    2968                      .dwendtag $C$DW$T$53
    2969              
    2970              
TMS320C2000 Assembler PC v20.2.1 Mon Dec  7 23:59:49 2020

Copyright (c) 1996-2018 Texas Instruments Incorporated
resolver.asm                                                         PAGE   58

    2971              $C$DW$T$54      .dwtag  DW_TAG_union_type
    2972                      .dwattr $C$DW$T$54, DW_AT_name("ADCINTSOCSEL2_REG")
    2973                      .dwattr $C$DW$T$54, DW_AT_byte_size(0x01)
    2974              $C$DW$245       .dwtag  DW_TAG_member
    2975                      .dwattr $C$DW$245, DW_AT_type(*$C$DW$T$19)
    2976                      .dwattr $C$DW$245, DW_AT_name("all")
    2977                      .dwattr $C$DW$245, DW_AT_TI_symbol_name("_all")
    2978                      .dwattr $C$DW$245, DW_AT_data_member_location[DW_OP_plus_uconst 0x0]
    2979                      .dwattr $C$DW$245, DW_AT_accessibility(DW_ACCESS_public)
    2980              
    2981              $C$DW$246       .dwtag  DW_TAG_member
    2982                      .dwattr $C$DW$246, DW_AT_type(*$C$DW$T$53)
    2983                      .dwattr $C$DW$246, DW_AT_name("bit")
    2984                      .dwattr $C$DW$246, DW_AT_TI_symbol_name("_bit")
    2985                      .dwattr $C$DW$246, DW_AT_data_member_location[DW_OP_plus_uconst 0x0]
    2986                      .dwattr $C$DW$246, DW_AT_accessibility(DW_ACCESS_public)
    2987              
    2988                      .dwendtag $C$DW$T$54
    2989              
    2990              
    2991              $C$DW$T$55      .dwtag  DW_TAG_structure_type
    2992                      .dwattr $C$DW$T$55, DW_AT_name("ADCOFFTRIM_BITS")
    2993                      .dwattr $C$DW$T$55, DW_AT_byte_size(0x01)
    2994              $C$DW$247       .dwtag  DW_TAG_member
    2995                      .dwattr $C$DW$247, DW_AT_type(*$C$DW$T$19)
    2996                      .dwattr $C$DW$247, DW_AT_name("OFFTRIM")
    2997                      .dwattr $C$DW$247, DW_AT_TI_symbol_name("_OFFTRIM")
    2998                      .dwattr $C$DW$247, DW_AT_bit_offset(0x08)
    2999                      .dwattr $C$DW$247, DW_AT_bit_size(0x08)
    3000                      .dwattr $C$DW$247, DW_AT_data_member_location[DW_OP_plus_uconst 0x0]
    3001                      .dwattr $C$DW$247, DW_AT_accessibility(DW_ACCESS_public)
    3002              
    3003              $C$DW$248       .dwtag  DW_TAG_member
    3004                      .dwattr $C$DW$248, DW_AT_type(*$C$DW$T$19)
    3005                      .dwattr $C$DW$248, DW_AT_name("rsvd1")
    3006                      .dwattr $C$DW$248, DW_AT_TI_symbol_name("_rsvd1")
    3007                      .dwattr $C$DW$248, DW_AT_bit_offset(0x00)
    3008                      .dwattr $C$DW$248, DW_AT_bit_size(0x08)
    3009                      .dwattr $C$DW$248, DW_AT_data_member_location[DW_OP_plus_uconst 0x0]
    3010                      .dwattr $C$DW$248, DW_AT_accessibility(DW_ACCESS_public)
    3011              
    3012                      .dwendtag $C$DW$T$55
    3013              
    3014              
    3015              $C$DW$T$56      .dwtag  DW_TAG_union_type
    3016                      .dwattr $C$DW$T$56, DW_AT_name("ADCOFFTRIM_REG")
    3017                      .dwattr $C$DW$T$56, DW_AT_byte_size(0x01)
    3018              $C$DW$249       .dwtag  DW_TAG_member
    3019                      .dwattr $C$DW$249, DW_AT_type(*$C$DW$T$19)
    3020                      .dwattr $C$DW$249, DW_AT_name("all")
    3021                      .dwattr $C$DW$249, DW_AT_TI_symbol_name("_all")
    3022                      .dwattr $C$DW$249, DW_AT_data_member_location[DW_OP_plus_uconst 0x0]
    3023                      .dwattr $C$DW$249, DW_AT_accessibility(DW_ACCESS_public)
    3024              
    3025              $C$DW$250       .dwtag  DW_TAG_member
TMS320C2000 Assembler PC v20.2.1 Mon Dec  7 23:59:49 2020

Copyright (c) 1996-2018 Texas Instruments Incorporated
resolver.asm                                                         PAGE   59

    3026                      .dwattr $C$DW$250, DW_AT_type(*$C$DW$T$55)
    3027                      .dwattr $C$DW$250, DW_AT_name("bit")
    3028                      .dwattr $C$DW$250, DW_AT_TI_symbol_name("_bit")
    3029                      .dwattr $C$DW$250, DW_AT_data_member_location[DW_OP_plus_uconst 0x0]
    3030                      .dwattr $C$DW$250, DW_AT_accessibility(DW_ACCESS_public)
    3031              
    3032                      .dwendtag $C$DW$T$56
    3033              
    3034              
    3035              $C$DW$T$57      .dwtag  DW_TAG_structure_type
    3036                      .dwattr $C$DW$T$57, DW_AT_name("ADCPPB1CONFIG_BITS")
    3037                      .dwattr $C$DW$T$57, DW_AT_byte_size(0x01)
    3038              $C$DW$251       .dwtag  DW_TAG_member
    3039                      .dwattr $C$DW$251, DW_AT_type(*$C$DW$T$19)
    3040                      .dwattr $C$DW$251, DW_AT_name("CONFIG")
    3041                      .dwattr $C$DW$251, DW_AT_TI_symbol_name("_CONFIG")
    3042                      .dwattr $C$DW$251, DW_AT_bit_offset(0x0c)
    3043                      .dwattr $C$DW$251, DW_AT_bit_size(0x04)
    3044                      .dwattr $C$DW$251, DW_AT_data_member_location[DW_OP_plus_uconst 0x0]
    3045                      .dwattr $C$DW$251, DW_AT_accessibility(DW_ACCESS_public)
    3046              
    3047              $C$DW$252       .dwtag  DW_TAG_member
    3048                      .dwattr $C$DW$252, DW_AT_type(*$C$DW$T$19)
    3049                      .dwattr $C$DW$252, DW_AT_name("TWOSCOMPEN")
    3050                      .dwattr $C$DW$252, DW_AT_TI_symbol_name("_TWOSCOMPEN")
    3051                      .dwattr $C$DW$252, DW_AT_bit_offset(0x0b)
    3052                      .dwattr $C$DW$252, DW_AT_bit_size(0x01)
    3053                      .dwattr $C$DW$252, DW_AT_data_member_location[DW_OP_plus_uconst 0x0]
    3054                      .dwattr $C$DW$252, DW_AT_accessibility(DW_ACCESS_public)
    3055              
    3056              $C$DW$253       .dwtag  DW_TAG_member
    3057                      .dwattr $C$DW$253, DW_AT_type(*$C$DW$T$19)
    3058                      .dwattr $C$DW$253, DW_AT_name("rsvd1")
    3059                      .dwattr $C$DW$253, DW_AT_TI_symbol_name("_rsvd1")
    3060                      .dwattr $C$DW$253, DW_AT_bit_offset(0x00)
    3061                      .dwattr $C$DW$253, DW_AT_bit_size(0x0b)
    3062                      .dwattr $C$DW$253, DW_AT_data_member_location[DW_OP_plus_uconst 0x0]
    3063                      .dwattr $C$DW$253, DW_AT_accessibility(DW_ACCESS_public)
    3064              
    3065                      .dwendtag $C$DW$T$57
    3066              
    3067              
    3068              $C$DW$T$58      .dwtag  DW_TAG_union_type
    3069                      .dwattr $C$DW$T$58, DW_AT_name("ADCPPB1CONFIG_REG")
    3070                      .dwattr $C$DW$T$58, DW_AT_byte_size(0x01)
    3071              $C$DW$254       .dwtag  DW_TAG_member
    3072                      .dwattr $C$DW$254, DW_AT_type(*$C$DW$T$19)
    3073                      .dwattr $C$DW$254, DW_AT_name("all")
    3074                      .dwattr $C$DW$254, DW_AT_TI_symbol_name("_all")
    3075                      .dwattr $C$DW$254, DW_AT_data_member_location[DW_OP_plus_uconst 0x0]
    3076                      .dwattr $C$DW$254, DW_AT_accessibility(DW_ACCESS_public)
    3077              
    3078              $C$DW$255       .dwtag  DW_TAG_member
    3079                      .dwattr $C$DW$255, DW_AT_type(*$C$DW$T$57)
    3080                      .dwattr $C$DW$255, DW_AT_name("bit")
TMS320C2000 Assembler PC v20.2.1 Mon Dec  7 23:59:49 2020

Copyright (c) 1996-2018 Texas Instruments Incorporated
resolver.asm                                                         PAGE   60

    3081                      .dwattr $C$DW$255, DW_AT_TI_symbol_name("_bit")
    3082                      .dwattr $C$DW$255, DW_AT_data_member_location[DW_OP_plus_uconst 0x0]
    3083                      .dwattr $C$DW$255, DW_AT_accessibility(DW_ACCESS_public)
    3084              
    3085                      .dwendtag $C$DW$T$58
    3086              
    3087              
    3088              $C$DW$T$59      .dwtag  DW_TAG_structure_type
    3089                      .dwattr $C$DW$T$59, DW_AT_name("ADCPPB1OFFCAL_BITS")
    3090                      .dwattr $C$DW$T$59, DW_AT_byte_size(0x01)
    3091              $C$DW$256       .dwtag  DW_TAG_member
    3092                      .dwattr $C$DW$256, DW_AT_type(*$C$DW$T$19)
    3093                      .dwattr $C$DW$256, DW_AT_name("OFFCAL")
    3094                      .dwattr $C$DW$256, DW_AT_TI_symbol_name("_OFFCAL")
    3095                      .dwattr $C$DW$256, DW_AT_bit_offset(0x06)
    3096                      .dwattr $C$DW$256, DW_AT_bit_size(0x0a)
    3097                      .dwattr $C$DW$256, DW_AT_data_member_location[DW_OP_plus_uconst 0x0]
    3098                      .dwattr $C$DW$256, DW_AT_accessibility(DW_ACCESS_public)
    3099              
    3100              $C$DW$257       .dwtag  DW_TAG_member
    3101                      .dwattr $C$DW$257, DW_AT_type(*$C$DW$T$19)
    3102                      .dwattr $C$DW$257, DW_AT_name("rsvd1")
    3103                      .dwattr $C$DW$257, DW_AT_TI_symbol_name("_rsvd1")
    3104                      .dwattr $C$DW$257, DW_AT_bit_offset(0x00)
    3105                      .dwattr $C$DW$257, DW_AT_bit_size(0x06)
    3106                      .dwattr $C$DW$257, DW_AT_data_member_location[DW_OP_plus_uconst 0x0]
    3107                      .dwattr $C$DW$257, DW_AT_accessibility(DW_ACCESS_public)
    3108              
    3109                      .dwendtag $C$DW$T$59
    3110              
    3111              
    3112              $C$DW$T$60      .dwtag  DW_TAG_union_type
    3113                      .dwattr $C$DW$T$60, DW_AT_name("ADCPPB1OFFCAL_REG")
    3114                      .dwattr $C$DW$T$60, DW_AT_byte_size(0x01)
    3115              $C$DW$258       .dwtag  DW_TAG_member
    3116                      .dwattr $C$DW$258, DW_AT_type(*$C$DW$T$19)
    3117                      .dwattr $C$DW$258, DW_AT_name("all")
    3118                      .dwattr $C$DW$258, DW_AT_TI_symbol_name("_all")
    3119                      .dwattr $C$DW$258, DW_AT_data_member_location[DW_OP_plus_uconst 0x0]
    3120                      .dwattr $C$DW$258, DW_AT_accessibility(DW_ACCESS_public)
    3121              
    3122              $C$DW$259       .dwtag  DW_TAG_member
    3123                      .dwattr $C$DW$259, DW_AT_type(*$C$DW$T$59)
    3124                      .dwattr $C$DW$259, DW_AT_name("bit")
    3125                      .dwattr $C$DW$259, DW_AT_TI_symbol_name("_bit")
    3126                      .dwattr $C$DW$259, DW_AT_data_member_location[DW_OP_plus_uconst 0x0]
    3127                      .dwattr $C$DW$259, DW_AT_accessibility(DW_ACCESS_public)
    3128              
    3129                      .dwendtag $C$DW$T$60
    3130              
    3131              
    3132              $C$DW$T$61      .dwtag  DW_TAG_structure_type
    3133                      .dwattr $C$DW$T$61, DW_AT_name("ADCPPB1RESULT_BITS")
    3134                      .dwattr $C$DW$T$61, DW_AT_byte_size(0x02)
    3135              $C$DW$260       .dwtag  DW_TAG_member
TMS320C2000 Assembler PC v20.2.1 Mon Dec  7 23:59:49 2020

Copyright (c) 1996-2018 Texas Instruments Incorporated
resolver.asm                                                         PAGE   61

    3136                      .dwattr $C$DW$260, DW_AT_type(*$C$DW$T$19)
    3137                      .dwattr $C$DW$260, DW_AT_name("PPBRESULT")
    3138                      .dwattr $C$DW$260, DW_AT_TI_symbol_name("_PPBRESULT")
    3139                      .dwattr $C$DW$260, DW_AT_bit_offset(0x00)
    3140                      .dwattr $C$DW$260, DW_AT_bit_size(0x10)
    3141                      .dwattr $C$DW$260, DW_AT_data_member_location[DW_OP_plus_uconst 0x0]
    3142                      .dwattr $C$DW$260, DW_AT_accessibility(DW_ACCESS_public)
    3143              
    3144              $C$DW$261       .dwtag  DW_TAG_member
    3145                      .dwattr $C$DW$261, DW_AT_type(*$C$DW$T$19)
    3146                      .dwattr $C$DW$261, DW_AT_name("SIGN")
    3147                      .dwattr $C$DW$261, DW_AT_TI_symbol_name("_SIGN")
    3148                      .dwattr $C$DW$261, DW_AT_bit_offset(0x00)
    3149                      .dwattr $C$DW$261, DW_AT_bit_size(0x10)
    3150                      .dwattr $C$DW$261, DW_AT_data_member_location[DW_OP_plus_uconst 0x1]
    3151                      .dwattr $C$DW$261, DW_AT_accessibility(DW_ACCESS_public)
    3152              
    3153                      .dwendtag $C$DW$T$61
    3154              
    3155              
    3156              $C$DW$T$63      .dwtag  DW_TAG_union_type
    3157                      .dwattr $C$DW$T$63, DW_AT_name("ADCPPB1RESULT_REG")
    3158                      .dwattr $C$DW$T$63, DW_AT_byte_size(0x02)
    3159              $C$DW$262       .dwtag  DW_TAG_member
    3160                      .dwattr $C$DW$262, DW_AT_type(*$C$DW$T$62)
    3161                      .dwattr $C$DW$262, DW_AT_name("all")
    3162                      .dwattr $C$DW$262, DW_AT_TI_symbol_name("_all")
    3163                      .dwattr $C$DW$262, DW_AT_data_member_location[DW_OP_plus_uconst 0x0]
    3164                      .dwattr $C$DW$262, DW_AT_accessibility(DW_ACCESS_public)
    3165              
    3166              $C$DW$263       .dwtag  DW_TAG_member
    3167                      .dwattr $C$DW$263, DW_AT_type(*$C$DW$T$61)
    3168                      .dwattr $C$DW$263, DW_AT_name("bit")
    3169                      .dwattr $C$DW$263, DW_AT_TI_symbol_name("_bit")
    3170                      .dwattr $C$DW$263, DW_AT_data_member_location[DW_OP_plus_uconst 0x0]
    3171                      .dwattr $C$DW$263, DW_AT_accessibility(DW_ACCESS_public)
    3172              
    3173                      .dwendtag $C$DW$T$63
    3174              
    3175              
    3176              $C$DW$T$64      .dwtag  DW_TAG_structure_type
    3177                      .dwattr $C$DW$T$64, DW_AT_name("ADCPPB1STAMP_BITS")
    3178                      .dwattr $C$DW$T$64, DW_AT_byte_size(0x01)
    3179              $C$DW$264       .dwtag  DW_TAG_member
    3180                      .dwattr $C$DW$264, DW_AT_type(*$C$DW$T$19)
    3181                      .dwattr $C$DW$264, DW_AT_name("DLYSTAMP")
    3182                      .dwattr $C$DW$264, DW_AT_TI_symbol_name("_DLYSTAMP")
    3183                      .dwattr $C$DW$264, DW_AT_bit_offset(0x04)
    3184                      .dwattr $C$DW$264, DW_AT_bit_size(0x0c)
    3185                      .dwattr $C$DW$264, DW_AT_data_member_location[DW_OP_plus_uconst 0x0]
    3186                      .dwattr $C$DW$264, DW_AT_accessibility(DW_ACCESS_public)
    3187              
    3188              $C$DW$265       .dwtag  DW_TAG_member
    3189                      .dwattr $C$DW$265, DW_AT_type(*$C$DW$T$19)
    3190                      .dwattr $C$DW$265, DW_AT_name("rsvd1")
TMS320C2000 Assembler PC v20.2.1 Mon Dec  7 23:59:49 2020

Copyright (c) 1996-2018 Texas Instruments Incorporated
resolver.asm                                                         PAGE   62

    3191                      .dwattr $C$DW$265, DW_AT_TI_symbol_name("_rsvd1")
    3192                      .dwattr $C$DW$265, DW_AT_bit_offset(0x00)
    3193                      .dwattr $C$DW$265, DW_AT_bit_size(0x04)
    3194                      .dwattr $C$DW$265, DW_AT_data_member_location[DW_OP_plus_uconst 0x0]
    3195                      .dwattr $C$DW$265, DW_AT_accessibility(DW_ACCESS_public)
    3196              
    3197                      .dwendtag $C$DW$T$64
    3198              
    3199              
    3200              $C$DW$T$65      .dwtag  DW_TAG_union_type
    3201                      .dwattr $C$DW$T$65, DW_AT_name("ADCPPB1STAMP_REG")
    3202                      .dwattr $C$DW$T$65, DW_AT_byte_size(0x01)
    3203              $C$DW$266       .dwtag  DW_TAG_member
    3204                      .dwattr $C$DW$266, DW_AT_type(*$C$DW$T$19)
    3205                      .dwattr $C$DW$266, DW_AT_name("all")
    3206                      .dwattr $C$DW$266, DW_AT_TI_symbol_name("_all")
    3207                      .dwattr $C$DW$266, DW_AT_data_member_location[DW_OP_plus_uconst 0x0]
    3208                      .dwattr $C$DW$266, DW_AT_accessibility(DW_ACCESS_public)
    3209              
    3210              $C$DW$267       .dwtag  DW_TAG_member
    3211                      .dwattr $C$DW$267, DW_AT_type(*$C$DW$T$64)
    3212                      .dwattr $C$DW$267, DW_AT_name("bit")
    3213                      .dwattr $C$DW$267, DW_AT_TI_symbol_name("_bit")
    3214                      .dwattr $C$DW$267, DW_AT_data_member_location[DW_OP_plus_uconst 0x0]
    3215                      .dwattr $C$DW$267, DW_AT_accessibility(DW_ACCESS_public)
    3216              
    3217                      .dwendtag $C$DW$T$65
    3218              
    3219              
    3220              $C$DW$T$66      .dwtag  DW_TAG_structure_type
    3221                      .dwattr $C$DW$T$66, DW_AT_name("ADCPPB1TRIPHI_BITS")
    3222                      .dwattr $C$DW$T$66, DW_AT_byte_size(0x02)
    3223              $C$DW$268       .dwtag  DW_TAG_member
    3224                      .dwattr $C$DW$268, DW_AT_type(*$C$DW$T$19)
    3225                      .dwattr $C$DW$268, DW_AT_name("LIMITHI")
    3226                      .dwattr $C$DW$268, DW_AT_TI_symbol_name("_LIMITHI")
    3227                      .dwattr $C$DW$268, DW_AT_bit_offset(0x00)
    3228                      .dwattr $C$DW$268, DW_AT_bit_size(0x10)
    3229                      .dwattr $C$DW$268, DW_AT_data_member_location[DW_OP_plus_uconst 0x0]
    3230                      .dwattr $C$DW$268, DW_AT_accessibility(DW_ACCESS_public)
    3231              
    3232              $C$DW$269       .dwtag  DW_TAG_member
    3233                      .dwattr $C$DW$269, DW_AT_type(*$C$DW$T$19)
    3234                      .dwattr $C$DW$269, DW_AT_name("HSIGN")
    3235                      .dwattr $C$DW$269, DW_AT_TI_symbol_name("_HSIGN")
    3236                      .dwattr $C$DW$269, DW_AT_bit_offset(0x0f)
    3237                      .dwattr $C$DW$269, DW_AT_bit_size(0x01)
    3238                      .dwattr $C$DW$269, DW_AT_data_member_location[DW_OP_plus_uconst 0x1]
    3239                      .dwattr $C$DW$269, DW_AT_accessibility(DW_ACCESS_public)
    3240              
    3241              $C$DW$270       .dwtag  DW_TAG_member
    3242                      .dwattr $C$DW$270, DW_AT_type(*$C$DW$T$19)
    3243                      .dwattr $C$DW$270, DW_AT_name("rsvd1")
    3244                      .dwattr $C$DW$270, DW_AT_TI_symbol_name("_rsvd1")
    3245                      .dwattr $C$DW$270, DW_AT_bit_offset(0x00)
TMS320C2000 Assembler PC v20.2.1 Mon Dec  7 23:59:49 2020

Copyright (c) 1996-2018 Texas Instruments Incorporated
resolver.asm                                                         PAGE   63

    3246                      .dwattr $C$DW$270, DW_AT_bit_size(0x0f)
    3247                      .dwattr $C$DW$270, DW_AT_data_member_location[DW_OP_plus_uconst 0x1]
    3248                      .dwattr $C$DW$270, DW_AT_accessibility(DW_ACCESS_public)
    3249              
    3250                      .dwendtag $C$DW$T$66
    3251              
    3252              
    3253              $C$DW$T$67      .dwtag  DW_TAG_union_type
    3254                      .dwattr $C$DW$T$67, DW_AT_name("ADCPPB1TRIPHI_REG")
    3255                      .dwattr $C$DW$T$67, DW_AT_byte_size(0x02)
    3256              $C$DW$271       .dwtag  DW_TAG_member
    3257                      .dwattr $C$DW$271, DW_AT_type(*$C$DW$T$62)
    3258                      .dwattr $C$DW$271, DW_AT_name("all")
    3259                      .dwattr $C$DW$271, DW_AT_TI_symbol_name("_all")
    3260                      .dwattr $C$DW$271, DW_AT_data_member_location[DW_OP_plus_uconst 0x0]
    3261                      .dwattr $C$DW$271, DW_AT_accessibility(DW_ACCESS_public)
    3262              
    3263              $C$DW$272       .dwtag  DW_TAG_member
    3264                      .dwattr $C$DW$272, DW_AT_type(*$C$DW$T$66)
    3265                      .dwattr $C$DW$272, DW_AT_name("bit")
    3266                      .dwattr $C$DW$272, DW_AT_TI_symbol_name("_bit")
    3267                      .dwattr $C$DW$272, DW_AT_data_member_location[DW_OP_plus_uconst 0x0]
    3268                      .dwattr $C$DW$272, DW_AT_accessibility(DW_ACCESS_public)
    3269              
    3270                      .dwendtag $C$DW$T$67
    3271              
    3272              
    3273              $C$DW$T$68      .dwtag  DW_TAG_structure_type
    3274                      .dwattr $C$DW$T$68, DW_AT_name("ADCPPB1TRIPLO_BITS")
    3275                      .dwattr $C$DW$T$68, DW_AT_byte_size(0x02)
    3276              $C$DW$273       .dwtag  DW_TAG_member
    3277                      .dwattr $C$DW$273, DW_AT_type(*$C$DW$T$19)
    3278                      .dwattr $C$DW$273, DW_AT_name("LIMITLO")
    3279                      .dwattr $C$DW$273, DW_AT_TI_symbol_name("_LIMITLO")
    3280                      .dwattr $C$DW$273, DW_AT_bit_offset(0x00)
    3281                      .dwattr $C$DW$273, DW_AT_bit_size(0x10)
    3282                      .dwattr $C$DW$273, DW_AT_data_member_location[DW_OP_plus_uconst 0x0]
    3283                      .dwattr $C$DW$273, DW_AT_accessibility(DW_ACCESS_public)
    3284              
    3285              $C$DW$274       .dwtag  DW_TAG_member
    3286                      .dwattr $C$DW$274, DW_AT_type(*$C$DW$T$19)
    3287                      .dwattr $C$DW$274, DW_AT_name("LSIGN")
    3288                      .dwattr $C$DW$274, DW_AT_TI_symbol_name("_LSIGN")
    3289                      .dwattr $C$DW$274, DW_AT_bit_offset(0x0f)
    3290                      .dwattr $C$DW$274, DW_AT_bit_size(0x01)
    3291                      .dwattr $C$DW$274, DW_AT_data_member_location[DW_OP_plus_uconst 0x1]
    3292                      .dwattr $C$DW$274, DW_AT_accessibility(DW_ACCESS_public)
    3293              
    3294              $C$DW$275       .dwtag  DW_TAG_member
    3295                      .dwattr $C$DW$275, DW_AT_type(*$C$DW$T$19)
    3296                      .dwattr $C$DW$275, DW_AT_name("rsvd1")
    3297                      .dwattr $C$DW$275, DW_AT_TI_symbol_name("_rsvd1")
    3298                      .dwattr $C$DW$275, DW_AT_bit_offset(0x0c)
    3299                      .dwattr $C$DW$275, DW_AT_bit_size(0x03)
    3300                      .dwattr $C$DW$275, DW_AT_data_member_location[DW_OP_plus_uconst 0x1]
TMS320C2000 Assembler PC v20.2.1 Mon Dec  7 23:59:49 2020

Copyright (c) 1996-2018 Texas Instruments Incorporated
resolver.asm                                                         PAGE   64

    3301                      .dwattr $C$DW$275, DW_AT_accessibility(DW_ACCESS_public)
    3302              
    3303              $C$DW$276       .dwtag  DW_TAG_member
    3304                      .dwattr $C$DW$276, DW_AT_type(*$C$DW$T$19)
    3305                      .dwattr $C$DW$276, DW_AT_name("REQSTAMP")
    3306                      .dwattr $C$DW$276, DW_AT_TI_symbol_name("_REQSTAMP")
    3307                      .dwattr $C$DW$276, DW_AT_bit_offset(0x00)
    3308                      .dwattr $C$DW$276, DW_AT_bit_size(0x0c)
    3309                      .dwattr $C$DW$276, DW_AT_data_member_location[DW_OP_plus_uconst 0x1]
    3310                      .dwattr $C$DW$276, DW_AT_accessibility(DW_ACCESS_public)
    3311              
    3312                      .dwendtag $C$DW$T$68
    3313              
    3314              
    3315              $C$DW$T$69      .dwtag  DW_TAG_union_type
    3316                      .dwattr $C$DW$T$69, DW_AT_name("ADCPPB1TRIPLO_REG")
    3317                      .dwattr $C$DW$T$69, DW_AT_byte_size(0x02)
    3318              $C$DW$277       .dwtag  DW_TAG_member
    3319                      .dwattr $C$DW$277, DW_AT_type(*$C$DW$T$62)
    3320                      .dwattr $C$DW$277, DW_AT_name("all")
    3321                      .dwattr $C$DW$277, DW_AT_TI_symbol_name("_all")
    3322                      .dwattr $C$DW$277, DW_AT_data_member_location[DW_OP_plus_uconst 0x0]
    3323                      .dwattr $C$DW$277, DW_AT_accessibility(DW_ACCESS_public)
    3324              
    3325              $C$DW$278       .dwtag  DW_TAG_member
    3326                      .dwattr $C$DW$278, DW_AT_type(*$C$DW$T$68)
    3327                      .dwattr $C$DW$278, DW_AT_name("bit")
    3328                      .dwattr $C$DW$278, DW_AT_TI_symbol_name("_bit")
    3329                      .dwattr $C$DW$278, DW_AT_data_member_location[DW_OP_plus_uconst 0x0]
    3330                      .dwattr $C$DW$278, DW_AT_accessibility(DW_ACCESS_public)
    3331              
    3332                      .dwendtag $C$DW$T$69
    3333              
    3334              
    3335              $C$DW$T$70      .dwtag  DW_TAG_structure_type
    3336                      .dwattr $C$DW$T$70, DW_AT_name("ADCPPB2CONFIG_BITS")
    3337                      .dwattr $C$DW$T$70, DW_AT_byte_size(0x01)
    3338              $C$DW$279       .dwtag  DW_TAG_member
    3339                      .dwattr $C$DW$279, DW_AT_type(*$C$DW$T$19)
    3340                      .dwattr $C$DW$279, DW_AT_name("CONFIG")
    3341                      .dwattr $C$DW$279, DW_AT_TI_symbol_name("_CONFIG")
    3342                      .dwattr $C$DW$279, DW_AT_bit_offset(0x0c)
    3343                      .dwattr $C$DW$279, DW_AT_bit_size(0x04)
    3344                      .dwattr $C$DW$279, DW_AT_data_member_location[DW_OP_plus_uconst 0x0]
    3345                      .dwattr $C$DW$279, DW_AT_accessibility(DW_ACCESS_public)
    3346              
    3347              $C$DW$280       .dwtag  DW_TAG_member
    3348                      .dwattr $C$DW$280, DW_AT_type(*$C$DW$T$19)
    3349                      .dwattr $C$DW$280, DW_AT_name("TWOSCOMPEN")
    3350                      .dwattr $C$DW$280, DW_AT_TI_symbol_name("_TWOSCOMPEN")
    3351                      .dwattr $C$DW$280, DW_AT_bit_offset(0x0b)
    3352                      .dwattr $C$DW$280, DW_AT_bit_size(0x01)
    3353                      .dwattr $C$DW$280, DW_AT_data_member_location[DW_OP_plus_uconst 0x0]
    3354                      .dwattr $C$DW$280, DW_AT_accessibility(DW_ACCESS_public)
    3355              
TMS320C2000 Assembler PC v20.2.1 Mon Dec  7 23:59:49 2020

Copyright (c) 1996-2018 Texas Instruments Incorporated
resolver.asm                                                         PAGE   65

    3356              $C$DW$281       .dwtag  DW_TAG_member
    3357                      .dwattr $C$DW$281, DW_AT_type(*$C$DW$T$19)
    3358                      .dwattr $C$DW$281, DW_AT_name("rsvd1")
    3359                      .dwattr $C$DW$281, DW_AT_TI_symbol_name("_rsvd1")
    3360                      .dwattr $C$DW$281, DW_AT_bit_offset(0x00)
    3361                      .dwattr $C$DW$281, DW_AT_bit_size(0x0b)
    3362                      .dwattr $C$DW$281, DW_AT_data_member_location[DW_OP_plus_uconst 0x0]
    3363                      .dwattr $C$DW$281, DW_AT_accessibility(DW_ACCESS_public)
    3364              
    3365                      .dwendtag $C$DW$T$70
    3366              
    3367              
    3368              $C$DW$T$71      .dwtag  DW_TAG_union_type
    3369                      .dwattr $C$DW$T$71, DW_AT_name("ADCPPB2CONFIG_REG")
    3370                      .dwattr $C$DW$T$71, DW_AT_byte_size(0x01)
    3371              $C$DW$282       .dwtag  DW_TAG_member
    3372                      .dwattr $C$DW$282, DW_AT_type(*$C$DW$T$19)
    3373                      .dwattr $C$DW$282, DW_AT_name("all")
    3374                      .dwattr $C$DW$282, DW_AT_TI_symbol_name("_all")
    3375                      .dwattr $C$DW$282, DW_AT_data_member_location[DW_OP_plus_uconst 0x0]
    3376                      .dwattr $C$DW$282, DW_AT_accessibility(DW_ACCESS_public)
    3377              
    3378              $C$DW$283       .dwtag  DW_TAG_member
    3379                      .dwattr $C$DW$283, DW_AT_type(*$C$DW$T$70)
    3380                      .dwattr $C$DW$283, DW_AT_name("bit")
    3381                      .dwattr $C$DW$283, DW_AT_TI_symbol_name("_bit")
    3382                      .dwattr $C$DW$283, DW_AT_data_member_location[DW_OP_plus_uconst 0x0]
    3383                      .dwattr $C$DW$283, DW_AT_accessibility(DW_ACCESS_public)
    3384              
    3385                      .dwendtag $C$DW$T$71
    3386              
    3387              
    3388              $C$DW$T$72      .dwtag  DW_TAG_structure_type
    3389                      .dwattr $C$DW$T$72, DW_AT_name("ADCPPB2OFFCAL_BITS")
    3390                      .dwattr $C$DW$T$72, DW_AT_byte_size(0x01)
    3391              $C$DW$284       .dwtag  DW_TAG_member
    3392                      .dwattr $C$DW$284, DW_AT_type(*$C$DW$T$19)
    3393                      .dwattr $C$DW$284, DW_AT_name("OFFCAL")
    3394                      .dwattr $C$DW$284, DW_AT_TI_symbol_name("_OFFCAL")
    3395                      .dwattr $C$DW$284, DW_AT_bit_offset(0x06)
    3396                      .dwattr $C$DW$284, DW_AT_bit_size(0x0a)
    3397                      .dwattr $C$DW$284, DW_AT_data_member_location[DW_OP_plus_uconst 0x0]
    3398                      .dwattr $C$DW$284, DW_AT_accessibility(DW_ACCESS_public)
    3399              
    3400              $C$DW$285       .dwtag  DW_TAG_member
    3401                      .dwattr $C$DW$285, DW_AT_type(*$C$DW$T$19)
    3402                      .dwattr $C$DW$285, DW_AT_name("rsvd1")
    3403                      .dwattr $C$DW$285, DW_AT_TI_symbol_name("_rsvd1")
    3404                      .dwattr $C$DW$285, DW_AT_bit_offset(0x00)
    3405                      .dwattr $C$DW$285, DW_AT_bit_size(0x06)
    3406                      .dwattr $C$DW$285, DW_AT_data_member_location[DW_OP_plus_uconst 0x0]
    3407                      .dwattr $C$DW$285, DW_AT_accessibility(DW_ACCESS_public)
    3408              
    3409                      .dwendtag $C$DW$T$72
    3410              
TMS320C2000 Assembler PC v20.2.1 Mon Dec  7 23:59:49 2020

Copyright (c) 1996-2018 Texas Instruments Incorporated
resolver.asm                                                         PAGE   66

    3411              
    3412              $C$DW$T$73      .dwtag  DW_TAG_union_type
    3413                      .dwattr $C$DW$T$73, DW_AT_name("ADCPPB2OFFCAL_REG")
    3414                      .dwattr $C$DW$T$73, DW_AT_byte_size(0x01)
    3415              $C$DW$286       .dwtag  DW_TAG_member
    3416                      .dwattr $C$DW$286, DW_AT_type(*$C$DW$T$19)
    3417                      .dwattr $C$DW$286, DW_AT_name("all")
    3418                      .dwattr $C$DW$286, DW_AT_TI_symbol_name("_all")
    3419                      .dwattr $C$DW$286, DW_AT_data_member_location[DW_OP_plus_uconst 0x0]
    3420                      .dwattr $C$DW$286, DW_AT_accessibility(DW_ACCESS_public)
    3421              
    3422              $C$DW$287       .dwtag  DW_TAG_member
    3423                      .dwattr $C$DW$287, DW_AT_type(*$C$DW$T$72)
    3424                      .dwattr $C$DW$287, DW_AT_name("bit")
    3425                      .dwattr $C$DW$287, DW_AT_TI_symbol_name("_bit")
    3426                      .dwattr $C$DW$287, DW_AT_data_member_location[DW_OP_plus_uconst 0x0]
    3427                      .dwattr $C$DW$287, DW_AT_accessibility(DW_ACCESS_public)
    3428              
    3429                      .dwendtag $C$DW$T$73
    3430              
    3431              
    3432              $C$DW$T$74      .dwtag  DW_TAG_structure_type
    3433                      .dwattr $C$DW$T$74, DW_AT_name("ADCPPB2RESULT_BITS")
    3434                      .dwattr $C$DW$T$74, DW_AT_byte_size(0x02)
    3435              $C$DW$288       .dwtag  DW_TAG_member
    3436                      .dwattr $C$DW$288, DW_AT_type(*$C$DW$T$19)
    3437                      .dwattr $C$DW$288, DW_AT_name("PPBRESULT")
    3438                      .dwattr $C$DW$288, DW_AT_TI_symbol_name("_PPBRESULT")
    3439                      .dwattr $C$DW$288, DW_AT_bit_offset(0x00)
