TMS320C2000 Assembler PC v18.12.4 Sat Jul 18 15:28:09 2020

Copyright (c) 1996-2018 Texas Instruments Incorporated
F2837xD_sdfm_drivers.asm                                             PAGE    1

       1              ;***************************************************************
       2              ;* TMS320C2000 G3 C/C++ Codegen                             PC v18.12.4.LTS *
       3              ;* Date/Time created: Sat Jul 18 15:28:09 2020                 *
       4              ;***************************************************************
       5                      .compiler_opts --abi=coffabi --cla_support=cla0 --float_support=fpu32 --hll_source=on --mem_model:cod
       6                      .asg    XAR2, FP
       7              
       8              $C$DW$CU        .dwtag  DW_TAG_compile_unit
       9                      .dwattr $C$DW$CU, DW_AT_name("C:/ti/controlSUITE/device_support/F2837xD/v170/F2837xD_common/source/F2
      10                      .dwattr $C$DW$CU, DW_AT_producer("TI TMS320C2000 G3 C/C++ Codegen PC v18.12.4.LTS Copyright (c) 1996-
      11                      .dwattr $C$DW$CU, DW_AT_TI_version(0x01)
      12                      .dwattr $C$DW$CU, DW_AT_comp_dir("C:\Users\admin\Desktop\servodrive_TMIDDK\IDDK_PM_Servo_F2837x-v2\F2
      13              $C$DW$1 .dwtag  DW_TAG_variable
      14                      .dwattr $C$DW$1, DW_AT_name("SDFM")
      15                      .dwattr $C$DW$1, DW_AT_TI_symbol_name("_SDFM")
      16                      .dwattr $C$DW$1, DW_AT_type(*$C$DW$T$91)
      17                      .dwattr $C$DW$1, DW_AT_declaration
      18                      .dwattr $C$DW$1, DW_AT_external
      19              
      20              ;       C:\ti\ccs930\ccs\tools\compiler\ti-cgt-c2000_18.12.4.LTS\bin\opt2000.exe C:\\Users\\admin\\AppData\\L
      21              ;       C:\ti\ccs930\ccs\tools\compiler\ti-cgt-c2000_18.12.4.LTS\bin\ac2000.exe -@C:\\Users\\admin\\AppData\\
      22 00000000               .sect   ".text"
      23                      .clink
      24                      .global _Sdfm_readFlagRegister
      25              
      26              $C$DW$2 .dwtag  DW_TAG_subprogram
      27                      .dwattr $C$DW$2, DW_AT_name("Sdfm_readFlagRegister")
      28                      .dwattr $C$DW$2, DW_AT_low_pc(_Sdfm_readFlagRegister)
      29                      .dwattr $C$DW$2, DW_AT_high_pc(0x00)
      30                      .dwattr $C$DW$2, DW_AT_TI_symbol_name("_Sdfm_readFlagRegister")
      31                      .dwattr $C$DW$2, DW_AT_external
      32                      .dwattr $C$DW$2, DW_AT_type(*$C$DW$T$55)
      33                      .dwattr $C$DW$2, DW_AT_TI_begin_file("C:/ti/controlSUITE/device_support/F2837xD/v170/F2837xD_common/s
      34                      .dwattr $C$DW$2, DW_AT_TI_begin_line(0x186)
      35                      .dwattr $C$DW$2, DW_AT_TI_begin_column(0x08)
      36                      .dwattr $C$DW$2, DW_AT_TI_max_frame_size(-2)
      37                      .dwpsn  file "C:/ti/controlSUITE/device_support/F2837xD/v170/F2837xD_common/source/F2837xD_sdfm_drive
      38              
      39                      .dwfde $C$DW$CIE, _Sdfm_readFlagRegister
      40              $C$DW$3 .dwtag  DW_TAG_formal_parameter
      41                      .dwattr $C$DW$3, DW_AT_name("sdfmNumber")
      42                      .dwattr $C$DW$3, DW_AT_TI_symbol_name("_sdfmNumber")
      43                      .dwattr $C$DW$3, DW_AT_type(*$C$DW$T$19)
      44                      .dwattr $C$DW$3, DW_AT_location[DW_OP_reg0]
      45              
      46              
      47              ;***************************************************************
      48              ;* FNAME: _Sdfm_readFlagRegister        FR SIZE:   0           *
      49              ;*                                                             *
      50              ;* FUNCTION ENVIRONMENT                                        *
      51              ;*                                                             *
      52              ;* FUNCTION PROPERTIES                                         *
      53              ;*                            0 Parameter,  0 Auto,  0 SOE     *
      54              ;***************************************************************
      55              
TMS320C2000 Assembler PC v18.12.4 Sat Jul 18 15:28:09 2020

Copyright (c) 1996-2018 Texas Instruments Incorporated
F2837xD_sdfm_drivers.asm                                             PAGE    2

      56 00000000       _Sdfm_readFlagRegister:
      57                      .dwcfi  cfa_offset, -2
      58                      .dwcfi  save_reg_to_mem, 26, 0
      59 00000000 2901          CLRC      SXM                   ; [CPU_ALU] 
      60                      .dwpsn  file "C:/ti/controlSUITE/device_support/F2837xD/v170/F2837xD_common/source/F2837xD_sdfm_drive
      61 00000001 8F00!         MOVL      XAR4,#_SDFM           ; [CPU_ARAU] |392| 
         00000002 0000 
      62 00000003 5603          MOV       ACC,AL << 1           ; [CPU_ALU] |392| 
         00000004 01A9 
      63 00000005 5601          ADDL      XAR4,ACC              ; [CPU_ALU] |392| 
         00000006 00A4 
      64 00000007 8AC4          MOVL      XAR4,*+XAR4[0]        ; [CPU_ALU] |392| 
      65 00000008 06C4          MOVL      ACC,*+XAR4[0]         ; [CPU_ALU] |392| 
      66              $C$DW$4 .dwtag  DW_TAG_TI_branch
      67                      .dwattr $C$DW$4, DW_AT_low_pc(0x00)
      68                      .dwattr $C$DW$4, DW_AT_TI_return
      69              
      70 00000009 0006          LRETR     ; [CPU_ALU] 
      71                      ; return occurs ; [] 
      72                      .dwattr $C$DW$2, DW_AT_TI_end_file("C:/ti/controlSUITE/device_support/F2837xD/v170/F2837xD_common/sou
      73                      .dwattr $C$DW$2, DW_AT_TI_end_line(0x189)
      74                      .dwattr $C$DW$2, DW_AT_TI_end_column(0x01)
      75                      .dwendentry
      76                      .dwendtag $C$DW$2
      77              
      78 0000000a               .sect   ".text"
      79                      .clink
      80                      .global _Sdfm_enableMIE
      81              
      82              $C$DW$5 .dwtag  DW_TAG_subprogram
      83                      .dwattr $C$DW$5, DW_AT_name("Sdfm_enableMIE")
      84                      .dwattr $C$DW$5, DW_AT_low_pc(_Sdfm_enableMIE)
      85                      .dwattr $C$DW$5, DW_AT_high_pc(0x00)
      86                      .dwattr $C$DW$5, DW_AT_TI_symbol_name("_Sdfm_enableMIE")
      87                      .dwattr $C$DW$5, DW_AT_external
      88                      .dwattr $C$DW$5, DW_AT_TI_begin_file("C:/ti/controlSUITE/device_support/F2837xD/v170/F2837xD_common/s
      89                      .dwattr $C$DW$5, DW_AT_TI_begin_line(0x167)
      90                      .dwattr $C$DW$5, DW_AT_TI_begin_column(0x06)
      91                      .dwattr $C$DW$5, DW_AT_TI_max_frame_size(-2)
      92                      .dwpsn  file "C:/ti/controlSUITE/device_support/F2837xD/v170/F2837xD_common/source/F2837xD_sdfm_drive
      93              
      94                      .dwfde $C$DW$CIE, _Sdfm_enableMIE
      95              $C$DW$6 .dwtag  DW_TAG_formal_parameter
      96                      .dwattr $C$DW$6, DW_AT_name("sdfmNumber")
      97                      .dwattr $C$DW$6, DW_AT_TI_symbol_name("_sdfmNumber")
      98                      .dwattr $C$DW$6, DW_AT_type(*$C$DW$T$19)
      99                      .dwattr $C$DW$6, DW_AT_location[DW_OP_reg0]
     100              
     101              
     102              ;***************************************************************
     103              ;* FNAME: _Sdfm_enableMIE               FR SIZE:   0           *
     104              ;*                                                             *
     105              ;* FUNCTION ENVIRONMENT                                        *
     106              ;*                                                             *
     107              ;* FUNCTION PROPERTIES                                         *
TMS320C2000 Assembler PC v18.12.4 Sat Jul 18 15:28:09 2020

Copyright (c) 1996-2018 Texas Instruments Incorporated
F2837xD_sdfm_drivers.asm                                             PAGE    3

     108              ;*                            0 Parameter,  0 Auto,  0 SOE     *
     109              ;***************************************************************
     110              
     111 0000000a       _Sdfm_enableMIE:
     112                      .dwcfi  cfa_offset, -2
     113                      .dwcfi  save_reg_to_mem, 26, 0
     114 0000000a 7622   EALLOW
     115 0000000b 2901          CLRC      SXM                   ; [CPU_ALU] 
     116                      .dwpsn  file "C:/ti/controlSUITE/device_support/F2837xD/v170/F2837xD_common/source/F2837xD_sdfm_drive
     117 0000000c 8F00!         MOVL      XAR4,#_SDFM           ; [CPU_ARAU] |363| 
         0000000d 0000 
     118 0000000e 5603          MOV       ACC,AL << 1           ; [CPU_ALU] |363| 
         0000000f 01A9 
     119 00000010 5601          ADDL      XAR4,ACC              ; [CPU_ALU] |363| 
         00000011 00A4 
     120 00000012 8AC4          MOVL      XAR4,*+XAR4[0]        ; [CPU_ALU] |363| 
     121 00000013 1AE4          OR        *+XAR4[4],#0x2000     ; [CPU_ALU] |363| 
         00000014 2000 
     122 00000015 761A   EDIS
     123 00000016 FF69          SPM       #0                    ; [CPU_ALU] 
     124              $C$DW$7 .dwtag  DW_TAG_TI_branch
     125                      .dwattr $C$DW$7, DW_AT_low_pc(0x00)
     126                      .dwattr $C$DW$7, DW_AT_TI_return
     127              
     128 00000017 0006          LRETR     ; [CPU_ALU] 
     129                      ; return occurs ; [] 
     130                      .dwattr $C$DW$5, DW_AT_TI_end_file("C:/ti/controlSUITE/device_support/F2837xD/v170/F2837xD_common/sou
     131                      .dwattr $C$DW$5, DW_AT_TI_end_line(0x16d)
     132                      .dwattr $C$DW$5, DW_AT_TI_end_column(0x01)
     133                      .dwendentry
     134                      .dwendtag $C$DW$5
     135              
     136 00000018               .sect   ".text"
     137                      .clink
     138                      .global _Sdfm_enableMFE
     139              
     140              $C$DW$8 .dwtag  DW_TAG_subprogram
     141                      .dwattr $C$DW$8, DW_AT_name("Sdfm_enableMFE")
     142                      .dwattr $C$DW$8, DW_AT_low_pc(_Sdfm_enableMFE)
     143                      .dwattr $C$DW$8, DW_AT_high_pc(0x00)
     144                      .dwattr $C$DW$8, DW_AT_TI_symbol_name("_Sdfm_enableMFE")
     145                      .dwattr $C$DW$8, DW_AT_external
     146                      .dwattr $C$DW$8, DW_AT_TI_begin_file("C:/ti/controlSUITE/device_support/F2837xD/v170/F2837xD_common/s
     147                      .dwattr $C$DW$8, DW_AT_TI_begin_line(0x145)
     148                      .dwattr $C$DW$8, DW_AT_TI_begin_column(0x06)
     149                      .dwattr $C$DW$8, DW_AT_TI_max_frame_size(-2)
     150                      .dwpsn  file "C:/ti/controlSUITE/device_support/F2837xD/v170/F2837xD_common/source/F2837xD_sdfm_drive
     151              
     152                      .dwfde $C$DW$CIE, _Sdfm_enableMFE
     153              $C$DW$9 .dwtag  DW_TAG_formal_parameter
     154                      .dwattr $C$DW$9, DW_AT_name("sdfmNumber")
     155                      .dwattr $C$DW$9, DW_AT_TI_symbol_name("_sdfmNumber")
     156                      .dwattr $C$DW$9, DW_AT_type(*$C$DW$T$19)
     157                      .dwattr $C$DW$9, DW_AT_location[DW_OP_reg0]
     158              
TMS320C2000 Assembler PC v18.12.4 Sat Jul 18 15:28:09 2020

Copyright (c) 1996-2018 Texas Instruments Incorporated
F2837xD_sdfm_drivers.asm                                             PAGE    4

     159              
     160              ;***************************************************************
     161              ;* FNAME: _Sdfm_enableMFE               FR SIZE:   0           *
     162              ;*                                                             *
     163              ;* FUNCTION ENVIRONMENT                                        *
     164              ;*                                                             *
     165              ;* FUNCTION PROPERTIES                                         *
     166              ;*                            0 Parameter,  0 Auto,  0 SOE     *
     167              ;***************************************************************
     168              
     169 00000018       _Sdfm_enableMFE:
     170                      .dwcfi  cfa_offset, -2
     171                      .dwcfi  save_reg_to_mem, 26, 0
     172 00000018 7622   EALLOW
     173 00000019 2901          CLRC      SXM                   ; [CPU_ALU] 
     174                      .dwpsn  file "C:/ti/controlSUITE/device_support/F2837xD/v170/F2837xD_common/source/F2837xD_sdfm_drive
     175 0000001a 8F00!         MOVL      XAR4,#_SDFM           ; [CPU_ARAU] |329| 
         0000001b 0000 
     176 0000001c 5603          MOV       ACC,AL << 1           ; [CPU_ALU] |329| 
         0000001d 01A9 
     177 0000001e 5601          ADDL      XAR4,ACC              ; [CPU_ALU] |329| 
         0000001f 00A4 
     178 00000020 8AC4          MOVL      XAR4,*+XAR4[0]        ; [CPU_ALU] |329| 
     179 00000021 1AF4          OR        *+XAR4[6],#0x0800     ; [CPU_ALU] |329| 
         00000022 0800 
     180 00000023 761A   EDIS
     181 00000024 FF69          SPM       #0                    ; [CPU_ALU] 
     182              $C$DW$10        .dwtag  DW_TAG_TI_branch
     183                      .dwattr $C$DW$10, DW_AT_low_pc(0x00)
     184                      .dwattr $C$DW$10, DW_AT_TI_return
     185              
     186 00000025 0006          LRETR     ; [CPU_ALU] 
     187                      ; return occurs ; [] 
     188                      .dwattr $C$DW$8, DW_AT_TI_end_file("C:/ti/controlSUITE/device_support/F2837xD/v170/F2837xD_common/sou
     189                      .dwattr $C$DW$8, DW_AT_TI_end_line(0x14c)
     190                      .dwattr $C$DW$8, DW_AT_TI_end_column(0x01)
     191                      .dwendentry
     192                      .dwendtag $C$DW$8
     193              
     194 00000026               .sect   ".text"
     195                      .clink
     196                      .global _Sdfm_disableMIE
     197              
     198              $C$DW$11        .dwtag  DW_TAG_subprogram
     199                      .dwattr $C$DW$11, DW_AT_name("Sdfm_disableMIE")
     200                      .dwattr $C$DW$11, DW_AT_low_pc(_Sdfm_disableMIE)
     201                      .dwattr $C$DW$11, DW_AT_high_pc(0x00)
     202                      .dwattr $C$DW$11, DW_AT_TI_symbol_name("_Sdfm_disableMIE")
     203                      .dwattr $C$DW$11, DW_AT_external
     204                      .dwattr $C$DW$11, DW_AT_TI_begin_file("C:/ti/controlSUITE/device_support/F2837xD/v170/F2837xD_common/
     205                      .dwattr $C$DW$11, DW_AT_TI_begin_line(0x177)
     206                      .dwattr $C$DW$11, DW_AT_TI_begin_column(0x06)
     207                      .dwattr $C$DW$11, DW_AT_TI_max_frame_size(-2)
     208                      .dwpsn  file "C:/ti/controlSUITE/device_support/F2837xD/v170/F2837xD_common/source/F2837xD_sdfm_drive
     209              
TMS320C2000 Assembler PC v18.12.4 Sat Jul 18 15:28:09 2020

Copyright (c) 1996-2018 Texas Instruments Incorporated
F2837xD_sdfm_drivers.asm                                             PAGE    5

     210                      .dwfde $C$DW$CIE, _Sdfm_disableMIE
     211              $C$DW$12        .dwtag  DW_TAG_formal_parameter
     212                      .dwattr $C$DW$12, DW_AT_name("sdfmNumber")
     213                      .dwattr $C$DW$12, DW_AT_TI_symbol_name("_sdfmNumber")
     214                      .dwattr $C$DW$12, DW_AT_type(*$C$DW$T$19)
     215                      .dwattr $C$DW$12, DW_AT_location[DW_OP_reg0]
     216              
     217              
     218              ;***************************************************************
     219              ;* FNAME: _Sdfm_disableMIE              FR SIZE:   0           *
     220              ;*                                                             *
     221              ;* FUNCTION ENVIRONMENT                                        *
     222              ;*                                                             *
     223              ;* FUNCTION PROPERTIES                                         *
     224              ;*                            0 Parameter,  0 Auto,  0 SOE     *
     225              ;***************************************************************
     226              
     227 00000026       _Sdfm_disableMIE:
     228                      .dwcfi  cfa_offset, -2
     229                      .dwcfi  save_reg_to_mem, 26, 0
     230 00000026 7622   EALLOW
     231 00000027 2901          CLRC      SXM                   ; [CPU_ALU] 
     232                      .dwpsn  file "C:/ti/controlSUITE/device_support/F2837xD/v170/F2837xD_common/source/F2837xD_sdfm_drive
     233 00000028 8F00!         MOVL      XAR4,#_SDFM           ; [CPU_ARAU] |379| 
         00000029 0000 
     234 0000002a 5603          MOV       ACC,AL << 1           ; [CPU_ALU] |379| 
         0000002b 01A9 
     235 0000002c 5601          ADDL      XAR4,ACC              ; [CPU_ALU] |379| 
         0000002d 00A4 
     236 0000002e 8AC4          MOVL      XAR4,*+XAR4[0]        ; [CPU_ALU] |379| 
     237 0000002f 18E4          AND       *+XAR4[4],#0xdfff     ; [CPU_ALU] |379| 
         00000030 DFFF 
     238 00000031 761A   EDIS
     239 00000032 FF69          SPM       #0                    ; [CPU_ALU] 
     240              $C$DW$13        .dwtag  DW_TAG_TI_branch
     241                      .dwattr $C$DW$13, DW_AT_low_pc(0x00)
     242                      .dwattr $C$DW$13, DW_AT_TI_return
     243              
     244 00000033 0006          LRETR     ; [CPU_ALU] 
     245                      ; return occurs ; [] 
     246                      .dwattr $C$DW$11, DW_AT_TI_end_file("C:/ti/controlSUITE/device_support/F2837xD/v170/F2837xD_common/so
     247                      .dwattr $C$DW$11, DW_AT_TI_end_line(0x17d)
     248                      .dwattr $C$DW$11, DW_AT_TI_end_column(0x01)
     249                      .dwendentry
     250                      .dwendtag $C$DW$11
     251              
     252 00000034               .sect   ".text"
     253                      .clink
     254                      .global _Sdfm_configureInterrupt
     255              
     256              $C$DW$14        .dwtag  DW_TAG_subprogram
     257                      .dwattr $C$DW$14, DW_AT_name("Sdfm_configureInterrupt")
     258                      .dwattr $C$DW$14, DW_AT_low_pc(_Sdfm_configureInterrupt)
     259                      .dwattr $C$DW$14, DW_AT_high_pc(0x00)
     260                      .dwattr $C$DW$14, DW_AT_TI_symbol_name("_Sdfm_configureInterrupt")
TMS320C2000 Assembler PC v18.12.4 Sat Jul 18 15:28:09 2020

Copyright (c) 1996-2018 Texas Instruments Incorporated
F2837xD_sdfm_drivers.asm                                             PAGE    6

     261                      .dwattr $C$DW$14, DW_AT_external
     262                      .dwattr $C$DW$14, DW_AT_TI_begin_file("C:/ti/controlSUITE/device_support/F2837xD/v170/F2837xD_common/
     263                      .dwattr $C$DW$14, DW_AT_TI_begin_line(0xfa)
     264                      .dwattr $C$DW$14, DW_AT_TI_begin_column(0x06)
     265                      .dwattr $C$DW$14, DW_AT_TI_max_frame_size(-4)
     266                      .dwpsn  file "C:/ti/controlSUITE/device_support/F2837xD/v170/F2837xD_common/source/F2837xD_sdfm_drive
     267              
     268                      .dwfde $C$DW$CIE, _Sdfm_configureInterrupt
     269              $C$DW$15        .dwtag  DW_TAG_formal_parameter
     270                      .dwattr $C$DW$15, DW_AT_name("sdfmNumber")
     271                      .dwattr $C$DW$15, DW_AT_TI_symbol_name("_sdfmNumber")
     272                      .dwattr $C$DW$15, DW_AT_type(*$C$DW$T$19)
     273                      .dwattr $C$DW$15, DW_AT_location[DW_OP_reg0]
     274              
     275              $C$DW$16        .dwtag  DW_TAG_formal_parameter
     276                      .dwattr $C$DW$16, DW_AT_name("filterNumber")
     277                      .dwattr $C$DW$16, DW_AT_TI_symbol_name("_filterNumber")
     278                      .dwattr $C$DW$16, DW_AT_type(*$C$DW$T$19)
     279                      .dwattr $C$DW$16, DW_AT_location[DW_OP_reg1]
     280              
     281              $C$DW$17        .dwtag  DW_TAG_formal_parameter
     282                      .dwattr $C$DW$17, DW_AT_name("IEH_Switch")
     283                      .dwattr $C$DW$17, DW_AT_TI_symbol_name("_IEH_Switch")
     284                      .dwattr $C$DW$17, DW_AT_type(*$C$DW$T$19)
     285                      .dwattr $C$DW$17, DW_AT_location[DW_OP_reg12]
     286              
     287              $C$DW$18        .dwtag  DW_TAG_formal_parameter
     288                      .dwattr $C$DW$18, DW_AT_name("IEL_Switch")
     289                      .dwattr $C$DW$18, DW_AT_TI_symbol_name("_IEL_Switch")
     290                      .dwattr $C$DW$18, DW_AT_type(*$C$DW$T$19)
     291                      .dwattr $C$DW$18, DW_AT_location[DW_OP_reg14]
     292              
     293              $C$DW$19        .dwtag  DW_TAG_formal_parameter
     294                      .dwattr $C$DW$19, DW_AT_name("MFIE_Switch")
     295                      .dwattr $C$DW$19, DW_AT_TI_symbol_name("_MFIE_Switch")
     296                      .dwattr $C$DW$19, DW_AT_type(*$C$DW$T$19)
     297                      .dwattr $C$DW$19, DW_AT_location[DW_OP_breg20 -5]
     298              
     299              $C$DW$20        .dwtag  DW_TAG_formal_parameter
     300                      .dwattr $C$DW$20, DW_AT_name("AE_Switch")
     301                      .dwattr $C$DW$20, DW_AT_TI_symbol_name("_AE_Switch")
     302                      .dwattr $C$DW$20, DW_AT_type(*$C$DW$T$19)
     303                      .dwattr $C$DW$20, DW_AT_location[DW_OP_breg20 -6]
     304              
     305              
     306              ;***************************************************************
     307              ;* FNAME: _Sdfm_configureInterrupt      FR SIZE:   2           *
     308              ;*                                                             *
     309              ;* FUNCTION ENVIRONMENT                                        *
     310              ;*                                                             *
     311              ;* FUNCTION PROPERTIES                                         *
     312              ;*                            0 Parameter,  0 Auto,  2 SOE     *
     313              ;***************************************************************
     314              
     315              _Sdfm_configureInterrupt:
TMS320C2000 Assembler PC v18.12.4 Sat Jul 18 15:28:09 2020

Copyright (c) 1996-2018 Texas Instruments Incorporated
F2837xD_sdfm_drivers.asm                                             PAGE    7

     316              ;* AR6   assigned to $O$C1
     317              ;* AR6   assigned to $O$C2
     318              ;* AR6   assigned to $O$C3
     319              ;* AR6   assigned to $O$C4
     320              ;* AL    assigned to _filterNumber
     321              $C$DW$21        .dwtag  DW_TAG_variable
     322                      .dwattr $C$DW$21, DW_AT_name("filterNumber")
     323                      .dwattr $C$DW$21, DW_AT_TI_symbol_name("_filterNumber")
     324                      .dwattr $C$DW$21, DW_AT_type(*$C$DW$T$101)
     325                      .dwattr $C$DW$21, DW_AT_location[DW_OP_reg0]
     326              
     327              ;* AR4   assigned to _IEH_Switch
     328              $C$DW$22        .dwtag  DW_TAG_variable
     329                      .dwattr $C$DW$22, DW_AT_name("IEH_Switch")
     330                      .dwattr $C$DW$22, DW_AT_TI_symbol_name("_IEH_Switch")
     331                      .dwattr $C$DW$22, DW_AT_type(*$C$DW$T$101)
     332                      .dwattr $C$DW$22, DW_AT_location[DW_OP_reg12]
     333              
     334              ;* AR5   assigned to _IEL_Switch
     335              $C$DW$23        .dwtag  DW_TAG_variable
     336                      .dwattr $C$DW$23, DW_AT_name("IEL_Switch")
     337                      .dwattr $C$DW$23, DW_AT_TI_symbol_name("_IEL_Switch")
     338                      .dwattr $C$DW$23, DW_AT_type(*$C$DW$T$101)
     339                      .dwattr $C$DW$23, DW_AT_location[DW_OP_reg14]
     340              
     341              ;* PL    assigned to _MFIE_Switch
     342              $C$DW$24        .dwtag  DW_TAG_variable
     343                      .dwattr $C$DW$24, DW_AT_name("MFIE_Switch")
     344                      .dwattr $C$DW$24, DW_AT_TI_symbol_name("_MFIE_Switch")
     345                      .dwattr $C$DW$24, DW_AT_type(*$C$DW$T$101)
     346                      .dwattr $C$DW$24, DW_AT_location[DW_OP_reg2]
     347              
     348              ;* AR7   assigned to _AE_Switch
     349              $C$DW$25        .dwtag  DW_TAG_variable
     350                      .dwattr $C$DW$25, DW_AT_name("AE_Switch")
     351                      .dwattr $C$DW$25, DW_AT_TI_symbol_name("_AE_Switch")
     352                      .dwattr $C$DW$25, DW_AT_type(*$C$DW$T$101)
     353                      .dwattr $C$DW$25, DW_AT_location[DW_OP_reg18]
     354              
     355                      .dwcfi  cfa_offset, -2
     356                      .dwcfi  save_reg_to_mem, 26, 0
     357 00000034 88A9          MOVZ      AR6,AL                ; [CPU_ALU] |251| 
     358 00000035 B2BD          MOVL      *SP++,XAR1            ; [CPU_ALU] 
     359                      .dwcfi  save_reg_to_mem, 7, 2
     360                      .dwcfi  cfa_offset, -4
     361 00000036 92A8          MOV       AL,AH                 ; [CPU_ALU] |251| 
     362 00000037 8046          MOVZ      AR7,*-SP[6]           ; [CPU_ALU] |251| 
     363 00000038 2745          MOV       PL,*-SP[5]            ; [CPU_ALU] |251| 
     364 00000039 7622   EALLOW
     365                      .dwpsn  file "C:/ti/controlSUITE/device_support/F2837xD/v170/F2837xD_common/source/F2837xD_sdfm_drive
     366 0000003a 5201          CMPB      AL,#1                 ; [CPU_ALU] |255| 
     367 0000003b FFE1          B         $C$L3,EQ              ; [CPU_ALU] |255| 
         0000003c 0091 
     368                      ; branchcc occurs ; [] |255| 
     369 0000003d 5202          CMPB      AL,#2                 ; [CPU_ALU] |255| 
TMS320C2000 Assembler PC v18.12.4 Sat Jul 18 15:28:09 2020

Copyright (c) 1996-2018 Texas Instruments Incorporated
F2837xD_sdfm_drivers.asm                                             PAGE    8

     370 0000003e 6161          B         $C$L2,EQ              ; [CPU_ALU] |255| 
     371                      ; branchcc occurs ; [] |255| 
     372 0000003f 5204          CMPB      AL,#4                 ; [CPU_ALU] |255| 
     373 00000040 6132          B         $C$L1,EQ              ; [CPU_ALU] |255| 
     374                      ; branchcc occurs ; [] |255| 
     375 00000041 5208          CMPB      AL,#8                 ; [CPU_ALU] |255| 
     376 00000042 FFE0          B         $C$L4,NEQ             ; [CPU_ALU] |255| 
         00000043 00B6 
     377                      ; branchcc occurs ; [] |255| 
     378 00000044 2901          CLRC      SXM                   ; [CPU_ALU] 
     379                      .dwpsn  file "C:/ti/controlSUITE/device_support/F2837xD/v170/F2837xD_common/source/F2837xD_sdfm_drive
     380 00000045 5603          MOV       ACC,AR6 << 1          ; [CPU_ALU] |280| 
         00000046 01A6 
     381 00000047 7680!         MOVL      XAR6,#_SDFM           ; [CPU_ARAU] |280| 
         00000048 0000 
     382 00000049 5601          ADDL      XAR6,ACC              ; [CPU_ALU] |280| 
         0000004a 00A6 
     383 0000004b CCA4          AND       AL,AR4,#0x0001        ; [CPU_ALU] |280| 
         0000004c 0001 
     384 0000004d C4C6          MOVL      XAR6,*+XAR6[0]        ; [CPU_ALU] |280| 
     385 0000004e D045          MOVB      XAR0,#69              ; [CPU_ALU] |280| 
     386 0000004f FF84          LSL       AL,5                  ; [CPU_ALU] |280| 
     387 00000050 D145          MOVB      XAR1,#69              ; [CPU_ALU] |280| 
     388 00000051 CD96          AND       AH,*+XAR6[AR0],#0xffdf ; [CPU_ALU] |280| 
         00000052 FFDF 
     389 00000053 CAA8          OR        AL,AH                 ; [CPU_ALU] |280| 
     390                      .dwpsn  file "C:/ti/controlSUITE/device_support/F2837xD/v170/F2837xD_common/source/F2837xD_sdfm_drive
     391 00000054 D045          MOVB      XAR0,#69              ; [CPU_ALU] |281| 
     392                      .dwpsn  file "C:/ti/controlSUITE/device_support/F2837xD/v170/F2837xD_common/source/F2837xD_sdfm_drive
     393 00000055 969E          MOV       *+XAR6[AR1],AL        ; [CPU_ALU] |280| 
     394                      .dwpsn  file "C:/ti/controlSUITE/device_support/F2837xD/v170/F2837xD_common/source/F2837xD_sdfm_drive
     395 00000056 CCA5          AND       AL,AR5,#0x0001        ; [CPU_ALU] |281| 
         00000057 0001 
     396 00000058 FF85          LSL       AL,6                  ; [CPU_ALU] |281| 
     397 00000059 D145          MOVB      XAR1,#69              ; [CPU_ALU] |281| 
     398 0000005a CD96          AND       AH,*+XAR6[AR0],#0xffbf ; [CPU_ALU] |281| 
         0000005b FFBF 
     399 0000005c CAA8          OR        AL,AH                 ; [CPU_ALU] |281| 
     400                      .dwpsn  file "C:/ti/controlSUITE/device_support/F2837xD/v170/F2837xD_common/source/F2837xD_sdfm_drive
     401 0000005d D045          MOVB      XAR0,#69              ; [CPU_ALU] |282| 
     402 0000005e CDAB          AND       AH,PL,#0x0001         ; [CPU_ALU] |282| 
         0000005f 0001 
     403 00000060 FF98          LSL       AH,9                  ; [CPU_ALU] |282| 
     404                      .dwpsn  file "C:/ti/controlSUITE/device_support/F2837xD/v170/F2837xD_common/source/F2837xD_sdfm_drive
     405 00000061 969E          MOV       *+XAR6[AR1],AL        ; [CPU_ALU] |281| 
     406                      .dwpsn  file "C:/ti/controlSUITE/device_support/F2837xD/v170/F2837xD_common/source/F2837xD_sdfm_drive
     407 00000062 D145          MOVB      XAR1,#69              ; [CPU_ALU] |282| 
     408 00000063 CC96          AND       AL,*+XAR6[AR0],#0xfdff ; [CPU_FPU] |282| 
         00000064 FDFF 
     409 00000065 CBA9          OR        AH,AL                 ; [CPU_ALU] |282| 
     410                      .dwpsn  file "C:/ti/controlSUITE/device_support/F2837xD/v170/F2837xD_common/source/F2837xD_sdfm_drive
     411 00000066 D041          MOVB      XAR0,#65              ; [CPU_ALU] |283| 
     412 00000067 CCA7          AND       AL,AR7,#0x0001        ; [CPU_ALU] |283| 
         00000068 0001 
     413 00000069 FF88          LSL       AL,9                  ; [CPU_ALU] |283| 
TMS320C2000 Assembler PC v18.12.4 Sat Jul 18 15:28:09 2020

Copyright (c) 1996-2018 Texas Instruments Incorporated
F2837xD_sdfm_drivers.asm                                             PAGE    9

     414                      .dwpsn  file "C:/ti/controlSUITE/device_support/F2837xD/v170/F2837xD_common/source/F2837xD_sdfm_drive
     415 0000006a 979E          MOV       *+XAR6[AR1],AH        ; [CPU_ALU] |282| 
     416                      .dwpsn  file "C:/ti/controlSUITE/device_support/F2837xD/v170/F2837xD_common/source/F2837xD_sdfm_drive
     417 0000006b CD96          AND       AH,*+XAR6[AR0],#0xfdff ; [CPU_FPU] |283| 
         0000006c FDFF 
     418 0000006d D041          MOVB      XAR0,#65              ; [CPU_FPU] |283| 
     419 0000006e CAA8          OR        AL,AH                 ; [CPU_ALU] |283| 
     420 0000006f 9696          MOV       *+XAR6[AR0],AL        ; [CPU_ALU] |283| 
     421                      .dwpsn  file "C:/ti/controlSUITE/device_support/F2837xD/v170/F2837xD_common/source/F2837xD_sdfm_drive
     422 00000070 FFEF          B         $C$L4,UNC             ; [CPU_ALU] |284| 
         00000071 0088 
     423                      ; branch occurs ; [] |284| 
     424 00000072       $C$L1:    
     425 00000072 2901          CLRC      SXM                   ; [CPU_ALU] 
     426                      .dwpsn  file "C:/ti/controlSUITE/device_support/F2837xD/v170/F2837xD_common/source/F2837xD_sdfm_drive
     427 00000073 5603          MOV       ACC,AR6 << 1          ; [CPU_ALU] |273| 
         00000074 01A6 
     428 00000075 7680!         MOVL      XAR6,#_SDFM           ; [CPU_ARAU] |273| 
         00000076 0000 
     429 00000077 5601          ADDL      XAR6,ACC              ; [CPU_ALU] |273| 
         00000078 00A6 
     430 00000079 CCA4          AND       AL,AR4,#0x0001        ; [CPU_ALU] |273| 
         0000007a 0001 
     431 0000007b C4C6          MOVL      XAR6,*+XAR6[0]        ; [CPU_ALU] |273| 
     432 0000007c D035          MOVB      XAR0,#53              ; [CPU_ALU] |273| 
     433 0000007d FF84          LSL       AL,5                  ; [CPU_ALU] |273| 
     434 0000007e D135          MOVB      XAR1,#53              ; [CPU_ALU] |273| 
     435 0000007f CD96          AND       AH,*+XAR6[AR0],#0xffdf ; [CPU_ALU] |273| 
         00000080 FFDF 
     436 00000081 CAA8          OR        AL,AH                 ; [CPU_ALU] |273| 
     437                      .dwpsn  file "C:/ti/controlSUITE/device_support/F2837xD/v170/F2837xD_common/source/F2837xD_sdfm_drive
     438 00000082 D035          MOVB      XAR0,#53              ; [CPU_ALU] |274| 
     439                      .dwpsn  file "C:/ti/controlSUITE/device_support/F2837xD/v170/F2837xD_common/source/F2837xD_sdfm_drive
     440 00000083 969E          MOV       *+XAR6[AR1],AL        ; [CPU_ALU] |273| 
     441                      .dwpsn  file "C:/ti/controlSUITE/device_support/F2837xD/v170/F2837xD_common/source/F2837xD_sdfm_drive
     442 00000084 CCA5          AND       AL,AR5,#0x0001        ; [CPU_ALU] |274| 
         00000085 0001 
     443 00000086 FF85          LSL       AL,6                  ; [CPU_ALU] |274| 
     444 00000087 D135          MOVB      XAR1,#53              ; [CPU_ALU] |274| 
     445 00000088 CD96          AND       AH,*+XAR6[AR0],#0xffbf ; [CPU_ALU] |274| 
         00000089 FFBF 
     446 0000008a CAA8          OR        AL,AH                 ; [CPU_ALU] |274| 
     447                      .dwpsn  file "C:/ti/controlSUITE/device_support/F2837xD/v170/F2837xD_common/source/F2837xD_sdfm_drive
     448 0000008b D035          MOVB      XAR0,#53              ; [CPU_ALU] |275| 
     449 0000008c CDAB          AND       AH,PL,#0x0001         ; [CPU_ALU] |275| 
         0000008d 0001 
     450 0000008e FF98          LSL       AH,9                  ; [CPU_ALU] |275| 
     451                      .dwpsn  file "C:/ti/controlSUITE/device_support/F2837xD/v170/F2837xD_common/source/F2837xD_sdfm_drive
     452 0000008f 969E          MOV       *+XAR6[AR1],AL        ; [CPU_ALU] |274| 
     453                      .dwpsn  file "C:/ti/controlSUITE/device_support/F2837xD/v170/F2837xD_common/source/F2837xD_sdfm_drive
     454 00000090 D135          MOVB      XAR1,#53              ; [CPU_ALU] |275| 
     455 00000091 CC96          AND       AL,*+XAR6[AR0],#0xfdff ; [CPU_FPU] |275| 
         00000092 FDFF 
     456 00000093 CBA9          OR        AH,AL                 ; [CPU_ALU] |275| 
     457                      .dwpsn  file "C:/ti/controlSUITE/device_support/F2837xD/v170/F2837xD_common/source/F2837xD_sdfm_drive
TMS320C2000 Assembler PC v18.12.4 Sat Jul 18 15:28:09 2020

Copyright (c) 1996-2018 Texas Instruments Incorporated
F2837xD_sdfm_drivers.asm                                             PAGE   10

     458 00000094 D031          MOVB      XAR0,#49              ; [CPU_ALU] |276| 
     459 00000095 CCA7          AND       AL,AR7,#0x0001        ; [CPU_ALU] |276| 
         00000096 0001 
     460 00000097 FF88          LSL       AL,9                  ; [CPU_ALU] |276| 
     461                      .dwpsn  file "C:/ti/controlSUITE/device_support/F2837xD/v170/F2837xD_common/source/F2837xD_sdfm_drive
     462 00000098 979E          MOV       *+XAR6[AR1],AH        ; [CPU_ALU] |275| 
     463                      .dwpsn  file "C:/ti/controlSUITE/device_support/F2837xD/v170/F2837xD_common/source/F2837xD_sdfm_drive
     464 00000099 CD96          AND       AH,*+XAR6[AR0],#0xfdff ; [CPU_FPU] |276| 
         0000009a FDFF 
     465 0000009b D031          MOVB      XAR0,#49              ; [CPU_FPU] |276| 
     466 0000009c CAA8          OR        AL,AH                 ; [CPU_ALU] |276| 
     467 0000009d 9696          MOV       *+XAR6[AR0],AL        ; [CPU_ALU] |276| 
     468                      .dwpsn  file "C:/ti/controlSUITE/device_support/F2837xD/v170/F2837xD_common/source/F2837xD_sdfm_drive
     469 0000009e 6F5A          B         $C$L4,UNC             ; [CPU_ALU] |277| 
     470                      ; branch occurs ; [] |277| 
     471 0000009f       $C$L2:    
     472 0000009f 2901          CLRC      SXM                   ; [CPU_ALU] 
     473                      .dwpsn  file "C:/ti/controlSUITE/device_support/F2837xD/v170/F2837xD_common/source/F2837xD_sdfm_drive
     474 000000a0 5603          MOV       ACC,AR6 << 1          ; [CPU_ALU] |266| 
         000000a1 01A6 
     475 000000a2 7680!         MOVL      XAR6,#_SDFM           ; [CPU_ARAU] |266| 
         000000a3 0000 
     476 000000a4 5601          ADDL      XAR6,ACC              ; [CPU_ALU] |266| 
         000000a5 00A6 
     477 000000a6 CCA4          AND       AL,AR4,#0x0001        ; [CPU_ALU] |266| 
         000000a7 0001 
     478 000000a8 C4C6          MOVL      XAR6,*+XAR6[0]        ; [CPU_ALU] |266| 
     479 000000a9 D025          MOVB      XAR0,#37              ; [CPU_ALU] |266| 
     480 000000aa FF84          LSL       AL,5                  ; [CPU_ALU] |266| 
     481 000000ab D125          MOVB      XAR1,#37              ; [CPU_ALU] |266| 
     482 000000ac CD96          AND       AH,*+XAR6[AR0],#0xffdf ; [CPU_ALU] |266| 
         000000ad FFDF 
     483 000000ae CAA8          OR        AL,AH                 ; [CPU_ALU] |266| 
     484                      .dwpsn  file "C:/ti/controlSUITE/device_support/F2837xD/v170/F2837xD_common/source/F2837xD_sdfm_drive
     485 000000af D025          MOVB      XAR0,#37              ; [CPU_ALU] |267| 
     486                      .dwpsn  file "C:/ti/controlSUITE/device_support/F2837xD/v170/F2837xD_common/source/F2837xD_sdfm_drive
     487 000000b0 969E          MOV       *+XAR6[AR1],AL        ; [CPU_ALU] |266| 
     488                      .dwpsn  file "C:/ti/controlSUITE/device_support/F2837xD/v170/F2837xD_common/source/F2837xD_sdfm_drive
     489 000000b1 CCA5          AND       AL,AR5,#0x0001        ; [CPU_ALU] |267| 
         000000b2 0001 
     490 000000b3 FF85          LSL       AL,6                  ; [CPU_ALU] |267| 
     491 000000b4 D125          MOVB      XAR1,#37              ; [CPU_ALU] |267| 
     492 000000b5 CD96          AND       AH,*+XAR6[AR0],#0xffbf ; [CPU_ALU] |267| 
         000000b6 FFBF 
     493 000000b7 CAA8          OR        AL,AH                 ; [CPU_ALU] |267| 
     494                      .dwpsn  file "C:/ti/controlSUITE/device_support/F2837xD/v170/F2837xD_common/source/F2837xD_sdfm_drive
     495 000000b8 D025          MOVB      XAR0,#37              ; [CPU_ALU] |268| 
     496 000000b9 CDAB          AND       AH,PL,#0x0001         ; [CPU_ALU] |268| 
         000000ba 0001 
     497 000000bb FF98          LSL       AH,9                  ; [CPU_ALU] |268| 
     498                      .dwpsn  file "C:/ti/controlSUITE/device_support/F2837xD/v170/F2837xD_common/source/F2837xD_sdfm_drive
     499 000000bc 969E          MOV       *+XAR6[AR1],AL        ; [CPU_ALU] |267| 
     500                      .dwpsn  file "C:/ti/controlSUITE/device_support/F2837xD/v170/F2837xD_common/source/F2837xD_sdfm_drive
     501 000000bd D125          MOVB      XAR1,#37              ; [CPU_ALU] |268| 
     502 000000be CC96          AND       AL,*+XAR6[AR0],#0xfdff ; [CPU_FPU] |268| 
TMS320C2000 Assembler PC v18.12.4 Sat Jul 18 15:28:09 2020

Copyright (c) 1996-2018 Texas Instruments Incorporated
F2837xD_sdfm_drivers.asm                                             PAGE   11

         000000bf FDFF 
     503 000000c0 CBA9          OR        AH,AL                 ; [CPU_ALU] |268| 
     504                      .dwpsn  file "C:/ti/controlSUITE/device_support/F2837xD/v170/F2837xD_common/source/F2837xD_sdfm_drive
     505 000000c1 D021          MOVB      XAR0,#33              ; [CPU_ALU] |269| 
     506 000000c2 CCA7          AND       AL,AR7,#0x0001        ; [CPU_ALU] |269| 
         000000c3 0001 
     507 000000c4 FF88          LSL       AL,9                  ; [CPU_ALU] |269| 
     508                      .dwpsn  file "C:/ti/controlSUITE/device_support/F2837xD/v170/F2837xD_common/source/F2837xD_sdfm_drive
     509 000000c5 979E          MOV       *+XAR6[AR1],AH        ; [CPU_ALU] |268| 
     510                      .dwpsn  file "C:/ti/controlSUITE/device_support/F2837xD/v170/F2837xD_common/source/F2837xD_sdfm_drive
     511 000000c6 CD96          AND       AH,*+XAR6[AR0],#0xfdff ; [CPU_FPU] |269| 
         000000c7 FDFF 
     512 000000c8 D021          MOVB      XAR0,#33              ; [CPU_FPU] |269| 
     513 000000c9 CAA8          OR        AL,AH                 ; [CPU_ALU] |269| 
     514 000000ca 9696          MOV       *+XAR6[AR0],AL        ; [CPU_ALU] |269| 
     515                      .dwpsn  file "C:/ti/controlSUITE/device_support/F2837xD/v170/F2837xD_common/source/F2837xD_sdfm_drive
     516 000000cb 6F2D          B         $C$L4,UNC             ; [CPU_ALU] |270| 
     517                      ; branch occurs ; [] |270| 
     518 000000cc       $C$L3:    
     519 000000cc 2901          CLRC      SXM                   ; [CPU_ALU] 
     520                      .dwpsn  file "C:/ti/controlSUITE/device_support/F2837xD/v170/F2837xD_common/source/F2837xD_sdfm_drive
     521 000000cd 5603          MOV       ACC,AR6 << 1          ; [CPU_ALU] |259| 
         000000ce 01A6 
     522 000000cf 7680!         MOVL      XAR6,#_SDFM           ; [CPU_ARAU] |259| 
         000000d0 0000 
     523 000000d1 5601          ADDL      XAR6,ACC              ; [CPU_ALU] |259| 
         000000d2 00A6 
     524 000000d3 CCA4          AND       AL,AR4,#0x0001        ; [CPU_ALU] |259| 
         000000d4 0001 
     525 000000d5 C4C6          MOVL      XAR6,*+XAR6[0]        ; [CPU_ALU] |259| 
     526 000000d6 D015          MOVB      XAR0,#21              ; [CPU_ALU] |259| 
     527 000000d7 FF84          LSL       AL,5                  ; [CPU_ALU] |259| 
     528 000000d8 D115          MOVB      XAR1,#21              ; [CPU_ALU] |259| 
     529 000000d9 CD96          AND       AH,*+XAR6[AR0],#0xffdf ; [CPU_ALU] |259| 
         000000da FFDF 
     530 000000db CAA8          OR        AL,AH                 ; [CPU_ALU] |259| 
     531                      .dwpsn  file "C:/ti/controlSUITE/device_support/F2837xD/v170/F2837xD_common/source/F2837xD_sdfm_drive
     532 000000dc D015          MOVB      XAR0,#21              ; [CPU_ALU] |260| 
     533                      .dwpsn  file "C:/ti/controlSUITE/device_support/F2837xD/v170/F2837xD_common/source/F2837xD_sdfm_drive
     534 000000dd 969E          MOV       *+XAR6[AR1],AL        ; [CPU_ALU] |259| 
     535                      .dwpsn  file "C:/ti/controlSUITE/device_support/F2837xD/v170/F2837xD_common/source/F2837xD_sdfm_drive
     536 000000de CCA5          AND       AL,AR5,#0x0001        ; [CPU_ALU] |260| 
         000000df 0001 
     537 000000e0 FF85          LSL       AL,6                  ; [CPU_ALU] |260| 
     538 000000e1 D115          MOVB      XAR1,#21              ; [CPU_ALU] |260| 
     539 000000e2 CD96          AND       AH,*+XAR6[AR0],#0xffbf ; [CPU_ALU] |260| 
         000000e3 FFBF 
     540 000000e4 CAA8          OR        AL,AH                 ; [CPU_ALU] |260| 
     541                      .dwpsn  file "C:/ti/controlSUITE/device_support/F2837xD/v170/F2837xD_common/source/F2837xD_sdfm_drive
     542 000000e5 D015          MOVB      XAR0,#21              ; [CPU_ALU] |261| 
     543 000000e6 CDAB          AND       AH,PL,#0x0001         ; [CPU_ALU] |261| 
         000000e7 0001 
     544 000000e8 FF98          LSL       AH,9                  ; [CPU_ALU] |261| 
     545                      .dwpsn  file "C:/ti/controlSUITE/device_support/F2837xD/v170/F2837xD_common/source/F2837xD_sdfm_drive
     546 000000e9 969E          MOV       *+XAR6[AR1],AL        ; [CPU_ALU] |260| 
TMS320C2000 Assembler PC v18.12.4 Sat Jul 18 15:28:09 2020

Copyright (c) 1996-2018 Texas Instruments Incorporated
F2837xD_sdfm_drivers.asm                                             PAGE   12

     547                      .dwpsn  file "C:/ti/controlSUITE/device_support/F2837xD/v170/F2837xD_common/source/F2837xD_sdfm_drive
     548 000000ea D115          MOVB      XAR1,#21              ; [CPU_ALU] |261| 
     549 000000eb CC96          AND       AL,*+XAR6[AR0],#0xfdff ; [CPU_FPU] |261| 
         000000ec FDFF 
     550 000000ed CBA9          OR        AH,AL                 ; [CPU_ALU] |261| 
     551                      .dwpsn  file "C:/ti/controlSUITE/device_support/F2837xD/v170/F2837xD_common/source/F2837xD_sdfm_drive
     552 000000ee D011          MOVB      XAR0,#17              ; [CPU_ALU] |262| 
     553 000000ef CCA7          AND       AL,AR7,#0x0001        ; [CPU_ALU] |262| 
         000000f0 0001 
     554 000000f1 FF88          LSL       AL,9                  ; [CPU_ALU] |262| 
     555                      .dwpsn  file "C:/ti/controlSUITE/device_support/F2837xD/v170/F2837xD_common/source/F2837xD_sdfm_drive
     556 000000f2 979E          MOV       *+XAR6[AR1],AH        ; [CPU_ALU] |261| 
     557                      .dwpsn  file "C:/ti/controlSUITE/device_support/F2837xD/v170/F2837xD_common/source/F2837xD_sdfm_drive
     558 000000f3 CD96          AND       AH,*+XAR6[AR0],#0xfdff ; [CPU_FPU] |262| 
         000000f4 FDFF 
     559 000000f5 D011          MOVB      XAR0,#17              ; [CPU_FPU] |262| 
     560 000000f6 CAA8          OR        AL,AH                 ; [CPU_ALU] |262| 
     561 000000f7 9696          MOV       *+XAR6[AR0],AL        ; [CPU_ALU] |262| 
     562 000000f8       $C$L4:    
     563 000000f8 761A   EDIS
     564 000000f9 8BBE          MOVL      XAR1,*--SP            ; [CPU_ALU] 
     565                      .dwcfi  cfa_offset, -2
     566                      .dwcfi  restore_reg, 7
     567 000000fa FF69          SPM       #0                    ; [CPU_ALU] 
     568              $C$DW$26        .dwtag  DW_TAG_TI_branch
     569                      .dwattr $C$DW$26, DW_AT_low_pc(0x00)
     570                      .dwattr $C$DW$26, DW_AT_TI_return
     571              
     572 000000fb 0006          LRETR     ; [CPU_ALU] 
     573                      ; return occurs ; [] 
     574                      .dwattr $C$DW$14, DW_AT_TI_end_file("C:/ti/controlSUITE/device_support/F2837xD/v170/F2837xD_common/so
     575                      .dwattr $C$DW$14, DW_AT_TI_end_line(0x121)
     576                      .dwattr $C$DW$14, DW_AT_TI_end_column(0x01)
     577                      .dwendentry
     578                      .dwendtag $C$DW$14
     579              
     580 000000fc               .sect   ".text"
     581                      .clink
     582                      .global _Sdfm_configureInputCtrl
     583              
     584              $C$DW$27        .dwtag  DW_TAG_subprogram
     585                      .dwattr $C$DW$27, DW_AT_name("Sdfm_configureInputCtrl")
     586                      .dwattr $C$DW$27, DW_AT_low_pc(_Sdfm_configureInputCtrl)
     587                      .dwattr $C$DW$27, DW_AT_high_pc(0x00)
     588                      .dwattr $C$DW$27, DW_AT_TI_symbol_name("_Sdfm_configureInputCtrl")
     589                      .dwattr $C$DW$27, DW_AT_external
     590                      .dwattr $C$DW$27, DW_AT_TI_begin_file("C:/ti/controlSUITE/device_support/F2837xD/v170/F2837xD_common/
     591                      .dwattr $C$DW$27, DW_AT_TI_begin_line(0x20)
     592                      .dwattr $C$DW$27, DW_AT_TI_begin_column(0x06)
     593                      .dwattr $C$DW$27, DW_AT_TI_max_frame_size(-2)
     594                      .dwpsn  file "C:/ti/controlSUITE/device_support/F2837xD/v170/F2837xD_common/source/F2837xD_sdfm_drive
     595              
     596                      .dwfde $C$DW$CIE, _Sdfm_configureInputCtrl
     597              $C$DW$28        .dwtag  DW_TAG_formal_parameter
     598                      .dwattr $C$DW$28, DW_AT_name("sdfmNumber")
TMS320C2000 Assembler PC v18.12.4 Sat Jul 18 15:28:09 2020

Copyright (c) 1996-2018 Texas Instruments Incorporated
F2837xD_sdfm_drivers.asm                                             PAGE   13

     599                      .dwattr $C$DW$28, DW_AT_TI_symbol_name("_sdfmNumber")
     600                      .dwattr $C$DW$28, DW_AT_type(*$C$DW$T$19)
     601                      .dwattr $C$DW$28, DW_AT_location[DW_OP_reg0]
     602              
     603              $C$DW$29        .dwtag  DW_TAG_formal_parameter
     604                      .dwattr $C$DW$29, DW_AT_name("filterNumber")
     605                      .dwattr $C$DW$29, DW_AT_TI_symbol_name("_filterNumber")
     606                      .dwattr $C$DW$29, DW_AT_type(*$C$DW$T$19)
     607                      .dwattr $C$DW$29, DW_AT_location[DW_OP_reg1]
     608              
     609              $C$DW$30        .dwtag  DW_TAG_formal_parameter
     610                      .dwattr $C$DW$30, DW_AT_name("mode")
     611                      .dwattr $C$DW$30, DW_AT_TI_symbol_name("_mode")
     612                      .dwattr $C$DW$30, DW_AT_type(*$C$DW$T$19)
     613                      .dwattr $C$DW$30, DW_AT_location[DW_OP_reg12]
     614              
     615              
     616              ;***************************************************************
     617              ;* FNAME: _Sdfm_configureInputCtrl      FR SIZE:   0           *
     618              ;*                                                             *
     619              ;* FUNCTION ENVIRONMENT                                        *
     620              ;*                                                             *
     621              ;* FUNCTION PROPERTIES                                         *
     622              ;*                            0 Parameter,  0 Auto,  0 SOE     *
     623              ;***************************************************************
     624              
     625              _Sdfm_configureInputCtrl:
     626              ;* AR5   assigned to $O$C1
     627              ;* AR5   assigned to $O$C2
     628              ;* AR5   assigned to $O$C3
     629              ;* AR5   assigned to $O$C4
     630              ;* AR4   assigned to _mode
     631              $C$DW$31        .dwtag  DW_TAG_variable
     632                      .dwattr $C$DW$31, DW_AT_name("mode")
     633                      .dwattr $C$DW$31, DW_AT_TI_symbol_name("_mode")
     634                      .dwattr $C$DW$31, DW_AT_type(*$C$DW$T$101)
     635                      .dwattr $C$DW$31, DW_AT_location[DW_OP_reg12]
     636              
     637                      .dwcfi  cfa_offset, -2
     638                      .dwcfi  save_reg_to_mem, 26, 0
     639 000000fc 7622   EALLOW
     640                      .dwpsn  file "C:/ti/controlSUITE/device_support/F2837xD/v170/F2837xD_common/source/F2837xD_sdfm_drive
     641 000000fd 5301          CMPB      AH,#1                 ; [CPU_ALU] |37| 
     642 000000fe 613A          B         $C$L7,EQ              ; [CPU_ALU] |37| 
     643                      ; branchcc occurs ; [] |37| 
     644 000000ff 5302          CMPB      AH,#2                 ; [CPU_ALU] |37| 
     645 00000100 6127          B         $C$L6,EQ              ; [CPU_ALU] |37| 
     646                      ; branchcc occurs ; [] |37| 
     647 00000101 5304          CMPB      AH,#4                 ; [CPU_ALU] |37| 
     648 00000102 6114          B         $C$L5,EQ              ; [CPU_ALU] |37| 
     649                      ; branchcc occurs ; [] |37| 
     650 00000103 5308          CMPB      AH,#8                 ; [CPU_ALU] |37| 
     651 00000104 6044          B         $C$L8,NEQ             ; [CPU_ALU] |37| 
     652                      ; branchcc occurs ; [] |37| 
     653 00000105 2901          CLRC      SXM                   ; [CPU_ALU] 
TMS320C2000 Assembler PC v18.12.4 Sat Jul 18 15:28:09 2020

Copyright (c) 1996-2018 Texas Instruments Incorporated
F2837xD_sdfm_drivers.asm                                             PAGE   14

     654                      .dwpsn  file "C:/ti/controlSUITE/device_support/F2837xD/v170/F2837xD_common/source/F2837xD_sdfm_drive
     655 00000106 8F40!         MOVL      XAR5,#_SDFM           ; [CPU_ARAU] |52| 
         00000107 0000 
     656 00000108 5603          MOV       ACC,AL << 1           ; [CPU_ALU] |52| 
         00000109 01A9 
     657 0000010a 5601          ADDL      XAR5,ACC              ; [CPU_ALU] |52| 
         0000010b 00A5 
     658 0000010c 83C5          MOVL      XAR5,*+XAR5[0]        ; [CPU_ALU] |52| 
     659 0000010d D040          MOVB      XAR0,#64              ; [CPU_ALU] |52| 
     660 0000010e CCA4          AND       AL,AR4,#0x0003        ; [CPU_ALU] |52| 
         0000010f 0003 
     661 00000110 CD95          AND       AH,*+XAR5[AR0],#0xfffc ; [CPU_ALU] |52| 
         00000111 FFFC 
     662 00000112 D040          MOVB      XAR0,#64              ; [CPU_ALU] |52| 
     663 00000113 CAA8          OR        AL,AH                 ; [CPU_ALU] |52| 
     664 00000114 9695          MOV       *+XAR5[AR0],AL        ; [CPU_ALU] |52| 
     665                      .dwpsn  file "C:/ti/controlSUITE/device_support/F2837xD/v170/F2837xD_common/source/F2837xD_sdfm_drive
     666 00000115 6F33          B         $C$L8,UNC             ; [CPU_ALU] |53| 
     667                      ; branch occurs ; [] |53| 
     668 00000116       $C$L5:    
     669 00000116 2901          CLRC      SXM                   ; [CPU_ALU] 
     670                      .dwpsn  file "C:/ti/controlSUITE/device_support/F2837xD/v170/F2837xD_common/source/F2837xD_sdfm_drive
     671 00000117 8F40!         MOVL      XAR5,#_SDFM           ; [CPU_ARAU] |48| 
         00000118 0000 
     672 00000119 5603          MOV       ACC,AL << 1           ; [CPU_ALU] |48| 
         0000011a 01A9 
     673 0000011b 5601          ADDL      XAR5,ACC              ; [CPU_ALU] |48| 
         0000011c 00A5 
     674 0000011d 83C5          MOVL      XAR5,*+XAR5[0]        ; [CPU_ALU] |48| 
     675 0000011e D030          MOVB      XAR0,#48              ; [CPU_ALU] |48| 
     676 0000011f CCA4          AND       AL,AR4,#0x0003        ; [CPU_ALU] |48| 
         00000120 0003 
     677 00000121 CD95          AND       AH,*+XAR5[AR0],#0xfffc ; [CPU_ALU] |48| 
         00000122 FFFC 
     678 00000123 D030          MOVB      XAR0,#48              ; [CPU_ALU] |48| 
     679 00000124 CAA8          OR        AL,AH                 ; [CPU_ALU] |48| 
     680 00000125 9695          MOV       *+XAR5[AR0],AL        ; [CPU_ALU] |48| 
     681                      .dwpsn  file "C:/ti/controlSUITE/device_support/F2837xD/v170/F2837xD_common/source/F2837xD_sdfm_drive
     682 00000126 6F22          B         $C$L8,UNC             ; [CPU_ALU] |49| 
     683                      ; branch occurs ; [] |49| 
     684 00000127       $C$L6:    
     685 00000127 2901          CLRC      SXM                   ; [CPU_ALU] 
     686                      .dwpsn  file "C:/ti/controlSUITE/device_support/F2837xD/v170/F2837xD_common/source/F2837xD_sdfm_drive
     687 00000128 8F40!         MOVL      XAR5,#_SDFM           ; [CPU_ARAU] |44| 
         00000129 0000 
     688 0000012a 5603          MOV       ACC,AL << 1           ; [CPU_ALU] |44| 
         0000012b 01A9 
     689 0000012c 5601          ADDL      XAR5,ACC              ; [CPU_ALU] |44| 
         0000012d 00A5 
     690 0000012e 83C5          MOVL      XAR5,*+XAR5[0]        ; [CPU_ALU] |44| 
     691 0000012f D020          MOVB      XAR0,#32              ; [CPU_ALU] |44| 
     692 00000130 CCA4          AND       AL,AR4,#0x0003        ; [CPU_ALU] |44| 
         00000131 0003 
     693 00000132 CD95          AND       AH,*+XAR5[AR0],#0xfffc ; [CPU_ALU] |44| 
         00000133 FFFC 
TMS320C2000 Assembler PC v18.12.4 Sat Jul 18 15:28:09 2020

Copyright (c) 1996-2018 Texas Instruments Incorporated
F2837xD_sdfm_drivers.asm                                             PAGE   15

     694 00000134 D020          MOVB      XAR0,#32              ; [CPU_ALU] |44| 
     695 00000135 CAA8          OR        AL,AH                 ; [CPU_ALU] |44| 
     696 00000136 9695          MOV       *+XAR5[AR0],AL        ; [CPU_ALU] |44| 
     697                      .dwpsn  file "C:/ti/controlSUITE/device_support/F2837xD/v170/F2837xD_common/source/F2837xD_sdfm_drive
     698 00000137 6F11          B         $C$L8,UNC             ; [CPU_ALU] |45| 
     699                      ; branch occurs ; [] |45| 
     700 00000138       $C$L7:    
     701 00000138 2901          CLRC      SXM                   ; [CPU_ALU] 
     702                      .dwpsn  file "C:/ti/controlSUITE/device_support/F2837xD/v170/F2837xD_common/source/F2837xD_sdfm_drive
     703 00000139 8F40!         MOVL      XAR5,#_SDFM           ; [CPU_ARAU] |40| 
         0000013a 0000 
     704 0000013b 5603          MOV       ACC,AL << 1           ; [CPU_ALU] |40| 
         0000013c 01A9 
     705 0000013d 5601          ADDL      XAR5,ACC              ; [CPU_ALU] |40| 
         0000013e 00A5 
     706 0000013f 83C5          MOVL      XAR5,*+XAR5[0]        ; [CPU_ALU] |40| 
     707 00000140 D010          MOVB      XAR0,#16              ; [CPU_ALU] |40| 
     708 00000141 CCA4          AND       AL,AR4,#0x0003        ; [CPU_ALU] |40| 
         00000142 0003 
     709 00000143 CD95          AND       AH,*+XAR5[AR0],#0xfffc ; [CPU_ALU] |40| 
         00000144 FFFC 
     710 00000145 D010          MOVB      XAR0,#16              ; [CPU_ALU] |40| 
     711 00000146 CAA8          OR        AL,AH                 ; [CPU_ALU] |40| 
     712 00000147 9695          MOV       *+XAR5[AR0],AL        ; [CPU_ALU] |40| 
     713 00000148       $C$L8:    
     714 00000148 761A   EDIS
     715 00000149 FF69          SPM       #0                    ; [CPU_ALU] 
     716              $C$DW$32        .dwtag  DW_TAG_TI_branch
     717                      .dwattr $C$DW$32, DW_AT_low_pc(0x00)
     718                      .dwattr $C$DW$32, DW_AT_TI_return
     719              
     720 0000014a 0006          LRETR     ; [CPU_ALU] 
     721                      ; return occurs ; [] 
     722                      .dwattr $C$DW$27, DW_AT_TI_end_file("C:/ti/controlSUITE/device_support/F2837xD/v170/F2837xD_common/so
     723                      .dwattr $C$DW$27, DW_AT_TI_end_line(0x39)
     724                      .dwattr $C$DW$27, DW_AT_TI_end_column(0x01)
     725                      .dwendentry
     726                      .dwendtag $C$DW$27
     727              
     728 0000014b               .sect   ".text"
     729                      .clink
     730                      .global _Sdfm_configureExternalreset
     731              
     732              $C$DW$33        .dwtag  DW_TAG_subprogram
     733                      .dwattr $C$DW$33, DW_AT_name("Sdfm_configureExternalreset")
     734                      .dwattr $C$DW$33, DW_AT_low_pc(_Sdfm_configureExternalreset)
     735                      .dwattr $C$DW$33, DW_AT_high_pc(0x00)
     736                      .dwattr $C$DW$33, DW_AT_TI_symbol_name("_Sdfm_configureExternalreset")
     737                      .dwattr $C$DW$33, DW_AT_external
     738                      .dwattr $C$DW$33, DW_AT_TI_begin_file("C:/ti/controlSUITE/device_support/F2837xD/v170/F2837xD_common/
     739                      .dwattr $C$DW$33, DW_AT_TI_begin_line(0x131)
     740                      .dwattr $C$DW$33, DW_AT_TI_begin_column(0x06)
     741                      .dwattr $C$DW$33, DW_AT_TI_max_frame_size(-4)
     742                      .dwpsn  file "C:/ti/controlSUITE/device_support/F2837xD/v170/F2837xD_common/source/F2837xD_sdfm_drive
     743              
TMS320C2000 Assembler PC v18.12.4 Sat Jul 18 15:28:09 2020

Copyright (c) 1996-2018 Texas Instruments Incorporated
F2837xD_sdfm_drivers.asm                                             PAGE   16

     744                      .dwfde $C$DW$CIE, _Sdfm_configureExternalreset
     745              $C$DW$34        .dwtag  DW_TAG_formal_parameter
     746                      .dwattr $C$DW$34, DW_AT_name("sdfmNumber")
     747                      .dwattr $C$DW$34, DW_AT_TI_symbol_name("_sdfmNumber")
     748                      .dwattr $C$DW$34, DW_AT_type(*$C$DW$T$19)
     749                      .dwattr $C$DW$34, DW_AT_location[DW_OP_reg0]
     750              
     751              $C$DW$35        .dwtag  DW_TAG_formal_parameter
     752                      .dwattr $C$DW$35, DW_AT_name("filter1_Config_ext_reset")
     753                      .dwattr $C$DW$35, DW_AT_TI_symbol_name("_filter1_Config_ext_reset")
     754                      .dwattr $C$DW$35, DW_AT_type(*$C$DW$T$19)
     755                      .dwattr $C$DW$35, DW_AT_location[DW_OP_reg1]
     756              
     757              $C$DW$36        .dwtag  DW_TAG_formal_parameter
     758                      .dwattr $C$DW$36, DW_AT_name("filter2_Config_ext_reset")
     759                      .dwattr $C$DW$36, DW_AT_TI_symbol_name("_filter2_Config_ext_reset")
     760                      .dwattr $C$DW$36, DW_AT_type(*$C$DW$T$19)
     761                      .dwattr $C$DW$36, DW_AT_location[DW_OP_reg12]
     762              
     763              $C$DW$37        .dwtag  DW_TAG_formal_parameter
     764                      .dwattr $C$DW$37, DW_AT_name("filter3_Config_ext_reset")
     765                      .dwattr $C$DW$37, DW_AT_TI_symbol_name("_filter3_Config_ext_reset")
     766                      .dwattr $C$DW$37, DW_AT_type(*$C$DW$T$19)
     767                      .dwattr $C$DW$37, DW_AT_location[DW_OP_reg14]
     768              
     769              $C$DW$38        .dwtag  DW_TAG_formal_parameter
     770                      .dwattr $C$DW$38, DW_AT_name("filter4_Config_ext_reset")
     771                      .dwattr $C$DW$38, DW_AT_TI_symbol_name("_filter4_Config_ext_reset")
     772                      .dwattr $C$DW$38, DW_AT_type(*$C$DW$T$19)
     773                      .dwattr $C$DW$38, DW_AT_location[DW_OP_breg20 -5]
     774              
     775              
     776              ;***************************************************************
     777              ;* FNAME: _Sdfm_configureExternalreset  FR SIZE:   2           *
     778              ;*                                                             *
     779              ;* FUNCTION ENVIRONMENT                                        *
     780              ;*                                                             *
     781              ;* FUNCTION PROPERTIES                                         *
     782              ;*                            0 Parameter,  0 Auto,  2 SOE     *
     783              ;***************************************************************
     784              
     785              _Sdfm_configureExternalreset:
     786              ;* AR6   assigned to $O$C1
     787              ;* PL    assigned to _filter1_Config_ext_reset
     788              $C$DW$39        .dwtag  DW_TAG_variable
     789                      .dwattr $C$DW$39, DW_AT_name("filter1_Config_ext_reset")
     790                      .dwattr $C$DW$39, DW_AT_TI_symbol_name("_filter1_Config_ext_reset")
     791                      .dwattr $C$DW$39, DW_AT_type(*$C$DW$T$101)
     792                      .dwattr $C$DW$39, DW_AT_location[DW_OP_reg2]
     793              
     794              ;* AR4   assigned to _filter2_Config_ext_reset
     795              $C$DW$40        .dwtag  DW_TAG_variable
     796                      .dwattr $C$DW$40, DW_AT_name("filter2_Config_ext_reset")
     797                      .dwattr $C$DW$40, DW_AT_TI_symbol_name("_filter2_Config_ext_reset")
     798                      .dwattr $C$DW$40, DW_AT_type(*$C$DW$T$101)
TMS320C2000 Assembler PC v18.12.4 Sat Jul 18 15:28:09 2020

Copyright (c) 1996-2018 Texas Instruments Incorporated
F2837xD_sdfm_drivers.asm                                             PAGE   17

     799                      .dwattr $C$DW$40, DW_AT_location[DW_OP_reg12]
     800              
     801              ;* AR5   assigned to _filter3_Config_ext_reset
     802              $C$DW$41        .dwtag  DW_TAG_variable
     803                      .dwattr $C$DW$41, DW_AT_name("filter3_Config_ext_reset")
     804                      .dwattr $C$DW$41, DW_AT_TI_symbol_name("_filter3_Config_ext_reset")
     805                      .dwattr $C$DW$41, DW_AT_type(*$C$DW$T$101)
     806                      .dwattr $C$DW$41, DW_AT_location[DW_OP_reg14]
     807              
     808              ;* AR7   assigned to _filter4_Config_ext_reset
     809              $C$DW$42        .dwtag  DW_TAG_variable
     810                      .dwattr $C$DW$42, DW_AT_name("filter4_Config_ext_reset")
     811                      .dwattr $C$DW$42, DW_AT_TI_symbol_name("_filter4_Config_ext_reset")
     812                      .dwattr $C$DW$42, DW_AT_type(*$C$DW$T$101)
     813                      .dwattr $C$DW$42, DW_AT_location[DW_OP_reg18]
     814              
     815                      .dwcfi  cfa_offset, -2
     816                      .dwcfi  save_reg_to_mem, 26, 0
     817 0000014b B2BD          MOVL      *SP++,XAR1            ; [CPU_ALU] 
     818                      .dwcfi  save_reg_to_mem, 7, 2
     819                      .dwcfi  cfa_offset, -4
     820 0000014c 27A8          MOV       PL,AH                 ; [CPU_ALU] |306| 
     821 0000014d 8045          MOVZ      AR7,*-SP[5]           ; [CPU_ALU] |306| 
     822 0000014e 7622   EALLOW
     823 0000014f 2901          CLRC      SXM                   ; [CPU_ALU] 
     824                      .dwpsn  file "C:/ti/controlSUITE/device_support/F2837xD/v170/F2837xD_common/source/F2837xD_sdfm_drive
     825 00000150 7680!         MOVL      XAR6,#_SDFM           ; [CPU_ARAU] |309| 
         00000151 0000 
     826 00000152 5603          MOV       ACC,AL << 1           ; [CPU_ALU] |309| 
         00000153 01A9 
     827 00000154 5601          ADDL      XAR6,ACC              ; [CPU_ALU] |309| 
         00000155 00A6 
     828 00000156 CCAB          AND       AL,PL,#0x0001         ; [CPU_ALU] |309| 
         00000157 0001 
     829 00000158 C4C6          MOVL      XAR6,*+XAR6[0]        ; [CPU_ALU] |309| 
     830 00000159 D011          MOVB      XAR0,#17              ; [CPU_ALU] |309| 
     831 0000015a FF8B          LSL       AL,12                 ; [CPU_ALU] |309| 
     832 0000015b D111          MOVB      XAR1,#17              ; [CPU_ALU] |309| 
     833 0000015c CD96          AND       AH,*+XAR6[AR0],#0xefff ; [CPU_ALU] |309| 
         0000015d EFFF 
     834 0000015e CAA8          OR        AL,AH                 ; [CPU_ALU] |309| 
     835                      .dwpsn  file "C:/ti/controlSUITE/device_support/F2837xD/v170/F2837xD_common/source/F2837xD_sdfm_drive
     836 0000015f D021          MOVB      XAR0,#33              ; [CPU_ALU] |310| 
     837                      .dwpsn  file "C:/ti/controlSUITE/device_support/F2837xD/v170/F2837xD_common/source/F2837xD_sdfm_drive
     838 00000160 969E          MOV       *+XAR6[AR1],AL        ; [CPU_ALU] |309| 
     839                      .dwpsn  file "C:/ti/controlSUITE/device_support/F2837xD/v170/F2837xD_common/source/F2837xD_sdfm_drive
     840 00000161 CCA4          AND       AL,AR4,#0x0001        ; [CPU_ALU] |310| 
         00000162 0001 
     841 00000163 D121          MOVB      XAR1,#33              ; [CPU_ALU] |310| 
     842 00000164 FF8B          LSL       AL,12                 ; [CPU_ALU] |310| 
     843 00000165 CD96          AND       AH,*+XAR6[AR0],#0xefff ; [CPU_ALU] |310| 
         00000166 EFFF 
     844 00000167 CAA8          OR        AL,AH                 ; [CPU_ALU] |310| 
     845                      .dwpsn  file "C:/ti/controlSUITE/device_support/F2837xD/v170/F2837xD_common/source/F2837xD_sdfm_drive
     846 00000168 D031          MOVB      XAR0,#49              ; [CPU_ALU] |311| 
TMS320C2000 Assembler PC v18.12.4 Sat Jul 18 15:28:09 2020

Copyright (c) 1996-2018 Texas Instruments Incorporated
F2837xD_sdfm_drivers.asm                                             PAGE   18

     847 00000169 CDA5          AND       AH,AR5,#0x0001        ; [CPU_ALU] |311| 
         0000016a 0001 
     848 0000016b FF9B          LSL       AH,12                 ; [CPU_ALU] |311| 
     849                      .dwpsn  file "C:/ti/controlSUITE/device_support/F2837xD/v170/F2837xD_common/source/F2837xD_sdfm_drive
     850 0000016c 969E          MOV       *+XAR6[AR1],AL        ; [CPU_ALU] |310| 
     851                      .dwpsn  file "C:/ti/controlSUITE/device_support/F2837xD/v170/F2837xD_common/source/F2837xD_sdfm_drive
     852 0000016d D131          MOVB      XAR1,#49              ; [CPU_ALU] |311| 
     853 0000016e CC96          AND       AL,*+XAR6[AR0],#0xefff ; [CPU_FPU] |311| 
         0000016f EFFF 
     854 00000170 CBA9          OR        AH,AL                 ; [CPU_ALU] |311| 
     855                      .dwpsn  file "C:/ti/controlSUITE/device_support/F2837xD/v170/F2837xD_common/source/F2837xD_sdfm_drive
     856 00000171 D041          MOVB      XAR0,#65              ; [CPU_ALU] |312| 
     857 00000172 CCA7          AND       AL,AR7,#0x0001        ; [CPU_ALU] |312| 
         00000173 0001 
     858 00000174 FF8B          LSL       AL,12                 ; [CPU_ALU] |312| 
     859                      .dwpsn  file "C:/ti/controlSUITE/device_support/F2837xD/v170/F2837xD_common/source/F2837xD_sdfm_drive
     860 00000175 979E          MOV       *+XAR6[AR1],AH        ; [CPU_ALU] |311| 
     861                      .dwpsn  file "C:/ti/controlSUITE/device_support/F2837xD/v170/F2837xD_common/source/F2837xD_sdfm_drive
     862 00000176 CD96          AND       AH,*+XAR6[AR0],#0xefff ; [CPU_FPU] |312| 
         00000177 EFFF 
     863 00000178 D041          MOVB      XAR0,#65              ; [CPU_FPU] |312| 
     864 00000179 CAA8          OR        AL,AH                 ; [CPU_ALU] |312| 
     865 0000017a 9696          MOV       *+XAR6[AR0],AL        ; [CPU_ALU] |312| 
     866 0000017b 761A   EDIS
     867 0000017c FF69          SPM       #0                    ; [CPU_ALU] 
     868 0000017d 8BBE          MOVL      XAR1,*--SP            ; [CPU_ALU] 
     869                      .dwcfi  cfa_offset, -2
     870                      .dwcfi  restore_reg, 7
     871              $C$DW$43        .dwtag  DW_TAG_TI_branch
     872                      .dwattr $C$DW$43, DW_AT_low_pc(0x00)
     873                      .dwattr $C$DW$43, DW_AT_TI_return
     874              
     875 0000017e 0006          LRETR     ; [CPU_ALU] 
     876                      ; return occurs ; [] 
     877                      .dwattr $C$DW$33, DW_AT_TI_end_file("C:/ti/controlSUITE/device_support/F2837xD/v170/F2837xD_common/so
     878                      .dwattr $C$DW$33, DW_AT_TI_end_line(0x13b)
     879                      .dwattr $C$DW$33, DW_AT_TI_end_column(0x01)
     880                      .dwendentry
     881                      .dwendtag $C$DW$33
     882              
     883 0000017f               .sect   ".text"
     884                      .clink
     885                      .global _Sdfm_configureData_filter
     886              
     887              $C$DW$44        .dwtag  DW_TAG_subprogram
     888                      .dwattr $C$DW$44, DW_AT_name("Sdfm_configureData_filter")
     889                      .dwattr $C$DW$44, DW_AT_low_pc(_Sdfm_configureData_filter)
     890                      .dwattr $C$DW$44, DW_AT_high_pc(0x00)
     891                      .dwattr $C$DW$44, DW_AT_TI_symbol_name("_Sdfm_configureData_filter")
     892                      .dwattr $C$DW$44, DW_AT_external
     893                      .dwattr $C$DW$44, DW_AT_TI_begin_file("C:/ti/controlSUITE/device_support/F2837xD/v170/F2837xD_common/
     894                      .dwattr $C$DW$44, DW_AT_TI_begin_line(0xa1)
     895                      .dwattr $C$DW$44, DW_AT_TI_begin_column(0x06)
     896                      .dwattr $C$DW$44, DW_AT_TI_max_frame_size(-4)
     897                      .dwpsn  file "C:/ti/controlSUITE/device_support/F2837xD/v170/F2837xD_common/source/F2837xD_sdfm_drive
TMS320C2000 Assembler PC v18.12.4 Sat Jul 18 15:28:09 2020

Copyright (c) 1996-2018 Texas Instruments Incorporated
F2837xD_sdfm_drivers.asm                                             PAGE   19

     898              
     899                      .dwfde $C$DW$CIE, _Sdfm_configureData_filter
     900              $C$DW$45        .dwtag  DW_TAG_formal_parameter
     901                      .dwattr $C$DW$45, DW_AT_name("sdfmNumber")
     902                      .dwattr $C$DW$45, DW_AT_TI_symbol_name("_sdfmNumber")
     903                      .dwattr $C$DW$45, DW_AT_type(*$C$DW$T$19)
     904                      .dwattr $C$DW$45, DW_AT_location[DW_OP_reg0]
     905              
     906              $C$DW$46        .dwtag  DW_TAG_formal_parameter
     907                      .dwattr $C$DW$46, DW_AT_name("filterNumber")
     908                      .dwattr $C$DW$46, DW_AT_TI_symbol_name("_filterNumber")
     909                      .dwattr $C$DW$46, DW_AT_type(*$C$DW$T$19)
     910                      .dwattr $C$DW$46, DW_AT_location[DW_OP_reg1]
     911              
     912              $C$DW$47        .dwtag  DW_TAG_formal_parameter
     913                      .dwattr $C$DW$47, DW_AT_name("Filter_switch")
     914                      .dwattr $C$DW$47, DW_AT_TI_symbol_name("_Filter_switch")
     915                      .dwattr $C$DW$47, DW_AT_type(*$C$DW$T$19)
     916                      .dwattr $C$DW$47, DW_AT_location[DW_OP_reg12]
     917              
     918              $C$DW$48        .dwtag  DW_TAG_formal_parameter
     919                      .dwattr $C$DW$48, DW_AT_name("filterType")
     920                      .dwattr $C$DW$48, DW_AT_TI_symbol_name("_filterType")
     921                      .dwattr $C$DW$48, DW_AT_type(*$C$DW$T$19)
     922                      .dwattr $C$DW$48, DW_AT_location[DW_OP_reg14]
     923              
     924              $C$DW$49        .dwtag  DW_TAG_formal_parameter
     925                      .dwattr $C$DW$49, DW_AT_name("OSR")
     926                      .dwattr $C$DW$49, DW_AT_TI_symbol_name("_OSR")
     927                      .dwattr $C$DW$49, DW_AT_type(*$C$DW$T$19)
     928                      .dwattr $C$DW$49, DW_AT_location[DW_OP_breg20 -5]
     929              
     930              $C$DW$50        .dwtag  DW_TAG_formal_parameter
     931                      .dwattr $C$DW$50, DW_AT_name("DR_switch")
     932                      .dwattr $C$DW$50, DW_AT_TI_symbol_name("_DR_switch")
     933                      .dwattr $C$DW$50, DW_AT_type(*$C$DW$T$19)
     934                      .dwattr $C$DW$50, DW_AT_location[DW_OP_breg20 -6]
     935              
     936              $C$DW$51        .dwtag  DW_TAG_formal_parameter
     937                      .dwattr $C$DW$51, DW_AT_name("shift_bits")
     938                      .dwattr $C$DW$51, DW_AT_TI_symbol_name("_shift_bits")
     939                      .dwattr $C$DW$51, DW_AT_type(*$C$DW$T$19)
     940                      .dwattr $C$DW$51, DW_AT_location[DW_OP_breg20 -7]
     941              
     942              
     943              ;***************************************************************
     944              ;* FNAME: _Sdfm_configureData_filter    FR SIZE:   2           *
     945              ;*                                                             *
     946              ;* FUNCTION ENVIRONMENT                                        *
     947              ;*                                                             *
     948              ;* FUNCTION PROPERTIES                                         *
     949              ;*                            0 Parameter,  0 Auto,  2 SOE     *
     950              ;***************************************************************
     951              
     952              _Sdfm_configureData_filter:
TMS320C2000 Assembler PC v18.12.4 Sat Jul 18 15:28:09 2020

Copyright (c) 1996-2018 Texas Instruments Incorporated
F2837xD_sdfm_drivers.asm                                             PAGE   20

     953              ;* AR4   assigned to $O$C1
     954              ;* AR4   assigned to $O$C2
     955              ;* AR6   assigned to $O$C3
     956              ;* AR4   assigned to $O$C4
     957              ;* AR4   assigned to $O$C5
     958              ;* AR6   assigned to $O$C6
     959              ;* AR4   assigned to $O$C7
     960              ;* AR4   assigned to $O$C8
     961              ;* AR6   assigned to $O$C9
     962              ;* AR4   assigned to $O$C10
     963              ;* AR4   assigned to $O$C11
     964              ;* AR6   assigned to $O$C12
     965              ;* AH    assigned to _filterNumber
     966              $C$DW$52        .dwtag  DW_TAG_variable
     967                      .dwattr $C$DW$52, DW_AT_name("filterNumber")
     968                      .dwattr $C$DW$52, DW_AT_TI_symbol_name("_filterNumber")
     969                      .dwattr $C$DW$52, DW_AT_type(*$C$DW$T$101)
     970                      .dwattr $C$DW$52, DW_AT_location[DW_OP_reg1]
     971              
     972              ;* AR4   assigned to _Filter_switch
     973              $C$DW$53        .dwtag  DW_TAG_variable
     974                      .dwattr $C$DW$53, DW_AT_name("Filter_switch")
     975                      .dwattr $C$DW$53, DW_AT_TI_symbol_name("_Filter_switch")
     976                      .dwattr $C$DW$53, DW_AT_type(*$C$DW$T$101)
     977                      .dwattr $C$DW$53, DW_AT_location[DW_OP_reg12]
     978              
     979              ;* AR5   assigned to _filterType
     980              $C$DW$54        .dwtag  DW_TAG_variable
     981                      .dwattr $C$DW$54, DW_AT_name("filterType")
     982                      .dwattr $C$DW$54, DW_AT_TI_symbol_name("_filterType")
     983                      .dwattr $C$DW$54, DW_AT_type(*$C$DW$T$101)
     984                      .dwattr $C$DW$54, DW_AT_location[DW_OP_reg14]
     985              
     986              ;* PH    assigned to _OSR
     987              $C$DW$55        .dwtag  DW_TAG_variable
     988                      .dwattr $C$DW$55, DW_AT_name("OSR")
     989                      .dwattr $C$DW$55, DW_AT_TI_symbol_name("_OSR")
     990                      .dwattr $C$DW$55, DW_AT_type(*$C$DW$T$101)
     991                      .dwattr $C$DW$55, DW_AT_location[DW_OP_reg3]
     992              
     993              ;* AR7   assigned to _DR_switch
     994              $C$DW$56        .dwtag  DW_TAG_variable
     995                      .dwattr $C$DW$56, DW_AT_name("DR_switch")
     996                      .dwattr $C$DW$56, DW_AT_TI_symbol_name("_DR_switch")
     997                      .dwattr $C$DW$56, DW_AT_type(*$C$DW$T$101)
     998                      .dwattr $C$DW$56, DW_AT_location[DW_OP_reg18]
     999              
    1000              ;* T     assigned to _shift_bits
    1001              $C$DW$57        .dwtag  DW_TAG_variable
    1002                      .dwattr $C$DW$57, DW_AT_name("shift_bits")
    1003                      .dwattr $C$DW$57, DW_AT_TI_symbol_name("_shift_bits")
    1004                      .dwattr $C$DW$57, DW_AT_type(*$C$DW$T$101)
    1005                      .dwattr $C$DW$57, DW_AT_location[DW_OP_reg22]
    1006              
    1007                      .dwcfi  cfa_offset, -2
TMS320C2000 Assembler PC v18.12.4 Sat Jul 18 15:28:09 2020

Copyright (c) 1996-2018 Texas Instruments Incorporated
F2837xD_sdfm_drivers.asm                                             PAGE   21

    1008                      .dwcfi  save_reg_to_mem, 26, 0
    1009 0000017f B2BD          MOVL      *SP++,XAR1            ; [CPU_ALU] 
    1010                      .dwcfi  save_reg_to_mem, 7, 2
    1011                      .dwcfi  cfa_offset, -4
    1012 00000180 27A9          MOV       PL,AL                 ; [CPU_ALU] |162| 
    1013 00000181 2D47          MOV       T,*-SP[7]             ; [CPU_ALU] |162| 
    1014 00000182 8046          MOVZ      AR7,*-SP[6]           ; [CPU_ALU] |162| 
    1015 00000183 2F45          MOV       PH,*-SP[5]            ; [CPU_ALU] |162| 
    1016 00000184 7622   EALLOW
    1017                      .dwpsn  file "C:/ti/controlSUITE/device_support/F2837xD/v170/F2837xD_common/source/F2837xD_sdfm_drive
    1018 00000185 92A8          MOV       AL,AH                 ; [CPU_ALU] |166| 
    1019 00000186 5201          CMPB      AL,#1                 ; [CPU_ALU] |166| 
    1020 00000187 FFE1          B         $C$L17,EQ             ; [CPU_ALU] |166| 
         00000188 00EC 
    1021                      ; branchcc occurs ; [] |166| 
    1022 00000189 5202          CMPB      AL,#2                 ; [CPU_ALU] |166| 
    1023 0000018a FFE1          B         $C$L14,EQ             ; [CPU_ALU] |166| 
         0000018b 009F 
    1024                      ; branchcc occurs ; [] |166| 
    1025 0000018c 5204          CMPB      AL,#4                 ; [CPU_ALU] |166| 
    1026 0000018d 6150          B         $C$L11,EQ             ; [CPU_ALU] |166| 
    1027                      ; branchcc occurs ; [] |166| 
    1028 0000018e 5208          CMPB      AL,#8                 ; [CPU_ALU] |166| 
    1029 0000018f FFE0          B         $C$L20,NEQ            ; [CPU_ALU] |166| 
         00000190 012D 
    1030                      ; branchcc occurs ; [] |166| 
    1031 00000191 2901          CLRC      SXM                   ; [CPU_ALU] 
    1032                      .dwpsn  file "C:/ti/controlSUITE/device_support/F2837xD/v170/F2837xD_common/source/F2837xD_sdfm_drive
    1033 00000192 7680!         MOVL      XAR6,#_SDFM           ; [CPU_ARAU] |212| 
         00000193 0000 
    1034 00000194 5603          MOV       ACC,PL << 1           ; [CPU_ALU] |212| 
         00000195 01AB 
    1035 00000196 5601          ADDL      XAR6,ACC              ; [CPU_ALU] |212| 
         00000197 00A6 
    1036 00000198 CCA4          AND       AL,AR4,#0x0001        ; [CPU_ALU] |212| 
         00000199 0001 
    1037 0000019a C4C6          MOVL      XAR6,*+XAR6[0]        ; [CPU_ALU] |212| 
    1038 0000019b D041          MOVB      XAR0,#65              ; [CPU_ALU] |212| 
    1039 0000019c FF87          LSL       AL,8                  ; [CPU_ALU] |212| 
    1040 0000019d D141          MOVB      XAR1,#65              ; [CPU_ALU] |212| 
    1041 0000019e CD96          AND       AH,*+XAR6[AR0],#0xfeff ; [CPU_ALU] |212| 
         0000019f FEFF 
    1042 000001a0 CAA8          OR        AL,AH                 ; [CPU_ALU] |212| 
    1043                      .dwpsn  file "C:/ti/controlSUITE/device_support/F2837xD/v170/F2837xD_common/source/F2837xD_sdfm_drive
    1044 000001a1 D041          MOVB      XAR0,#65              ; [CPU_ALU] |213| 
    1045 000001a2 CDA5          AND       AH,AR5,#0x0003        ; [CPU_ALU] |213| 
         000001a3 0003 
    1046 000001a4 FF99          LSL       AH,10                 ; [CPU_ALU] |213| 
    1047                      .dwpsn  file "C:/ti/controlSUITE/device_support/F2837xD/v170/F2837xD_common/source/F2837xD_sdfm_drive
    1048 000001a5 969E          MOV       *+XAR6[AR1],AL        ; [CPU_ALU] |212| 
    1049                      .dwpsn  file "C:/ti/controlSUITE/device_support/F2837xD/v170/F2837xD_common/source/F2837xD_sdfm_drive
    1050 000001a6 CC96          AND       AL,*+XAR6[AR0],#0xf3ff ; [CPU_FPU] |213| 
         000001a7 F3FF 
    1051 000001a8 D041          MOVB      XAR0,#65              ; [CPU_FPU] |213| 
    1052 000001a9 CBA9          OR        AH,AL                 ; [CPU_ALU] |213| 
TMS320C2000 Assembler PC v18.12.4 Sat Jul 18 15:28:09 2020

Copyright (c) 1996-2018 Texas Instruments Incorporated
F2837xD_sdfm_drivers.asm                                             PAGE   22

    1053                      .dwpsn  file "C:/ti/controlSUITE/device_support/F2837xD/v170/F2837xD_common/source/F2837xD_sdfm_drive
    1054 000001aa 1BAA          CMP       PH,#256               ; [CPU_ALU] |216| 
         000001ab 0100 
    1055                      .dwpsn  file "C:/ti/controlSUITE/device_support/F2837xD/v170/F2837xD_common/source/F2837xD_sdfm_drive
    1056 000001ac 9796          MOV       *+XAR6[AR0],AH        ; [CPU_FPU] |213| 
    1057                      .dwpsn  file "C:/ti/controlSUITE/device_support/F2837xD/v170/F2837xD_common/source/F2837xD_sdfm_drive
    1058 000001ad 6905          B         $C$L9,LOS             ; [CPU_ALU] |216| 
    1059                      ; branchcc occurs ; [] |216| 
    1060                      .dwpsn  file "C:/ti/controlSUITE/device_support/F2837xD/v170/F2837xD_common/source/F2837xD_sdfm_drive
    1061 000001ae DE41          ADDB      XAR6,#65              ; [CPU_ALU] |217| 
    1062 000001af 18C6          AND       *+XAR6[0],#0xff00     ; [CPU_ALU] |217| 
         000001b0 FF00 
    1063 000001b1 6F0E          B         $C$L10,UNC            ; [CPU_ALU] |217| 
    1064                      ; branch occurs ; [] |217| 
    1065 000001b2       $C$L9:    
    1066                      .dwpsn  file "C:/ti/controlSUITE/device_support/F2837xD/v170/F2837xD_common/source/F2837xD_sdfm_drive
    1067 000001b2 5603          MOV       ACC,PL << 1           ; [CPU_ALU] |216| 
         000001b3 01AB 
    1068 000001b4 8F00!         MOVL      XAR4,#_SDFM           ; [CPU_ARAU] |216| 
         000001b5 0000 
    1069 000001b6 5601          ADDL      XAR4,ACC              ; [CPU_ALU] |216| 
         000001b7 00A4 
    1070 000001b8 8AC4          MOVL      XAR4,*+XAR4[0]        ; [CPU_ALU] |216| 
    1071 000001b9 D041          MOVB      XAR0,#65              ; [CPU_ALU] |216| 
    1072 000001ba 93AA          MOV       AH,PH                 ; [CPU_ALU] |216| 
    1073 000001bb 9294          MOV       AL,*+XAR4[AR0]        ; [CPU_ALU] |216| 
    1074 000001bc D041          MOVB      XAR0,#65              ; [CPU_ALU] |216| 
    1075 000001bd 3DA9          MOVB      AL,AH.LSB             ; [CPU_ALU] |216| 
    1076 000001be 9694          MOV       *+XAR4[AR0],AL        ; [CPU_ALU] |216| 
    1077 000001bf       $C$L10:    
    1078                      .dwpsn  file "C:/ti/controlSUITE/device_support/F2837xD/v170/F2837xD_common/source/F2837xD_sdfm_drive
    1079 000001bf 5603          MOV       ACC,PL << 1           ; [CPU_ALU] |220| 
         000001c0 01AB 
    1080 000001c1 8F00!         MOVL      XAR4,#_SDFM           ; [CPU_ARAU] |220| 
         000001c2 0000 
    1081 000001c3 5601          ADDL      XAR4,ACC              ; [CPU_ALU] |220| 
         000001c4 00A4 
    1082 000001c5 92A7          MOV       AL,AR7                ; [CPU_ALU] |220| 
    1083 000001c6 8AC4          MOVL      XAR4,*+XAR4[0]        ; [CPU_ALU] |220| 
    1084 000001c7 9001          ANDB      AL,#1                 ; [CPU_ALU] |220| 
    1085 000001c8 D042          MOVB      XAR0,#66              ; [CPU_FPU] |220| 
    1086 000001c9 FF89          LSL       AL,10                 ; [CPU_ALU] |220| 
    1087 000001ca CD94          AND       AH,*+XAR4[AR0],#0xfbff ; [CPU_FPU] |220| 
         000001cb FBFF 
    1088 000001cc D042          MOVB      XAR0,#66              ; [CPU_FPU] |220| 
    1089 000001cd CAA8          OR        AL,AH                 ; [CPU_ALU] |220| 
    1090 000001ce 9694          MOV       *+XAR4[AR0],AL        ; [CPU_ALU] |220| 
    1091 000001cf 92A7          MOV       AL,AR7                ; [CPU_ALU] |220| 
    1092                      .dwpsn  file "C:/ti/controlSUITE/device_support/F2837xD/v170/F2837xD_common/source/F2837xD_sdfm_drive
    1093 000001d0 FFE0          B         $C$L20,NEQ            ; [CPU_ALU] |221| 
         000001d1 00EC 
    1094                      ; branchcc occurs ; [] |221| 
    1095                      .dwpsn  file "C:/ti/controlSUITE/device_support/F2837xD/v170/F2837xD_common/source/F2837xD_sdfm_drive
    1096 000001d2 D042          MOVB      XAR0,#66              ; [CPU_ALU] |221| 
    1097 000001d3 CC94          AND       AL,*+XAR4[AR0],#0x07ff ; [CPU_ALU] |221| 
TMS320C2000 Assembler PC v18.12.4 Sat Jul 18 15:28:09 2020

Copyright (c) 1996-2018 Texas Instruments Incorporated
F2837xD_sdfm_drivers.asm                                             PAGE   23

         000001d4 07FF 
    1098 000001d5 88A9          MOVZ      AR6,AL                ; [CPU_ALU] |221| 
    1099 000001d6 D042          MOVB      XAR0,#66              ; [CPU_ALU] |221| 
    1100 000001d7 5603          MOV       ACC,T << #11          ; [CPU_ALU] |221| 
         000001d8 0BAC 
    1101 000001d9 CAA6          OR        AL,AR6                ; [CPU_ALU] |221| 
    1102 000001da 9694          MOV       *+XAR4[AR0],AL        ; [CPU_ALU] |221| 
    1103 000001db FFEF          B         $C$L20,UNC            ; [CPU_ALU] |221| 
         000001dc 00E1 
    1104                      ; branch occurs ; [] |221| 
    1105 000001dd       $C$L11:    
    1106 000001dd 2901          CLRC      SXM                   ; [CPU_ALU] 
    1107                      .dwpsn  file "C:/ti/controlSUITE/device_support/F2837xD/v170/F2837xD_common/source/F2837xD_sdfm_drive
    1108 000001de 7680!         MOVL      XAR6,#_SDFM           ; [CPU_ARAU] |198| 
         000001df 0000 
    1109 000001e0 5603          MOV       ACC,PL << 1           ; [CPU_ALU] |198| 
         000001e1 01AB 
    1110 000001e2 5601          ADDL      XAR6,ACC              ; [CPU_ALU] |198| 
         000001e3 00A6 
    1111 000001e4 CCA4          AND       AL,AR4,#0x0001        ; [CPU_ALU] |198| 
         000001e5 0001 
    1112 000001e6 C4C6          MOVL      XAR6,*+XAR6[0]        ; [CPU_ALU] |198| 
    1113 000001e7 D031          MOVB      XAR0,#49              ; [CPU_ALU] |198| 
    1114 000001e8 FF87          LSL       AL,8                  ; [CPU_ALU] |198| 
    1115 000001e9 D131          MOVB      XAR1,#49              ; [CPU_ALU] |198| 
    1116 000001ea CD96          AND       AH,*+XAR6[AR0],#0xfeff ; [CPU_ALU] |198| 
         000001eb FEFF 
    1117 000001ec CAA8          OR        AL,AH                 ; [CPU_ALU] |198| 
    1118                      .dwpsn  file "C:/ti/controlSUITE/device_support/F2837xD/v170/F2837xD_common/source/F2837xD_sdfm_drive
    1119 000001ed D031          MOVB      XAR0,#49              ; [CPU_ALU] |199| 
    1120 000001ee CDA5          AND       AH,AR5,#0x0003        ; [CPU_ALU] |199| 
         000001ef 0003 
    1121 000001f0 FF99          LSL       AH,10                 ; [CPU_ALU] |199| 
    1122                      .dwpsn  file "C:/ti/controlSUITE/device_support/F2837xD/v170/F2837xD_common/source/F2837xD_sdfm_drive
    1123 000001f1 969E          MOV       *+XAR6[AR1],AL        ; [CPU_ALU] |198| 
    1124                      .dwpsn  file "C:/ti/controlSUITE/device_support/F2837xD/v170/F2837xD_common/source/F2837xD_sdfm_drive
    1125 000001f2 CC96          AND       AL,*+XAR6[AR0],#0xf3ff ; [CPU_FPU] |199| 
         000001f3 F3FF 
    1126 000001f4 D031          MOVB      XAR0,#49              ; [CPU_FPU] |199| 
    1127 000001f5 CBA9          OR        AH,AL                 ; [CPU_ALU] |199| 
    1128                      .dwpsn  file "C:/ti/controlSUITE/device_support/F2837xD/v170/F2837xD_common/source/F2837xD_sdfm_drive
    1129 000001f6 1BAA          CMP       PH,#256               ; [CPU_ALU] |202| 
         000001f7 0100 
    1130                      .dwpsn  file "C:/ti/controlSUITE/device_support/F2837xD/v170/F2837xD_common/source/F2837xD_sdfm_drive
    1131 000001f8 9796          MOV       *+XAR6[AR0],AH        ; [CPU_FPU] |199| 
    1132                      .dwpsn  file "C:/ti/controlSUITE/device_support/F2837xD/v170/F2837xD_common/source/F2837xD_sdfm_drive
    1133 000001f9 6905          B         $C$L12,LOS            ; [CPU_ALU] |202| 
    1134                      ; branchcc occurs ; [] |202| 
    1135                      .dwpsn  file "C:/ti/controlSUITE/device_support/F2837xD/v170/F2837xD_common/source/F2837xD_sdfm_drive
    1136 000001fa DE31          ADDB      XAR6,#49              ; [CPU_ALU] |203| 
    1137 000001fb 18C6          AND       *+XAR6[0],#0xff00     ; [CPU_ALU] |203| 
         000001fc FF00 
    1138 000001fd 6F0E          B         $C$L13,UNC            ; [CPU_ALU] |203| 
    1139                      ; branch occurs ; [] |203| 
    1140 000001fe       $C$L12:    
TMS320C2000 Assembler PC v18.12.4 Sat Jul 18 15:28:09 2020

Copyright (c) 1996-2018 Texas Instruments Incorporated
F2837xD_sdfm_drivers.asm                                             PAGE   24

    1141                      .dwpsn  file "C:/ti/controlSUITE/device_support/F2837xD/v170/F2837xD_common/source/F2837xD_sdfm_drive
    1142 000001fe 5603          MOV       ACC,PL << 1           ; [CPU_ALU] |202| 
         000001ff 01AB 
    1143 00000200 8F00!         MOVL      XAR4,#_SDFM           ; [CPU_ARAU] |202| 
         00000201 0000 
    1144 00000202 5601          ADDL      XAR4,ACC              ; [CPU_ALU] |202| 
         00000203 00A4 
    1145 00000204 8AC4          MOVL      XAR4,*+XAR4[0]        ; [CPU_ALU] |202| 
    1146 00000205 D031          MOVB      XAR0,#49              ; [CPU_ALU] |202| 
    1147 00000206 93AA          MOV       AH,PH                 ; [CPU_ALU] |202| 
    1148 00000207 9294          MOV       AL,*+XAR4[AR0]        ; [CPU_ALU] |202| 
    1149 00000208 D031          MOVB      XAR0,#49              ; [CPU_ALU] |202| 
    1150 00000209 3DA9          MOVB      AL,AH.LSB             ; [CPU_ALU] |202| 
    1151 0000020a 9694          MOV       *+XAR4[AR0],AL        ; [CPU_ALU] |202| 
    1152 0000020b       $C$L13:    
    1153                      .dwpsn  file "C:/ti/controlSUITE/device_support/F2837xD/v170/F2837xD_common/source/F2837xD_sdfm_drive
    1154 0000020b 5603          MOV       ACC,PL << 1           ; [CPU_ALU] |206| 
         0000020c 01AB 
    1155 0000020d 8F00!         MOVL      XAR4,#_SDFM           ; [CPU_ARAU] |206| 
         0000020e 0000 
    1156 0000020f 5601          ADDL      XAR4,ACC              ; [CPU_ALU] |206| 
         00000210 00A4 
    1157 00000211 92A7          MOV       AL,AR7                ; [CPU_ALU] |206| 
    1158 00000212 8AC4          MOVL      XAR4,*+XAR4[0]        ; [CPU_ALU] |206| 
    1159 00000213 9001          ANDB      AL,#1                 ; [CPU_ALU] |206| 
    1160 00000214 D032          MOVB      XAR0,#50              ; [CPU_FPU] |206| 
    1161 00000215 FF89          LSL       AL,10                 ; [CPU_ALU] |206| 
    1162 00000216 CD94          AND       AH,*+XAR4[AR0],#0xfbff ; [CPU_FPU] |206| 
         00000217 FBFF 
    1163 00000218 D032          MOVB      XAR0,#50              ; [CPU_FPU] |206| 
    1164 00000219 CAA8          OR        AL,AH                 ; [CPU_ALU] |206| 
    1165 0000021a 9694          MOV       *+XAR4[AR0],AL        ; [CPU_ALU] |206| 
    1166 0000021b 92A7          MOV       AL,AR7                ; [CPU_ALU] |206| 
    1167                      .dwpsn  file "C:/ti/controlSUITE/device_support/F2837xD/v170/F2837xD_common/source/F2837xD_sdfm_drive
    1168 0000021c FFE0          B         $C$L20,NEQ            ; [CPU_ALU] |207| 
         0000021d 00A0 
    1169                      ; branchcc occurs ; [] |207| 
    1170                      .dwpsn  file "C:/ti/controlSUITE/device_support/F2837xD/v170/F2837xD_common/source/F2837xD_sdfm_drive
    1171 0000021e D032          MOVB      XAR0,#50              ; [CPU_ALU] |207| 
    1172 0000021f CC94          AND       AL,*+XAR4[AR0],#0x07ff ; [CPU_ALU] |207| 
         00000220 07FF 
    1173 00000221 88A9          MOVZ      AR6,AL                ; [CPU_ALU] |207| 
    1174 00000222 D032          MOVB      XAR0,#50              ; [CPU_ALU] |207| 
    1175 00000223 5603          MOV       ACC,T << #11          ; [CPU_ALU] |207| 
         00000224 0BAC 
    1176 00000225 CAA6          OR        AL,AR6                ; [CPU_ALU] |207| 
    1177 00000226 9694          MOV       *+XAR4[AR0],AL        ; [CPU_ALU] |207| 
    1178 00000227 FFEF          B         $C$L20,UNC            ; [CPU_ALU] |207| 
         00000228 0095 
    1179                      ; branch occurs ; [] |207| 
    1180 00000229       $C$L14:    
    1181 00000229 2901          CLRC      SXM                   ; [CPU_ALU] 
    1182                      .dwpsn  file "C:/ti/controlSUITE/device_support/F2837xD/v170/F2837xD_common/source/F2837xD_sdfm_drive
    1183 0000022a 7680!         MOVL      XAR6,#_SDFM           ; [CPU_ARAU] |184| 
         0000022b 0000 
TMS320C2000 Assembler PC v18.12.4 Sat Jul 18 15:28:09 2020

Copyright (c) 1996-2018 Texas Instruments Incorporated
F2837xD_sdfm_drivers.asm                                             PAGE   25

    1184 0000022c 5603          MOV       ACC,PL << 1           ; [CPU_ALU] |184| 
         0000022d 01AB 
    1185 0000022e 5601          ADDL      XAR6,ACC              ; [CPU_ALU] |184| 
         0000022f 00A6 
    1186 00000230 CCA4          AND       AL,AR4,#0x0001        ; [CPU_ALU] |184| 
         00000231 0001 
    1187 00000232 C4C6          MOVL      XAR6,*+XAR6[0]        ; [CPU_ALU] |184| 
    1188 00000233 D021          MOVB      XAR0,#33              ; [CPU_ALU] |184| 
    1189 00000234 FF87          LSL       AL,8                  ; [CPU_ALU] |184| 
    1190 00000235 D121          MOVB      XAR1,#33              ; [CPU_ALU] |184| 
    1191 00000236 CD96          AND       AH,*+XAR6[AR0],#0xfeff ; [CPU_ALU] |184| 
         00000237 FEFF 
    1192 00000238 CAA8          OR        AL,AH                 ; [CPU_ALU] |184| 
    1193                      .dwpsn  file "C:/ti/controlSUITE/device_support/F2837xD/v170/F2837xD_common/source/F2837xD_sdfm_drive
    1194 00000239 D021          MOVB      XAR0,#33              ; [CPU_ALU] |185| 
    1195 0000023a CDA5          AND       AH,AR5,#0x0003        ; [CPU_ALU] |185| 
         0000023b 0003 
    1196 0000023c FF99          LSL       AH,10                 ; [CPU_ALU] |185| 
    1197                      .dwpsn  file "C:/ti/controlSUITE/device_support/F2837xD/v170/F2837xD_common/source/F2837xD_sdfm_drive
    1198 0000023d 969E          MOV       *+XAR6[AR1],AL        ; [CPU_ALU] |184| 
    1199                      .dwpsn  file "C:/ti/controlSUITE/device_support/F2837xD/v170/F2837xD_common/source/F2837xD_sdfm_drive
    1200 0000023e CC96          AND       AL,*+XAR6[AR0],#0xf3ff ; [CPU_FPU] |185| 
         0000023f F3FF 
    1201 00000240 D021          MOVB      XAR0,#33              ; [CPU_FPU] |185| 
    1202 00000241 CBA9          OR        AH,AL                 ; [CPU_ALU] |185| 
    1203                      .dwpsn  file "C:/ti/controlSUITE/device_support/F2837xD/v170/F2837xD_common/source/F2837xD_sdfm_drive
    1204 00000242 1BAA          CMP       PH,#256               ; [CPU_ALU] |188| 
         00000243 0100 
    1205                      .dwpsn  file "C:/ti/controlSUITE/device_support/F2837xD/v170/F2837xD_common/source/F2837xD_sdfm_drive
    1206 00000244 9796          MOV       *+XAR6[AR0],AH        ; [CPU_FPU] |185| 
    1207                      .dwpsn  file "C:/ti/controlSUITE/device_support/F2837xD/v170/F2837xD_common/source/F2837xD_sdfm_drive
    1208 00000245 6905          B         $C$L15,LOS            ; [CPU_ALU] |188| 
    1209                      ; branchcc occurs ; [] |188| 
    1210                      .dwpsn  file "C:/ti/controlSUITE/device_support/F2837xD/v170/F2837xD_common/source/F2837xD_sdfm_drive
    1211 00000246 DE21          ADDB      XAR6,#33              ; [CPU_ALU] |189| 
    1212 00000247 18C6          AND       *+XAR6[0],#0xff00     ; [CPU_ALU] |189| 
         00000248 FF00 
    1213 00000249 6F0E          B         $C$L16,UNC            ; [CPU_ALU] |189| 
    1214                      ; branch occurs ; [] |189| 
    1215 0000024a       $C$L15:    
    1216                      .dwpsn  file "C:/ti/controlSUITE/device_support/F2837xD/v170/F2837xD_common/source/F2837xD_sdfm_drive
    1217 0000024a 5603          MOV       ACC,PL << 1           ; [CPU_ALU] |188| 
         0000024b 01AB 
    1218 0000024c 8F00!         MOVL      XAR4,#_SDFM           ; [CPU_ARAU] |188| 
         0000024d 0000 
    1219 0000024e 5601          ADDL      XAR4,ACC              ; [CPU_ALU] |188| 
         0000024f 00A4 
    1220 00000250 8AC4          MOVL      XAR4,*+XAR4[0]        ; [CPU_ALU] |188| 
    1221 00000251 D021          MOVB      XAR0,#33              ; [CPU_ALU] |188| 
    1222 00000252 93AA          MOV       AH,PH                 ; [CPU_ALU] |188| 
    1223 00000253 9294          MOV       AL,*+XAR4[AR0]        ; [CPU_ALU] |188| 
    1224 00000254 D021          MOVB      XAR0,#33              ; [CPU_ALU] |188| 
    1225 00000255 3DA9          MOVB      AL,AH.LSB             ; [CPU_ALU] |188| 
    1226 00000256 9694          MOV       *+XAR4[AR0],AL        ; [CPU_ALU] |188| 
    1227 00000257       $C$L16:    
TMS320C2000 Assembler PC v18.12.4 Sat Jul 18 15:28:09 2020

Copyright (c) 1996-2018 Texas Instruments Incorporated
F2837xD_sdfm_drivers.asm                                             PAGE   26

    1228                      .dwpsn  file "C:/ti/controlSUITE/device_support/F2837xD/v170/F2837xD_common/source/F2837xD_sdfm_drive
    1229 00000257 5603          MOV       ACC,PL << 1           ; [CPU_ALU] |192| 
         00000258 01AB 
    1230 00000259 8F00!         MOVL      XAR4,#_SDFM           ; [CPU_ARAU] |192| 
         0000025a 0000 
    1231 0000025b 5601          ADDL      XAR4,ACC              ; [CPU_ALU] |192| 
         0000025c 00A4 
    1232 0000025d 92A7          MOV       AL,AR7                ; [CPU_ALU] |192| 
    1233 0000025e 8AC4          MOVL      XAR4,*+XAR4[0]        ; [CPU_ALU] |192| 
    1234 0000025f 9001          ANDB      AL,#1                 ; [CPU_ALU] |192| 
    1235 00000260 D022          MOVB      XAR0,#34              ; [CPU_FPU] |192| 
    1236 00000261 FF89          LSL       AL,10                 ; [CPU_ALU] |192| 
    1237 00000262 CD94          AND       AH,*+XAR4[AR0],#0xfbff ; [CPU_FPU] |192| 
         00000263 FBFF 
    1238 00000264 D022          MOVB      XAR0,#34              ; [CPU_FPU] |192| 
    1239 00000265 CAA8          OR        AL,AH                 ; [CPU_ALU] |192| 
    1240 00000266 9694          MOV       *+XAR4[AR0],AL        ; [CPU_ALU] |192| 
    1241 00000267 92A7          MOV       AL,AR7                ; [CPU_ALU] |192| 
    1242                      .dwpsn  file "C:/ti/controlSUITE/device_support/F2837xD/v170/F2837xD_common/source/F2837xD_sdfm_drive
    1243 00000268 6054          B         $C$L20,NEQ            ; [CPU_ALU] |193| 
    1244                      ; branchcc occurs ; [] |193| 
    1245                      .dwpsn  file "C:/ti/controlSUITE/device_support/F2837xD/v170/F2837xD_common/source/F2837xD_sdfm_drive
    1246 00000269 D022          MOVB      XAR0,#34              ; [CPU_ALU] |193| 
    1247 0000026a CC94          AND       AL,*+XAR4[AR0],#0x07ff ; [CPU_ALU] |193| 
         0000026b 07FF 
    1248 0000026c 88A9          MOVZ      AR6,AL                ; [CPU_ALU] |193| 
    1249 0000026d D022          MOVB      XAR0,#34              ; [CPU_ALU] |193| 
    1250 0000026e 5603          MOV       ACC,T << #11          ; [CPU_ALU] |193| 
         0000026f 0BAC 
    1251 00000270 CAA6          OR        AL,AR6                ; [CPU_ALU] |193| 
    1252 00000271 9694          MOV       *+XAR4[AR0],AL        ; [CPU_ALU] |193| 
    1253 00000272 6F4A          B         $C$L20,UNC            ; [CPU_ALU] |193| 
    1254                      ; branch occurs ; [] |193| 
    1255 00000273       $C$L17:    
    1256 00000273 2901          CLRC      SXM                   ; [CPU_ALU] 
    1257                      .dwpsn  file "C:/ti/controlSUITE/device_support/F2837xD/v170/F2837xD_common/source/F2837xD_sdfm_drive
    1258 00000274 7680!         MOVL      XAR6,#_SDFM           ; [CPU_ARAU] |170| 
         00000275 0000 
    1259 00000276 5603          MOV       ACC,PL << 1           ; [CPU_ALU] |170| 
         00000277 01AB 
    1260 00000278 5601          ADDL      XAR6,ACC              ; [CPU_ALU] |170| 
         00000279 00A6 
    1261 0000027a CCA4          AND       AL,AR4,#0x0001        ; [CPU_ALU] |170| 
         0000027b 0001 
    1262 0000027c C4C6          MOVL      XAR6,*+XAR6[0]        ; [CPU_ALU] |170| 
    1263 0000027d D011          MOVB      XAR0,#17              ; [CPU_ALU] |170| 
    1264 0000027e FF87          LSL       AL,8                  ; [CPU_ALU] |170| 
    1265 0000027f D111          MOVB      XAR1,#17              ; [CPU_ALU] |170| 
    1266 00000280 CD96          AND       AH,*+XAR6[AR0],#0xfeff ; [CPU_ALU] |170| 
         00000281 FEFF 
    1267 00000282 CAA8          OR        AL,AH                 ; [CPU_ALU] |170| 
    1268                      .dwpsn  file "C:/ti/controlSUITE/device_support/F2837xD/v170/F2837xD_common/source/F2837xD_sdfm_drive
    1269 00000283 D011          MOVB      XAR0,#17              ; [CPU_ALU] |171| 
    1270 00000284 CDA5          AND       AH,AR5,#0x0003        ; [CPU_ALU] |171| 
         00000285 0003 
TMS320C2000 Assembler PC v18.12.4 Sat Jul 18 15:28:09 2020

Copyright (c) 1996-2018 Texas Instruments Incorporated
F2837xD_sdfm_drivers.asm                                             PAGE   27

    1271 00000286 FF99          LSL       AH,10                 ; [CPU_ALU] |171| 
    1272                      .dwpsn  file "C:/ti/controlSUITE/device_support/F2837xD/v170/F2837xD_common/source/F2837xD_sdfm_drive
    1273 00000287 969E          MOV       *+XAR6[AR1],AL        ; [CPU_ALU] |170| 
    1274                      .dwpsn  file "C:/ti/controlSUITE/device_support/F2837xD/v170/F2837xD_common/source/F2837xD_sdfm_drive
    1275 00000288 CC96          AND       AL,*+XAR6[AR0],#0xf3ff ; [CPU_FPU] |171| 
         00000289 F3FF 
    1276 0000028a D011          MOVB      XAR0,#17              ; [CPU_FPU] |171| 
    1277 0000028b CBA9          OR        AH,AL                 ; [CPU_ALU] |171| 
    1278                      .dwpsn  file "C:/ti/controlSUITE/device_support/F2837xD/v170/F2837xD_common/source/F2837xD_sdfm_drive
    1279 0000028c 1BAA          CMP       PH,#256               ; [CPU_ALU] |174| 
         0000028d 0100 
    1280                      .dwpsn  file "C:/ti/controlSUITE/device_support/F2837xD/v170/F2837xD_common/source/F2837xD_sdfm_drive
    1281 0000028e 9796          MOV       *+XAR6[AR0],AH        ; [CPU_FPU] |171| 
    1282                      .dwpsn  file "C:/ti/controlSUITE/device_support/F2837xD/v170/F2837xD_common/source/F2837xD_sdfm_drive
    1283 0000028f 6905          B         $C$L18,LOS            ; [CPU_ALU] |174| 
    1284                      ; branchcc occurs ; [] |174| 
    1285                      .dwpsn  file "C:/ti/controlSUITE/device_support/F2837xD/v170/F2837xD_common/source/F2837xD_sdfm_drive
    1286 00000290 DE11          ADDB      XAR6,#17              ; [CPU_ALU] |175| 
    1287 00000291 18C6          AND       *+XAR6[0],#0xff00     ; [CPU_ALU] |175| 
         00000292 FF00 
    1288 00000293 6F0E          B         $C$L19,UNC            ; [CPU_ALU] |175| 
    1289                      ; branch occurs ; [] |175| 
    1290 00000294       $C$L18:    
    1291                      .dwpsn  file "C:/ti/controlSUITE/device_support/F2837xD/v170/F2837xD_common/source/F2837xD_sdfm_drive
    1292 00000294 5603          MOV       ACC,PL << 1           ; [CPU_ALU] |174| 
         00000295 01AB 
    1293 00000296 8F00!         MOVL      XAR4,#_SDFM           ; [CPU_ARAU] |174| 
         00000297 0000 
    1294 00000298 5601          ADDL      XAR4,ACC              ; [CPU_ALU] |174| 
         00000299 00A4 
    1295 0000029a 8AC4          MOVL      XAR4,*+XAR4[0]        ; [CPU_ALU] |174| 
    1296 0000029b D011          MOVB      XAR0,#17              ; [CPU_ALU] |174| 
    1297 0000029c 93AA          MOV       AH,PH                 ; [CPU_ALU] |174| 
    1298 0000029d 9294          MOV       AL,*+XAR4[AR0]        ; [CPU_ALU] |174| 
    1299 0000029e D011          MOVB      XAR0,#17              ; [CPU_ALU] |174| 
    1300 0000029f 3DA9          MOVB      AL,AH.LSB             ; [CPU_ALU] |174| 
    1301 000002a0 9694          MOV       *+XAR4[AR0],AL        ; [CPU_ALU] |174| 
    1302 000002a1       $C$L19:    
    1303                      .dwpsn  file "C:/ti/controlSUITE/device_support/F2837xD/v170/F2837xD_common/source/F2837xD_sdfm_drive
    1304 000002a1 5603          MOV       ACC,PL << 1           ; [CPU_ALU] |178| 
         000002a2 01AB 
    1305 000002a3 8F00!         MOVL      XAR4,#_SDFM           ; [CPU_ARAU] |178| 
         000002a4 0000 
    1306 000002a5 5601          ADDL      XAR4,ACC              ; [CPU_ALU] |178| 
         000002a6 00A4 
    1307 000002a7 92A7          MOV       AL,AR7                ; [CPU_ALU] |178| 
    1308 000002a8 8AC4          MOVL      XAR4,*+XAR4[0]        ; [CPU_ALU] |178| 
    1309 000002a9 9001          ANDB      AL,#1                 ; [CPU_ALU] |178| 
    1310 000002aa D012          MOVB      XAR0,#18              ; [CPU_FPU] |178| 
    1311 000002ab FF89          LSL       AL,10                 ; [CPU_ALU] |178| 
    1312 000002ac CD94          AND       AH,*+XAR4[AR0],#0xfbff ; [CPU_FPU] |178| 
         000002ad FBFF 
    1313 000002ae D012          MOVB      XAR0,#18              ; [CPU_FPU] |178| 
    1314 000002af CAA8          OR        AL,AH                 ; [CPU_ALU] |178| 
    1315 000002b0 9694          MOV       *+XAR4[AR0],AL        ; [CPU_ALU] |178| 
TMS320C2000 Assembler PC v18.12.4 Sat Jul 18 15:28:09 2020

Copyright (c) 1996-2018 Texas Instruments Incorporated
F2837xD_sdfm_drivers.asm                                             PAGE   28

    1316 000002b1 92A7          MOV       AL,AR7                ; [CPU_ALU] |178| 
    1317                      .dwpsn  file "C:/ti/controlSUITE/device_support/F2837xD/v170/F2837xD_common/source/F2837xD_sdfm_drive
    1318 000002b2 600A          B         $C$L20,NEQ            ; [CPU_ALU] |179| 
    1319                      ; branchcc occurs ; [] |179| 
    1320                      .dwpsn  file "C:/ti/controlSUITE/device_support/F2837xD/v170/F2837xD_common/source/F2837xD_sdfm_drive
    1321 000002b3 D012          MOVB      XAR0,#18              ; [CPU_ALU] |179| 
    1322 000002b4 CC94          AND       AL,*+XAR4[AR0],#0x07ff ; [CPU_ALU] |179| 
         000002b5 07FF 
    1323 000002b6 88A9          MOVZ      AR6,AL                ; [CPU_ALU] |179| 
    1324 000002b7 D012          MOVB      XAR0,#18              ; [CPU_ALU] |179| 
    1325 000002b8 5603          MOV       ACC,T << #11          ; [CPU_ALU] |179| 
         000002b9 0BAC 
    1326 000002ba CAA6          OR        AL,AR6                ; [CPU_ALU] |179| 
    1327 000002bb 9694          MOV       *+XAR4[AR0],AL        ; [CPU_ALU] |179| 
    1328 000002bc       $C$L20:    
    1329 000002bc 761A   EDIS
    1330 000002bd 8BBE          MOVL      XAR1,*--SP            ; [CPU_ALU] 
    1331                      .dwcfi  cfa_offset, -2
    1332                      .dwcfi  restore_reg, 7
    1333 000002be FF69          SPM       #0                    ; [CPU_ALU] 
    1334              $C$DW$58        .dwtag  DW_TAG_TI_branch
    1335                      .dwattr $C$DW$58, DW_AT_low_pc(0x00)
    1336                      .dwattr $C$DW$58, DW_AT_TI_return
    1337              
    1338 000002bf 0006          LRETR     ; [CPU_ALU] 
    1339                      ; return occurs ; [] 
    1340                      .dwattr $C$DW$44, DW_AT_TI_end_file("C:/ti/controlSUITE/device_support/F2837xD/v170/F2837xD_common/so
    1341                      .dwattr $C$DW$44, DW_AT_TI_end_line(0xe4)
    1342                      .dwattr $C$DW$44, DW_AT_TI_end_column(0x01)
    1343                      .dwendentry
    1344                      .dwendtag $C$DW$44
    1345              
    1346 000002c0               .sect   ".text"
    1347                      .clink
    1348                      .global _Sdfm_configureComparator
    1349              
    1350              $C$DW$59        .dwtag  DW_TAG_subprogram
    1351                      .dwattr $C$DW$59, DW_AT_name("Sdfm_configureComparator")
    1352                      .dwattr $C$DW$59, DW_AT_low_pc(_Sdfm_configureComparator)
    1353                      .dwattr $C$DW$59, DW_AT_high_pc(0x00)
    1354                      .dwattr $C$DW$59, DW_AT_TI_symbol_name("_Sdfm_configureComparator")
    1355                      .dwattr $C$DW$59, DW_AT_external
    1356                      .dwattr $C$DW$59, DW_AT_TI_begin_file("C:/ti/controlSUITE/device_support/F2837xD/v170/F2837xD_common/
    1357                      .dwattr $C$DW$59, DW_AT_TI_begin_line(0x4e)
    1358                      .dwattr $C$DW$59, DW_AT_TI_begin_column(0x06)
    1359                      .dwattr $C$DW$59, DW_AT_TI_max_frame_size(-4)
    1360                      .dwpsn  file "C:/ti/controlSUITE/device_support/F2837xD/v170/F2837xD_common/source/F2837xD_sdfm_drive
    1361              
    1362                      .dwfde $C$DW$CIE, _Sdfm_configureComparator
    1363              $C$DW$60        .dwtag  DW_TAG_formal_parameter
    1364                      .dwattr $C$DW$60, DW_AT_name("sdfmNumber")
    1365                      .dwattr $C$DW$60, DW_AT_TI_symbol_name("_sdfmNumber")
    1366                      .dwattr $C$DW$60, DW_AT_type(*$C$DW$T$19)
    1367                      .dwattr $C$DW$60, DW_AT_location[DW_OP_reg0]
    1368              
TMS320C2000 Assembler PC v18.12.4 Sat Jul 18 15:28:09 2020

Copyright (c) 1996-2018 Texas Instruments Incorporated
F2837xD_sdfm_drivers.asm                                             PAGE   29

    1369              $C$DW$61        .dwtag  DW_TAG_formal_parameter
    1370                      .dwattr $C$DW$61, DW_AT_name("filterNumber")
    1371                      .dwattr $C$DW$61, DW_AT_TI_symbol_name("_filterNumber")
    1372                      .dwattr $C$DW$61, DW_AT_type(*$C$DW$T$19)
    1373                      .dwattr $C$DW$61, DW_AT_location[DW_OP_reg1]
    1374              
    1375              $C$DW$62        .dwtag  DW_TAG_formal_parameter
    1376                      .dwattr $C$DW$62, DW_AT_name("filterType")
    1377                      .dwattr $C$DW$62, DW_AT_TI_symbol_name("_filterType")
    1378                      .dwattr $C$DW$62, DW_AT_type(*$C$DW$T$19)
    1379                      .dwattr $C$DW$62, DW_AT_location[DW_OP_reg12]
    1380              
    1381              $C$DW$63        .dwtag  DW_TAG_formal_parameter
    1382                      .dwattr $C$DW$63, DW_AT_name("OSR")
    1383                      .dwattr $C$DW$63, DW_AT_TI_symbol_name("_OSR")
    1384                      .dwattr $C$DW$63, DW_AT_type(*$C$DW$T$19)
    1385                      .dwattr $C$DW$63, DW_AT_location[DW_OP_reg14]
    1386              
    1387              $C$DW$64        .dwtag  DW_TAG_formal_parameter
    1388                      .dwattr $C$DW$64, DW_AT_name("HLT")
    1389                      .dwattr $C$DW$64, DW_AT_TI_symbol_name("_HLT")
    1390                      .dwattr $C$DW$64, DW_AT_type(*$C$DW$T$19)
    1391                      .dwattr $C$DW$64, DW_AT_location[DW_OP_breg20 -5]
    1392              
    1393              $C$DW$65        .dwtag  DW_TAG_formal_parameter
    1394                      .dwattr $C$DW$65, DW_AT_name("LLT")
    1395                      .dwattr $C$DW$65, DW_AT_TI_symbol_name("_LLT")
    1396                      .dwattr $C$DW$65, DW_AT_type(*$C$DW$T$19)
    1397                      .dwattr $C$DW$65, DW_AT_location[DW_OP_breg20 -6]
    1398              
    1399              
    1400              ;***************************************************************
    1401              ;* FNAME: _Sdfm_configureComparator     FR SIZE:   2           *
    1402              ;*                                                             *
    1403              ;* FUNCTION ENVIRONMENT                                        *
    1404              ;*                                                             *
    1405              ;* FUNCTION PROPERTIES                                         *
    1406              ;*                            0 Parameter,  0 Auto,  2 SOE     *
    1407              ;***************************************************************
    1408              
    1409              _Sdfm_configureComparator:
    1410              ;* AR4   assigned to $O$C1
    1411              ;* AR4   assigned to $O$C2
    1412              ;* AR6   assigned to $O$C3
    1413              ;* AR4   assigned to $O$C4
    1414              ;* AR4   assigned to $O$C5
    1415              ;* AR6   assigned to $O$C6
    1416              ;* AR4   assigned to $O$C7
    1417              ;* AR4   assigned to $O$C8
    1418              ;* AR6   assigned to $O$C9
    1419              ;* AR4   assigned to $O$C10
    1420              ;* AR4   assigned to $O$C11
    1421              ;* AR6   assigned to $O$C12
    1422              ;* AR7   assigned to _sdfmNumber
    1423              $C$DW$66        .dwtag  DW_TAG_variable
TMS320C2000 Assembler PC v18.12.4 Sat Jul 18 15:28:09 2020

Copyright (c) 1996-2018 Texas Instruments Incorporated
F2837xD_sdfm_drivers.asm                                             PAGE   30

    1424                      .dwattr $C$DW$66, DW_AT_name("sdfmNumber")
    1425                      .dwattr $C$DW$66, DW_AT_TI_symbol_name("_sdfmNumber")
    1426                      .dwattr $C$DW$66, DW_AT_type(*$C$DW$T$101)
    1427                      .dwattr $C$DW$66, DW_AT_location[DW_OP_reg18]
    1428              
    1429              ;* AH    assigned to _filterNumber
    1430              $C$DW$67        .dwtag  DW_TAG_variable
    1431                      .dwattr $C$DW$67, DW_AT_name("filterNumber")
    1432                      .dwattr $C$DW$67, DW_AT_TI_symbol_name("_filterNumber")
    1433                      .dwattr $C$DW$67, DW_AT_type(*$C$DW$T$101)
    1434                      .dwattr $C$DW$67, DW_AT_location[DW_OP_reg1]
    1435              
    1436              ;* AR4   assigned to _filterType
    1437              $C$DW$68        .dwtag  DW_TAG_variable
    1438                      .dwattr $C$DW$68, DW_AT_name("filterType")
    1439                      .dwattr $C$DW$68, DW_AT_TI_symbol_name("_filterType")
    1440                      .dwattr $C$DW$68, DW_AT_type(*$C$DW$T$101)
    1441                      .dwattr $C$DW$68, DW_AT_location[DW_OP_reg12]
    1442              
    1443              ;* AR5   assigned to _OSR
    1444              $C$DW$69        .dwtag  DW_TAG_variable
    1445                      .dwattr $C$DW$69, DW_AT_name("OSR")
    1446                      .dwattr $C$DW$69, DW_AT_TI_symbol_name("_OSR")
    1447                      .dwattr $C$DW$69, DW_AT_type(*$C$DW$T$101)
    1448                      .dwattr $C$DW$69, DW_AT_location[DW_OP_reg14]
    1449              
    1450              ;* PH    assigned to _HLT
    1451              $C$DW$70        .dwtag  DW_TAG_variable
    1452                      .dwattr $C$DW$70, DW_AT_name("HLT")
    1453                      .dwattr $C$DW$70, DW_AT_TI_symbol_name("_HLT")
    1454                      .dwattr $C$DW$70, DW_AT_type(*$C$DW$T$101)
    1455                      .dwattr $C$DW$70, DW_AT_location[DW_OP_reg3]
    1456              
    1457              ;* PL    assigned to _LLT
    1458              $C$DW$71        .dwtag  DW_TAG_variable
    1459                      .dwattr $C$DW$71, DW_AT_name("LLT")
    1460                      .dwattr $C$DW$71, DW_AT_TI_symbol_name("_LLT")
    1461                      .dwattr $C$DW$71, DW_AT_type(*$C$DW$T$101)
    1462                      .dwattr $C$DW$71, DW_AT_location[DW_OP_reg2]
    1463              
    1464                      .dwcfi  cfa_offset, -2
    1465                      .dwcfi  save_reg_to_mem, 26, 0
    1466 000002c0 B2BD          MOVL      *SP++,XAR1            ; [CPU_ALU] 
    1467                      .dwcfi  save_reg_to_mem, 7, 2
    1468                      .dwcfi  cfa_offset, -4
    1469 000002c1 80A9          MOVZ      AR7,AL                ; [CPU_ALU] |79| 
    1470 000002c2 2746          MOV       PL,*-SP[6]            ; [CPU_ALU] |79| 
    1471 000002c3 2F45          MOV       PH,*-SP[5]            ; [CPU_ALU] |79| 
    1472 000002c4 7622   EALLOW
    1473                      .dwpsn  file "C:/ti/controlSUITE/device_support/F2837xD/v170/F2837xD_common/source/F2837xD_sdfm_drive
    1474 000002c5 92A8          MOV       AL,AH                 ; [CPU_ALU] |83| 
    1475 000002c6 5201          CMPB      AL,#1                 ; [CPU_ALU] |83| 
    1476 000002c7 FFE1          B         $C$L29,EQ             ; [CPU_ALU] |83| 
         000002c8 00C8 
    1477                      ; branchcc occurs ; [] |83| 
TMS320C2000 Assembler PC v18.12.4 Sat Jul 18 15:28:09 2020

Copyright (c) 1996-2018 Texas Instruments Incorporated
F2837xD_sdfm_drivers.asm                                             PAGE   31

    1478 000002c9 5202          CMPB      AL,#2                 ; [CPU_ALU] |83| 
    1479 000002ca FFE1          B         $C$L26,EQ             ; [CPU_ALU] |83| 
         000002cb 0086 
    1480                      ; branchcc occurs ; [] |83| 
    1481 000002cc 5204          CMPB      AL,#4                 ; [CPU_ALU] |83| 
    1482 000002cd 6144          B         $C$L23,EQ             ; [CPU_ALU] |83| 
    1483                      ; branchcc occurs ; [] |83| 
    1484 000002ce 5208          CMPB      AL,#8                 ; [CPU_ALU] |83| 
    1485 000002cf FFE0          B         $C$L32,NEQ            ; [CPU_ALU] |83| 
         000002d0 00FE 
    1486                      ; branchcc occurs ; [] |83| 
    1487 000002d1 2901          CLRC      SXM                   ; [CPU_ALU] 
    1488                      .dwpsn  file "C:/ti/controlSUITE/device_support/F2837xD/v170/F2837xD_common/source/F2837xD_sdfm_drive
    1489 000002d2 7680!         MOVL      XAR6,#_SDFM           ; [CPU_ARAU] |124| 
         000002d3 0000 
    1490 000002d4 5603          MOV       ACC,AR7 << 1          ; [CPU_ALU] |124| 
         000002d5 01A7 
    1491 000002d6 5601          ADDL      XAR6,ACC              ; [CPU_ALU] |124| 
         000002d7 00A6 
    1492 000002d8 C4C6          MOVL      XAR6,*+XAR6[0]        ; [CPU_ALU] |124| 
    1493 000002d9 CDA4          AND       AH,AR4,#0x0003        ; [CPU_ALU] |124| 
         000002da 0003 
    1494 000002db D045          MOVB      XAR0,#69              ; [CPU_ALU] |124| 
    1495 000002dc FF96          LSL       AH,7                  ; [CPU_ALU] |124| 
    1496 000002dd CC96          AND       AL,*+XAR6[AR0],#0xfe7f ; [CPU_FPU] |124| 
         000002de FE7F 
    1497 000002df D045          MOVB      XAR0,#69              ; [CPU_FPU] |124| 
    1498 000002e0 CBA9          OR        AH,AL                 ; [CPU_ALU] |124| 
    1499 000002e1 9796          MOV       *+XAR6[AR0],AH        ; [CPU_ALU] |124| 
    1500 000002e2 93A5          MOV       AH,AR5                ; [CPU_ALU] |124| 
    1501                      .dwpsn  file "C:/ti/controlSUITE/device_support/F2837xD/v170/F2837xD_common/source/F2837xD_sdfm_drive
    1502 000002e3 5320          CMPB      AH,#32                ; [CPU_ALU] |127| 
    1503 000002e4 6905          B         $C$L21,LOS            ; [CPU_ALU] |127| 
    1504                      ; branchcc occurs ; [] |127| 
    1505                      .dwpsn  file "C:/ti/controlSUITE/device_support/F2837xD/v170/F2837xD_common/source/F2837xD_sdfm_drive
    1506 000002e5 DE45          ADDB      XAR6,#69              ; [CPU_ALU] |128| 
    1507 000002e6 18C6          AND       *+XAR6[0],#0xffe0     ; [CPU_ALU] |128| 
         000002e7 FFE0 
    1508 000002e8 6F10          B         $C$L22,UNC            ; [CPU_ALU] |128| 
    1509                      ; branch occurs ; [] |128| 
    1510 000002e9       $C$L21:    
    1511                      .dwpsn  file "C:/ti/controlSUITE/device_support/F2837xD/v170/F2837xD_common/source/F2837xD_sdfm_drive
    1512 000002e9 5603          MOV       ACC,AR7 << 1          ; [CPU_ALU] |127| 
         000002ea 01A7 
    1513 000002eb 8F00!         MOVL      XAR4,#_SDFM           ; [CPU_ARAU] |127| 
         000002ec 0000 
    1514 000002ed 5601          ADDL      XAR4,ACC              ; [CPU_ALU] |127| 
         000002ee 00A4 
    1515 000002ef 8AC4          MOVL      XAR4,*+XAR4[0]        ; [CPU_ALU] |127| 
    1516 000002f0 93A5          MOV       AH,AR5                ; [CPU_ALU] |127| 
    1517 000002f1 D045          MOVB      XAR0,#69              ; [CPU_ALU] |127| 
    1518 000002f2 911F          ANDB      AH,#31                ; [CPU_ALU] |127| 
    1519 000002f3 CC94          AND       AL,*+XAR4[AR0],#0xffe0 ; [CPU_FPU] |127| 
         000002f4 FFE0 
    1520 000002f5 D045          MOVB      XAR0,#69              ; [CPU_FPU] |127| 
TMS320C2000 Assembler PC v18.12.4 Sat Jul 18 15:28:09 2020

Copyright (c) 1996-2018 Texas Instruments Incorporated
F2837xD_sdfm_drivers.asm                                             PAGE   32

    1521 000002f6 CBA9          OR        AH,AL                 ; [CPU_ALU] |127| 
    1522 000002f7 9794          MOV       *+XAR4[AR0],AH        ; [CPU_ALU] |127| 
    1523 000002f8       $C$L22:    
    1524                      .dwpsn  file "C:/ti/controlSUITE/device_support/F2837xD/v170/F2837xD_common/source/F2837xD_sdfm_drive
    1525 000002f8 5603          MOV       ACC,AR7 << 1          ; [CPU_ALU] |130| 
         000002f9 01A7 
    1526 000002fa 8F00!         MOVL      XAR4,#_SDFM           ; [CPU_ARAU] |130| 
         000002fb 0000 
    1527 000002fc 5601          ADDL      XAR4,ACC              ; [CPU_ALU] |130| 
         000002fd 00A4 
    1528 000002fe 8AC4          MOVL      XAR4,*+XAR4[0]        ; [CPU_ALU] |130| 
    1529 000002ff D043          MOVB      XAR0,#67              ; [CPU_ALU] |130| 
    1530 00000300 CCAA          AND       AL,PH,#0x7fff         ; [CPU_ALU] |130| 
         00000301 7FFF 
    1531 00000302 D143          MOVB      XAR1,#67              ; [CPU_ALU] |130| 
    1532 00000303 CD94          AND       AH,*+XAR4[AR0],#0x8000 ; [CPU_ALU] |130| 
         00000304 8000 
    1533                      .dwpsn  file "C:/ti/controlSUITE/device_support/F2837xD/v170/F2837xD_common/source/F2837xD_sdfm_drive
    1534 00000305 D044          MOVB      XAR0,#68              ; [CPU_ALU] |131| 
    1535                      .dwpsn  file "C:/ti/controlSUITE/device_support/F2837xD/v170/F2837xD_common/source/F2837xD_sdfm_drive
    1536 00000306 CAA8          OR        AL,AH                 ; [CPU_ALU] |130| 
    1537 00000307 969C          MOV       *+XAR4[AR1],AL        ; [CPU_ALU] |130| 
    1538                      .dwpsn  file "C:/ti/controlSUITE/device_support/F2837xD/v170/F2837xD_common/source/F2837xD_sdfm_drive
    1539 00000308 CCAB          AND       AL,PL,#0x7fff         ; [CPU_ALU] |131| 
         00000309 7FFF 
    1540 0000030a CD94          AND       AH,*+XAR4[AR0],#0x8000 ; [CPU_ALU] |131| 
         0000030b 8000 
    1541 0000030c D044          MOVB      XAR0,#68              ; [CPU_ALU] |131| 
    1542 0000030d CAA8          OR        AL,AH                 ; [CPU_ALU] |131| 
    1543 0000030e 9694          MOV       *+XAR4[AR0],AL        ; [CPU_ALU] |131| 
    1544                      .dwpsn  file "C:/ti/controlSUITE/device_support/F2837xD/v170/F2837xD_common/source/F2837xD_sdfm_drive
    1545 0000030f FFEF          B         $C$L32,UNC            ; [CPU_ALU] |132| 
         00000310 00BE 
    1546                      ; branch occurs ; [] |132| 
    1547 00000311       $C$L23:    
    1548 00000311 2901          CLRC      SXM                   ; [CPU_ALU] 
    1549                      .dwpsn  file "C:/ti/controlSUITE/device_support/F2837xD/v170/F2837xD_common/source/F2837xD_sdfm_drive
    1550 00000312 7680!         MOVL      XAR6,#_SDFM           ; [CPU_ARAU] |112| 
         00000313 0000 
    1551 00000314 5603          MOV       ACC,AR7 << 1          ; [CPU_ALU] |112| 
         00000315 01A7 
    1552 00000316 5601          ADDL      XAR6,ACC              ; [CPU_ALU] |112| 
         00000317 00A6 
    1553 00000318 C4C6          MOVL      XAR6,*+XAR6[0]        ; [CPU_ALU] |112| 
    1554 00000319 CDA4          AND       AH,AR4,#0x0003        ; [CPU_ALU] |112| 
         0000031a 0003 
    1555 0000031b D035          MOVB      XAR0,#53              ; [CPU_ALU] |112| 
    1556 0000031c FF96          LSL       AH,7                  ; [CPU_ALU] |112| 
    1557 0000031d CC96          AND       AL,*+XAR6[AR0],#0xfe7f ; [CPU_FPU] |112| 
         0000031e FE7F 
    1558 0000031f D035          MOVB      XAR0,#53              ; [CPU_FPU] |112| 
    1559 00000320 CBA9          OR        AH,AL                 ; [CPU_ALU] |112| 
    1560 00000321 9796          MOV       *+XAR6[AR0],AH        ; [CPU_ALU] |112| 
    1561 00000322 93A5          MOV       AH,AR5                ; [CPU_ALU] |112| 
    1562                      .dwpsn  file "C:/ti/controlSUITE/device_support/F2837xD/v170/F2837xD_common/source/F2837xD_sdfm_drive
TMS320C2000 Assembler PC v18.12.4 Sat Jul 18 15:28:09 2020

Copyright (c) 1996-2018 Texas Instruments Incorporated
F2837xD_sdfm_drivers.asm                                             PAGE   33

    1563 00000323 5320          CMPB      AH,#32                ; [CPU_ALU] |115| 
    1564 00000324 6905          B         $C$L24,LOS            ; [CPU_ALU] |115| 
    1565                      ; branchcc occurs ; [] |115| 
    1566                      .dwpsn  file "C:/ti/controlSUITE/device_support/F2837xD/v170/F2837xD_common/source/F2837xD_sdfm_drive
    1567 00000325 DE35          ADDB      XAR6,#53              ; [CPU_ALU] |116| 
    1568 00000326 18C6          AND       *+XAR6[0],#0xffe0     ; [CPU_ALU] |116| 
         00000327 FFE0 
    1569 00000328 6F10          B         $C$L25,UNC            ; [CPU_ALU] |116| 
    1570                      ; branch occurs ; [] |116| 
    1571 00000329       $C$L24:    
    1572                      .dwpsn  file "C:/ti/controlSUITE/device_support/F2837xD/v170/F2837xD_common/source/F2837xD_sdfm_drive
    1573 00000329 5603          MOV       ACC,AR7 << 1          ; [CPU_ALU] |115| 
         0000032a 01A7 
    1574 0000032b 8F00!         MOVL      XAR4,#_SDFM           ; [CPU_ARAU] |115| 
         0000032c 0000 
    1575 0000032d 5601          ADDL      XAR4,ACC              ; [CPU_ALU] |115| 
         0000032e 00A4 
    1576 0000032f 8AC4          MOVL      XAR4,*+XAR4[0]        ; [CPU_ALU] |115| 
    1577 00000330 93A5          MOV       AH,AR5                ; [CPU_ALU] |115| 
    1578 00000331 D035          MOVB      XAR0,#53              ; [CPU_ALU] |115| 
    1579 00000332 911F          ANDB      AH,#31                ; [CPU_ALU] |115| 
    1580 00000333 CC94          AND       AL,*+XAR4[AR0],#0xffe0 ; [CPU_FPU] |115| 
         00000334 FFE0 
    1581 00000335 D035          MOVB      XAR0,#53              ; [CPU_FPU] |115| 
    1582 00000336 CBA9          OR        AH,AL                 ; [CPU_ALU] |115| 
    1583 00000337 9794          MOV       *+XAR4[AR0],AH        ; [CPU_ALU] |115| 
    1584 00000338       $C$L25:    
    1585                      .dwpsn  file "C:/ti/controlSUITE/device_support/F2837xD/v170/F2837xD_common/source/F2837xD_sdfm_drive
    1586 00000338 5603          MOV       ACC,AR7 << 1          ; [CPU_ALU] |118| 
         00000339 01A7 
    1587 0000033a 8F00!         MOVL      XAR4,#_SDFM           ; [CPU_ARAU] |118| 
         0000033b 0000 
    1588 0000033c 5601          ADDL      XAR4,ACC              ; [CPU_ALU] |118| 
         0000033d 00A4 
    1589 0000033e 8AC4          MOVL      XAR4,*+XAR4[0]        ; [CPU_ALU] |118| 
    1590 0000033f D033          MOVB      XAR0,#51              ; [CPU_ALU] |118| 
    1591 00000340 CCAA          AND       AL,PH,#0x7fff         ; [CPU_ALU] |118| 
         00000341 7FFF 
    1592 00000342 D133          MOVB      XAR1,#51              ; [CPU_ALU] |118| 
    1593 00000343 CD94          AND       AH,*+XAR4[AR0],#0x8000 ; [CPU_ALU] |118| 
         00000344 8000 
    1594                      .dwpsn  file "C:/ti/controlSUITE/device_support/F2837xD/v170/F2837xD_common/source/F2837xD_sdfm_drive
    1595 00000345 D034          MOVB      XAR0,#52              ; [CPU_ALU] |119| 
    1596                      .dwpsn  file "C:/ti/controlSUITE/device_support/F2837xD/v170/F2837xD_common/source/F2837xD_sdfm_drive
    1597 00000346 CAA8          OR        AL,AH                 ; [CPU_ALU] |118| 
    1598 00000347 969C          MOV       *+XAR4[AR1],AL        ; [CPU_ALU] |118| 
    1599                      .dwpsn  file "C:/ti/controlSUITE/device_support/F2837xD/v170/F2837xD_common/source/F2837xD_sdfm_drive
    1600 00000348 CCAB          AND       AL,PL,#0x7fff         ; [CPU_ALU] |119| 
         00000349 7FFF 
    1601 0000034a CD94          AND       AH,*+XAR4[AR0],#0x8000 ; [CPU_ALU] |119| 
         0000034b 8000 
    1602 0000034c D034          MOVB      XAR0,#52              ; [CPU_ALU] |119| 
    1603 0000034d CAA8          OR        AL,AH                 ; [CPU_ALU] |119| 
    1604 0000034e 9694          MOV       *+XAR4[AR0],AL        ; [CPU_ALU] |119| 
    1605                      .dwpsn  file "C:/ti/controlSUITE/device_support/F2837xD/v170/F2837xD_common/source/F2837xD_sdfm_drive
TMS320C2000 Assembler PC v18.12.4 Sat Jul 18 15:28:09 2020

Copyright (c) 1996-2018 Texas Instruments Incorporated
F2837xD_sdfm_drivers.asm                                             PAGE   34

    1606 0000034f 6F7E          B         $C$L32,UNC            ; [CPU_ALU] |120| 
    1607                      ; branch occurs ; [] |120| 
    1608 00000350       $C$L26:    
    1609 00000350 2901          CLRC      SXM                   ; [CPU_ALU] 
    1610                      .dwpsn  file "C:/ti/controlSUITE/device_support/F2837xD/v170/F2837xD_common/source/F2837xD_sdfm_drive
    1611 00000351 7680!         MOVL      XAR6,#_SDFM           ; [CPU_ARAU] |100| 
         00000352 0000 
    1612 00000353 5603          MOV       ACC,AR7 << 1          ; [CPU_ALU] |100| 
         00000354 01A7 
    1613 00000355 5601          ADDL      XAR6,ACC              ; [CPU_ALU] |100| 
         00000356 00A6 
    1614 00000357 C4C6          MOVL      XAR6,*+XAR6[0]        ; [CPU_ALU] |100| 
    1615 00000358 CDA4          AND       AH,AR4,#0x0003        ; [CPU_ALU] |100| 
         00000359 0003 
    1616 0000035a D025          MOVB      XAR0,#37              ; [CPU_ALU] |100| 
    1617 0000035b FF96          LSL       AH,7                  ; [CPU_ALU] |100| 
    1618 0000035c CC96          AND       AL,*+XAR6[AR0],#0xfe7f ; [CPU_FPU] |100| 
         0000035d FE7F 
    1619 0000035e D025          MOVB      XAR0,#37              ; [CPU_FPU] |100| 
    1620 0000035f CBA9          OR        AH,AL                 ; [CPU_ALU] |100| 
    1621 00000360 9796          MOV       *+XAR6[AR0],AH        ; [CPU_ALU] |100| 
    1622 00000361 93A5          MOV       AH,AR5                ; [CPU_ALU] |100| 
    1623                      .dwpsn  file "C:/ti/controlSUITE/device_support/F2837xD/v170/F2837xD_common/source/F2837xD_sdfm_drive
    1624 00000362 5320          CMPB      AH,#32                ; [CPU_ALU] |103| 
    1625 00000363 6905          B         $C$L27,LOS            ; [CPU_ALU] |103| 
    1626                      ; branchcc occurs ; [] |103| 
    1627                      .dwpsn  file "C:/ti/controlSUITE/device_support/F2837xD/v170/F2837xD_common/source/F2837xD_sdfm_drive
    1628 00000364 DE25          ADDB      XAR6,#37              ; [CPU_ALU] |104| 
    1629 00000365 18C6          AND       *+XAR6[0],#0xffe0     ; [CPU_ALU] |104| 
         00000366 FFE0 
    1630 00000367 6F10          B         $C$L28,UNC            ; [CPU_ALU] |104| 
    1631                      ; branch occurs ; [] |104| 
    1632 00000368       $C$L27:    
    1633                      .dwpsn  file "C:/ti/controlSUITE/device_support/F2837xD/v170/F2837xD_common/source/F2837xD_sdfm_drive
    1634 00000368 5603          MOV       ACC,AR7 << 1          ; [CPU_ALU] |103| 
         00000369 01A7 
    1635 0000036a 8F00!         MOVL      XAR4,#_SDFM           ; [CPU_ARAU] |103| 
         0000036b 0000 
    1636 0000036c 5601          ADDL      XAR4,ACC              ; [CPU_ALU] |103| 
         0000036d 00A4 
    1637 0000036e 8AC4          MOVL      XAR4,*+XAR4[0]        ; [CPU_ALU] |103| 
    1638 0000036f 93A5          MOV       AH,AR5                ; [CPU_ALU] |103| 
    1639 00000370 D025          MOVB      XAR0,#37              ; [CPU_ALU] |103| 
    1640 00000371 911F          ANDB      AH,#31                ; [CPU_ALU] |103| 
    1641 00000372 CC94          AND       AL,*+XAR4[AR0],#0xffe0 ; [CPU_FPU] |103| 
         00000373 FFE0 
    1642 00000374 D025          MOVB      XAR0,#37              ; [CPU_FPU] |103| 
    1643 00000375 CBA9          OR        AH,AL                 ; [CPU_ALU] |103| 
    1644 00000376 9794          MOV       *+XAR4[AR0],AH        ; [CPU_ALU] |103| 
    1645 00000377       $C$L28:    
    1646                      .dwpsn  file "C:/ti/controlSUITE/device_support/F2837xD/v170/F2837xD_common/source/F2837xD_sdfm_drive
    1647 00000377 5603          MOV       ACC,AR7 << 1          ; [CPU_ALU] |106| 
         00000378 01A7 
    1648 00000379 8F00!         MOVL      XAR4,#_SDFM           ; [CPU_ARAU] |106| 
         0000037a 0000 
TMS320C2000 Assembler PC v18.12.4 Sat Jul 18 15:28:09 2020

Copyright (c) 1996-2018 Texas Instruments Incorporated
F2837xD_sdfm_drivers.asm                                             PAGE   35

    1649 0000037b 5601          ADDL      XAR4,ACC              ; [CPU_ALU] |106| 
         0000037c 00A4 
    1650 0000037d 8AC4          MOVL      XAR4,*+XAR4[0]        ; [CPU_ALU] |106| 
    1651 0000037e D023          MOVB      XAR0,#35              ; [CPU_ALU] |106| 
    1652 0000037f CCAA          AND       AL,PH,#0x7fff         ; [CPU_ALU] |106| 
         00000380 7FFF 
    1653 00000381 D123          MOVB      XAR1,#35              ; [CPU_ALU] |106| 
    1654 00000382 CD94          AND       AH,*+XAR4[AR0],#0x8000 ; [CPU_ALU] |106| 
         00000383 8000 
    1655                      .dwpsn  file "C:/ti/controlSUITE/device_support/F2837xD/v170/F2837xD_common/source/F2837xD_sdfm_drive
    1656 00000384 D024          MOVB      XAR0,#36              ; [CPU_ALU] |107| 
    1657                      .dwpsn  file "C:/ti/controlSUITE/device_support/F2837xD/v170/F2837xD_common/source/F2837xD_sdfm_drive
    1658 00000385 CAA8          OR        AL,AH                 ; [CPU_ALU] |106| 
    1659 00000386 969C          MOV       *+XAR4[AR1],AL        ; [CPU_ALU] |106| 
    1660                      .dwpsn  file "C:/ti/controlSUITE/device_support/F2837xD/v170/F2837xD_common/source/F2837xD_sdfm_drive
    1661 00000387 CCAB          AND       AL,PL,#0x7fff         ; [CPU_ALU] |107| 
         00000388 7FFF 
    1662 00000389 CD94          AND       AH,*+XAR4[AR0],#0x8000 ; [CPU_ALU] |107| 
         0000038a 8000 
    1663 0000038b D024          MOVB      XAR0,#36              ; [CPU_ALU] |107| 
    1664 0000038c CAA8          OR        AL,AH                 ; [CPU_ALU] |107| 
    1665 0000038d 9694          MOV       *+XAR4[AR0],AL        ; [CPU_ALU] |107| 
    1666                      .dwpsn  file "C:/ti/controlSUITE/device_support/F2837xD/v170/F2837xD_common/source/F2837xD_sdfm_drive
    1667 0000038e 6F3F          B         $C$L32,UNC            ; [CPU_ALU] |108| 
    1668                      ; branch occurs ; [] |108| 
    1669 0000038f       $C$L29:    
    1670 0000038f 2901          CLRC      SXM                   ; [CPU_ALU] 
    1671                      .dwpsn  file "C:/ti/controlSUITE/device_support/F2837xD/v170/F2837xD_common/source/F2837xD_sdfm_drive
    1672 00000390 7680!         MOVL      XAR6,#_SDFM           ; [CPU_ARAU] |88| 
         00000391 0000 
    1673 00000392 5603          MOV       ACC,AR7 << 1          ; [CPU_ALU] |88| 
         00000393 01A7 
    1674 00000394 5601          ADDL      XAR6,ACC              ; [CPU_ALU] |88| 
         00000395 00A6 
    1675 00000396 C4C6          MOVL      XAR6,*+XAR6[0]        ; [CPU_ALU] |88| 
    1676 00000397 CDA4          AND       AH,AR4,#0x0003        ; [CPU_ALU] |88| 
         00000398 0003 
    1677 00000399 D015          MOVB      XAR0,#21              ; [CPU_ALU] |88| 
    1678 0000039a FF96          LSL       AH,7                  ; [CPU_ALU] |88| 
    1679 0000039b CC96          AND       AL,*+XAR6[AR0],#0xfe7f ; [CPU_FPU] |88| 
         0000039c FE7F 
    1680 0000039d D015          MOVB      XAR0,#21              ; [CPU_FPU] |88| 
    1681 0000039e CBA9          OR        AH,AL                 ; [CPU_ALU] |88| 
    1682 0000039f 9796          MOV       *+XAR6[AR0],AH        ; [CPU_ALU] |88| 
    1683 000003a0 93A5          MOV       AH,AR5                ; [CPU_ALU] |88| 
    1684                      .dwpsn  file "C:/ti/controlSUITE/device_support/F2837xD/v170/F2837xD_common/source/F2837xD_sdfm_drive
    1685 000003a1 5320          CMPB      AH,#32                ; [CPU_ALU] |91| 
    1686 000003a2 6905          B         $C$L30,LOS            ; [CPU_ALU] |91| 
    1687                      ; branchcc occurs ; [] |91| 
    1688                      .dwpsn  file "C:/ti/controlSUITE/device_support/F2837xD/v170/F2837xD_common/source/F2837xD_sdfm_drive
    1689 000003a3 DE15          ADDB      XAR6,#21              ; [CPU_ALU] |92| 
    1690 000003a4 18C6          AND       *+XAR6[0],#0xffe0     ; [CPU_ALU] |92| 
         000003a5 FFE0 
    1691 000003a6 6F10          B         $C$L31,UNC            ; [CPU_ALU] |92| 
    1692                      ; branch occurs ; [] |92| 
TMS320C2000 Assembler PC v18.12.4 Sat Jul 18 15:28:09 2020

Copyright (c) 1996-2018 Texas Instruments Incorporated
F2837xD_sdfm_drivers.asm                                             PAGE   36

    1693 000003a7       $C$L30:    
    1694                      .dwpsn  file "C:/ti/controlSUITE/device_support/F2837xD/v170/F2837xD_common/source/F2837xD_sdfm_drive
    1695 000003a7 5603          MOV       ACC,AR7 << 1          ; [CPU_ALU] |91| 
         000003a8 01A7 
    1696 000003a9 8F00!         MOVL      XAR4,#_SDFM           ; [CPU_ARAU] |91| 
         000003aa 0000 
    1697 000003ab 5601          ADDL      XAR4,ACC              ; [CPU_ALU] |91| 
         000003ac 00A4 
    1698 000003ad 8AC4          MOVL      XAR4,*+XAR4[0]        ; [CPU_ALU] |91| 
    1699 000003ae 93A5          MOV       AH,AR5                ; [CPU_ALU] |91| 
    1700 000003af D015          MOVB      XAR0,#21              ; [CPU_ALU] |91| 
    1701 000003b0 911F          ANDB      AH,#31                ; [CPU_ALU] |91| 
    1702 000003b1 CC94          AND       AL,*+XAR4[AR0],#0xffe0 ; [CPU_FPU] |91| 
         000003b2 FFE0 
    1703 000003b3 D015          MOVB      XAR0,#21              ; [CPU_FPU] |91| 
    1704 000003b4 CBA9          OR        AH,AL                 ; [CPU_ALU] |91| 
    1705 000003b5 9794          MOV       *+XAR4[AR0],AH        ; [CPU_ALU] |91| 
    1706 000003b6       $C$L31:    
    1707                      .dwpsn  file "C:/ti/controlSUITE/device_support/F2837xD/v170/F2837xD_common/source/F2837xD_sdfm_drive
    1708 000003b6 5603          MOV       ACC,AR7 << 1          ; [CPU_ALU] |94| 
         000003b7 01A7 
    1709 000003b8 8F00!         MOVL      XAR4,#_SDFM           ; [CPU_ARAU] |94| 
         000003b9 0000 
    1710 000003ba 5601          ADDL      XAR4,ACC              ; [CPU_ALU] |94| 
         000003bb 00A4 
    1711 000003bc 8AC4          MOVL      XAR4,*+XAR4[0]        ; [CPU_ALU] |94| 
    1712 000003bd D013          MOVB      XAR0,#19              ; [CPU_ALU] |94| 
    1713 000003be CCAA          AND       AL,PH,#0x7fff         ; [CPU_ALU] |94| 
         000003bf 7FFF 
    1714 000003c0 D113          MOVB      XAR1,#19              ; [CPU_ALU] |94| 
    1715 000003c1 CD94          AND       AH,*+XAR4[AR0],#0x8000 ; [CPU_ALU] |94| 
         000003c2 8000 
    1716                      .dwpsn  file "C:/ti/controlSUITE/device_support/F2837xD/v170/F2837xD_common/source/F2837xD_sdfm_drive
    1717 000003c3 D014          MOVB      XAR0,#20              ; [CPU_ALU] |95| 
    1718                      .dwpsn  file "C:/ti/controlSUITE/device_support/F2837xD/v170/F2837xD_common/source/F2837xD_sdfm_drive
    1719 000003c4 CAA8          OR        AL,AH                 ; [CPU_ALU] |94| 
    1720 000003c5 969C          MOV       *+XAR4[AR1],AL        ; [CPU_ALU] |94| 
    1721                      .dwpsn  file "C:/ti/controlSUITE/device_support/F2837xD/v170/F2837xD_common/source/F2837xD_sdfm_drive
    1722 000003c6 CCAB          AND       AL,PL,#0x7fff         ; [CPU_ALU] |95| 
         000003c7 7FFF 
    1723 000003c8 CD94          AND       AH,*+XAR4[AR0],#0x8000 ; [CPU_ALU] |95| 
         000003c9 8000 
    1724 000003ca D014          MOVB      XAR0,#20              ; [CPU_ALU] |95| 
    1725 000003cb CAA8          OR        AL,AH                 ; [CPU_ALU] |95| 
    1726 000003cc 9694          MOV       *+XAR4[AR0],AL        ; [CPU_ALU] |95| 
    1727 000003cd       $C$L32:    
    1728 000003cd 761A   EDIS
    1729 000003ce 8BBE          MOVL      XAR1,*--SP            ; [CPU_ALU] 
    1730                      .dwcfi  cfa_offset, -2
    1731                      .dwcfi  restore_reg, 7
    1732 000003cf FF69          SPM       #0                    ; [CPU_ALU] 
    1733              $C$DW$72        .dwtag  DW_TAG_TI_branch
    1734                      .dwattr $C$DW$72, DW_AT_low_pc(0x00)
    1735                      .dwattr $C$DW$72, DW_AT_TI_return
    1736              
TMS320C2000 Assembler PC v18.12.4 Sat Jul 18 15:28:09 2020

Copyright (c) 1996-2018 Texas Instruments Incorporated
F2837xD_sdfm_drivers.asm                                             PAGE   37

    1737 000003d0 0006          LRETR     ; [CPU_ALU] 
    1738                      ; return occurs ; [] 
    1739                      .dwattr $C$DW$59, DW_AT_TI_end_file("C:/ti/controlSUITE/device_support/F2837xD/v170/F2837xD_common/so
    1740                      .dwattr $C$DW$59, DW_AT_TI_end_line(0x89)
    1741                      .dwattr $C$DW$59, DW_AT_TI_end_column(0x01)
    1742                      .dwendentry
    1743                      .dwendtag $C$DW$59
    1744              
    1745 000003d1               .sect   ".text"
    1746                      .clink
    1747                      .global _Sdfm_clearFlagRegister
    1748              
    1749              $C$DW$73        .dwtag  DW_TAG_subprogram
    1750                      .dwattr $C$DW$73, DW_AT_name("Sdfm_clearFlagRegister")
    1751                      .dwattr $C$DW$73, DW_AT_low_pc(_Sdfm_clearFlagRegister)
    1752                      .dwattr $C$DW$73, DW_AT_high_pc(0x00)
    1753                      .dwattr $C$DW$73, DW_AT_TI_symbol_name("_Sdfm_clearFlagRegister")
    1754                      .dwattr $C$DW$73, DW_AT_external
    1755                      .dwattr $C$DW$73, DW_AT_TI_begin_file("C:/ti/controlSUITE/device_support/F2837xD/v170/F2837xD_common/
    1756                      .dwattr $C$DW$73, DW_AT_TI_begin_line(0x192)
    1757                      .dwattr $C$DW$73, DW_AT_TI_begin_column(0x06)
    1758                      .dwattr $C$DW$73, DW_AT_TI_max_frame_size(-2)
    1759                      .dwpsn  file "C:/ti/controlSUITE/device_support/F2837xD/v170/F2837xD_common/source/F2837xD_sdfm_drive
    1760              
    1761                      .dwfde $C$DW$CIE, _Sdfm_clearFlagRegister
    1762              $C$DW$74        .dwtag  DW_TAG_formal_parameter
    1763                      .dwattr $C$DW$74, DW_AT_name("sdfmNumber")
    1764                      .dwattr $C$DW$74, DW_AT_TI_symbol_name("_sdfmNumber")
    1765                      .dwattr $C$DW$74, DW_AT_type(*$C$DW$T$19)
    1766                      .dwattr $C$DW$74, DW_AT_location[DW_OP_reg12]
    1767              
    1768              $C$DW$75        .dwtag  DW_TAG_formal_parameter
    1769                      .dwattr $C$DW$75, DW_AT_name("sdfmReadFlagRegister")
    1770                      .dwattr $C$DW$75, DW_AT_TI_symbol_name("_sdfmReadFlagRegister")
    1771                      .dwattr $C$DW$75, DW_AT_type(*$C$DW$T$55)
    1772                      .dwattr $C$DW$75, DW_AT_location[DW_OP_reg0]
    1773              
    1774              
    1775              ;***************************************************************
    1776              ;* FNAME: _Sdfm_clearFlagRegister       FR SIZE:   0           *
    1777              ;*                                                             *
    1778              ;* FUNCTION ENVIRONMENT                                        *
    1779              ;*                                                             *
    1780              ;* FUNCTION PROPERTIES                                         *
    1781              ;*                            0 Parameter,  0 Auto,  0 SOE     *
    1782              ;***************************************************************
    1783              
    1784 000003d1       _Sdfm_clearFlagRegister:
    1785                      .dwcfi  cfa_offset, -2
    1786                      .dwcfi  save_reg_to_mem, 26, 0
    1787 000003d1 1EA6          MOVL      XAR6,ACC              ; [CPU_ALU] |403| 
    1788 000003d2 2901          CLRC      SXM                   ; [CPU_ALU] 
    1789                      .dwpsn  file "C:/ti/controlSUITE/device_support/F2837xD/v170/F2837xD_common/source/F2837xD_sdfm_drive
    1790 000003d3 5603          MOV       ACC,AR4 << 1          ; [CPU_ALU] |404| 
         000003d4 01A4 
TMS320C2000 Assembler PC v18.12.4 Sat Jul 18 15:28:09 2020

Copyright (c) 1996-2018 Texas Instruments Incorporated
F2837xD_sdfm_drivers.asm                                             PAGE   38

    1791 000003d5 8F00!         MOVL      XAR4,#_SDFM           ; [CPU_ARAU] |404| 
         000003d6 0000 
    1792 000003d7 5601          ADDL      XAR4,ACC              ; [CPU_ALU] |404| 
         000003d8 00A4 
    1793 000003d9 8AC4          MOVL      XAR4,*+XAR4[0]        ; [CPU_ALU] |404| 
    1794 000003da C2D4          MOVL      *+XAR4[2],XAR6        ; [CPU_ALU] |404| 
    1795              $C$DW$76        .dwtag  DW_TAG_TI_branch
    1796                      .dwattr $C$DW$76, DW_AT_low_pc(0x00)
    1797                      .dwattr $C$DW$76, DW_AT_TI_return
    1798              
    1799 000003db 0006          LRETR     ; [CPU_ALU] 
    1800                      ; return occurs ; [] 
    1801                      .dwattr $C$DW$73, DW_AT_TI_end_file("C:/ti/controlSUITE/device_support/F2837xD/v170/F2837xD_common/so
    1802                      .dwattr $C$DW$73, DW_AT_TI_end_line(0x195)
    1803                      .dwattr $C$DW$73, DW_AT_TI_end_column(0x01)
    1804                      .dwendentry
    1805                      .dwendtag $C$DW$73
    1806              
    1807 000003dc               .sect   ".text"
    1808                      .clink
    1809                      .global _SDFM_disableMFE
    1810              
    1811              $C$DW$77        .dwtag  DW_TAG_subprogram
    1812                      .dwattr $C$DW$77, DW_AT_name("SDFM_disableMFE")
    1813                      .dwattr $C$DW$77, DW_AT_low_pc(_SDFM_disableMFE)
    1814                      .dwattr $C$DW$77, DW_AT_high_pc(0x00)
    1815                      .dwattr $C$DW$77, DW_AT_TI_symbol_name("_SDFM_disableMFE")
    1816                      .dwattr $C$DW$77, DW_AT_external
    1817                      .dwattr $C$DW$77, DW_AT_TI_begin_file("C:/ti/controlSUITE/device_support/F2837xD/v170/F2837xD_common/
    1818                      .dwattr $C$DW$77, DW_AT_TI_begin_line(0x156)
    1819                      .dwattr $C$DW$77, DW_AT_TI_begin_column(0x06)
    1820                      .dwattr $C$DW$77, DW_AT_TI_max_frame_size(-2)
    1821                      .dwpsn  file "C:/ti/controlSUITE/device_support/F2837xD/v170/F2837xD_common/source/F2837xD_sdfm_drive
    1822              
    1823                      .dwfde $C$DW$CIE, _SDFM_disableMFE
    1824              $C$DW$78        .dwtag  DW_TAG_formal_parameter
    1825                      .dwattr $C$DW$78, DW_AT_name("sdfmNumber")
    1826                      .dwattr $C$DW$78, DW_AT_TI_symbol_name("_sdfmNumber")
    1827                      .dwattr $C$DW$78, DW_AT_type(*$C$DW$T$19)
    1828                      .dwattr $C$DW$78, DW_AT_location[DW_OP_reg0]
    1829              
    1830              
    1831              ;***************************************************************
    1832              ;* FNAME: _SDFM_disableMFE              FR SIZE:   0           *
    1833              ;*                                                             *
    1834              ;* FUNCTION ENVIRONMENT                                        *
    1835              ;*                                                             *
    1836              ;* FUNCTION PROPERTIES                                         *
    1837              ;*                            0 Parameter,  0 Auto,  0 SOE     *
    1838              ;***************************************************************
    1839              
    1840 000003dc       _SDFM_disableMFE:
    1841                      .dwcfi  cfa_offset, -2
    1842                      .dwcfi  save_reg_to_mem, 26, 0
    1843 000003dc 7622   EALLOW
TMS320C2000 Assembler PC v18.12.4 Sat Jul 18 15:28:09 2020

Copyright (c) 1996-2018 Texas Instruments Incorporated
F2837xD_sdfm_drivers.asm                                             PAGE   39

    1844 000003dd 2901          CLRC      SXM                   ; [CPU_ALU] 
    1845                      .dwpsn  file "C:/ti/controlSUITE/device_support/F2837xD/v170/F2837xD_common/source/F2837xD_sdfm_drive
    1846 000003de 8F00!         MOVL      XAR4,#_SDFM           ; [CPU_ARAU] |346| 
         000003df 0000 
    1847 000003e0 5603          MOV       ACC,AL << 1           ; [CPU_ALU] |346| 
         000003e1 01A9 
    1848 000003e2 5601          ADDL      XAR4,ACC              ; [CPU_ALU] |346| 
         000003e3 00A4 
    1849 000003e4 8AC4          MOVL      XAR4,*+XAR4[0]        ; [CPU_ALU] |346| 
    1850 000003e5 18F4          AND       *+XAR4[6],#0xf7ff     ; [CPU_ALU] |346| 
         000003e6 F7FF 
    1851 000003e7 761A   EDIS
    1852 000003e8 FF69          SPM       #0                    ; [CPU_ALU] 
    1853              $C$DW$79        .dwtag  DW_TAG_TI_branch
    1854                      .dwattr $C$DW$79, DW_AT_low_pc(0x00)
    1855                      .dwattr $C$DW$79, DW_AT_TI_return
    1856              
    1857 000003e9 0006          LRETR     ; [CPU_ALU] 
    1858                      ; return occurs ; [] 
    1859                      .dwattr $C$DW$77, DW_AT_TI_end_file("C:/ti/controlSUITE/device_support/F2837xD/v170/F2837xD_common/so
    1860                      .dwattr $C$DW$77, DW_AT_TI_end_line(0x15d)
    1861                      .dwattr $C$DW$77, DW_AT_TI_end_column(0x01)
    1862                      .dwendentry
    1863                      .dwendtag $C$DW$77
    1864              
    1865              ;**************************************************************
    1866              ;* UNDEFINED EXTERNAL REFERENCES                              *
    1867              ;**************************************************************
    1868                      .global _SDFM
    1869              
    1870              ;***************************************************************
    1871              ;* TYPE INFORMATION                                            *
    1872              ;***************************************************************
    1873              
    1874              $C$DW$T$20      .dwtag  DW_TAG_structure_type
    1875                      .dwattr $C$DW$T$20, DW_AT_name("SDCMPH1_BITS")
    1876                      .dwattr $C$DW$T$20, DW_AT_byte_size(0x01)
    1877              $C$DW$80        .dwtag  DW_TAG_member
    1878                      .dwattr $C$DW$80, DW_AT_type(*$C$DW$T$19)
    1879                      .dwattr $C$DW$80, DW_AT_name("HLT")
    1880                      .dwattr $C$DW$80, DW_AT_TI_symbol_name("_HLT")
    1881                      .dwattr $C$DW$80, DW_AT_bit_offset(0x01)
    1882                      .dwattr $C$DW$80, DW_AT_bit_size(0x0f)
    1883                      .dwattr $C$DW$80, DW_AT_data_member_location[DW_OP_plus_uconst 0x0]
    1884                      .dwattr $C$DW$80, DW_AT_accessibility(DW_ACCESS_public)
    1885              
    1886              $C$DW$81        .dwtag  DW_TAG_member
    1887                      .dwattr $C$DW$81, DW_AT_type(*$C$DW$T$19)
    1888                      .dwattr $C$DW$81, DW_AT_name("rsvd1")
    1889                      .dwattr $C$DW$81, DW_AT_TI_symbol_name("_rsvd1")
    1890                      .dwattr $C$DW$81, DW_AT_bit_offset(0x00)
    1891                      .dwattr $C$DW$81, DW_AT_bit_size(0x01)
    1892                      .dwattr $C$DW$81, DW_AT_data_member_location[DW_OP_plus_uconst 0x0]
    1893                      .dwattr $C$DW$81, DW_AT_accessibility(DW_ACCESS_public)
    1894              
TMS320C2000 Assembler PC v18.12.4 Sat Jul 18 15:28:09 2020

Copyright (c) 1996-2018 Texas Instruments Incorporated
F2837xD_sdfm_drivers.asm                                             PAGE   40

    1895                      .dwendtag $C$DW$T$20
    1896              
    1897              
    1898              $C$DW$T$21      .dwtag  DW_TAG_union_type
    1899                      .dwattr $C$DW$T$21, DW_AT_name("SDCMPH1_REG")
    1900                      .dwattr $C$DW$T$21, DW_AT_byte_size(0x01)
    1901              $C$DW$82        .dwtag  DW_TAG_member
    1902                      .dwattr $C$DW$82, DW_AT_type(*$C$DW$T$19)
    1903                      .dwattr $C$DW$82, DW_AT_name("all")
    1904                      .dwattr $C$DW$82, DW_AT_TI_symbol_name("_all")
    1905                      .dwattr $C$DW$82, DW_AT_data_member_location[DW_OP_plus_uconst 0x0]
    1906                      .dwattr $C$DW$82, DW_AT_accessibility(DW_ACCESS_public)
    1907              
    1908              $C$DW$83        .dwtag  DW_TAG_member
    1909                      .dwattr $C$DW$83, DW_AT_type(*$C$DW$T$20)
    1910                      .dwattr $C$DW$83, DW_AT_name("bit")
    1911                      .dwattr $C$DW$83, DW_AT_TI_symbol_name("_bit")
    1912                      .dwattr $C$DW$83, DW_AT_data_member_location[DW_OP_plus_uconst 0x0]
    1913                      .dwattr $C$DW$83, DW_AT_accessibility(DW_ACCESS_public)
    1914              
    1915                      .dwendtag $C$DW$T$21
    1916              
    1917              
    1918              $C$DW$T$22      .dwtag  DW_TAG_structure_type
    1919                      .dwattr $C$DW$T$22, DW_AT_name("SDCMPH2_BITS")
    1920                      .dwattr $C$DW$T$22, DW_AT_byte_size(0x01)
    1921              $C$DW$84        .dwtag  DW_TAG_member
    1922                      .dwattr $C$DW$84, DW_AT_type(*$C$DW$T$19)
    1923                      .dwattr $C$DW$84, DW_AT_name("HLT")
    1924                      .dwattr $C$DW$84, DW_AT_TI_symbol_name("_HLT")
    1925                      .dwattr $C$DW$84, DW_AT_bit_offset(0x01)
    1926                      .dwattr $C$DW$84, DW_AT_bit_size(0x0f)
    1927                      .dwattr $C$DW$84, DW_AT_data_member_location[DW_OP_plus_uconst 0x0]
    1928                      .dwattr $C$DW$84, DW_AT_accessibility(DW_ACCESS_public)
    1929              
    1930              $C$DW$85        .dwtag  DW_TAG_member
    1931                      .dwattr $C$DW$85, DW_AT_type(*$C$DW$T$19)
    1932                      .dwattr $C$DW$85, DW_AT_name("rsvd1")
    1933                      .dwattr $C$DW$85, DW_AT_TI_symbol_name("_rsvd1")
    1934                      .dwattr $C$DW$85, DW_AT_bit_offset(0x00)
    1935                      .dwattr $C$DW$85, DW_AT_bit_size(0x01)
    1936                      .dwattr $C$DW$85, DW_AT_data_member_location[DW_OP_plus_uconst 0x0]
    1937                      .dwattr $C$DW$85, DW_AT_accessibility(DW_ACCESS_public)
    1938              
    1939                      .dwendtag $C$DW$T$22
    1940              
    1941              
    1942              $C$DW$T$23      .dwtag  DW_TAG_union_type
    1943                      .dwattr $C$DW$T$23, DW_AT_name("SDCMPH2_REG")
    1944                      .dwattr $C$DW$T$23, DW_AT_byte_size(0x01)
    1945              $C$DW$86        .dwtag  DW_TAG_member
    1946                      .dwattr $C$DW$86, DW_AT_type(*$C$DW$T$19)
    1947                      .dwattr $C$DW$86, DW_AT_name("all")
    1948                      .dwattr $C$DW$86, DW_AT_TI_symbol_name("_all")
    1949                      .dwattr $C$DW$86, DW_AT_data_member_location[DW_OP_plus_uconst 0x0]
TMS320C2000 Assembler PC v18.12.4 Sat Jul 18 15:28:09 2020

Copyright (c) 1996-2018 Texas Instruments Incorporated
F2837xD_sdfm_drivers.asm                                             PAGE   41

    1950                      .dwattr $C$DW$86, DW_AT_accessibility(DW_ACCESS_public)
    1951              
    1952              $C$DW$87        .dwtag  DW_TAG_member
    1953                      .dwattr $C$DW$87, DW_AT_type(*$C$DW$T$22)
    1954                      .dwattr $C$DW$87, DW_AT_name("bit")
    1955                      .dwattr $C$DW$87, DW_AT_TI_symbol_name("_bit")
    1956                      .dwattr $C$DW$87, DW_AT_data_member_location[DW_OP_plus_uconst 0x0]
    1957                      .dwattr $C$DW$87, DW_AT_accessibility(DW_ACCESS_public)
    1958              
    1959                      .dwendtag $C$DW$T$23
    1960              
    1961              
    1962              $C$DW$T$24      .dwtag  DW_TAG_structure_type
    1963                      .dwattr $C$DW$T$24, DW_AT_name("SDCMPH3_BITS")
    1964                      .dwattr $C$DW$T$24, DW_AT_byte_size(0x01)
    1965              $C$DW$88        .dwtag  DW_TAG_member
    1966                      .dwattr $C$DW$88, DW_AT_type(*$C$DW$T$19)
    1967                      .dwattr $C$DW$88, DW_AT_name("HLT")
    1968                      .dwattr $C$DW$88, DW_AT_TI_symbol_name("_HLT")
    1969                      .dwattr $C$DW$88, DW_AT_bit_offset(0x01)
    1970                      .dwattr $C$DW$88, DW_AT_bit_size(0x0f)
    1971                      .dwattr $C$DW$88, DW_AT_data_member_location[DW_OP_plus_uconst 0x0]
    1972                      .dwattr $C$DW$88, DW_AT_accessibility(DW_ACCESS_public)
    1973              
    1974              $C$DW$89        .dwtag  DW_TAG_member
    1975                      .dwattr $C$DW$89, DW_AT_type(*$C$DW$T$19)
    1976                      .dwattr $C$DW$89, DW_AT_name("rsvd1")
    1977                      .dwattr $C$DW$89, DW_AT_TI_symbol_name("_rsvd1")
    1978                      .dwattr $C$DW$89, DW_AT_bit_offset(0x00)
    1979                      .dwattr $C$DW$89, DW_AT_bit_size(0x01)
    1980                      .dwattr $C$DW$89, DW_AT_data_member_location[DW_OP_plus_uconst 0x0]
    1981                      .dwattr $C$DW$89, DW_AT_accessibility(DW_ACCESS_public)
    1982              
    1983                      .dwendtag $C$DW$T$24
    1984              
    1985              
    1986              $C$DW$T$25      .dwtag  DW_TAG_union_type
    1987                      .dwattr $C$DW$T$25, DW_AT_name("SDCMPH3_REG")
    1988                      .dwattr $C$DW$T$25, DW_AT_byte_size(0x01)
    1989              $C$DW$90        .dwtag  DW_TAG_member
    1990                      .dwattr $C$DW$90, DW_AT_type(*$C$DW$T$19)
    1991                      .dwattr $C$DW$90, DW_AT_name("all")
    1992                      .dwattr $C$DW$90, DW_AT_TI_symbol_name("_all")
    1993                      .dwattr $C$DW$90, DW_AT_data_member_location[DW_OP_plus_uconst 0x0]
    1994                      .dwattr $C$DW$90, DW_AT_accessibility(DW_ACCESS_public)
    1995              
    1996              $C$DW$91        .dwtag  DW_TAG_member
    1997                      .dwattr $C$DW$91, DW_AT_type(*$C$DW$T$24)
    1998                      .dwattr $C$DW$91, DW_AT_name("bit")
    1999                      .dwattr $C$DW$91, DW_AT_TI_symbol_name("_bit")
    2000                      .dwattr $C$DW$91, DW_AT_data_member_location[DW_OP_plus_uconst 0x0]
    2001                      .dwattr $C$DW$91, DW_AT_accessibility(DW_ACCESS_public)
    2002              
    2003                      .dwendtag $C$DW$T$25
    2004              
TMS320C2000 Assembler PC v18.12.4 Sat Jul 18 15:28:09 2020

Copyright (c) 1996-2018 Texas Instruments Incorporated
F2837xD_sdfm_drivers.asm                                             PAGE   42

    2005              
    2006              $C$DW$T$26      .dwtag  DW_TAG_structure_type
    2007                      .dwattr $C$DW$T$26, DW_AT_name("SDCMPH4_BITS")
    2008                      .dwattr $C$DW$T$26, DW_AT_byte_size(0x01)
    2009              $C$DW$92        .dwtag  DW_TAG_member
    2010                      .dwattr $C$DW$92, DW_AT_type(*$C$DW$T$19)
    2011                      .dwattr $C$DW$92, DW_AT_name("HLT")
    2012                      .dwattr $C$DW$92, DW_AT_TI_symbol_name("_HLT")
    2013                      .dwattr $C$DW$92, DW_AT_bit_offset(0x01)
    2014                      .dwattr $C$DW$92, DW_AT_bit_size(0x0f)
    2015                      .dwattr $C$DW$92, DW_AT_data_member_location[DW_OP_plus_uconst 0x0]
    2016                      .dwattr $C$DW$92, DW_AT_accessibility(DW_ACCESS_public)
    2017              
    2018              $C$DW$93        .dwtag  DW_TAG_member
    2019                      .dwattr $C$DW$93, DW_AT_type(*$C$DW$T$19)
    2020                      .dwattr $C$DW$93, DW_AT_name("rsvd1")
    2021                      .dwattr $C$DW$93, DW_AT_TI_symbol_name("_rsvd1")
    2022                      .dwattr $C$DW$93, DW_AT_bit_offset(0x00)
    2023                      .dwattr $C$DW$93, DW_AT_bit_size(0x01)
    2024                      .dwattr $C$DW$93, DW_AT_data_member_location[DW_OP_plus_uconst 0x0]
    2025                      .dwattr $C$DW$93, DW_AT_accessibility(DW_ACCESS_public)
    2026              
    2027                      .dwendtag $C$DW$T$26
    2028              
    2029              
    2030              $C$DW$T$27      .dwtag  DW_TAG_union_type
    2031                      .dwattr $C$DW$T$27, DW_AT_name("SDCMPH4_REG")
    2032                      .dwattr $C$DW$T$27, DW_AT_byte_size(0x01)
    2033              $C$DW$94        .dwtag  DW_TAG_member
    2034                      .dwattr $C$DW$94, DW_AT_type(*$C$DW$T$19)
    2035                      .dwattr $C$DW$94, DW_AT_name("all")
    2036                      .dwattr $C$DW$94, DW_AT_TI_symbol_name("_all")
    2037                      .dwattr $C$DW$94, DW_AT_data_member_location[DW_OP_plus_uconst 0x0]
    2038                      .dwattr $C$DW$94, DW_AT_accessibility(DW_ACCESS_public)
    2039              
    2040              $C$DW$95        .dwtag  DW_TAG_member
    2041                      .dwattr $C$DW$95, DW_AT_type(*$C$DW$T$26)
    2042                      .dwattr $C$DW$95, DW_AT_name("bit")
    2043                      .dwattr $C$DW$95, DW_AT_TI_symbol_name("_bit")
    2044                      .dwattr $C$DW$95, DW_AT_data_member_location[DW_OP_plus_uconst 0x0]
    2045                      .dwattr $C$DW$95, DW_AT_accessibility(DW_ACCESS_public)
    2046              
    2047                      .dwendtag $C$DW$T$27
    2048              
    2049              
    2050              $C$DW$T$28      .dwtag  DW_TAG_structure_type
    2051                      .dwattr $C$DW$T$28, DW_AT_name("SDCMPL1_BITS")
    2052                      .dwattr $C$DW$T$28, DW_AT_byte_size(0x01)
    2053              $C$DW$96        .dwtag  DW_TAG_member
    2054                      .dwattr $C$DW$96, DW_AT_type(*$C$DW$T$19)
    2055                      .dwattr $C$DW$96, DW_AT_name("LLT")
    2056                      .dwattr $C$DW$96, DW_AT_TI_symbol_name("_LLT")
    2057                      .dwattr $C$DW$96, DW_AT_bit_offset(0x01)
    2058                      .dwattr $C$DW$96, DW_AT_bit_size(0x0f)
    2059                      .dwattr $C$DW$96, DW_AT_data_member_location[DW_OP_plus_uconst 0x0]
TMS320C2000 Assembler PC v18.12.4 Sat Jul 18 15:28:09 2020

Copyright (c) 1996-2018 Texas Instruments Incorporated
F2837xD_sdfm_drivers.asm                                             PAGE   43

    2060                      .dwattr $C$DW$96, DW_AT_accessibility(DW_ACCESS_public)
    2061              
    2062              $C$DW$97        .dwtag  DW_TAG_member
    2063                      .dwattr $C$DW$97, DW_AT_type(*$C$DW$T$19)
    2064                      .dwattr $C$DW$97, DW_AT_name("rsvd1")
    2065                      .dwattr $C$DW$97, DW_AT_TI_symbol_name("_rsvd1")
    2066                      .dwattr $C$DW$97, DW_AT_bit_offset(0x00)
    2067                      .dwattr $C$DW$97, DW_AT_bit_size(0x01)
    2068                      .dwattr $C$DW$97, DW_AT_data_member_location[DW_OP_plus_uconst 0x0]
    2069                      .dwattr $C$DW$97, DW_AT_accessibility(DW_ACCESS_public)
    2070              
    2071                      .dwendtag $C$DW$T$28
    2072              
    2073              
    2074              $C$DW$T$29      .dwtag  DW_TAG_union_type
    2075                      .dwattr $C$DW$T$29, DW_AT_name("SDCMPL1_REG")
    2076                      .dwattr $C$DW$T$29, DW_AT_byte_size(0x01)
    2077              $C$DW$98        .dwtag  DW_TAG_member
    2078                      .dwattr $C$DW$98, DW_AT_type(*$C$DW$T$19)
    2079                      .dwattr $C$DW$98, DW_AT_name("all")
    2080                      .dwattr $C$DW$98, DW_AT_TI_symbol_name("_all")
    2081                      .dwattr $C$DW$98, DW_AT_data_member_location[DW_OP_plus_uconst 0x0]
    2082                      .dwattr $C$DW$98, DW_AT_accessibility(DW_ACCESS_public)
    2083              
    2084              $C$DW$99        .dwtag  DW_TAG_member
    2085                      .dwattr $C$DW$99, DW_AT_type(*$C$DW$T$28)
    2086                      .dwattr $C$DW$99, DW_AT_name("bit")
    2087                      .dwattr $C$DW$99, DW_AT_TI_symbol_name("_bit")
    2088                      .dwattr $C$DW$99, DW_AT_data_member_location[DW_OP_plus_uconst 0x0]
    2089                      .dwattr $C$DW$99, DW_AT_accessibility(DW_ACCESS_public)
    2090              
    2091                      .dwendtag $C$DW$T$29
    2092              
    2093              
    2094              $C$DW$T$30      .dwtag  DW_TAG_structure_type
    2095                      .dwattr $C$DW$T$30, DW_AT_name("SDCMPL2_BITS")
    2096                      .dwattr $C$DW$T$30, DW_AT_byte_size(0x01)
    2097              $C$DW$100       .dwtag  DW_TAG_member
    2098                      .dwattr $C$DW$100, DW_AT_type(*$C$DW$T$19)
    2099                      .dwattr $C$DW$100, DW_AT_name("LLT")
    2100                      .dwattr $C$DW$100, DW_AT_TI_symbol_name("_LLT")
    2101                      .dwattr $C$DW$100, DW_AT_bit_offset(0x01)
    2102                      .dwattr $C$DW$100, DW_AT_bit_size(0x0f)
    2103                      .dwattr $C$DW$100, DW_AT_data_member_location[DW_OP_plus_uconst 0x0]
    2104                      .dwattr $C$DW$100, DW_AT_accessibility(DW_ACCESS_public)
    2105              
    2106              $C$DW$101       .dwtag  DW_TAG_member
    2107                      .dwattr $C$DW$101, DW_AT_type(*$C$DW$T$19)
    2108                      .dwattr $C$DW$101, DW_AT_name("rsvd1")
    2109                      .dwattr $C$DW$101, DW_AT_TI_symbol_name("_rsvd1")
    2110                      .dwattr $C$DW$101, DW_AT_bit_offset(0x00)
    2111                      .dwattr $C$DW$101, DW_AT_bit_size(0x01)
    2112                      .dwattr $C$DW$101, DW_AT_data_member_location[DW_OP_plus_uconst 0x0]
    2113                      .dwattr $C$DW$101, DW_AT_accessibility(DW_ACCESS_public)
    2114              
TMS320C2000 Assembler PC v18.12.4 Sat Jul 18 15:28:09 2020

Copyright (c) 1996-2018 Texas Instruments Incorporated
F2837xD_sdfm_drivers.asm                                             PAGE   44

    2115                      .dwendtag $C$DW$T$30
    2116              
    2117              
    2118              $C$DW$T$31      .dwtag  DW_TAG_union_type
    2119                      .dwattr $C$DW$T$31, DW_AT_name("SDCMPL2_REG")
    2120                      .dwattr $C$DW$T$31, DW_AT_byte_size(0x01)
    2121              $C$DW$102       .dwtag  DW_TAG_member
    2122                      .dwattr $C$DW$102, DW_AT_type(*$C$DW$T$19)
    2123                      .dwattr $C$DW$102, DW_AT_name("all")
    2124                      .dwattr $C$DW$102, DW_AT_TI_symbol_name("_all")
    2125                      .dwattr $C$DW$102, DW_AT_data_member_location[DW_OP_plus_uconst 0x0]
    2126                      .dwattr $C$DW$102, DW_AT_accessibility(DW_ACCESS_public)
    2127              
    2128              $C$DW$103       .dwtag  DW_TAG_member
    2129                      .dwattr $C$DW$103, DW_AT_type(*$C$DW$T$30)
    2130                      .dwattr $C$DW$103, DW_AT_name("bit")
    2131                      .dwattr $C$DW$103, DW_AT_TI_symbol_name("_bit")
    2132                      .dwattr $C$DW$103, DW_AT_data_member_location[DW_OP_plus_uconst 0x0]
    2133                      .dwattr $C$DW$103, DW_AT_accessibility(DW_ACCESS_public)
    2134              
    2135                      .dwendtag $C$DW$T$31
    2136              
    2137              
    2138              $C$DW$T$32      .dwtag  DW_TAG_structure_type
    2139                      .dwattr $C$DW$T$32, DW_AT_name("SDCMPL3_BITS")
    2140                      .dwattr $C$DW$T$32, DW_AT_byte_size(0x01)
    2141              $C$DW$104       .dwtag  DW_TAG_member
    2142                      .dwattr $C$DW$104, DW_AT_type(*$C$DW$T$19)
    2143                      .dwattr $C$DW$104, DW_AT_name("LLT")
    2144                      .dwattr $C$DW$104, DW_AT_TI_symbol_name("_LLT")
    2145                      .dwattr $C$DW$104, DW_AT_bit_offset(0x01)
    2146                      .dwattr $C$DW$104, DW_AT_bit_size(0x0f)
    2147                      .dwattr $C$DW$104, DW_AT_data_member_location[DW_OP_plus_uconst 0x0]
    2148                      .dwattr $C$DW$104, DW_AT_accessibility(DW_ACCESS_public)
    2149              
    2150              $C$DW$105       .dwtag  DW_TAG_member
    2151                      .dwattr $C$DW$105, DW_AT_type(*$C$DW$T$19)
    2152                      .dwattr $C$DW$105, DW_AT_name("rsvd1")
    2153                      .dwattr $C$DW$105, DW_AT_TI_symbol_name("_rsvd1")
    2154                      .dwattr $C$DW$105, DW_AT_bit_offset(0x00)
    2155                      .dwattr $C$DW$105, DW_AT_bit_size(0x01)
    2156                      .dwattr $C$DW$105, DW_AT_data_member_location[DW_OP_plus_uconst 0x0]
    2157                      .dwattr $C$DW$105, DW_AT_accessibility(DW_ACCESS_public)
    2158              
    2159                      .dwendtag $C$DW$T$32
    2160              
    2161              
    2162              $C$DW$T$33      .dwtag  DW_TAG_union_type
    2163                      .dwattr $C$DW$T$33, DW_AT_name("SDCMPL3_REG")
    2164                      .dwattr $C$DW$T$33, DW_AT_byte_size(0x01)
    2165              $C$DW$106       .dwtag  DW_TAG_member
    2166                      .dwattr $C$DW$106, DW_AT_type(*$C$DW$T$19)
    2167                      .dwattr $C$DW$106, DW_AT_name("all")
    2168                      .dwattr $C$DW$106, DW_AT_TI_symbol_name("_all")
    2169                      .dwattr $C$DW$106, DW_AT_data_member_location[DW_OP_plus_uconst 0x0]
TMS320C2000 Assembler PC v18.12.4 Sat Jul 18 15:28:09 2020

Copyright (c) 1996-2018 Texas Instruments Incorporated
F2837xD_sdfm_drivers.asm                                             PAGE   45

    2170                      .dwattr $C$DW$106, DW_AT_accessibility(DW_ACCESS_public)
    2171              
    2172              $C$DW$107       .dwtag  DW_TAG_member
    2173                      .dwattr $C$DW$107, DW_AT_type(*$C$DW$T$32)
    2174                      .dwattr $C$DW$107, DW_AT_name("bit")
    2175                      .dwattr $C$DW$107, DW_AT_TI_symbol_name("_bit")
    2176                      .dwattr $C$DW$107, DW_AT_data_member_location[DW_OP_plus_uconst 0x0]
    2177                      .dwattr $C$DW$107, DW_AT_accessibility(DW_ACCESS_public)
    2178              
    2179                      .dwendtag $C$DW$T$33
    2180              
    2181              
    2182              $C$DW$T$34      .dwtag  DW_TAG_structure_type
    2183                      .dwattr $C$DW$T$34, DW_AT_name("SDCMPL4_BITS")
    2184                      .dwattr $C$DW$T$34, DW_AT_byte_size(0x01)
    2185              $C$DW$108       .dwtag  DW_TAG_member
    2186                      .dwattr $C$DW$108, DW_AT_type(*$C$DW$T$19)
    2187                      .dwattr $C$DW$108, DW_AT_name("LLT")
    2188                      .dwattr $C$DW$108, DW_AT_TI_symbol_name("_LLT")
    2189                      .dwattr $C$DW$108, DW_AT_bit_offset(0x01)
    2190                      .dwattr $C$DW$108, DW_AT_bit_size(0x0f)
    2191                      .dwattr $C$DW$108, DW_AT_data_member_location[DW_OP_plus_uconst 0x0]
    2192                      .dwattr $C$DW$108, DW_AT_accessibility(DW_ACCESS_public)
    2193              
    2194              $C$DW$109       .dwtag  DW_TAG_member
    2195                      .dwattr $C$DW$109, DW_AT_type(*$C$DW$T$19)
    2196                      .dwattr $C$DW$109, DW_AT_name("rsvd1")
    2197                      .dwattr $C$DW$109, DW_AT_TI_symbol_name("_rsvd1")
    2198                      .dwattr $C$DW$109, DW_AT_bit_offset(0x00)
    2199                      .dwattr $C$DW$109, DW_AT_bit_size(0x01)
    2200                      .dwattr $C$DW$109, DW_AT_data_member_location[DW_OP_plus_uconst 0x0]
    2201                      .dwattr $C$DW$109, DW_AT_accessibility(DW_ACCESS_public)
    2202              
    2203                      .dwendtag $C$DW$T$34
    2204              
    2205              
    2206              $C$DW$T$35      .dwtag  DW_TAG_union_type
    2207                      .dwattr $C$DW$T$35, DW_AT_name("SDCMPL4_REG")
    2208                      .dwattr $C$DW$T$35, DW_AT_byte_size(0x01)
    2209              $C$DW$110       .dwtag  DW_TAG_member
    2210                      .dwattr $C$DW$110, DW_AT_type(*$C$DW$T$19)
    2211                      .dwattr $C$DW$110, DW_AT_name("all")
    2212                      .dwattr $C$DW$110, DW_AT_TI_symbol_name("_all")
    2213                      .dwattr $C$DW$110, DW_AT_data_member_location[DW_OP_plus_uconst 0x0]
    2214                      .dwattr $C$DW$110, DW_AT_accessibility(DW_ACCESS_public)
    2215              
    2216              $C$DW$111       .dwtag  DW_TAG_member
    2217                      .dwattr $C$DW$111, DW_AT_type(*$C$DW$T$34)
    2218                      .dwattr $C$DW$111, DW_AT_name("bit")
    2219                      .dwattr $C$DW$111, DW_AT_TI_symbol_name("_bit")
    2220                      .dwattr $C$DW$111, DW_AT_data_member_location[DW_OP_plus_uconst 0x0]
    2221                      .dwattr $C$DW$111, DW_AT_accessibility(DW_ACCESS_public)
    2222              
    2223                      .dwendtag $C$DW$T$35
    2224              
TMS320C2000 Assembler PC v18.12.4 Sat Jul 18 15:28:09 2020

Copyright (c) 1996-2018 Texas Instruments Incorporated
F2837xD_sdfm_drivers.asm                                             PAGE   46

    2225              
    2226              $C$DW$T$36      .dwtag  DW_TAG_structure_type
    2227                      .dwattr $C$DW$T$36, DW_AT_name("SDCPARM1_BITS")
    2228                      .dwattr $C$DW$T$36, DW_AT_byte_size(0x01)
    2229              $C$DW$112       .dwtag  DW_TAG_member
    2230                      .dwattr $C$DW$112, DW_AT_type(*$C$DW$T$19)
    2231                      .dwattr $C$DW$112, DW_AT_name("COSR")
    2232                      .dwattr $C$DW$112, DW_AT_TI_symbol_name("_COSR")
    2233                      .dwattr $C$DW$112, DW_AT_bit_offset(0x0b)
    2234                      .dwattr $C$DW$112, DW_AT_bit_size(0x05)
    2235                      .dwattr $C$DW$112, DW_AT_data_member_location[DW_OP_plus_uconst 0x0]
    2236                      .dwattr $C$DW$112, DW_AT_accessibility(DW_ACCESS_public)
    2237              
    2238              $C$DW$113       .dwtag  DW_TAG_member
    2239                      .dwattr $C$DW$113, DW_AT_type(*$C$DW$T$19)
    2240                      .dwattr $C$DW$113, DW_AT_name("IEH")
    2241                      .dwattr $C$DW$113, DW_AT_TI_symbol_name("_IEH")
    2242                      .dwattr $C$DW$113, DW_AT_bit_offset(0x0a)
    2243                      .dwattr $C$DW$113, DW_AT_bit_size(0x01)
    2244                      .dwattr $C$DW$113, DW_AT_data_member_location[DW_OP_plus_uconst 0x0]
    2245                      .dwattr $C$DW$113, DW_AT_accessibility(DW_ACCESS_public)
    2246              
    2247              $C$DW$114       .dwtag  DW_TAG_member
    2248                      .dwattr $C$DW$114, DW_AT_type(*$C$DW$T$19)
    2249                      .dwattr $C$DW$114, DW_AT_name("IEL")
    2250                      .dwattr $C$DW$114, DW_AT_TI_symbol_name("_IEL")
    2251                      .dwattr $C$DW$114, DW_AT_bit_offset(0x09)
    2252                      .dwattr $C$DW$114, DW_AT_bit_size(0x01)
    2253                      .dwattr $C$DW$114, DW_AT_data_member_location[DW_OP_plus_uconst 0x0]
    2254                      .dwattr $C$DW$114, DW_AT_accessibility(DW_ACCESS_public)
    2255              
    2256              $C$DW$115       .dwtag  DW_TAG_member
    2257                      .dwattr $C$DW$115, DW_AT_type(*$C$DW$T$19)
    2258                      .dwattr $C$DW$115, DW_AT_name("CS1_CS0")
    2259                      .dwattr $C$DW$115, DW_AT_TI_symbol_name("_CS1_CS0")
    2260                      .dwattr $C$DW$115, DW_AT_bit_offset(0x07)
    2261                      .dwattr $C$DW$115, DW_AT_bit_size(0x02)
    2262                      .dwattr $C$DW$115, DW_AT_data_member_location[DW_OP_plus_uconst 0x0]
    2263                      .dwattr $C$DW$115, DW_AT_accessibility(DW_ACCESS_public)
    2264              
    2265              $C$DW$116       .dwtag  DW_TAG_member
    2266                      .dwattr $C$DW$116, DW_AT_type(*$C$DW$T$19)
    2267                      .dwattr $C$DW$116, DW_AT_name("MFIE")
    2268                      .dwattr $C$DW$116, DW_AT_TI_symbol_name("_MFIE")
    2269                      .dwattr $C$DW$116, DW_AT_bit_offset(0x06)
    2270                      .dwattr $C$DW$116, DW_AT_bit_size(0x01)
    2271                      .dwattr $C$DW$116, DW_AT_data_member_location[DW_OP_plus_uconst 0x0]
    2272                      .dwattr $C$DW$116, DW_AT_accessibility(DW_ACCESS_public)
    2273              
    2274              $C$DW$117       .dwtag  DW_TAG_member
    2275                      .dwattr $C$DW$117, DW_AT_type(*$C$DW$T$19)
    2276                      .dwattr $C$DW$117, DW_AT_name("rsvd1")
    2277                      .dwattr $C$DW$117, DW_AT_TI_symbol_name("_rsvd1")
    2278                      .dwattr $C$DW$117, DW_AT_bit_offset(0x00)
    2279                      .dwattr $C$DW$117, DW_AT_bit_size(0x06)
TMS320C2000 Assembler PC v18.12.4 Sat Jul 18 15:28:09 2020

Copyright (c) 1996-2018 Texas Instruments Incorporated
F2837xD_sdfm_drivers.asm                                             PAGE   47

    2280                      .dwattr $C$DW$117, DW_AT_data_member_location[DW_OP_plus_uconst 0x0]
    2281                      .dwattr $C$DW$117, DW_AT_accessibility(DW_ACCESS_public)
    2282              
    2283                      .dwendtag $C$DW$T$36
    2284              
    2285              
    2286              $C$DW$T$37      .dwtag  DW_TAG_union_type
    2287                      .dwattr $C$DW$T$37, DW_AT_name("SDCPARM1_REG")
    2288                      .dwattr $C$DW$T$37, DW_AT_byte_size(0x01)
    2289              $C$DW$118       .dwtag  DW_TAG_member
    2290                      .dwattr $C$DW$118, DW_AT_type(*$C$DW$T$19)
    2291                      .dwattr $C$DW$118, DW_AT_name("all")
    2292                      .dwattr $C$DW$118, DW_AT_TI_symbol_name("_all")
    2293                      .dwattr $C$DW$118, DW_AT_data_member_location[DW_OP_plus_uconst 0x0]
    2294                      .dwattr $C$DW$118, DW_AT_accessibility(DW_ACCESS_public)
    2295              
    2296              $C$DW$119       .dwtag  DW_TAG_member
    2297                      .dwattr $C$DW$119, DW_AT_type(*$C$DW$T$36)
    2298                      .dwattr $C$DW$119, DW_AT_name("bit")
    2299                      .dwattr $C$DW$119, DW_AT_TI_symbol_name("_bit")
    2300                      .dwattr $C$DW$119, DW_AT_data_member_location[DW_OP_plus_uconst 0x0]
    2301                      .dwattr $C$DW$119, DW_AT_accessibility(DW_ACCESS_public)
    2302              
    2303                      .dwendtag $C$DW$T$37
    2304              
    2305              
    2306              $C$DW$T$38      .dwtag  DW_TAG_structure_type
    2307                      .dwattr $C$DW$T$38, DW_AT_name("SDCPARM2_BITS")
    2308                      .dwattr $C$DW$T$38, DW_AT_byte_size(0x01)
    2309              $C$DW$120       .dwtag  DW_TAG_member
    2310                      .dwattr $C$DW$120, DW_AT_type(*$C$DW$T$19)
    2311                      .dwattr $C$DW$120, DW_AT_name("COSR")
    2312                      .dwattr $C$DW$120, DW_AT_TI_symbol_name("_COSR")
    2313                      .dwattr $C$DW$120, DW_AT_bit_offset(0x0b)
    2314                      .dwattr $C$DW$120, DW_AT_bit_size(0x05)
    2315                      .dwattr $C$DW$120, DW_AT_data_member_location[DW_OP_plus_uconst 0x0]
    2316                      .dwattr $C$DW$120, DW_AT_accessibility(DW_ACCESS_public)
    2317              
    2318              $C$DW$121       .dwtag  DW_TAG_member
    2319                      .dwattr $C$DW$121, DW_AT_type(*$C$DW$T$19)
    2320                      .dwattr $C$DW$121, DW_AT_name("IEH")
    2321                      .dwattr $C$DW$121, DW_AT_TI_symbol_name("_IEH")
    2322                      .dwattr $C$DW$121, DW_AT_bit_offset(0x0a)
    2323                      .dwattr $C$DW$121, DW_AT_bit_size(0x01)
    2324                      .dwattr $C$DW$121, DW_AT_data_member_location[DW_OP_plus_uconst 0x0]
    2325                      .dwattr $C$DW$121, DW_AT_accessibility(DW_ACCESS_public)
    2326              
    2327              $C$DW$122       .dwtag  DW_TAG_member
    2328                      .dwattr $C$DW$122, DW_AT_type(*$C$DW$T$19)
    2329                      .dwattr $C$DW$122, DW_AT_name("IEL")
    2330                      .dwattr $C$DW$122, DW_AT_TI_symbol_name("_IEL")
    2331                      .dwattr $C$DW$122, DW_AT_bit_offset(0x09)
    2332                      .dwattr $C$DW$122, DW_AT_bit_size(0x01)
    2333                      .dwattr $C$DW$122, DW_AT_data_member_location[DW_OP_plus_uconst 0x0]
    2334                      .dwattr $C$DW$122, DW_AT_accessibility(DW_ACCESS_public)
TMS320C2000 Assembler PC v18.12.4 Sat Jul 18 15:28:09 2020

Copyright (c) 1996-2018 Texas Instruments Incorporated
F2837xD_sdfm_drivers.asm                                             PAGE   48

    2335              
    2336              $C$DW$123       .dwtag  DW_TAG_member
    2337                      .dwattr $C$DW$123, DW_AT_type(*$C$DW$T$19)
    2338                      .dwattr $C$DW$123, DW_AT_name("CS1_CS0")
    2339                      .dwattr $C$DW$123, DW_AT_TI_symbol_name("_CS1_CS0")
    2340                      .dwattr $C$DW$123, DW_AT_bit_offset(0x07)
    2341                      .dwattr $C$DW$123, DW_AT_bit_size(0x02)
    2342                      .dwattr $C$DW$123, DW_AT_data_member_location[DW_OP_plus_uconst 0x0]
    2343                      .dwattr $C$DW$123, DW_AT_accessibility(DW_ACCESS_public)
    2344              
    2345              $C$DW$124       .dwtag  DW_TAG_member
    2346                      .dwattr $C$DW$124, DW_AT_type(*$C$DW$T$19)
    2347                      .dwattr $C$DW$124, DW_AT_name("MFIE")
    2348                      .dwattr $C$DW$124, DW_AT_TI_symbol_name("_MFIE")
    2349                      .dwattr $C$DW$124, DW_AT_bit_offset(0x06)
    2350                      .dwattr $C$DW$124, DW_AT_bit_size(0x01)
    2351                      .dwattr $C$DW$124, DW_AT_data_member_location[DW_OP_plus_uconst 0x0]
    2352                      .dwattr $C$DW$124, DW_AT_accessibility(DW_ACCESS_public)
    2353              
    2354              $C$DW$125       .dwtag  DW_TAG_member
    2355                      .dwattr $C$DW$125, DW_AT_type(*$C$DW$T$19)
    2356                      .dwattr $C$DW$125, DW_AT_name("rsvd1")
    2357                      .dwattr $C$DW$125, DW_AT_TI_symbol_name("_rsvd1")
    2358                      .dwattr $C$DW$125, DW_AT_bit_offset(0x00)
    2359                      .dwattr $C$DW$125, DW_AT_bit_size(0x06)
    2360                      .dwattr $C$DW$125, DW_AT_data_member_location[DW_OP_plus_uconst 0x0]
    2361                      .dwattr $C$DW$125, DW_AT_accessibility(DW_ACCESS_public)
    2362              
    2363                      .dwendtag $C$DW$T$38
    2364              
    2365              
    2366              $C$DW$T$39      .dwtag  DW_TAG_union_type
    2367                      .dwattr $C$DW$T$39, DW_AT_name("SDCPARM2_REG")
    2368                      .dwattr $C$DW$T$39, DW_AT_byte_size(0x01)
    2369              $C$DW$126       .dwtag  DW_TAG_member
    2370                      .dwattr $C$DW$126, DW_AT_type(*$C$DW$T$19)
    2371                      .dwattr $C$DW$126, DW_AT_name("all")
    2372                      .dwattr $C$DW$126, DW_AT_TI_symbol_name("_all")
    2373                      .dwattr $C$DW$126, DW_AT_data_member_location[DW_OP_plus_uconst 0x0]
    2374                      .dwattr $C$DW$126, DW_AT_accessibility(DW_ACCESS_public)
    2375              
    2376              $C$DW$127       .dwtag  DW_TAG_member
    2377                      .dwattr $C$DW$127, DW_AT_type(*$C$DW$T$38)
    2378                      .dwattr $C$DW$127, DW_AT_name("bit")
    2379                      .dwattr $C$DW$127, DW_AT_TI_symbol_name("_bit")
    2380                      .dwattr $C$DW$127, DW_AT_data_member_location[DW_OP_plus_uconst 0x0]
    2381                      .dwattr $C$DW$127, DW_AT_accessibility(DW_ACCESS_public)
    2382              
    2383                      .dwendtag $C$DW$T$39
    2384              
    2385              
    2386              $C$DW$T$40      .dwtag  DW_TAG_structure_type
    2387                      .dwattr $C$DW$T$40, DW_AT_name("SDCPARM3_BITS")
    2388                      .dwattr $C$DW$T$40, DW_AT_byte_size(0x01)
    2389              $C$DW$128       .dwtag  DW_TAG_member
TMS320C2000 Assembler PC v18.12.4 Sat Jul 18 15:28:09 2020

Copyright (c) 1996-2018 Texas Instruments Incorporated
F2837xD_sdfm_drivers.asm                                             PAGE   49

    2390                      .dwattr $C$DW$128, DW_AT_type(*$C$DW$T$19)
    2391                      .dwattr $C$DW$128, DW_AT_name("COSR")
    2392                      .dwattr $C$DW$128, DW_AT_TI_symbol_name("_COSR")
    2393                      .dwattr $C$DW$128, DW_AT_bit_offset(0x0b)
    2394                      .dwattr $C$DW$128, DW_AT_bit_size(0x05)
    2395                      .dwattr $C$DW$128, DW_AT_data_member_location[DW_OP_plus_uconst 0x0]
    2396                      .dwattr $C$DW$128, DW_AT_accessibility(DW_ACCESS_public)
    2397              
    2398              $C$DW$129       .dwtag  DW_TAG_member
    2399                      .dwattr $C$DW$129, DW_AT_type(*$C$DW$T$19)
    2400                      .dwattr $C$DW$129, DW_AT_name("IEH")
    2401                      .dwattr $C$DW$129, DW_AT_TI_symbol_name("_IEH")
    2402                      .dwattr $C$DW$129, DW_AT_bit_offset(0x0a)
    2403                      .dwattr $C$DW$129, DW_AT_bit_size(0x01)
    2404                      .dwattr $C$DW$129, DW_AT_data_member_location[DW_OP_plus_uconst 0x0]
    2405                      .dwattr $C$DW$129, DW_AT_accessibility(DW_ACCESS_public)
    2406              
    2407              $C$DW$130       .dwtag  DW_TAG_member
    2408                      .dwattr $C$DW$130, DW_AT_type(*$C$DW$T$19)
    2409                      .dwattr $C$DW$130, DW_AT_name("IEL")
    2410                      .dwattr $C$DW$130, DW_AT_TI_symbol_name("_IEL")
    2411                      .dwattr $C$DW$130, DW_AT_bit_offset(0x09)
    2412                      .dwattr $C$DW$130, DW_AT_bit_size(0x01)
    2413                      .dwattr $C$DW$130, DW_AT_data_member_location[DW_OP_plus_uconst 0x0]
    2414                      .dwattr $C$DW$130, DW_AT_accessibility(DW_ACCESS_public)
    2415              
    2416              $C$DW$131       .dwtag  DW_TAG_member
    2417                      .dwattr $C$DW$131, DW_AT_type(*$C$DW$T$19)
    2418                      .dwattr $C$DW$131, DW_AT_name("CS1_CS0")
    2419                      .dwattr $C$DW$131, DW_AT_TI_symbol_name("_CS1_CS0")
    2420                      .dwattr $C$DW$131, DW_AT_bit_offset(0x07)
    2421                      .dwattr $C$DW$131, DW_AT_bit_size(0x02)
    2422                      .dwattr $C$DW$131, DW_AT_data_member_location[DW_OP_plus_uconst 0x0]
    2423                      .dwattr $C$DW$131, DW_AT_accessibility(DW_ACCESS_public)
    2424              
    2425              $C$DW$132       .dwtag  DW_TAG_member
    2426                      .dwattr $C$DW$132, DW_AT_type(*$C$DW$T$19)
    2427                      .dwattr $C$DW$132, DW_AT_name("MFIE")
    2428                      .dwattr $C$DW$132, DW_AT_TI_symbol_name("_MFIE")
    2429                      .dwattr $C$DW$132, DW_AT_bit_offset(0x06)
    2430                      .dwattr $C$DW$132, DW_AT_bit_size(0x01)
    2431                      .dwattr $C$DW$132, DW_AT_data_member_location[DW_OP_plus_uconst 0x0]
    2432                      .dwattr $C$DW$132, DW_AT_accessibility(DW_ACCESS_public)
    2433              
    2434              $C$DW$133       .dwtag  DW_TAG_member
    2435                      .dwattr $C$DW$133, DW_AT_type(*$C$DW$T$19)
    2436                      .dwattr $C$DW$133, DW_AT_name("rsvd1")
    2437                      .dwattr $C$DW$133, DW_AT_TI_symbol_name("_rsvd1")
    2438                      .dwattr $C$DW$133, DW_AT_bit_offset(0x00)
    2439                      .dwattr $C$DW$133, DW_AT_bit_size(0x06)
    2440                      .dwattr $C$DW$133, DW_AT_data_member_location[DW_OP_plus_uconst 0x0]
    2441                      .dwattr $C$DW$133, DW_AT_accessibility(DW_ACCESS_public)
    2442              
    2443                      .dwendtag $C$DW$T$40
    2444              
TMS320C2000 Assembler PC v18.12.4 Sat Jul 18 15:28:09 2020

Copyright (c) 1996-2018 Texas Instruments Incorporated
F2837xD_sdfm_drivers.asm                                             PAGE   50

    2445              
    2446              $C$DW$T$41      .dwtag  DW_TAG_union_type
    2447                      .dwattr $C$DW$T$41, DW_AT_name("SDCPARM3_REG")
    2448                      .dwattr $C$DW$T$41, DW_AT_byte_size(0x01)
    2449              $C$DW$134       .dwtag  DW_TAG_member
    2450                      .dwattr $C$DW$134, DW_AT_type(*$C$DW$T$19)
    2451                      .dwattr $C$DW$134, DW_AT_name("all")
    2452                      .dwattr $C$DW$134, DW_AT_TI_symbol_name("_all")
    2453                      .dwattr $C$DW$134, DW_AT_data_member_location[DW_OP_plus_uconst 0x0]
    2454                      .dwattr $C$DW$134, DW_AT_accessibility(DW_ACCESS_public)
    2455              
    2456              $C$DW$135       .dwtag  DW_TAG_member
    2457                      .dwattr $C$DW$135, DW_AT_type(*$C$DW$T$40)
    2458                      .dwattr $C$DW$135, DW_AT_name("bit")
    2459                      .dwattr $C$DW$135, DW_AT_TI_symbol_name("_bit")
    2460                      .dwattr $C$DW$135, DW_AT_data_member_location[DW_OP_plus_uconst 0x0]
    2461                      .dwattr $C$DW$135, DW_AT_accessibility(DW_ACCESS_public)
    2462              
    2463                      .dwendtag $C$DW$T$41
    2464              
    2465              
    2466              $C$DW$T$42      .dwtag  DW_TAG_structure_type
    2467                      .dwattr $C$DW$T$42, DW_AT_name("SDCPARM4_BITS")
    2468                      .dwattr $C$DW$T$42, DW_AT_byte_size(0x01)
    2469              $C$DW$136       .dwtag  DW_TAG_member
    2470                      .dwattr $C$DW$136, DW_AT_type(*$C$DW$T$19)
    2471                      .dwattr $C$DW$136, DW_AT_name("COSR")
    2472                      .dwattr $C$DW$136, DW_AT_TI_symbol_name("_COSR")
    2473                      .dwattr $C$DW$136, DW_AT_bit_offset(0x0b)
    2474                      .dwattr $C$DW$136, DW_AT_bit_size(0x05)
    2475                      .dwattr $C$DW$136, DW_AT_data_member_location[DW_OP_plus_uconst 0x0]
    2476                      .dwattr $C$DW$136, DW_AT_accessibility(DW_ACCESS_public)
    2477              
    2478              $C$DW$137       .dwtag  DW_TAG_member
    2479                      .dwattr $C$DW$137, DW_AT_type(*$C$DW$T$19)
    2480                      .dwattr $C$DW$137, DW_AT_name("IEH")
    2481                      .dwattr $C$DW$137, DW_AT_TI_symbol_name("_IEH")
    2482                      .dwattr $C$DW$137, DW_AT_bit_offset(0x0a)
    2483                      .dwattr $C$DW$137, DW_AT_bit_size(0x01)
    2484                      .dwattr $C$DW$137, DW_AT_data_member_location[DW_OP_plus_uconst 0x0]
    2485                      .dwattr $C$DW$137, DW_AT_accessibility(DW_ACCESS_public)
    2486              
    2487              $C$DW$138       .dwtag  DW_TAG_member
    2488                      .dwattr $C$DW$138, DW_AT_type(*$C$DW$T$19)
    2489                      .dwattr $C$DW$138, DW_AT_name("IEL")
    2490                      .dwattr $C$DW$138, DW_AT_TI_symbol_name("_IEL")
    2491                      .dwattr $C$DW$138, DW_AT_bit_offset(0x09)
    2492                      .dwattr $C$DW$138, DW_AT_bit_size(0x01)
    2493                      .dwattr $C$DW$138, DW_AT_data_member_location[DW_OP_plus_uconst 0x0]
    2494                      .dwattr $C$DW$138, DW_AT_accessibility(DW_ACCESS_public)
    2495              
    2496              $C$DW$139       .dwtag  DW_TAG_member
    2497                      .dwattr $C$DW$139, DW_AT_type(*$C$DW$T$19)
    2498                      .dwattr $C$DW$139, DW_AT_name("CS1_CS0")
    2499                      .dwattr $C$DW$139, DW_AT_TI_symbol_name("_CS1_CS0")
TMS320C2000 Assembler PC v18.12.4 Sat Jul 18 15:28:09 2020

Copyright (c) 1996-2018 Texas Instruments Incorporated
F2837xD_sdfm_drivers.asm                                             PAGE   51

    2500                      .dwattr $C$DW$139, DW_AT_bit_offset(0x07)
    2501                      .dwattr $C$DW$139, DW_AT_bit_size(0x02)
    2502                      .dwattr $C$DW$139, DW_AT_data_member_location[DW_OP_plus_uconst 0x0]
    2503                      .dwattr $C$DW$139, DW_AT_accessibility(DW_ACCESS_public)
    2504              
    2505              $C$DW$140       .dwtag  DW_TAG_member
    2506                      .dwattr $C$DW$140, DW_AT_type(*$C$DW$T$19)
    2507                      .dwattr $C$DW$140, DW_AT_name("MFIE")
    2508                      .dwattr $C$DW$140, DW_AT_TI_symbol_name("_MFIE")
    2509                      .dwattr $C$DW$140, DW_AT_bit_offset(0x06)
    2510                      .dwattr $C$DW$140, DW_AT_bit_size(0x01)
    2511                      .dwattr $C$DW$140, DW_AT_data_member_location[DW_OP_plus_uconst 0x0]
    2512                      .dwattr $C$DW$140, DW_AT_accessibility(DW_ACCESS_public)
    2513              
    2514              $C$DW$141       .dwtag  DW_TAG_member
    2515                      .dwattr $C$DW$141, DW_AT_type(*$C$DW$T$19)
    2516                      .dwattr $C$DW$141, DW_AT_name("rsvd1")
    2517                      .dwattr $C$DW$141, DW_AT_TI_symbol_name("_rsvd1")
    2518                      .dwattr $C$DW$141, DW_AT_bit_offset(0x00)
    2519                      .dwattr $C$DW$141, DW_AT_bit_size(0x06)
    2520                      .dwattr $C$DW$141, DW_AT_data_member_location[DW_OP_plus_uconst 0x0]
    2521                      .dwattr $C$DW$141, DW_AT_accessibility(DW_ACCESS_public)
    2522              
    2523                      .dwendtag $C$DW$T$42
    2524              
    2525              
    2526              $C$DW$T$43      .dwtag  DW_TAG_union_type
    2527                      .dwattr $C$DW$T$43, DW_AT_name("SDCPARM4_REG")
    2528                      .dwattr $C$DW$T$43, DW_AT_byte_size(0x01)
    2529              $C$DW$142       .dwtag  DW_TAG_member
    2530                      .dwattr $C$DW$142, DW_AT_type(*$C$DW$T$19)
    2531                      .dwattr $C$DW$142, DW_AT_name("all")
    2532                      .dwattr $C$DW$142, DW_AT_TI_symbol_name("_all")
    2533                      .dwattr $C$DW$142, DW_AT_data_member_location[DW_OP_plus_uconst 0x0]
    2534                      .dwattr $C$DW$142, DW_AT_accessibility(DW_ACCESS_public)
    2535              
    2536              $C$DW$143       .dwtag  DW_TAG_member
    2537                      .dwattr $C$DW$143, DW_AT_type(*$C$DW$T$42)
    2538                      .dwattr $C$DW$143, DW_AT_name("bit")
    2539                      .dwattr $C$DW$143, DW_AT_TI_symbol_name("_bit")
    2540                      .dwattr $C$DW$143, DW_AT_data_member_location[DW_OP_plus_uconst 0x0]
    2541                      .dwattr $C$DW$143, DW_AT_accessibility(DW_ACCESS_public)
    2542              
    2543                      .dwendtag $C$DW$T$43
    2544              
    2545              
    2546              $C$DW$T$44      .dwtag  DW_TAG_structure_type
    2547                      .dwattr $C$DW$T$44, DW_AT_name("SDCTLPARM1_BITS")
    2548                      .dwattr $C$DW$T$44, DW_AT_byte_size(0x01)
    2549              $C$DW$144       .dwtag  DW_TAG_member
    2550                      .dwattr $C$DW$144, DW_AT_type(*$C$DW$T$19)
    2551                      .dwattr $C$DW$144, DW_AT_name("MOD")
    2552                      .dwattr $C$DW$144, DW_AT_TI_symbol_name("_MOD")
    2553                      .dwattr $C$DW$144, DW_AT_bit_offset(0x0e)
    2554                      .dwattr $C$DW$144, DW_AT_bit_size(0x02)
TMS320C2000 Assembler PC v18.12.4 Sat Jul 18 15:28:09 2020

Copyright (c) 1996-2018 Texas Instruments Incorporated
F2837xD_sdfm_drivers.asm                                             PAGE   52

    2555                      .dwattr $C$DW$144, DW_AT_data_member_location[DW_OP_plus_uconst 0x0]
    2556                      .dwattr $C$DW$144, DW_AT_accessibility(DW_ACCESS_public)
    2557              
    2558              $C$DW$145       .dwtag  DW_TAG_member
    2559                      .dwattr $C$DW$145, DW_AT_type(*$C$DW$T$19)
    2560                      .dwattr $C$DW$145, DW_AT_name("rsvd1")
    2561                      .dwattr $C$DW$145, DW_AT_TI_symbol_name("_rsvd1")
    2562                      .dwattr $C$DW$145, DW_AT_bit_offset(0x0d)
    2563                      .dwattr $C$DW$145, DW_AT_bit_size(0x01)
    2564                      .dwattr $C$DW$145, DW_AT_data_member_location[DW_OP_plus_uconst 0x0]
    2565                      .dwattr $C$DW$145, DW_AT_accessibility(DW_ACCESS_public)
    2566              
    2567              $C$DW$146       .dwtag  DW_TAG_member
    2568                      .dwattr $C$DW$146, DW_AT_type(*$C$DW$T$19)
    2569                      .dwattr $C$DW$146, DW_AT_name("rsvd2")
    2570                      .dwattr $C$DW$146, DW_AT_TI_symbol_name("_rsvd2")
    2571                      .dwattr $C$DW$146, DW_AT_bit_offset(0x0c)
    2572                      .dwattr $C$DW$146, DW_AT_bit_size(0x01)
    2573                      .dwattr $C$DW$146, DW_AT_data_member_location[DW_OP_plus_uconst 0x0]
    2574                      .dwattr $C$DW$146, DW_AT_accessibility(DW_ACCESS_public)
    2575              
    2576              $C$DW$147       .dwtag  DW_TAG_member
    2577                      .dwattr $C$DW$147, DW_AT_type(*$C$DW$T$19)
    2578                      .dwattr $C$DW$147, DW_AT_name("rsvd3")
    2579                      .dwattr $C$DW$147, DW_AT_TI_symbol_name("_rsvd3")
    2580                      .dwattr $C$DW$147, DW_AT_bit_offset(0x0b)
    2581                      .dwattr $C$DW$147, DW_AT_bit_size(0x01)
    2582                      .dwattr $C$DW$147, DW_AT_data_member_location[DW_OP_plus_uconst 0x0]
    2583                      .dwattr $C$DW$147, DW_AT_accessibility(DW_ACCESS_public)
    2584              
    2585              $C$DW$148       .dwtag  DW_TAG_member
    2586                      .dwattr $C$DW$148, DW_AT_type(*$C$DW$T$19)
    2587                      .dwattr $C$DW$148, DW_AT_name("rsvd4")
    2588                      .dwattr $C$DW$148, DW_AT_TI_symbol_name("_rsvd4")
    2589                      .dwattr $C$DW$148, DW_AT_bit_offset(0x00)
    2590                      .dwattr $C$DW$148, DW_AT_bit_size(0x0b)
    2591                      .dwattr $C$DW$148, DW_AT_data_member_location[DW_OP_plus_uconst 0x0]
    2592                      .dwattr $C$DW$148, DW_AT_accessibility(DW_ACCESS_public)
    2593              
    2594                      .dwendtag $C$DW$T$44
    2595              
    2596              
    2597              $C$DW$T$45      .dwtag  DW_TAG_union_type
    2598                      .dwattr $C$DW$T$45, DW_AT_name("SDCTLPARM1_REG")
    2599                      .dwattr $C$DW$T$45, DW_AT_byte_size(0x01)
    2600              $C$DW$149       .dwtag  DW_TAG_member
    2601                      .dwattr $C$DW$149, DW_AT_type(*$C$DW$T$19)
    2602                      .dwattr $C$DW$149, DW_AT_name("all")
    2603                      .dwattr $C$DW$149, DW_AT_TI_symbol_name("_all")
    2604                      .dwattr $C$DW$149, DW_AT_data_member_location[DW_OP_plus_uconst 0x0]
    2605                      .dwattr $C$DW$149, DW_AT_accessibility(DW_ACCESS_public)
    2606              
    2607              $C$DW$150       .dwtag  DW_TAG_member
    2608                      .dwattr $C$DW$150, DW_AT_type(*$C$DW$T$44)
    2609                      .dwattr $C$DW$150, DW_AT_name("bit")
TMS320C2000 Assembler PC v18.12.4 Sat Jul 18 15:28:09 2020

Copyright (c) 1996-2018 Texas Instruments Incorporated
F2837xD_sdfm_drivers.asm                                             PAGE   53

    2610                      .dwattr $C$DW$150, DW_AT_TI_symbol_name("_bit")
    2611                      .dwattr $C$DW$150, DW_AT_data_member_location[DW_OP_plus_uconst 0x0]
    2612                      .dwattr $C$DW$150, DW_AT_accessibility(DW_ACCESS_public)
    2613              
    2614                      .dwendtag $C$DW$T$45
    2615              
    2616              
    2617              $C$DW$T$46      .dwtag  DW_TAG_structure_type
    2618                      .dwattr $C$DW$T$46, DW_AT_name("SDCTLPARM2_BITS")
    2619                      .dwattr $C$DW$T$46, DW_AT_byte_size(0x01)
    2620              $C$DW$151       .dwtag  DW_TAG_member
    2621                      .dwattr $C$DW$151, DW_AT_type(*$C$DW$T$19)
    2622                      .dwattr $C$DW$151, DW_AT_name("MOD")
    2623                      .dwattr $C$DW$151, DW_AT_TI_symbol_name("_MOD")
    2624                      .dwattr $C$DW$151, DW_AT_bit_offset(0x0e)
    2625                      .dwattr $C$DW$151, DW_AT_bit_size(0x02)
    2626                      .dwattr $C$DW$151, DW_AT_data_member_location[DW_OP_plus_uconst 0x0]
    2627                      .dwattr $C$DW$151, DW_AT_accessibility(DW_ACCESS_public)
    2628              
    2629              $C$DW$152       .dwtag  DW_TAG_member
    2630                      .dwattr $C$DW$152, DW_AT_type(*$C$DW$T$19)
    2631                      .dwattr $C$DW$152, DW_AT_name("rsvd1")
    2632                      .dwattr $C$DW$152, DW_AT_TI_symbol_name("_rsvd1")
    2633                      .dwattr $C$DW$152, DW_AT_bit_offset(0x0d)
    2634                      .dwattr $C$DW$152, DW_AT_bit_size(0x01)
    2635                      .dwattr $C$DW$152, DW_AT_data_member_location[DW_OP_plus_uconst 0x0]
    2636                      .dwattr $C$DW$152, DW_AT_accessibility(DW_ACCESS_public)
    2637              
    2638              $C$DW$153       .dwtag  DW_TAG_member
    2639                      .dwattr $C$DW$153, DW_AT_type(*$C$DW$T$19)
    2640                      .dwattr $C$DW$153, DW_AT_name("rsvd2")
    2641                      .dwattr $C$DW$153, DW_AT_TI_symbol_name("_rsvd2")
    2642                      .dwattr $C$DW$153, DW_AT_bit_offset(0x0c)
    2643                      .dwattr $C$DW$153, DW_AT_bit_size(0x01)
    2644                      .dwattr $C$DW$153, DW_AT_data_member_location[DW_OP_plus_uconst 0x0]
    2645                      .dwattr $C$DW$153, DW_AT_accessibility(DW_ACCESS_public)
    2646              
    2647              $C$DW$154       .dwtag  DW_TAG_member
    2648                      .dwattr $C$DW$154, DW_AT_type(*$C$DW$T$19)
    2649                      .dwattr $C$DW$154, DW_AT_name("rsvd3")
    2650                      .dwattr $C$DW$154, DW_AT_TI_symbol_name("_rsvd3")
    2651                      .dwattr $C$DW$154, DW_AT_bit_offset(0x0b)
    2652                      .dwattr $C$DW$154, DW_AT_bit_size(0x01)
    2653                      .dwattr $C$DW$154, DW_AT_data_member_location[DW_OP_plus_uconst 0x0]
    2654                      .dwattr $C$DW$154, DW_AT_accessibility(DW_ACCESS_public)
    2655              
    2656              $C$DW$155       .dwtag  DW_TAG_member
    2657                      .dwattr $C$DW$155, DW_AT_type(*$C$DW$T$19)
    2658                      .dwattr $C$DW$155, DW_AT_name("MS")
    2659                      .dwattr $C$DW$155, DW_AT_TI_symbol_name("_MS")
    2660                      .dwattr $C$DW$155, DW_AT_bit_offset(0x00)
    2661                      .dwattr $C$DW$155, DW_AT_bit_size(0x0b)
    2662                      .dwattr $C$DW$155, DW_AT_data_member_location[DW_OP_plus_uconst 0x0]
    2663                      .dwattr $C$DW$155, DW_AT_accessibility(DW_ACCESS_public)
    2664              
TMS320C2000 Assembler PC v18.12.4 Sat Jul 18 15:28:09 2020

Copyright (c) 1996-2018 Texas Instruments Incorporated
F2837xD_sdfm_drivers.asm                                             PAGE   54

    2665                      .dwendtag $C$DW$T$46
    2666              
    2667              
    2668              $C$DW$T$47      .dwtag  DW_TAG_union_type
    2669                      .dwattr $C$DW$T$47, DW_AT_name("SDCTLPARM2_REG")
    2670                      .dwattr $C$DW$T$47, DW_AT_byte_size(0x01)
    2671              $C$DW$156       .dwtag  DW_TAG_member
    2672                      .dwattr $C$DW$156, DW_AT_type(*$C$DW$T$19)
    2673                      .dwattr $C$DW$156, DW_AT_name("all")
    2674                      .dwattr $C$DW$156, DW_AT_TI_symbol_name("_all")
    2675                      .dwattr $C$DW$156, DW_AT_data_member_location[DW_OP_plus_uconst 0x0]
    2676                      .dwattr $C$DW$156, DW_AT_accessibility(DW_ACCESS_public)
    2677              
    2678              $C$DW$157       .dwtag  DW_TAG_member
    2679                      .dwattr $C$DW$157, DW_AT_type(*$C$DW$T$46)
    2680                      .dwattr $C$DW$157, DW_AT_name("bit")
    2681                      .dwattr $C$DW$157, DW_AT_TI_symbol_name("_bit")
    2682                      .dwattr $C$DW$157, DW_AT_data_member_location[DW_OP_plus_uconst 0x0]
    2683                      .dwattr $C$DW$157, DW_AT_accessibility(DW_ACCESS_public)
    2684              
    2685                      .dwendtag $C$DW$T$47
    2686              
    2687              
    2688              $C$DW$T$48      .dwtag  DW_TAG_structure_type
    2689                      .dwattr $C$DW$T$48, DW_AT_name("SDCTLPARM3_BITS")
    2690                      .dwattr $C$DW$T$48, DW_AT_byte_size(0x01)
    2691              $C$DW$158       .dwtag  DW_TAG_member
    2692                      .dwattr $C$DW$158, DW_AT_type(*$C$DW$T$19)
    2693                      .dwattr $C$DW$158, DW_AT_name("MOD")
    2694                      .dwattr $C$DW$158, DW_AT_TI_symbol_name("_MOD")
    2695                      .dwattr $C$DW$158, DW_AT_bit_offset(0x0e)
    2696                      .dwattr $C$DW$158, DW_AT_bit_size(0x02)
    2697                      .dwattr $C$DW$158, DW_AT_data_member_location[DW_OP_plus_uconst 0x0]
    2698                      .dwattr $C$DW$158, DW_AT_accessibility(DW_ACCESS_public)
    2699              
    2700              $C$DW$159       .dwtag  DW_TAG_member
    2701                      .dwattr $C$DW$159, DW_AT_type(*$C$DW$T$19)
    2702                      .dwattr $C$DW$159, DW_AT_name("rsvd1")
    2703                      .dwattr $C$DW$159, DW_AT_TI_symbol_name("_rsvd1")
    2704                      .dwattr $C$DW$159, DW_AT_bit_offset(0x0d)
    2705                      .dwattr $C$DW$159, DW_AT_bit_size(0x01)
    2706                      .dwattr $C$DW$159, DW_AT_data_member_location[DW_OP_plus_uconst 0x0]
    2707                      .dwattr $C$DW$159, DW_AT_accessibility(DW_ACCESS_public)
    2708              
    2709              $C$DW$160       .dwtag  DW_TAG_member
    2710                      .dwattr $C$DW$160, DW_AT_type(*$C$DW$T$19)
    2711                      .dwattr $C$DW$160, DW_AT_name("rsvd2")
    2712                      .dwattr $C$DW$160, DW_AT_TI_symbol_name("_rsvd2")
    2713                      .dwattr $C$DW$160, DW_AT_bit_offset(0x0c)
    2714                      .dwattr $C$DW$160, DW_AT_bit_size(0x01)
    2715                      .dwattr $C$DW$160, DW_AT_data_member_location[DW_OP_plus_uconst 0x0]
    2716                      .dwattr $C$DW$160, DW_AT_accessibility(DW_ACCESS_public)
    2717              
    2718              $C$DW$161       .dwtag  DW_TAG_member
    2719                      .dwattr $C$DW$161, DW_AT_type(*$C$DW$T$19)
TMS320C2000 Assembler PC v18.12.4 Sat Jul 18 15:28:09 2020

Copyright (c) 1996-2018 Texas Instruments Incorporated
F2837xD_sdfm_drivers.asm                                             PAGE   55

    2720                      .dwattr $C$DW$161, DW_AT_name("rsvd3")
    2721                      .dwattr $C$DW$161, DW_AT_TI_symbol_name("_rsvd3")
    2722                      .dwattr $C$DW$161, DW_AT_bit_offset(0x0b)
    2723                      .dwattr $C$DW$161, DW_AT_bit_size(0x01)
    2724                      .dwattr $C$DW$161, DW_AT_data_member_location[DW_OP_plus_uconst 0x0]
    2725                      .dwattr $C$DW$161, DW_AT_accessibility(DW_ACCESS_public)
    2726              
    2727              $C$DW$162       .dwtag  DW_TAG_member
    2728                      .dwattr $C$DW$162, DW_AT_type(*$C$DW$T$19)
    2729                      .dwattr $C$DW$162, DW_AT_name("MS")
    2730                      .dwattr $C$DW$162, DW_AT_TI_symbol_name("_MS")
    2731                      .dwattr $C$DW$162, DW_AT_bit_offset(0x00)
    2732                      .dwattr $C$DW$162, DW_AT_bit_size(0x0b)
    2733                      .dwattr $C$DW$162, DW_AT_data_member_location[DW_OP_plus_uconst 0x0]
    2734                      .dwattr $C$DW$162, DW_AT_accessibility(DW_ACCESS_public)
    2735              
    2736                      .dwendtag $C$DW$T$48
    2737              
    2738              
    2739              $C$DW$T$49      .dwtag  DW_TAG_union_type
    2740                      .dwattr $C$DW$T$49, DW_AT_name("SDCTLPARM3_REG")
    2741                      .dwattr $C$DW$T$49, DW_AT_byte_size(0x01)
    2742              $C$DW$163       .dwtag  DW_TAG_member
    2743                      .dwattr $C$DW$163, DW_AT_type(*$C$DW$T$19)
    2744                      .dwattr $C$DW$163, DW_AT_name("all")
    2745                      .dwattr $C$DW$163, DW_AT_TI_symbol_name("_all")
    2746                      .dwattr $C$DW$163, DW_AT_data_member_location[DW_OP_plus_uconst 0x0]
    2747                      .dwattr $C$DW$163, DW_AT_accessibility(DW_ACCESS_public)
    2748              
    2749              $C$DW$164       .dwtag  DW_TAG_member
    2750                      .dwattr $C$DW$164, DW_AT_type(*$C$DW$T$48)
    2751                      .dwattr $C$DW$164, DW_AT_name("bit")
    2752                      .dwattr $C$DW$164, DW_AT_TI_symbol_name("_bit")
    2753                      .dwattr $C$DW$164, DW_AT_data_member_location[DW_OP_plus_uconst 0x0]
    2754                      .dwattr $C$DW$164, DW_AT_accessibility(DW_ACCESS_public)
    2755              
    2756                      .dwendtag $C$DW$T$49
    2757              
    2758              
    2759              $C$DW$T$50      .dwtag  DW_TAG_structure_type
    2760                      .dwattr $C$DW$T$50, DW_AT_name("SDCTLPARM4_BITS")
    2761                      .dwattr $C$DW$T$50, DW_AT_byte_size(0x01)
    2762              $C$DW$165       .dwtag  DW_TAG_member
    2763                      .dwattr $C$DW$165, DW_AT_type(*$C$DW$T$19)
    2764                      .dwattr $C$DW$165, DW_AT_name("MOD")
    2765                      .dwattr $C$DW$165, DW_AT_TI_symbol_name("_MOD")
    2766                      .dwattr $C$DW$165, DW_AT_bit_offset(0x0e)
    2767                      .dwattr $C$DW$165, DW_AT_bit_size(0x02)
    2768                      .dwattr $C$DW$165, DW_AT_data_member_location[DW_OP_plus_uconst 0x0]
    2769                      .dwattr $C$DW$165, DW_AT_accessibility(DW_ACCESS_public)
    2770              
    2771              $C$DW$166       .dwtag  DW_TAG_member
    2772                      .dwattr $C$DW$166, DW_AT_type(*$C$DW$T$19)
    2773                      .dwattr $C$DW$166, DW_AT_name("rsvd1")
    2774                      .dwattr $C$DW$166, DW_AT_TI_symbol_name("_rsvd1")
TMS320C2000 Assembler PC v18.12.4 Sat Jul 18 15:28:09 2020

Copyright (c) 1996-2018 Texas Instruments Incorporated
F2837xD_sdfm_drivers.asm                                             PAGE   56

    2775                      .dwattr $C$DW$166, DW_AT_bit_offset(0x0d)
    2776                      .dwattr $C$DW$166, DW_AT_bit_size(0x01)
    2777                      .dwattr $C$DW$166, DW_AT_data_member_location[DW_OP_plus_uconst 0x0]
    2778                      .dwattr $C$DW$166, DW_AT_accessibility(DW_ACCESS_public)
    2779              
    2780              $C$DW$167       .dwtag  DW_TAG_member
    2781                      .dwattr $C$DW$167, DW_AT_type(*$C$DW$T$19)
    2782                      .dwattr $C$DW$167, DW_AT_name("rsvd2")
    2783                      .dwattr $C$DW$167, DW_AT_TI_symbol_name("_rsvd2")
    2784                      .dwattr $C$DW$167, DW_AT_bit_offset(0x0c)
    2785                      .dwattr $C$DW$167, DW_AT_bit_size(0x01)
    2786                      .dwattr $C$DW$167, DW_AT_data_member_location[DW_OP_plus_uconst 0x0]
    2787                      .dwattr $C$DW$167, DW_AT_accessibility(DW_ACCESS_public)
    2788              
    2789              $C$DW$168       .dwtag  DW_TAG_member
    2790                      .dwattr $C$DW$168, DW_AT_type(*$C$DW$T$19)
    2791                      .dwattr $C$DW$168, DW_AT_name("rsvd3")
    2792                      .dwattr $C$DW$168, DW_AT_TI_symbol_name("_rsvd3")
    2793                      .dwattr $C$DW$168, DW_AT_bit_offset(0x0b)
    2794                      .dwattr $C$DW$168, DW_AT_bit_size(0x01)
    2795                      .dwattr $C$DW$168, DW_AT_data_member_location[DW_OP_plus_uconst 0x0]
    2796                      .dwattr $C$DW$168, DW_AT_accessibility(DW_ACCESS_public)
    2797              
    2798              $C$DW$169       .dwtag  DW_TAG_member
    2799                      .dwattr $C$DW$169, DW_AT_type(*$C$DW$T$19)
    2800                      .dwattr $C$DW$169, DW_AT_name("MS")
    2801                      .dwattr $C$DW$169, DW_AT_TI_symbol_name("_MS")
    2802                      .dwattr $C$DW$169, DW_AT_bit_offset(0x00)
    2803                      .dwattr $C$DW$169, DW_AT_bit_size(0x0b)
    2804                      .dwattr $C$DW$169, DW_AT_data_member_location[DW_OP_plus_uconst 0x0]
    2805                      .dwattr $C$DW$169, DW_AT_accessibility(DW_ACCESS_public)
    2806              
    2807                      .dwendtag $C$DW$T$50
    2808              
    2809              
    2810              $C$DW$T$51      .dwtag  DW_TAG_union_type
    2811                      .dwattr $C$DW$T$51, DW_AT_name("SDCTLPARM4_REG")
    2812                      .dwattr $C$DW$T$51, DW_AT_byte_size(0x01)
    2813              $C$DW$170       .dwtag  DW_TAG_member
    2814                      .dwattr $C$DW$170, DW_AT_type(*$C$DW$T$19)
    2815                      .dwattr $C$DW$170, DW_AT_name("all")
    2816                      .dwattr $C$DW$170, DW_AT_TI_symbol_name("_all")
    2817                      .dwattr $C$DW$170, DW_AT_data_member_location[DW_OP_plus_uconst 0x0]
    2818                      .dwattr $C$DW$170, DW_AT_accessibility(DW_ACCESS_public)
    2819              
    2820              $C$DW$171       .dwtag  DW_TAG_member
    2821                      .dwattr $C$DW$171, DW_AT_type(*$C$DW$T$50)
    2822                      .dwattr $C$DW$171, DW_AT_name("bit")
    2823                      .dwattr $C$DW$171, DW_AT_TI_symbol_name("_bit")
    2824                      .dwattr $C$DW$171, DW_AT_data_member_location[DW_OP_plus_uconst 0x0]
    2825                      .dwattr $C$DW$171, DW_AT_accessibility(DW_ACCESS_public)
    2826              
    2827                      .dwendtag $C$DW$T$51
    2828              
    2829              
TMS320C2000 Assembler PC v18.12.4 Sat Jul 18 15:28:09 2020

Copyright (c) 1996-2018 Texas Instruments Incorporated
F2837xD_sdfm_drivers.asm                                             PAGE   57

    2830              $C$DW$T$52      .dwtag  DW_TAG_structure_type
    2831                      .dwattr $C$DW$T$52, DW_AT_name("SDCTL_BITS")
    2832                      .dwattr $C$DW$T$52, DW_AT_byte_size(0x01)
    2833              $C$DW$172       .dwtag  DW_TAG_member
    2834                      .dwattr $C$DW$172, DW_AT_type(*$C$DW$T$19)
    2835                      .dwattr $C$DW$172, DW_AT_name("rsvd1")
    2836                      .dwattr $C$DW$172, DW_AT_TI_symbol_name("_rsvd1")
    2837                      .dwattr $C$DW$172, DW_AT_bit_offset(0x03)
    2838                      .dwattr $C$DW$172, DW_AT_bit_size(0x0d)
    2839                      .dwattr $C$DW$172, DW_AT_data_member_location[DW_OP_plus_uconst 0x0]
    2840                      .dwattr $C$DW$172, DW_AT_accessibility(DW_ACCESS_public)
    2841              
    2842              $C$DW$173       .dwtag  DW_TAG_member
    2843                      .dwattr $C$DW$173, DW_AT_type(*$C$DW$T$19)
    2844                      .dwattr $C$DW$173, DW_AT_name("MIE")
    2845                      .dwattr $C$DW$173, DW_AT_TI_symbol_name("_MIE")
    2846                      .dwattr $C$DW$173, DW_AT_bit_offset(0x02)
    2847                      .dwattr $C$DW$173, DW_AT_bit_size(0x01)
    2848                      .dwattr $C$DW$173, DW_AT_data_member_location[DW_OP_plus_uconst 0x0]
    2849                      .dwattr $C$DW$173, DW_AT_accessibility(DW_ACCESS_public)
    2850              
    2851              $C$DW$174       .dwtag  DW_TAG_member
    2852                      .dwattr $C$DW$174, DW_AT_type(*$C$DW$T$19)
    2853                      .dwattr $C$DW$174, DW_AT_name("rsvd2")
    2854                      .dwattr $C$DW$174, DW_AT_TI_symbol_name("_rsvd2")
    2855                      .dwattr $C$DW$174, DW_AT_bit_offset(0x01)
    2856                      .dwattr $C$DW$174, DW_AT_bit_size(0x01)
    2857                      .dwattr $C$DW$174, DW_AT_data_member_location[DW_OP_plus_uconst 0x0]
    2858                      .dwattr $C$DW$174, DW_AT_accessibility(DW_ACCESS_public)
    2859              
    2860              $C$DW$175       .dwtag  DW_TAG_member
    2861                      .dwattr $C$DW$175, DW_AT_type(*$C$DW$T$19)
    2862                      .dwattr $C$DW$175, DW_AT_name("rsvd3")
    2863                      .dwattr $C$DW$175, DW_AT_TI_symbol_name("_rsvd3")
    2864                      .dwattr $C$DW$175, DW_AT_bit_offset(0x00)
    2865                      .dwattr $C$DW$175, DW_AT_bit_size(0x01)
    2866                      .dwattr $C$DW$175, DW_AT_data_member_location[DW_OP_plus_uconst 0x0]
    2867                      .dwattr $C$DW$175, DW_AT_accessibility(DW_ACCESS_public)
    2868              
    2869                      .dwendtag $C$DW$T$52
    2870              
    2871              
    2872              $C$DW$T$53      .dwtag  DW_TAG_union_type
    2873                      .dwattr $C$DW$T$53, DW_AT_name("SDCTL_REG")
    2874                      .dwattr $C$DW$T$53, DW_AT_byte_size(0x01)
    2875              $C$DW$176       .dwtag  DW_TAG_member
    2876                      .dwattr $C$DW$176, DW_AT_type(*$C$DW$T$19)
    2877                      .dwattr $C$DW$176, DW_AT_name("all")
    2878                      .dwattr $C$DW$176, DW_AT_TI_symbol_name("_all")
    2879                      .dwattr $C$DW$176, DW_AT_data_member_location[DW_OP_plus_uconst 0x0]
    2880                      .dwattr $C$DW$176, DW_AT_accessibility(DW_ACCESS_public)
    2881              
    2882              $C$DW$177       .dwtag  DW_TAG_member
    2883                      .dwattr $C$DW$177, DW_AT_type(*$C$DW$T$52)
    2884                      .dwattr $C$DW$177, DW_AT_name("bit")
TMS320C2000 Assembler PC v18.12.4 Sat Jul 18 15:28:09 2020

Copyright (c) 1996-2018 Texas Instruments Incorporated
F2837xD_sdfm_drivers.asm                                             PAGE   58

    2885                      .dwattr $C$DW$177, DW_AT_TI_symbol_name("_bit")
    2886                      .dwattr $C$DW$177, DW_AT_data_member_location[DW_OP_plus_uconst 0x0]
    2887                      .dwattr $C$DW$177, DW_AT_accessibility(DW_ACCESS_public)
    2888              
    2889                      .dwendtag $C$DW$T$53
    2890              
    2891              
    2892              $C$DW$T$54      .dwtag  DW_TAG_structure_type
    2893                      .dwattr $C$DW$T$54, DW_AT_name("SDDATA1_BITS")
    2894                      .dwattr $C$DW$T$54, DW_AT_byte_size(0x02)
    2895              $C$DW$178       .dwtag  DW_TAG_member
    2896                      .dwattr $C$DW$178, DW_AT_type(*$C$DW$T$19)
    2897                      .dwattr $C$DW$178, DW_AT_name("DATA16")
    2898                      .dwattr $C$DW$178, DW_AT_TI_symbol_name("_DATA16")
    2899                      .dwattr $C$DW$178, DW_AT_bit_offset(0x00)
    2900                      .dwattr $C$DW$178, DW_AT_bit_size(0x10)
    2901                      .dwattr $C$DW$178, DW_AT_data_member_location[DW_OP_plus_uconst 0x0]
    2902                      .dwattr $C$DW$178, DW_AT_accessibility(DW_ACCESS_public)
    2903              
    2904              $C$DW$179       .dwtag  DW_TAG_member
    2905                      .dwattr $C$DW$179, DW_AT_type(*$C$DW$T$19)
    2906                      .dwattr $C$DW$179, DW_AT_name("DATA32HI")
    2907                      .dwattr $C$DW$179, DW_AT_TI_symbol_name("_DATA32HI")
    2908                      .dwattr $C$DW$179, DW_AT_bit_offset(0x00)
    2909                      .dwattr $C$DW$179, DW_AT_bit_size(0x10)
    2910                      .dwattr $C$DW$179, DW_AT_data_member_location[DW_OP_plus_uconst 0x1]
    2911                      .dwattr $C$DW$179, DW_AT_accessibility(DW_ACCESS_public)
    2912              
    2913                      .dwendtag $C$DW$T$54
    2914              
    2915              
    2916              $C$DW$T$56      .dwtag  DW_TAG_union_type
    2917                      .dwattr $C$DW$T$56, DW_AT_name("SDDATA1_REG")
    2918                      .dwattr $C$DW$T$56, DW_AT_byte_size(0x02)
    2919              $C$DW$180       .dwtag  DW_TAG_member
    2920                      .dwattr $C$DW$180, DW_AT_type(*$C$DW$T$55)
    2921                      .dwattr $C$DW$180, DW_AT_name("all")
    2922                      .dwattr $C$DW$180, DW_AT_TI_symbol_name("_all")
    2923                      .dwattr $C$DW$180, DW_AT_data_member_location[DW_OP_plus_uconst 0x0]
    2924                      .dwattr $C$DW$180, DW_AT_accessibility(DW_ACCESS_public)
    2925              
    2926              $C$DW$181       .dwtag  DW_TAG_member
    2927                      .dwattr $C$DW$181, DW_AT_type(*$C$DW$T$54)
    2928                      .dwattr $C$DW$181, DW_AT_name("bit")
    2929                      .dwattr $C$DW$181, DW_AT_TI_symbol_name("_bit")
    2930                      .dwattr $C$DW$181, DW_AT_data_member_location[DW_OP_plus_uconst 0x0]
    2931                      .dwattr $C$DW$181, DW_AT_accessibility(DW_ACCESS_public)
    2932              
    2933                      .dwendtag $C$DW$T$56
    2934              
    2935              
    2936              $C$DW$T$57      .dwtag  DW_TAG_structure_type
    2937                      .dwattr $C$DW$T$57, DW_AT_name("SDDATA2_BITS")
    2938                      .dwattr $C$DW$T$57, DW_AT_byte_size(0x02)
    2939              $C$DW$182       .dwtag  DW_TAG_member
TMS320C2000 Assembler PC v18.12.4 Sat Jul 18 15:28:09 2020

Copyright (c) 1996-2018 Texas Instruments Incorporated
F2837xD_sdfm_drivers.asm                                             PAGE   59

    2940                      .dwattr $C$DW$182, DW_AT_type(*$C$DW$T$19)
    2941                      .dwattr $C$DW$182, DW_AT_name("DATA16")
    2942                      .dwattr $C$DW$182, DW_AT_TI_symbol_name("_DATA16")
    2943                      .dwattr $C$DW$182, DW_AT_bit_offset(0x00)
    2944                      .dwattr $C$DW$182, DW_AT_bit_size(0x10)
    2945                      .dwattr $C$DW$182, DW_AT_data_member_location[DW_OP_plus_uconst 0x0]
    2946                      .dwattr $C$DW$182, DW_AT_accessibility(DW_ACCESS_public)
    2947              
    2948              $C$DW$183       .dwtag  DW_TAG_member
    2949                      .dwattr $C$DW$183, DW_AT_type(*$C$DW$T$19)
    2950                      .dwattr $C$DW$183, DW_AT_name("DATA32HI")
    2951                      .dwattr $C$DW$183, DW_AT_TI_symbol_name("_DATA32HI")
    2952                      .dwattr $C$DW$183, DW_AT_bit_offset(0x00)
    2953                      .dwattr $C$DW$183, DW_AT_bit_size(0x10)
    2954                      .dwattr $C$DW$183, DW_AT_data_member_location[DW_OP_plus_uconst 0x1]
    2955                      .dwattr $C$DW$183, DW_AT_accessibility(DW_ACCESS_public)
    2956              
    2957                      .dwendtag $C$DW$T$57
    2958              
    2959              
    2960              $C$DW$T$58      .dwtag  DW_TAG_union_type
    2961                      .dwattr $C$DW$T$58, DW_AT_name("SDDATA2_REG")
    2962                      .dwattr $C$DW$T$58, DW_AT_byte_size(0x02)
    2963              $C$DW$184       .dwtag  DW_TAG_member
    2964                      .dwattr $C$DW$184, DW_AT_type(*$C$DW$T$55)
    2965                      .dwattr $C$DW$184, DW_AT_name("all")
    2966                      .dwattr $C$DW$184, DW_AT_TI_symbol_name("_all")
    2967                      .dwattr $C$DW$184, DW_AT_data_member_location[DW_OP_plus_uconst 0x0]
    2968                      .dwattr $C$DW$184, DW_AT_accessibility(DW_ACCESS_public)
    2969              
    2970              $C$DW$185       .dwtag  DW_TAG_member
    2971                      .dwattr $C$DW$185, DW_AT_type(*$C$DW$T$57)
    2972                      .dwattr $C$DW$185, DW_AT_name("bit")
    2973                      .dwattr $C$DW$185, DW_AT_TI_symbol_name("_bit")
    2974                      .dwattr $C$DW$185, DW_AT_data_member_location[DW_OP_plus_uconst 0x0]
    2975                      .dwattr $C$DW$185, DW_AT_accessibility(DW_ACCESS_public)
    2976              
    2977                      .dwendtag $C$DW$T$58
    2978              
    2979              
    2980              $C$DW$T$59      .dwtag  DW_TAG_structure_type
    2981                      .dwattr $C$DW$T$59, DW_AT_name("SDDATA3_BITS")
    2982                      .dwattr $C$DW$T$59, DW_AT_byte_size(0x02)
    2983              $C$DW$186       .dwtag  DW_TAG_member
    2984                      .dwattr $C$DW$186, DW_AT_type(*$C$DW$T$19)
    2985                      .dwattr $C$DW$186, DW_AT_name("DATA16")
    2986                      .dwattr $C$DW$186, DW_AT_TI_symbol_name("_DATA16")
    2987                      .dwattr $C$DW$186, DW_AT_bit_offset(0x00)
    2988                      .dwattr $C$DW$186, DW_AT_bit_size(0x10)
    2989                      .dwattr $C$DW$186, DW_AT_data_member_location[DW_OP_plus_uconst 0x0]
    2990                      .dwattr $C$DW$186, DW_AT_accessibility(DW_ACCESS_public)
    2991              
    2992              $C$DW$187       .dwtag  DW_TAG_member
    2993                      .dwattr $C$DW$187, DW_AT_type(*$C$DW$T$19)
    2994                      .dwattr $C$DW$187, DW_AT_name("DATA32HI")
TMS320C2000 Assembler PC v18.12.4 Sat Jul 18 15:28:09 2020

Copyright (c) 1996-2018 Texas Instruments Incorporated
F2837xD_sdfm_drivers.asm                                             PAGE   60

    2995                      .dwattr $C$DW$187, DW_AT_TI_symbol_name("_DATA32HI")
    2996                      .dwattr $C$DW$187, DW_AT_bit_offset(0x00)
    2997                      .dwattr $C$DW$187, DW_AT_bit_size(0x10)
    2998                      .dwattr $C$DW$187, DW_AT_data_member_location[DW_OP_plus_uconst 0x1]
    2999                      .dwattr $C$DW$187, DW_AT_accessibility(DW_ACCESS_public)
    3000              
    3001                      .dwendtag $C$DW$T$59
    3002              
    3003              
    3004              $C$DW$T$60      .dwtag  DW_TAG_union_type
    3005                      .dwattr $C$DW$T$60, DW_AT_name("SDDATA3_REG")
    3006                      .dwattr $C$DW$T$60, DW_AT_byte_size(0x02)
    3007              $C$DW$188       .dwtag  DW_TAG_member
    3008                      .dwattr $C$DW$188, DW_AT_type(*$C$DW$T$55)
    3009                      .dwattr $C$DW$188, DW_AT_name("all")
    3010                      .dwattr $C$DW$188, DW_AT_TI_symbol_name("_all")
    3011                      .dwattr $C$DW$188, DW_AT_data_member_location[DW_OP_plus_uconst 0x0]
    3012                      .dwattr $C$DW$188, DW_AT_accessibility(DW_ACCESS_public)
    3013              
    3014              $C$DW$189       .dwtag  DW_TAG_member
    3015                      .dwattr $C$DW$189, DW_AT_type(*$C$DW$T$59)
    3016                      .dwattr $C$DW$189, DW_AT_name("bit")
    3017                      .dwattr $C$DW$189, DW_AT_TI_symbol_name("_bit")
    3018                      .dwattr $C$DW$189, DW_AT_data_member_location[DW_OP_plus_uconst 0x0]
    3019                      .dwattr $C$DW$189, DW_AT_accessibility(DW_ACCESS_public)
    3020              
    3021                      .dwendtag $C$DW$T$60
    3022              
    3023              
    3024              $C$DW$T$61      .dwtag  DW_TAG_structure_type
    3025                      .dwattr $C$DW$T$61, DW_AT_name("SDDATA4_BITS")
    3026                      .dwattr $C$DW$T$61, DW_AT_byte_size(0x02)
    3027              $C$DW$190       .dwtag  DW_TAG_member
    3028                      .dwattr $C$DW$190, DW_AT_type(*$C$DW$T$19)
    3029                      .dwattr $C$DW$190, DW_AT_name("DATA16")
    3030                      .dwattr $C$DW$190, DW_AT_TI_symbol_name("_DATA16")
    3031                      .dwattr $C$DW$190, DW_AT_bit_offset(0x00)
    3032                      .dwattr $C$DW$190, DW_AT_bit_size(0x10)
    3033                      .dwattr $C$DW$190, DW_AT_data_member_location[DW_OP_plus_uconst 0x0]
    3034                      .dwattr $C$DW$190, DW_AT_accessibility(DW_ACCESS_public)
    3035              
    3036              $C$DW$191       .dwtag  DW_TAG_member
    3037                      .dwattr $C$DW$191, DW_AT_type(*$C$DW$T$19)
    3038                      .dwattr $C$DW$191, DW_AT_name("DATA32HI")
    3039                      .dwattr $C$DW$191, DW_AT_TI_symbol_name("_DATA32HI")
    3040                      .dwattr $C$DW$191, DW_AT_bit_offset(0x00)
    3041                      .dwattr $C$DW$191, DW_AT_bit_size(0x10)
    3042                      .dwattr $C$DW$191, DW_AT_data_member_location[DW_OP_plus_uconst 0x1]
    3043                      .dwattr $C$DW$191, DW_AT_accessibility(DW_ACCESS_public)
    3044              
    3045                      .dwendtag $C$DW$T$61
    3046              
    3047              
    3048              $C$DW$T$62      .dwtag  DW_TAG_union_type
    3049                      .dwattr $C$DW$T$62, DW_AT_name("SDDATA4_REG")
TMS320C2000 Assembler PC v18.12.4 Sat Jul 18 15:28:09 2020

Copyright (c) 1996-2018 Texas Instruments Incorporated
F2837xD_sdfm_drivers.asm                                             PAGE   61

    3050                      .dwattr $C$DW$T$62, DW_AT_byte_size(0x02)
    3051              $C$DW$192       .dwtag  DW_TAG_member
    3052                      .dwattr $C$DW$192, DW_AT_type(*$C$DW$T$55)
    3053                      .dwattr $C$DW$192, DW_AT_name("all")
    3054                      .dwattr $C$DW$192, DW_AT_TI_symbol_name("_all")
    3055                      .dwattr $C$DW$192, DW_AT_data_member_location[DW_OP_plus_uconst 0x0]
    3056                      .dwattr $C$DW$192, DW_AT_accessibility(DW_ACCESS_public)
    3057              
    3058              $C$DW$193       .dwtag  DW_TAG_member
    3059                      .dwattr $C$DW$193, DW_AT_type(*$C$DW$T$61)
    3060                      .dwattr $C$DW$193, DW_AT_name("bit")
    3061                      .dwattr $C$DW$193, DW_AT_TI_symbol_name("_bit")
    3062                      .dwattr $C$DW$193, DW_AT_data_member_location[DW_OP_plus_uconst 0x0]
    3063                      .dwattr $C$DW$193, DW_AT_accessibility(DW_ACCESS_public)
    3064              
    3065                      .dwendtag $C$DW$T$62
    3066              
    3067              
    3068              $C$DW$T$63      .dwtag  DW_TAG_structure_type
    3069                      .dwattr $C$DW$T$63, DW_AT_name("SDDFPARM1_BITS")
    3070                      .dwattr $C$DW$T$63, DW_AT_byte_size(0x01)
    3071              $C$DW$194       .dwtag  DW_TAG_member
    3072                      .dwattr $C$DW$194, DW_AT_type(*$C$DW$T$19)
    3073                      .dwattr $C$DW$194, DW_AT_name("DOSR")
    3074                      .dwattr $C$DW$194, DW_AT_TI_symbol_name("_DOSR")
    3075                      .dwattr $C$DW$194, DW_AT_bit_offset(0x08)
    3076                      .dwattr $C$DW$194, DW_AT_bit_size(0x08)
    3077                      .dwattr $C$DW$194, DW_AT_data_member_location[DW_OP_plus_uconst 0x0]
    3078                      .dwattr $C$DW$194, DW_AT_accessibility(DW_ACCESS_public)
    3079              
    3080              $C$DW$195       .dwtag  DW_TAG_member
    3081                      .dwattr $C$DW$195, DW_AT_type(*$C$DW$T$19)
    3082                      .dwattr $C$DW$195, DW_AT_name("FEN")
    3083                      .dwattr $C$DW$195, DW_AT_TI_symbol_name("_FEN")
    3084                      .dwattr $C$DW$195, DW_AT_bit_offset(0x07)
    3085                      .dwattr $C$DW$195, DW_AT_bit_size(0x01)
    3086                      .dwattr $C$DW$195, DW_AT_data_member_location[DW_OP_plus_uconst 0x0]
    3087                      .dwattr $C$DW$195, DW_AT_accessibility(DW_ACCESS_public)
    3088              
    3089              $C$DW$196       .dwtag  DW_TAG_member
    3090                      .dwattr $C$DW$196, DW_AT_type(*$C$DW$T$19)
    3091                      .dwattr $C$DW$196, DW_AT_name("AE")
    3092                      .dwattr $C$DW$196, DW_AT_TI_symbol_name("_AE")
    3093                      .dwattr $C$DW$196, DW_AT_bit_offset(0x06)
    3094                      .dwattr $C$DW$196, DW_AT_bit_size(0x01)
    3095                      .dwattr $C$DW$196, DW_AT_data_member_location[DW_OP_plus_uconst 0x0]
    3096                      .dwattr $C$DW$196, DW_AT_accessibility(DW_ACCESS_public)
    3097              
    3098              $C$DW$197       .dwtag  DW_TAG_member
    3099                      .dwattr $C$DW$197, DW_AT_type(*$C$DW$T$19)
    3100                      .dwattr $C$DW$197, DW_AT_name("SST")
    3101                      .dwattr $C$DW$197, DW_AT_TI_symbol_name("_SST")
    3102                      .dwattr $C$DW$197, DW_AT_bit_offset(0x04)
    3103                      .dwattr $C$DW$197, DW_AT_bit_size(0x02)
    3104                      .dwattr $C$DW$197, DW_AT_data_member_location[DW_OP_plus_uconst 0x0]
TMS320C2000 Assembler PC v18.12.4 Sat Jul 18 15:28:09 2020

Copyright (c) 1996-2018 Texas Instruments Incorporated
F2837xD_sdfm_drivers.asm                                             PAGE   62

    3105                      .dwattr $C$DW$197, DW_AT_accessibility(DW_ACCESS_public)
    3106              
    3107              $C$DW$198       .dwtag  DW_TAG_member
    3108                      .dwattr $C$DW$198, DW_AT_type(*$C$DW$T$19)
    3109                      .dwattr $C$DW$198, DW_AT_name("FILRESEN")
    3110                      .dwattr $C$DW$198, DW_AT_TI_symbol_name("_FILRESEN")
    3111                      .dwattr $C$DW$198, DW_AT_bit_offset(0x03)
    3112                      .dwattr $C$DW$198, DW_AT_bit_size(0x01)
    3113                      .dwattr $C$DW$198, DW_AT_data_member_location[DW_OP_plus_uconst 0x0]
    3114                      .dwattr $C$DW$198, DW_AT_accessibility(DW_ACCESS_public)
    3115              
    3116              $C$DW$199       .dwtag  DW_TAG_member
    3117                      .dwattr $C$DW$199, DW_AT_type(*$C$DW$T$19)
    3118                      .dwattr $C$DW$199, DW_AT_name("rsvd1")
    3119                      .dwattr $C$DW$199, DW_AT_TI_symbol_name("_rsvd1")
    3120                      .dwattr $C$DW$199, DW_AT_bit_offset(0x00)
    3121                      .dwattr $C$DW$199, DW_AT_bit_size(0x03)
    3122                      .dwattr $C$DW$199, DW_AT_data_member_location[DW_OP_plus_uconst 0x0]
    3123                      .dwattr $C$DW$199, DW_AT_accessibility(DW_ACCESS_public)
    3124              
    3125                      .dwendtag $C$DW$T$63
    3126              
    3127              
    3128              $C$DW$T$64      .dwtag  DW_TAG_union_type
    3129                      .dwattr $C$DW$T$64, DW_AT_name("SDDFPARM1_REG")
    3130                      .dwattr $C$DW$T$64, DW_AT_byte_size(0x01)
    3131              $C$DW$200       .dwtag  DW_TAG_member
    3132                      .dwattr $C$DW$200, DW_AT_type(*$C$DW$T$19)
    3133                      .dwattr $C$DW$200, DW_AT_name("all")
    3134                      .dwattr $C$DW$200, DW_AT_TI_symbol_name("_all")
    3135                      .dwattr $C$DW$200, DW_AT_data_member_location[DW_OP_plus_uconst 0x0]
    3136                      .dwattr $C$DW$200, DW_AT_accessibility(DW_ACCESS_public)
    3137              
    3138              $C$DW$201       .dwtag  DW_TAG_member
    3139                      .dwattr $C$DW$201, DW_AT_type(*$C$DW$T$63)
    3140                      .dwattr $C$DW$201, DW_AT_name("bit")
    3141                      .dwattr $C$DW$201, DW_AT_TI_symbol_name("_bit")
    3142                      .dwattr $C$DW$201, DW_AT_data_member_location[DW_OP_plus_uconst 0x0]
    3143                      .dwattr $C$DW$201, DW_AT_accessibility(DW_ACCESS_public)
    3144              
    3145                      .dwendtag $C$DW$T$64
    3146              
    3147              
    3148              $C$DW$T$65      .dwtag  DW_TAG_structure_type
    3149                      .dwattr $C$DW$T$65, DW_AT_name("SDDFPARM2_BITS")
    3150                      .dwattr $C$DW$T$65, DW_AT_byte_size(0x01)
    3151              $C$DW$202       .dwtag  DW_TAG_member
    3152                      .dwattr $C$DW$202, DW_AT_type(*$C$DW$T$19)
    3153                      .dwattr $C$DW$202, DW_AT_name("DOSR")
    3154                      .dwattr $C$DW$202, DW_AT_TI_symbol_name("_DOSR")
    3155                      .dwattr $C$DW$202, DW_AT_bit_offset(0x08)
    3156                      .dwattr $C$DW$202, DW_AT_bit_size(0x08)
    3157                      .dwattr $C$DW$202, DW_AT_data_member_location[DW_OP_plus_uconst 0x0]
    3158                      .dwattr $C$DW$202, DW_AT_accessibility(DW_ACCESS_public)
    3159              
TMS320C2000 Assembler PC v18.12.4 Sat Jul 18 15:28:09 2020

Copyright (c) 1996-2018 Texas Instruments Incorporated
F2837xD_sdfm_drivers.asm                                             PAGE   63

    3160              $C$DW$203       .dwtag  DW_TAG_member
    3161                      .dwattr $C$DW$203, DW_AT_type(*$C$DW$T$19)
    3162                      .dwattr $C$DW$203, DW_AT_name("FEN")
    3163                      .dwattr $C$DW$203, DW_AT_TI_symbol_name("_FEN")
    3164                      .dwattr $C$DW$203, DW_AT_bit_offset(0x07)
    3165                      .dwattr $C$DW$203, DW_AT_bit_size(0x01)
    3166                      .dwattr $C$DW$203, DW_AT_data_member_location[DW_OP_plus_uconst 0x0]
    3167                      .dwattr $C$DW$203, DW_AT_accessibility(DW_ACCESS_public)
    3168              
    3169              $C$DW$204       .dwtag  DW_TAG_member
    3170                      .dwattr $C$DW$204, DW_AT_type(*$C$DW$T$19)
    3171                      .dwattr $C$DW$204, DW_AT_name("AE")
    3172                      .dwattr $C$DW$204, DW_AT_TI_symbol_name("_AE")
    3173                      .dwattr $C$DW$204, DW_AT_bit_offset(0x06)
    3174                      .dwattr $C$DW$204, DW_AT_bit_size(0x01)
    3175                      .dwattr $C$DW$204, DW_AT_data_member_location[DW_OP_plus_uconst 0x0]
    3176                      .dwattr $C$DW$204, DW_AT_accessibility(DW_ACCESS_public)
    3177              
    3178              $C$DW$205       .dwtag  DW_TAG_member
    3179                      .dwattr $C$DW$205, DW_AT_type(*$C$DW$T$19)
    3180                      .dwattr $C$DW$205, DW_AT_name("SST")
    3181                      .dwattr $C$DW$205, DW_AT_TI_symbol_name("_SST")
    3182                      .dwattr $C$DW$205, DW_AT_bit_offset(0x04)
    3183                      .dwattr $C$DW$205, DW_AT_bit_size(0x02)
    3184                      .dwattr $C$DW$205, DW_AT_data_member_location[DW_OP_plus_uconst 0x0]
    3185                      .dwattr $C$DW$205, DW_AT_accessibility(DW_ACCESS_public)
    3186              
    3187              $C$DW$206       .dwtag  DW_TAG_member
    3188                      .dwattr $C$DW$206, DW_AT_type(*$C$DW$T$19)
    3189                      .dwattr $C$DW$206, DW_AT_name("FILRESEN")
    3190                      .dwattr $C$DW$206, DW_AT_TI_symbol_name("_FILRESEN")
    3191                      .dwattr $C$DW$206, DW_AT_bit_offset(0x03)
    3192                      .dwattr $C$DW$206, DW_AT_bit_size(0x01)
    3193                      .dwattr $C$DW$206, DW_AT_data_member_location[DW_OP_plus_uconst 0x0]
    3194                      .dwattr $C$DW$206, DW_AT_accessibility(DW_ACCESS_public)
    3195              
