TMS320C2000 Assembler PC v20.2.1 Sat Nov 14 12:25:43 2020

Copyright (c) 1996-2018 Texas Instruments Incorporated
F2837xS_Gpio.asm                                                     PAGE    1

       1              ;***************************************************************
       2              ;* TMS320C2000 G3 C/C++ Codegen                               PC v20.2.1.LTS *
       3              ;* Date/Time created: Sat Nov 14 12:25:42 2020                 *
       4              ;***************************************************************
       5                      .compiler_opts --abi=coffabi --cla_support=cla0 --float_support=fpu32 --hll_source=on --mem_model:cod
       6                      .asg    XAR2, FP
       7              
       8              $C$DW$CU        .dwtag  DW_TAG_compile_unit
       9                      .dwattr $C$DW$CU, DW_AT_name("C:/ti/controlSUITE/device_support/F2837xS/v170/F2837xS_common/source/F2
      10                      .dwattr $C$DW$CU, DW_AT_producer("TI TMS320C2000 G3 C/C++ Codegen PC v20.2.1.LTS Copyright (c) 1996-2
      11                      .dwattr $C$DW$CU, DW_AT_TI_version(0x01)
      12                      .dwattr $C$DW$CU, DW_AT_comp_dir("C:\Users\admin\Documents\GitHub\fault_tolerant_drives\Software\MPC_
      13              $C$DW$1 .dwtag  DW_TAG_variable
      14                      .dwattr $C$DW$1, DW_AT_name("InputXbarRegs")
      15                      .dwattr $C$DW$1, DW_AT_TI_symbol_name("_InputXbarRegs")
      16                      .dwattr $C$DW$1, DW_AT_type(*$C$DW$T$370)
      17                      .dwattr $C$DW$1, DW_AT_declaration
      18                      .dwattr $C$DW$1, DW_AT_external
      19              
      20              $C$DW$2 .dwtag  DW_TAG_variable
      21                      .dwattr $C$DW$2, DW_AT_name("GpioDataRegs")
      22                      .dwattr $C$DW$2, DW_AT_TI_symbol_name("_GpioDataRegs")
      23                      .dwattr $C$DW$2, DW_AT_type(*$C$DW$T$368)
      24                      .dwattr $C$DW$2, DW_AT_declaration
      25                      .dwattr $C$DW$2, DW_AT_external
      26              
      27              $C$DW$3 .dwtag  DW_TAG_variable
      28                      .dwattr $C$DW$3, DW_AT_name("DevCfgRegs")
      29                      .dwattr $C$DW$3, DW_AT_TI_symbol_name("_DevCfgRegs")
      30                      .dwattr $C$DW$3, DW_AT_type(*$C$DW$T$353)
      31                      .dwattr $C$DW$3, DW_AT_declaration
      32                      .dwattr $C$DW$3, DW_AT_external
      33              
      34              $C$DW$4 .dwtag  DW_TAG_variable
      35                      .dwattr $C$DW$4, DW_AT_name("GpioCtrlRegs")
      36                      .dwattr $C$DW$4, DW_AT_TI_symbol_name("_GpioCtrlRegs")
      37                      .dwattr $C$DW$4, DW_AT_type(*$C$DW$T$366)
      38                      .dwattr $C$DW$4, DW_AT_declaration
      39                      .dwattr $C$DW$4, DW_AT_external
      40              
      41              ;       C:\ti\ccs1011\ccs\tools\compiler\ti-cgt-c2000_20.2.1.LTS\bin\opt2000.exe C:\\Users\\admin\\AppData\\L
      42              ;       C:\ti\ccs1011\ccs\tools\compiler\ti-cgt-c2000_20.2.1.LTS\bin\ac2000.exe -@C:\\Users\\admin\\AppData\\
      43 00000000               .sect   ".text"
      44                      .clink
      45                      .global _InitGpio
      46              
      47              $C$DW$5 .dwtag  DW_TAG_subprogram
      48                      .dwattr $C$DW$5, DW_AT_name("InitGpio")
      49                      .dwattr $C$DW$5, DW_AT_low_pc(_InitGpio)
      50                      .dwattr $C$DW$5, DW_AT_high_pc(0x00)
      51                      .dwattr $C$DW$5, DW_AT_TI_symbol_name("_InitGpio")
      52                      .dwattr $C$DW$5, DW_AT_external
      53                      .dwattr $C$DW$5, DW_AT_TI_begin_file("C:/ti/controlSUITE/device_support/F2837xS/v170/F2837xS_common/s
      54                      .dwattr $C$DW$5, DW_AT_TI_begin_line(0x14)
      55                      .dwattr $C$DW$5, DW_AT_TI_begin_column(0x06)
TMS320C2000 Assembler PC v20.2.1 Sat Nov 14 12:25:43 2020

Copyright (c) 1996-2018 Texas Instruments Incorporated
F2837xS_Gpio.asm                                                     PAGE    2

      56                      .dwattr $C$DW$5, DW_AT_TI_max_frame_size(-2)
      57                      .dwpsn  file "C:/ti/controlSUITE/device_support/F2837xS/v170/F2837xS_common/source/F2837xS_Gpio.c",li
      58              
      59                      .dwfde $C$DW$CIE, _InitGpio
      60              
      61              ;***************************************************************
      62              ;* FNAME: _InitGpio                     FR SIZE:   0           *
      63              ;*                                                             *
      64              ;* FUNCTION ENVIRONMENT                                        *
      65              ;*                                                             *
      66              ;* FUNCTION PROPERTIES                                         *
      67              ;*                            0 Parameter,  0 Auto,  0 SOE     *
      68              ;***************************************************************
      69              
      70              _InitGpio:
      71              ;* AR5   assigned to _gpioBaseAddr
      72              $C$DW$6 .dwtag  DW_TAG_variable
      73                      .dwattr $C$DW$6, DW_AT_name("gpioBaseAddr")
      74                      .dwattr $C$DW$6, DW_AT_TI_symbol_name("_gpioBaseAddr")
      75                      .dwattr $C$DW$6, DW_AT_type(*$C$DW$T$385)
      76                      .dwattr $C$DW$6, DW_AT_location[DW_OP_reg14]
      77              
      78              ;* AR6   assigned to _regOffset
      79              $C$DW$7 .dwtag  DW_TAG_variable
      80                      .dwattr $C$DW$7, DW_AT_name("regOffset")
      81                      .dwattr $C$DW$7, DW_AT_TI_symbol_name("_regOffset")
      82                      .dwattr $C$DW$7, DW_AT_type(*$C$DW$T$19)
      83                      .dwattr $C$DW$7, DW_AT_location[DW_OP_reg16]
      84              
      85                      .dwcfi  cfa_offset, -2
      86                      .dwcfi  save_reg_to_mem, 26, 0
      87 00000000 7622   EALLOW
      88                      .dwpsn  file "C:/ti/controlSUITE/device_support/F2837xS/v170/F2837xS_common/source/F2837xS_Gpio.c",li
      89 00000001 0200          MOVB      ACC,#0                ; [CPU_ALU] |27| 
      90 00000002 761F!         MOVW      DP,#_GpioCtrlRegs+60  ; [CPU_ARAU] 
         00000003 0000 
      91                      .dwpsn  file "C:/ti/controlSUITE/device_support/F2837xS/v170/F2837xS_common/source/F2837xS_Gpio.c",li
      92 00000004 D400          MOVB      XAR4,#0               ; [CPU_ALU] |28| 
      93                      .dwpsn  file "C:/ti/controlSUITE/device_support/F2837xS/v170/F2837xS_common/source/F2837xS_Gpio.c",li
      94 00000005 3100          MOV       P,#0                  ; [CPU_ALU] |29| 
      95                      .dwpsn  file "C:/ti/controlSUITE/device_support/F2837xS/v170/F2837xS_common/source/F2837xS_Gpio.c",li
      96 00000006 BE00          MOVB      XAR6,#0               ; [CPU_ALU] |30| 
      97                      .dwpsn  file "C:/ti/controlSUITE/device_support/F2837xS/v170/F2837xS_common/source/F2837xS_Gpio.c",li
      98 00000007 1E3C!         MOVL      @$BLOCKED(_GpioCtrlRegs)+60,ACC ; [CPU_ALU] |27| 
      99                      .dwpsn  file "C:/ti/controlSUITE/device_support/F2837xS/v170/F2837xS_common/source/F2837xS_Gpio.c",li
     100 00000008 B600          MOVB      XAR7,#0               ; [CPU_ALU] |31| 
     101                      .dwpsn  file "C:/ti/controlSUITE/device_support/F2837xS/v170/F2837xS_common/source/F2837xS_Gpio.c",li
     102 00000009 8F40!         MOVL      XAR5,#_GpioCtrlRegs   ; [CPU_ARAU] |37| 
         0000000a 0000 
     103 0000000b 2901          CLRC      SXM                   ; [CPU_ALU] 
     104 0000000c 761F!         MOVW      DP,#_GpioCtrlRegs+124 ; [CPU_ARAU] 
         0000000d 0001 
     105                      .dwpsn  file "C:/ti/controlSUITE/device_support/F2837xS/v170/F2837xS_common/source/F2837xS_Gpio.c",li
     106 0000000e A83C!         MOVL      @$BLOCKED(_GpioCtrlRegs)+124,XAR4 ; [CPU_ALU] |28| 
     107 0000000f 761F!         MOVW      DP,#_GpioCtrlRegs+188 ; [CPU_ARAU] 
TMS320C2000 Assembler PC v20.2.1 Sat Nov 14 12:25:43 2020

Copyright (c) 1996-2018 Texas Instruments Incorporated
F2837xS_Gpio.asm                                                     PAGE    3

         00000010 0002 
     108                      .dwpsn  file "C:/ti/controlSUITE/device_support/F2837xS/v170/F2837xS_common/source/F2837xS_Gpio.c",li
     109 00000011 A93C!         MOVL      @$BLOCKED(_GpioCtrlRegs)+188,P ; [CPU_ALU] |29| 
     110 00000012 761F!         MOVW      DP,#_GpioCtrlRegs+252 ; [CPU_ARAU] 
         00000013 0003 
     111                      .dwpsn  file "C:/ti/controlSUITE/device_support/F2837xS/v170/F2837xS_common/source/F2837xS_Gpio.c",li
     112 00000014 C23C!         MOVL      @$BLOCKED(_GpioCtrlRegs)+252,XAR6 ; [CPU_ALU] |30| 
     113 00000015 761F!         MOVW      DP,#_GpioCtrlRegs+316 ; [CPU_ARAU] 
         00000016 0004 
     114                      .dwpsn  file "C:/ti/controlSUITE/device_support/F2837xS/v170/F2837xS_common/source/F2837xS_Gpio.c",li
     115 00000017 BE00          MOVB      XAR6,#0               ; [CPU_ALU] |38| 
     116                      .dwpsn  file "C:/ti/controlSUITE/device_support/F2837xS/v170/F2837xS_common/source/F2837xS_Gpio.c",li
     117 00000018 C33C!         MOVL      @$BLOCKED(_GpioCtrlRegs)+316,XAR7 ; [CPU_ALU] |31| 
     118 00000019 761F!         MOVW      DP,#_GpioCtrlRegs+380 ; [CPU_ARAU] 
         0000001a 0005 
     119                      .dwpsn  file "C:/ti/controlSUITE/device_support/F2837xS/v170/F2837xS_common/source/F2837xS_Gpio.c",li
     120 0000001b 1E3C!         MOVL      @$BLOCKED(_GpioCtrlRegs)+380,ACC ; [CPU_ALU] |32| 
     121 0000001c       $C$L1:    
     122 0000001c 92A6          MOV       AL,AR6                ; [CPU_ALU] 
     123                      .dwpsn  file "C:/ti/controlSUITE/device_support/F2837xS/v170/F2837xS_common/source/F2837xS_Gpio.c",li
     124 0000001d 901F          ANDB      AL,#31                ; [CPU_ALU] |43| 
     125 0000001e 5206          CMPB      AL,#6                 ; [CPU_ALU] |43| 
     126 0000001f 6107          B         $C$L2,EQ              ; [CPU_ALU] |43| 
     127                      ; branchcc occurs ; [] |43| 
     128 00000020 92A6          MOV       AL,AR6                ; [CPU_ALU] 
     129                      .dwpsn  file "C:/ti/controlSUITE/device_support/F2837xS/v170/F2837xS_common/source/F2837xS_Gpio.c",li
     130 00000021 5603          MOV       ACC,AL << 1           ; [CPU_ALU] |44| 
         00000022 01A9 
     131 00000023 07A5          ADDL      ACC,XAR5              ; [CPU_ALU] |44| 
     132 00000024 8AA9          MOVL      XAR4,ACC              ; [CPU_ALU] |44| 
     133 00000025 C3C4          MOVL      *+XAR4[0],XAR7        ; [CPU_ALU] |44| 
     134 00000026       $C$L2:    
     135                      .dwpsn  file "C:/ti/controlSUITE/device_support/F2837xS/v170/F2837xS_common/source/F2837xS_Gpio.c",li
     136 00000026 DE01          ADDB      XAR6,#1               ; [CPU_ALU] |38| 
     137 00000027 92A6          MOV       AL,AR6                ; [CPU_ALU] |38| 
     138 00000028 52C0          CMPB      AL,#192               ; [CPU_ALU] |38| 
     139 00000029 68F3          B         $C$L1,LO              ; [CPU_ALU] |38| 
     140                      ; branchcc occurs ; [] |38| 
     141                      .dwpsn  file "C:/ti/controlSUITE/device_support/F2837xS/v170/F2837xS_common/source/F2837xS_Gpio.c",li
     142 0000002a 8F40!         MOVL      XAR5,#_GpioDataRegs   ; [CPU_ARAU] |47| 
         0000002b 0000 
     143                      .dwpsn  file "C:/ti/controlSUITE/device_support/F2837xS/v170/F2837xS_common/source/F2837xS_Gpio.c",li
     144 0000002c BE00          MOVB      XAR6,#0               ; [CPU_ALU] |48| 
     145 0000002d 2901          CLRC      SXM                   ; [CPU_ALU] 
     146 0000002e       $C$L3:    
     147 0000002e 92A6          MOV       AL,AR6                ; [CPU_ALU] 
     148                      .dwpsn  file "C:/ti/controlSUITE/device_support/F2837xS/v170/F2837xS_common/source/F2837xS_Gpio.c",li
     149 0000002f 5603          MOV       ACC,AL << 1           ; [CPU_ALU] |50| 
         00000030 01A9 
     150 00000031 07A5          ADDL      ACC,XAR5              ; [CPU_ALU] |50| 
     151 00000032 8AA9          MOVL      XAR4,ACC              ; [CPU_ALU] |50| 
     152                      .dwpsn  file "C:/ti/controlSUITE/device_support/F2837xS/v170/F2837xS_common/source/F2837xS_Gpio.c",li
     153 00000033 DE01          ADDB      XAR6,#1               ; [CPU_ALU] |48| 
     154 00000034 92A6          MOV       AL,AR6                ; [CPU_ALU] |48| 
     155                      .dwpsn  file "C:/ti/controlSUITE/device_support/F2837xS/v170/F2837xS_common/source/F2837xS_Gpio.c",li
TMS320C2000 Assembler PC v20.2.1 Sat Nov 14 12:25:43 2020

Copyright (c) 1996-2018 Texas Instruments Incorporated
F2837xS_Gpio.asm                                                     PAGE    4

     156 00000035 C3C4          MOVL      *+XAR4[0],XAR7        ; [CPU_ALU] |50| 
     157                      .dwpsn  file "C:/ti/controlSUITE/device_support/F2837xS/v170/F2837xS_common/source/F2837xS_Gpio.c",li
     158 00000036 5218          CMPB      AL,#24                ; [CPU_ALU] |48| 
     159 00000037 68F7          B         $C$L3,LO              ; [CPU_ALU] |48| 
     160                      ; branchcc occurs ; [] |48| 
     161 00000038 761A   EDIS
     162 00000039 FF69          SPM       #0                    ; [CPU_ALU] 
     163              $C$DW$8 .dwtag  DW_TAG_TI_branch
     164                      .dwattr $C$DW$8, DW_AT_low_pc(0x00)
     165                      .dwattr $C$DW$8, DW_AT_TI_return
     166              
     167 0000003a 0006          LRETR     ; [CPU_ALU] 
     168                      ; return occurs ; [] 
     169                      .dwattr $C$DW$5, DW_AT_TI_end_file("C:/ti/controlSUITE/device_support/F2837xS/v170/F2837xS_common/sou
     170                      .dwattr $C$DW$5, DW_AT_TI_end_line(0x36)
     171                      .dwattr $C$DW$5, DW_AT_TI_end_column(0x01)
     172                      .dwendentry
     173                      .dwendtag $C$DW$5
     174              
     175 0000003b               .sect   ".text"
     176                      .clink
     177                      .global _GPIO_WritePin
     178              
     179              $C$DW$9 .dwtag  DW_TAG_subprogram
     180                      .dwattr $C$DW$9, DW_AT_name("GPIO_WritePin")
     181                      .dwattr $C$DW$9, DW_AT_low_pc(_GPIO_WritePin)
     182                      .dwattr $C$DW$9, DW_AT_high_pc(0x00)
     183                      .dwattr $C$DW$9, DW_AT_TI_symbol_name("_GPIO_WritePin")
     184                      .dwattr $C$DW$9, DW_AT_external
     185                      .dwattr $C$DW$9, DW_AT_TI_begin_file("C:/ti/controlSUITE/device_support/F2837xS/v170/F2837xS_common/s
     186                      .dwattr $C$DW$9, DW_AT_TI_begin_line(0x161)
     187                      .dwattr $C$DW$9, DW_AT_TI_begin_column(0x06)
     188                      .dwattr $C$DW$9, DW_AT_TI_max_frame_size(-2)
     189                      .dwpsn  file "C:/ti/controlSUITE/device_support/F2837xS/v170/F2837xS_common/source/F2837xS_Gpio.c",li
     190              
     191                      .dwfde $C$DW$CIE, _GPIO_WritePin
     192              $C$DW$10        .dwtag  DW_TAG_formal_parameter
     193                      .dwattr $C$DW$10, DW_AT_name("pin")
     194                      .dwattr $C$DW$10, DW_AT_TI_symbol_name("_pin")
     195                      .dwattr $C$DW$10, DW_AT_type(*$C$DW$T$19)
     196                      .dwattr $C$DW$10, DW_AT_location[DW_OP_reg0]
     197              
     198              $C$DW$11        .dwtag  DW_TAG_formal_parameter
     199                      .dwattr $C$DW$11, DW_AT_name("outVal")
     200                      .dwattr $C$DW$11, DW_AT_TI_symbol_name("_outVal")
     201                      .dwattr $C$DW$11, DW_AT_type(*$C$DW$T$19)
     202                      .dwattr $C$DW$11, DW_AT_location[DW_OP_reg1]
     203              
     204              
     205              ;***************************************************************
     206              ;* FNAME: _GPIO_WritePin                FR SIZE:   0           *
     207              ;*                                                             *
     208              ;* FUNCTION ENVIRONMENT                                        *
     209              ;*                                                             *
     210              ;* FUNCTION PROPERTIES                                         *
TMS320C2000 Assembler PC v20.2.1 Sat Nov 14 12:25:43 2020

Copyright (c) 1996-2018 Texas Instruments Incorporated
F2837xS_Gpio.asm                                                     PAGE    5

     211              ;*                            0 Parameter,  0 Auto,  0 SOE     *
     212              ;***************************************************************
     213              
     214              _GPIO_WritePin:
     215              ;* T     assigned to _pin
     216              $C$DW$12        .dwtag  DW_TAG_variable
     217                      .dwattr $C$DW$12, DW_AT_name("pin")
     218                      .dwattr $C$DW$12, DW_AT_TI_symbol_name("_pin")
     219                      .dwattr $C$DW$12, DW_AT_type(*$C$DW$T$379)
     220                      .dwattr $C$DW$12, DW_AT_location[DW_OP_reg22]
     221              
     222              ;* AR6   assigned to _outVal
     223              $C$DW$13        .dwtag  DW_TAG_variable
     224                      .dwattr $C$DW$13, DW_AT_name("outVal")
     225                      .dwattr $C$DW$13, DW_AT_TI_symbol_name("_outVal")
     226                      .dwattr $C$DW$13, DW_AT_type(*$C$DW$T$379)
     227                      .dwattr $C$DW$13, DW_AT_location[DW_OP_reg16]
     228              
     229              ;* AR4   assigned to _gpioDataReg
     230              $C$DW$14        .dwtag  DW_TAG_variable
     231                      .dwattr $C$DW$14, DW_AT_name("gpioDataReg")
     232                      .dwattr $C$DW$14, DW_AT_TI_symbol_name("_gpioDataReg")
     233                      .dwattr $C$DW$14, DW_AT_type(*$C$DW$T$385)
     234                      .dwattr $C$DW$14, DW_AT_location[DW_OP_reg12]
     235              
     236              ;* AR7   assigned to _pinMask
     237              $C$DW$15        .dwtag  DW_TAG_variable
     238                      .dwattr $C$DW$15, DW_AT_name("pinMask")
     239                      .dwattr $C$DW$15, DW_AT_TI_symbol_name("_pinMask")
     240                      .dwattr $C$DW$15, DW_AT_type(*$C$DW$T$21)
     241                      .dwattr $C$DW$15, DW_AT_location[DW_OP_reg18]
     242              
     243                      .dwcfi  cfa_offset, -2
     244                      .dwcfi  save_reg_to_mem, 26, 0
     245 0000003b 2DA9          MOV       T,AL                  ; [CPU_ALU] |354| 
     246 0000003c 88A8          MOVZ      AR6,AH                ; [CPU_ALU] |354| 
     247                      .dwpsn  file "C:/ti/controlSUITE/device_support/F2837xS/v170/F2837xS_common/source/F2837xS_Gpio.c",li
     248 0000003d FFC2          LSR       AL,3                  ; [CPU_ALU] |358| 
     249 0000003e 2901          CLRC      SXM                   ; [CPU_ALU] 
     250 0000003f 8F00!         MOVL      XAR4,#_GpioDataRegs   ; [CPU_ARAU] |358| 
         00000040 0000 
     251 00000041 18A9          AND       AL,#0xfffc            ; [CPU_ALU] |358| 
         00000042 FFFC 
     252 00000043 5603          MOV       ACC,AL << 1           ; [CPU_ALU] |358| 
         00000044 01A9 
     253 00000045 5601          ADDL      XAR4,ACC              ; [CPU_ALU] |358| 
         00000046 00A4 
     254                      .dwpsn  file "C:/ti/controlSUITE/device_support/F2837xS/v170/F2837xS_common/source/F2837xS_Gpio.c",li
     255 00000047 0201          MOVB      ACC,#1                ; [CPU_FPU] |359| 
     256 00000048 1EA7          MOVL      XAR7,ACC              ; [CPU_ALU] |359| 
     257 00000049 CCAC          AND       AL,T,#0x001f          ; [CPU_ALU] |359| 
         0000004a 001F 
     258 0000004b 2DA9          MOV       T,AL                  ; [CPU_ALU] |359| 
     259 0000004c 06A7          MOVL      ACC,XAR7              ; [CPU_ALU] |359| 
     260 0000004d 563B          LSLL      ACC,T                 ; [CPU_ALU] |359| 
TMS320C2000 Assembler PC v20.2.1 Sat Nov 14 12:25:43 2020

Copyright (c) 1996-2018 Texas Instruments Incorporated
F2837xS_Gpio.asm                                                     PAGE    6

     261 0000004e 1EA7          MOVL      XAR7,ACC              ; [CPU_ALU] |359| 
     262 0000004f 92A6          MOV       AL,AR6                ; [CPU_ALU] |359| 
     263                      .dwpsn  file "C:/ti/controlSUITE/device_support/F2837xS/v170/F2837xS_common/source/F2837xS_Gpio.c",li
     264 00000050 6003          B         $C$L4,NEQ             ; [CPU_ALU] |361| 
     265                      ; branchcc occurs ; [] |361| 
     266                      .dwpsn  file "C:/ti/controlSUITE/device_support/F2837xS/v170/F2837xS_common/source/F2837xS_Gpio.c",li
     267 00000051 C3E4          MOVL      *+XAR4[4],XAR7        ; [CPU_ALU] |362| 
     268 00000052 6F02          B         $C$L5,UNC             ; [CPU_ALU] 
     269                      ; branch occurs ; [] 
     270 00000053       $C$L4:    
     271                      .dwpsn  file "C:/ti/controlSUITE/device_support/F2837xS/v170/F2837xS_common/source/F2837xS_Gpio.c",li
     272 00000053 C3D4          MOVL      *+XAR4[2],XAR7        ; [CPU_ALU] |364| 
     273              $C$L5:    
     274              $C$DW$16        .dwtag  DW_TAG_TI_branch
     275                      .dwattr $C$DW$16, DW_AT_low_pc(0x00)
     276                      .dwattr $C$DW$16, DW_AT_TI_return
     277              
     278 00000054 0006          LRETR     ; [CPU_ALU] 
     279                      ; return occurs ; [] 
     280                      .dwattr $C$DW$9, DW_AT_TI_end_file("C:/ti/controlSUITE/device_support/F2837xS/v170/F2837xS_common/sou
     281                      .dwattr $C$DW$9, DW_AT_TI_end_line(0x16d)
     282                      .dwattr $C$DW$9, DW_AT_TI_end_column(0x01)
     283                      .dwendentry
     284                      .dwendtag $C$DW$9
     285              
     286 00000055               .sect   ".text"
     287                      .clink
     288                      .global _GPIO_SetupXINT5Gpio
     289              
     290              $C$DW$17        .dwtag  DW_TAG_subprogram
     291                      .dwattr $C$DW$17, DW_AT_name("GPIO_SetupXINT5Gpio")
     292                      .dwattr $C$DW$17, DW_AT_low_pc(_GPIO_SetupXINT5Gpio)
     293                      .dwattr $C$DW$17, DW_AT_high_pc(0x00)
     294                      .dwattr $C$DW$17, DW_AT_TI_symbol_name("_GPIO_SetupXINT5Gpio")
     295                      .dwattr $C$DW$17, DW_AT_external
     296                      .dwattr $C$DW$17, DW_AT_TI_begin_file("C:/ti/controlSUITE/device_support/F2837xS/v170/F2837xS_common/
     297                      .dwattr $C$DW$17, DW_AT_TI_begin_line(0x107)
     298                      .dwattr $C$DW$17, DW_AT_TI_begin_column(0x06)
     299                      .dwattr $C$DW$17, DW_AT_TI_max_frame_size(-2)
     300                      .dwpsn  file "C:/ti/controlSUITE/device_support/F2837xS/v170/F2837xS_common/source/F2837xS_Gpio.c",li
     301              
     302                      .dwfde $C$DW$CIE, _GPIO_SetupXINT5Gpio
     303              $C$DW$18        .dwtag  DW_TAG_formal_parameter
     304                      .dwattr $C$DW$18, DW_AT_name("pin")
     305                      .dwattr $C$DW$18, DW_AT_TI_symbol_name("_pin")
     306                      .dwattr $C$DW$18, DW_AT_type(*$C$DW$T$19)
     307                      .dwattr $C$DW$18, DW_AT_location[DW_OP_reg0]
     308              
     309              
     310              ;***************************************************************
     311              ;* FNAME: _GPIO_SetupXINT5Gpio          FR SIZE:   0           *
     312              ;*                                                             *
     313              ;* FUNCTION ENVIRONMENT                                        *
     314              ;*                                                             *
     315              ;* FUNCTION PROPERTIES                                         *
TMS320C2000 Assembler PC v20.2.1 Sat Nov 14 12:25:43 2020

Copyright (c) 1996-2018 Texas Instruments Incorporated
F2837xS_Gpio.asm                                                     PAGE    7

     316              ;*                            0 Parameter,  0 Auto,  0 SOE     *
     317              ;***************************************************************
     318              
     319              _GPIO_SetupXINT5Gpio:
     320              ;* AL    assigned to _pin
     321              $C$DW$19        .dwtag  DW_TAG_variable
     322                      .dwattr $C$DW$19, DW_AT_name("pin")
     323                      .dwattr $C$DW$19, DW_AT_TI_symbol_name("_pin")
     324                      .dwattr $C$DW$19, DW_AT_type(*$C$DW$T$379)
     325                      .dwattr $C$DW$19, DW_AT_location[DW_OP_reg0]
     326              
     327                      .dwcfi  cfa_offset, -2
     328                      .dwcfi  save_reg_to_mem, 26, 0
     329 00000055 7622   EALLOW
     330 00000056 761F!         MOVW      DP,#_InputXbarRegs+13 ; [CPU_ARAU] 
         00000057 0000 
     331                      .dwpsn  file "C:/ti/controlSUITE/device_support/F2837xS/v170/F2837xS_common/source/F2837xS_Gpio.c",li
     332 00000058 960D!         MOV       @$BLOCKED(_InputXbarRegs)+13,AL ; [CPU_ALU] |266| 
     333 00000059 761A   EDIS
     334 0000005a FF69          SPM       #0                    ; [CPU_ALU] 
     335              $C$DW$20        .dwtag  DW_TAG_TI_branch
     336                      .dwattr $C$DW$20, DW_AT_low_pc(0x00)
     337                      .dwattr $C$DW$20, DW_AT_TI_return
     338              
     339 0000005b 0006          LRETR     ; [CPU_ALU] 
     340                      ; return occurs ; [] 
     341                      .dwattr $C$DW$17, DW_AT_TI_end_file("C:/ti/controlSUITE/device_support/F2837xS/v170/F2837xS_common/so
     342                      .dwattr $C$DW$17, DW_AT_TI_end_line(0x10c)
     343                      .dwattr $C$DW$17, DW_AT_TI_end_column(0x01)
     344                      .dwendentry
     345                      .dwendtag $C$DW$17
     346              
     347 0000005c               .sect   ".text"
     348                      .clink
     349                      .global _GPIO_SetupXINT4Gpio
     350              
     351              $C$DW$21        .dwtag  DW_TAG_subprogram
     352                      .dwattr $C$DW$21, DW_AT_name("GPIO_SetupXINT4Gpio")
     353                      .dwattr $C$DW$21, DW_AT_low_pc(_GPIO_SetupXINT4Gpio)
     354                      .dwattr $C$DW$21, DW_AT_high_pc(0x00)
     355                      .dwattr $C$DW$21, DW_AT_TI_symbol_name("_GPIO_SetupXINT4Gpio")
     356                      .dwattr $C$DW$21, DW_AT_external
     357                      .dwattr $C$DW$21, DW_AT_TI_begin_file("C:/ti/controlSUITE/device_support/F2837xS/v170/F2837xS_common/
     358                      .dwattr $C$DW$21, DW_AT_TI_begin_line(0x101)
     359                      .dwattr $C$DW$21, DW_AT_TI_begin_column(0x06)
     360                      .dwattr $C$DW$21, DW_AT_TI_max_frame_size(-2)
     361                      .dwpsn  file "C:/ti/controlSUITE/device_support/F2837xS/v170/F2837xS_common/source/F2837xS_Gpio.c",li
     362              
     363                      .dwfde $C$DW$CIE, _GPIO_SetupXINT4Gpio
     364              $C$DW$22        .dwtag  DW_TAG_formal_parameter
     365                      .dwattr $C$DW$22, DW_AT_name("pin")
     366                      .dwattr $C$DW$22, DW_AT_TI_symbol_name("_pin")
     367                      .dwattr $C$DW$22, DW_AT_type(*$C$DW$T$19)
     368                      .dwattr $C$DW$22, DW_AT_location[DW_OP_reg0]
     369              
TMS320C2000 Assembler PC v20.2.1 Sat Nov 14 12:25:43 2020

Copyright (c) 1996-2018 Texas Instruments Incorporated
F2837xS_Gpio.asm                                                     PAGE    8

     370              
     371              ;***************************************************************
     372              ;* FNAME: _GPIO_SetupXINT4Gpio          FR SIZE:   0           *
     373              ;*                                                             *
     374              ;* FUNCTION ENVIRONMENT                                        *
     375              ;*                                                             *
     376              ;* FUNCTION PROPERTIES                                         *
     377              ;*                            0 Parameter,  0 Auto,  0 SOE     *
     378              ;***************************************************************
     379              
     380              _GPIO_SetupXINT4Gpio:
     381              ;* AL    assigned to _pin
     382              $C$DW$23        .dwtag  DW_TAG_variable
     383                      .dwattr $C$DW$23, DW_AT_name("pin")
     384                      .dwattr $C$DW$23, DW_AT_TI_symbol_name("_pin")
     385                      .dwattr $C$DW$23, DW_AT_type(*$C$DW$T$379)
     386                      .dwattr $C$DW$23, DW_AT_location[DW_OP_reg0]
     387              
     388                      .dwcfi  cfa_offset, -2
     389                      .dwcfi  save_reg_to_mem, 26, 0
     390 0000005c 7622   EALLOW
     391 0000005d 761F!         MOVW      DP,#_InputXbarRegs+12 ; [CPU_ARAU] 
         0000005e 0000 
     392                      .dwpsn  file "C:/ti/controlSUITE/device_support/F2837xS/v170/F2837xS_common/source/F2837xS_Gpio.c",li
     393 0000005f 960C!         MOV       @$BLOCKED(_InputXbarRegs)+12,AL ; [CPU_ALU] |260| 
     394 00000060 761A   EDIS
     395 00000061 FF69          SPM       #0                    ; [CPU_ALU] 
     396              $C$DW$24        .dwtag  DW_TAG_TI_branch
     397                      .dwattr $C$DW$24, DW_AT_low_pc(0x00)
     398                      .dwattr $C$DW$24, DW_AT_TI_return
     399              
     400 00000062 0006          LRETR     ; [CPU_ALU] 
     401                      ; return occurs ; [] 
     402                      .dwattr $C$DW$21, DW_AT_TI_end_file("C:/ti/controlSUITE/device_support/F2837xS/v170/F2837xS_common/so
     403                      .dwattr $C$DW$21, DW_AT_TI_end_line(0x106)
     404                      .dwattr $C$DW$21, DW_AT_TI_end_column(0x01)
     405                      .dwendentry
     406                      .dwendtag $C$DW$21
     407              
     408 00000063               .sect   ".text"
     409                      .clink
     410                      .global _GPIO_SetupXINT3Gpio
     411              
     412              $C$DW$25        .dwtag  DW_TAG_subprogram
     413                      .dwattr $C$DW$25, DW_AT_name("GPIO_SetupXINT3Gpio")
     414                      .dwattr $C$DW$25, DW_AT_low_pc(_GPIO_SetupXINT3Gpio)
     415                      .dwattr $C$DW$25, DW_AT_high_pc(0x00)
     416                      .dwattr $C$DW$25, DW_AT_TI_symbol_name("_GPIO_SetupXINT3Gpio")
     417                      .dwattr $C$DW$25, DW_AT_external
     418                      .dwattr $C$DW$25, DW_AT_TI_begin_file("C:/ti/controlSUITE/device_support/F2837xS/v170/F2837xS_common/
     419                      .dwattr $C$DW$25, DW_AT_TI_begin_line(0xfb)
     420                      .dwattr $C$DW$25, DW_AT_TI_begin_column(0x06)
     421                      .dwattr $C$DW$25, DW_AT_TI_max_frame_size(-2)
     422                      .dwpsn  file "C:/ti/controlSUITE/device_support/F2837xS/v170/F2837xS_common/source/F2837xS_Gpio.c",li
     423              
TMS320C2000 Assembler PC v20.2.1 Sat Nov 14 12:25:43 2020

Copyright (c) 1996-2018 Texas Instruments Incorporated
F2837xS_Gpio.asm                                                     PAGE    9

     424                      .dwfde $C$DW$CIE, _GPIO_SetupXINT3Gpio
     425              $C$DW$26        .dwtag  DW_TAG_formal_parameter
     426                      .dwattr $C$DW$26, DW_AT_name("pin")
     427                      .dwattr $C$DW$26, DW_AT_TI_symbol_name("_pin")
     428                      .dwattr $C$DW$26, DW_AT_type(*$C$DW$T$19)
     429                      .dwattr $C$DW$26, DW_AT_location[DW_OP_reg0]
     430              
     431              
     432              ;***************************************************************
     433              ;* FNAME: _GPIO_SetupXINT3Gpio          FR SIZE:   0           *
     434              ;*                                                             *
     435              ;* FUNCTION ENVIRONMENT                                        *
     436              ;*                                                             *
     437              ;* FUNCTION PROPERTIES                                         *
     438              ;*                            0 Parameter,  0 Auto,  0 SOE     *
     439              ;***************************************************************
     440              
     441              _GPIO_SetupXINT3Gpio:
     442              ;* AL    assigned to _pin
     443              $C$DW$27        .dwtag  DW_TAG_variable
     444                      .dwattr $C$DW$27, DW_AT_name("pin")
     445                      .dwattr $C$DW$27, DW_AT_TI_symbol_name("_pin")
     446                      .dwattr $C$DW$27, DW_AT_type(*$C$DW$T$379)
     447                      .dwattr $C$DW$27, DW_AT_location[DW_OP_reg0]
     448              
     449                      .dwcfi  cfa_offset, -2
     450                      .dwcfi  save_reg_to_mem, 26, 0
     451 00000063 7622   EALLOW
     452 00000064 761F!         MOVW      DP,#_InputXbarRegs+5  ; [CPU_ARAU] 
         00000065 0000 
     453                      .dwpsn  file "C:/ti/controlSUITE/device_support/F2837xS/v170/F2837xS_common/source/F2837xS_Gpio.c",li
     454 00000066 9605!         MOV       @$BLOCKED(_InputXbarRegs)+5,AL ; [CPU_ALU] |254| 
     455 00000067 761A   EDIS
     456 00000068 FF69          SPM       #0                    ; [CPU_ALU] 
     457              $C$DW$28        .dwtag  DW_TAG_TI_branch
     458                      .dwattr $C$DW$28, DW_AT_low_pc(0x00)
     459                      .dwattr $C$DW$28, DW_AT_TI_return
     460              
     461 00000069 0006          LRETR     ; [CPU_ALU] 
     462                      ; return occurs ; [] 
     463                      .dwattr $C$DW$25, DW_AT_TI_end_file("C:/ti/controlSUITE/device_support/F2837xS/v170/F2837xS_common/so
     464                      .dwattr $C$DW$25, DW_AT_TI_end_line(0x100)
     465                      .dwattr $C$DW$25, DW_AT_TI_end_column(0x01)
     466                      .dwendentry
     467                      .dwendtag $C$DW$25
     468              
     469 0000006a               .sect   ".text"
     470                      .clink
     471                      .global _GPIO_SetupXINT2Gpio
     472              
     473              $C$DW$29        .dwtag  DW_TAG_subprogram
     474                      .dwattr $C$DW$29, DW_AT_name("GPIO_SetupXINT2Gpio")
     475                      .dwattr $C$DW$29, DW_AT_low_pc(_GPIO_SetupXINT2Gpio)
     476                      .dwattr $C$DW$29, DW_AT_high_pc(0x00)
     477                      .dwattr $C$DW$29, DW_AT_TI_symbol_name("_GPIO_SetupXINT2Gpio")
TMS320C2000 Assembler PC v20.2.1 Sat Nov 14 12:25:43 2020

Copyright (c) 1996-2018 Texas Instruments Incorporated
F2837xS_Gpio.asm                                                     PAGE   10

     478                      .dwattr $C$DW$29, DW_AT_external
     479                      .dwattr $C$DW$29, DW_AT_TI_begin_file("C:/ti/controlSUITE/device_support/F2837xS/v170/F2837xS_common/
     480                      .dwattr $C$DW$29, DW_AT_TI_begin_line(0xf5)
     481                      .dwattr $C$DW$29, DW_AT_TI_begin_column(0x06)
     482                      .dwattr $C$DW$29, DW_AT_TI_max_frame_size(-2)
     483                      .dwpsn  file "C:/ti/controlSUITE/device_support/F2837xS/v170/F2837xS_common/source/F2837xS_Gpio.c",li
     484              
     485                      .dwfde $C$DW$CIE, _GPIO_SetupXINT2Gpio
     486              $C$DW$30        .dwtag  DW_TAG_formal_parameter
     487                      .dwattr $C$DW$30, DW_AT_name("pin")
     488                      .dwattr $C$DW$30, DW_AT_TI_symbol_name("_pin")
     489                      .dwattr $C$DW$30, DW_AT_type(*$C$DW$T$19)
     490                      .dwattr $C$DW$30, DW_AT_location[DW_OP_reg0]
     491              
     492              
     493              ;***************************************************************
     494              ;* FNAME: _GPIO_SetupXINT2Gpio          FR SIZE:   0           *
     495              ;*                                                             *
     496              ;* FUNCTION ENVIRONMENT                                        *
     497              ;*                                                             *
     498              ;* FUNCTION PROPERTIES                                         *
     499              ;*                            0 Parameter,  0 Auto,  0 SOE     *
     500              ;***************************************************************
     501              
     502              _GPIO_SetupXINT2Gpio:
     503              ;* AL    assigned to _pin
     504              $C$DW$31        .dwtag  DW_TAG_variable
     505                      .dwattr $C$DW$31, DW_AT_name("pin")
     506                      .dwattr $C$DW$31, DW_AT_TI_symbol_name("_pin")
     507                      .dwattr $C$DW$31, DW_AT_type(*$C$DW$T$379)
     508                      .dwattr $C$DW$31, DW_AT_location[DW_OP_reg0]
     509              
     510                      .dwcfi  cfa_offset, -2
     511                      .dwcfi  save_reg_to_mem, 26, 0
     512 0000006a 7622   EALLOW
     513 0000006b 761F!         MOVW      DP,#_InputXbarRegs+4  ; [CPU_ARAU] 
         0000006c 0000 
     514                      .dwpsn  file "C:/ti/controlSUITE/device_support/F2837xS/v170/F2837xS_common/source/F2837xS_Gpio.c",li
     515 0000006d 9604!         MOV       @$BLOCKED(_InputXbarRegs)+4,AL ; [CPU_ALU] |248| 
     516 0000006e 761A   EDIS
     517 0000006f FF69          SPM       #0                    ; [CPU_ALU] 
     518              $C$DW$32        .dwtag  DW_TAG_TI_branch
     519                      .dwattr $C$DW$32, DW_AT_low_pc(0x00)
     520                      .dwattr $C$DW$32, DW_AT_TI_return
     521              
     522 00000070 0006          LRETR     ; [CPU_ALU] 
     523                      ; return occurs ; [] 
     524                      .dwattr $C$DW$29, DW_AT_TI_end_file("C:/ti/controlSUITE/device_support/F2837xS/v170/F2837xS_common/so
     525                      .dwattr $C$DW$29, DW_AT_TI_end_line(0xfa)
     526                      .dwattr $C$DW$29, DW_AT_TI_end_column(0x01)
     527                      .dwendentry
     528                      .dwendtag $C$DW$29
     529              
     530 00000071               .sect   ".text"
     531                      .clink
TMS320C2000 Assembler PC v20.2.1 Sat Nov 14 12:25:43 2020

Copyright (c) 1996-2018 Texas Instruments Incorporated
F2837xS_Gpio.asm                                                     PAGE   11

     532                      .global _GPIO_SetupXINT1Gpio
     533              
     534              $C$DW$33        .dwtag  DW_TAG_subprogram
     535                      .dwattr $C$DW$33, DW_AT_name("GPIO_SetupXINT1Gpio")
     536                      .dwattr $C$DW$33, DW_AT_low_pc(_GPIO_SetupXINT1Gpio)
     537                      .dwattr $C$DW$33, DW_AT_high_pc(0x00)
     538                      .dwattr $C$DW$33, DW_AT_TI_symbol_name("_GPIO_SetupXINT1Gpio")
     539                      .dwattr $C$DW$33, DW_AT_external
     540                      .dwattr $C$DW$33, DW_AT_TI_begin_file("C:/ti/controlSUITE/device_support/F2837xS/v170/F2837xS_common/
     541                      .dwattr $C$DW$33, DW_AT_TI_begin_line(0xef)
     542                      .dwattr $C$DW$33, DW_AT_TI_begin_column(0x06)
     543                      .dwattr $C$DW$33, DW_AT_TI_max_frame_size(-2)
     544                      .dwpsn  file "C:/ti/controlSUITE/device_support/F2837xS/v170/F2837xS_common/source/F2837xS_Gpio.c",li
     545              
     546                      .dwfde $C$DW$CIE, _GPIO_SetupXINT1Gpio
     547              $C$DW$34        .dwtag  DW_TAG_formal_parameter
     548                      .dwattr $C$DW$34, DW_AT_name("pin")
     549                      .dwattr $C$DW$34, DW_AT_TI_symbol_name("_pin")
     550                      .dwattr $C$DW$34, DW_AT_type(*$C$DW$T$19)
     551                      .dwattr $C$DW$34, DW_AT_location[DW_OP_reg0]
     552              
     553              
     554              ;***************************************************************
     555              ;* FNAME: _GPIO_SetupXINT1Gpio          FR SIZE:   0           *
     556              ;*                                                             *
     557              ;* FUNCTION ENVIRONMENT                                        *
     558              ;*                                                             *
     559              ;* FUNCTION PROPERTIES                                         *
     560              ;*                            0 Parameter,  0 Auto,  0 SOE     *
     561              ;***************************************************************
     562              
     563              _GPIO_SetupXINT1Gpio:
     564              ;* AL    assigned to _pin
     565              $C$DW$35        .dwtag  DW_TAG_variable
     566                      .dwattr $C$DW$35, DW_AT_name("pin")
     567                      .dwattr $C$DW$35, DW_AT_TI_symbol_name("_pin")
     568                      .dwattr $C$DW$35, DW_AT_type(*$C$DW$T$379)
     569                      .dwattr $C$DW$35, DW_AT_location[DW_OP_reg0]
     570              
     571                      .dwcfi  cfa_offset, -2
     572                      .dwcfi  save_reg_to_mem, 26, 0
     573 00000071 7622   EALLOW
     574 00000072 761F!         MOVW      DP,#_InputXbarRegs+3  ; [CPU_ARAU] 
         00000073 0000 
     575                      .dwpsn  file "C:/ti/controlSUITE/device_support/F2837xS/v170/F2837xS_common/source/F2837xS_Gpio.c",li
     576 00000074 9603!         MOV       @$BLOCKED(_InputXbarRegs)+3,AL ; [CPU_ALU] |242| 
     577 00000075 761A   EDIS
     578 00000076 FF69          SPM       #0                    ; [CPU_ALU] 
     579              $C$DW$36        .dwtag  DW_TAG_TI_branch
     580                      .dwattr $C$DW$36, DW_AT_low_pc(0x00)
     581                      .dwattr $C$DW$36, DW_AT_TI_return
     582              
     583 00000077 0006          LRETR     ; [CPU_ALU] 
     584                      ; return occurs ; [] 
     585                      .dwattr $C$DW$33, DW_AT_TI_end_file("C:/ti/controlSUITE/device_support/F2837xS/v170/F2837xS_common/so
TMS320C2000 Assembler PC v20.2.1 Sat Nov 14 12:25:43 2020

Copyright (c) 1996-2018 Texas Instruments Incorporated
F2837xS_Gpio.asm                                                     PAGE   12

     586                      .dwattr $C$DW$33, DW_AT_TI_end_line(0xf4)
     587                      .dwattr $C$DW$33, DW_AT_TI_end_column(0x01)
     588                      .dwendentry
     589                      .dwendtag $C$DW$33
     590              
     591 00000078               .sect   ".text"
     592                      .clink
     593                      .global _GPIO_SetupPinOptions
     594              
     595              $C$DW$37        .dwtag  DW_TAG_subprogram
     596                      .dwattr $C$DW$37, DW_AT_name("GPIO_SetupPinOptions")
     597                      .dwattr $C$DW$37, DW_AT_low_pc(_GPIO_SetupPinOptions)
     598                      .dwattr $C$DW$37, DW_AT_high_pc(0x00)
     599                      .dwattr $C$DW$37, DW_AT_TI_symbol_name("_GPIO_SetupPinOptions")
     600                      .dwattr $C$DW$37, DW_AT_external
     601                      .dwattr $C$DW$37, DW_AT_TI_begin_file("C:/ti/controlSUITE/device_support/F2837xS/v170/F2837xS_common/
     602                      .dwattr $C$DW$37, DW_AT_TI_begin_line(0x81)
     603                      .dwattr $C$DW$37, DW_AT_TI_begin_column(0x06)
     604                      .dwattr $C$DW$37, DW_AT_TI_max_frame_size(-10)
     605                      .dwpsn  file "C:/ti/controlSUITE/device_support/F2837xS/v170/F2837xS_common/source/F2837xS_Gpio.c",li
     606              
     607                      .dwfde $C$DW$CIE, _GPIO_SetupPinOptions
     608              $C$DW$38        .dwtag  DW_TAG_formal_parameter
     609                      .dwattr $C$DW$38, DW_AT_name("pin")
     610                      .dwattr $C$DW$38, DW_AT_TI_symbol_name("_pin")
     611                      .dwattr $C$DW$38, DW_AT_type(*$C$DW$T$19)
     612                      .dwattr $C$DW$38, DW_AT_location[DW_OP_reg0]
     613              
     614              $C$DW$39        .dwtag  DW_TAG_formal_parameter
     615                      .dwattr $C$DW$39, DW_AT_name("output")
     616                      .dwattr $C$DW$39, DW_AT_TI_symbol_name("_output")
     617                      .dwattr $C$DW$39, DW_AT_type(*$C$DW$T$19)
     618                      .dwattr $C$DW$39, DW_AT_location[DW_OP_reg1]
     619              
     620              $C$DW$40        .dwtag  DW_TAG_formal_parameter
     621                      .dwattr $C$DW$40, DW_AT_name("flags")
     622                      .dwattr $C$DW$40, DW_AT_TI_symbol_name("_flags")
     623                      .dwattr $C$DW$40, DW_AT_type(*$C$DW$T$19)
     624                      .dwattr $C$DW$40, DW_AT_location[DW_OP_reg12]
     625              
     626              
     627              ;***************************************************************
     628              ;* FNAME: _GPIO_SetupPinOptions         FR SIZE:   8           *
     629              ;*                                                             *
     630              ;* FUNCTION ENVIRONMENT                                        *
     631              ;*                                                             *
     632              ;* FUNCTION PROPERTIES                                         *
     633              ;*                            0 Parameter,  2 Auto,  6 SOE     *
     634              ;***************************************************************
     635              
     636              _GPIO_SetupPinOptions:
     637              ;* AL    assigned to $O$C1
     638              ;* AR6   assigned to $O$C2
     639              ;* T     assigned to $O$C4
     640              ;* AR0   assigned to $O$C5
TMS320C2000 Assembler PC v20.2.1 Sat Nov 14 12:25:43 2020

Copyright (c) 1996-2018 Texas Instruments Incorporated
F2837xS_Gpio.asm                                                     PAGE   13

     641              ;* AR6   assigned to _pin
     642              $C$DW$41        .dwtag  DW_TAG_variable
     643                      .dwattr $C$DW$41, DW_AT_name("pin")
     644                      .dwattr $C$DW$41, DW_AT_TI_symbol_name("_pin")
     645                      .dwattr $C$DW$41, DW_AT_type(*$C$DW$T$379)
     646                      .dwattr $C$DW$41, DW_AT_location[DW_OP_reg16]
     647              
     648              ;* AR3   assigned to _output
     649              $C$DW$42        .dwtag  DW_TAG_variable
     650                      .dwattr $C$DW$42, DW_AT_name("output")
     651                      .dwattr $C$DW$42, DW_AT_TI_symbol_name("_output")
     652                      .dwattr $C$DW$42, DW_AT_type(*$C$DW$T$379)
     653                      .dwattr $C$DW$42, DW_AT_location[DW_OP_reg10]
     654              
     655              ;* AR4   assigned to _flags
     656              $C$DW$43        .dwtag  DW_TAG_variable
     657                      .dwattr $C$DW$43, DW_AT_name("flags")
     658                      .dwattr $C$DW$43, DW_AT_TI_symbol_name("_flags")
     659                      .dwattr $C$DW$43, DW_AT_type(*$C$DW$T$379)
     660                      .dwattr $C$DW$43, DW_AT_location[DW_OP_reg12]
     661              
     662              ;* AR6   assigned to _dir
     663              $C$DW$44        .dwtag  DW_TAG_variable
     664                      .dwattr $C$DW$44, DW_AT_name("dir")
     665                      .dwattr $C$DW$44, DW_AT_TI_symbol_name("_dir")
     666                      .dwattr $C$DW$44, DW_AT_type(*$C$DW$T$385)
     667                      .dwattr $C$DW$44, DW_AT_location[DW_OP_reg16]
     668              
     669              ;* AR5   assigned to _pud
     670              $C$DW$45        .dwtag  DW_TAG_variable
     671                      .dwattr $C$DW$45, DW_AT_name("pud")
     672                      .dwattr $C$DW$45, DW_AT_TI_symbol_name("_pud")
     673                      .dwattr $C$DW$45, DW_AT_type(*$C$DW$T$385)
     674                      .dwattr $C$DW$45, DW_AT_location[DW_OP_reg14]
     675              
     676              ;* AR0   assigned to _inv
     677              $C$DW$46        .dwtag  DW_TAG_variable
     678                      .dwattr $C$DW$46, DW_AT_name("inv")
     679                      .dwattr $C$DW$46, DW_AT_TI_symbol_name("_inv")
     680                      .dwattr $C$DW$46, DW_AT_type(*$C$DW$T$385)
     681                      .dwattr $C$DW$46, DW_AT_location[DW_OP_reg4]
     682              
     683              ;* AR7   assigned to _odr
     684              $C$DW$47        .dwtag  DW_TAG_variable
     685                      .dwattr $C$DW$47, DW_AT_name("odr")
     686                      .dwattr $C$DW$47, DW_AT_TI_symbol_name("_odr")
     687                      .dwattr $C$DW$47, DW_AT_type(*$C$DW$T$385)
     688                      .dwattr $C$DW$47, DW_AT_location[DW_OP_reg18]
     689              
     690              ;* AR1   assigned to _qsel
     691              $C$DW$48        .dwtag  DW_TAG_variable
     692                      .dwattr $C$DW$48, DW_AT_name("qsel")
     693                      .dwattr $C$DW$48, DW_AT_TI_symbol_name("_qsel")
     694                      .dwattr $C$DW$48, DW_AT_type(*$C$DW$T$385)
     695                      .dwattr $C$DW$48, DW_AT_location[DW_OP_reg6]
TMS320C2000 Assembler PC v20.2.1 Sat Nov 14 12:25:43 2020

Copyright (c) 1996-2018 Texas Instruments Incorporated
F2837xS_Gpio.asm                                                     PAGE   14

     696              
     697              ;* AR2   assigned to _pin16
     698              $C$DW$49        .dwtag  DW_TAG_variable
     699                      .dwattr $C$DW$49, DW_AT_name("pin16")
     700                      .dwattr $C$DW$49, DW_AT_TI_symbol_name("_pin16")
     701                      .dwattr $C$DW$49, DW_AT_type(*$C$DW$T$11)
     702                      .dwattr $C$DW$49, DW_AT_location[DW_OP_reg8]
     703              
     704              ;* PL    assigned to _pinMask
     705              $C$DW$50        .dwtag  DW_TAG_variable
     706                      .dwattr $C$DW$50, DW_AT_name("pinMask")
     707                      .dwattr $C$DW$50, DW_AT_TI_symbol_name("_pinMask")
     708                      .dwattr $C$DW$50, DW_AT_type(*$C$DW$T$21)
     709                      .dwattr $C$DW$50, DW_AT_location[DW_OP_reg2]
     710              
     711                      .dwcfi  cfa_offset, -2
     712                      .dwcfi  save_reg_to_mem, 26, 0
     713 00000078 B2BD          MOVL      *SP++,XAR1            ; [CPU_ALU] 
     714                      .dwcfi  save_reg_to_mem, 7, 2
     715                      .dwcfi  cfa_offset, -4
     716 00000079 AABD          MOVL      *SP++,XAR2            ; [CPU_ALU] 
     717                      .dwcfi  save_reg_to_mem, 9, 4
     718                      .dwcfi  cfa_offset, -6
     719 0000007a A2BD          MOVL      *SP++,XAR3            ; [CPU_ALU] 
     720                      .dwcfi  save_reg_to_mem, 11, 6
     721                      .dwcfi  cfa_offset, -8
     722 0000007b FE02          ADDB      SP,#2                 ; [CPU_ARAU] 
     723                      .dwcfi  cfa_offset, -10
     724 0000007c 88A9          MOVZ      AR6,AL                ; [CPU_ALU] |130| 
     725 0000007d 5BA8          MOVZ      AR3,AH                ; [CPU_ALU] |130| 
     726 0000007e 2901          CLRC      SXM                   ; [CPU_ALU] 
     727                      .dwpsn  file "C:/ti/controlSUITE/device_support/F2837xS/v170/F2837xS_common/source/F2837xS_Gpio.c",li
     728 0000007f CCA6          AND       AL,AR6,#0x000f        ; [CPU_ALU] |136| 
         00000080 000F 
     729                      .dwpsn  file "C:/ti/controlSUITE/device_support/F2837xS/v170/F2837xS_common/source/F2837xS_Gpio.c",li
     730 00000081 8F40!         MOVL      XAR5,#_GpioCtrlRegs   ; [CPU_ARAU] |148| 
         00000082 0000 
     731                      .dwpsn  file "C:/ti/controlSUITE/device_support/F2837xS/v170/F2837xS_common/source/F2837xS_Gpio.c",li
     732 00000083 5AA9          MOVZ      AR2,AL                ; [CPU_ALU] |136| 
     733                      .dwpsn  file "C:/ti/controlSUITE/device_support/F2837xS/v170/F2837xS_common/source/F2837xS_Gpio.c",li
     734 00000084 CCA6          AND       AL,AR6,#0x001f        ; [CPU_ALU] |137| 
         00000085 001F 
     735 00000086 2DA9          MOV       T,AL                  ; [CPU_ALU] |137| 
     736 00000087 0201          MOVB      ACC,#1                ; [CPU_ALU] |137| 
     737 00000088 563B          LSLL      ACC,T                 ; [CPU_ALU] |137| 
     738 00000089 FF5A          MOVL      P,ACC                 ; [CPU_ALU] |137| 
     739                      .dwpsn  file "C:/ti/controlSUITE/device_support/F2837xS/v170/F2837xS_common/source/F2837xS_Gpio.c",li
     740 0000008a CCA6          AND       AL,AR6,#0xffe0        ; [CPU_ALU] |148| 
         0000008b FFE0 
     741 0000008c 5603          MOV       ACC,AL << 1           ; [CPU_ALU] |148| 
         0000008d 01A9 
     742 0000008e 5601          ADDL      XAR5,ACC              ; [CPU_ALU] |148| 
         0000008f 00A5 
     743                      .dwpsn  file "C:/ti/controlSUITE/device_support/F2837xS/v170/F2837xS_common/source/F2837xS_Gpio.c",li
     744 00000090 0EAC          MOVU      ACC,T                 ; [CPU_ALU] |152| 
TMS320C2000 Assembler PC v20.2.1 Sat Nov 14 12:25:43 2020

Copyright (c) 1996-2018 Texas Instruments Incorporated
F2837xS_Gpio.asm                                                     PAGE   15

     745                      .dwpsn  file "C:/ti/controlSUITE/device_support/F2837xS/v170/F2837xS_common/source/F2837xS_Gpio.c",li
     746 00000091 C5A5          MOVL      XAR7,XAR5             ; [CPU_ALU] |148| 
     747 00000092 8EA5          MOVL      XAR0,XAR5             ; [CPU_ALU] |148| 
     748 00000093 C4A5          MOVL      XAR6,XAR5             ; [CPU_ALU] |148| 
     749                      .dwpsn  file "C:/ti/controlSUITE/device_support/F2837xS/v170/F2837xS_common/source/F2837xS_Gpio.c",li
     750 00000094 FF42          SFR       ACC,3                 ; [CPU_ALU] |152| 
     751 00000095 18A9          AND       AL,#65534             ; [CPU_ALU] |152| 
         00000096 FFFE 
     752                      .dwpsn  file "C:/ti/controlSUITE/device_support/F2837xS/v170/F2837xS_common/source/F2837xS_Gpio.c",li
     753 00000097 DF12          ADDB      XAR7,#18              ; [CPU_ALU] |151| 
     754                      .dwpsn  file "C:/ti/controlSUITE/device_support/F2837xS/v170/F2837xS_common/source/F2837xS_Gpio.c",li
     755 00000098 DE0A          ADDB      XAR6,#10              ; [CPU_ALU] |148| 
     756                      .dwpsn  file "C:/ti/controlSUITE/device_support/F2837xS/v170/F2837xS_common/source/F2837xS_Gpio.c",li
     757 00000099 DD0C          ADDB      XAR5,#12              ; [CPU_ALU] |149| 
     758                      .dwpsn  file "C:/ti/controlSUITE/device_support/F2837xS/v170/F2837xS_common/source/F2837xS_Gpio.c",li
     759 0000009a 07A0          ADDL      ACC,XAR0              ; [CPU_ALU] |152| 
     760 0000009b 0902          ADDB      ACC,#2                ; [CPU_ALU] |152| 
     761 0000009c 8BA9          MOVL      XAR1,ACC              ; [CPU_FPU] |152| 
     762                      .dwpsn  file "C:/ti/controlSUITE/device_support/F2837xS/v170/F2837xS_common/source/F2837xS_Gpio.c",li
     763 0000009d D810          ADDB      XAR0,#16              ; [CPU_ALU] |150| 
     764 0000009e 7622   EALLOW
     765 0000009f A9A9          MOVL      ACC,P                 ; [CPU_ALU] 
     766                      .dwpsn  file "C:/ti/controlSUITE/device_support/F2837xS/v170/F2837xS_common/source/F2837xS_Gpio.c",li
     767 000000a0 FF55          NOT       ACC                   ; [CPU_ALU] |157| 
     768 000000a1 1E42          MOVL      *-SP[2],ACC           ; [CPU_ALU] |157| 
     769 000000a2 9242          MOV       AL,*-SP[2]            ; [CPU_ALU] |157| 
     770 000000a3 C0C6          AND       *+XAR6[0],AL          ; [CPU_ALU] |157| 
     771 000000a4 9241          MOV       AL,*-SP[1]            ; [CPU_ALU] |157| 
     772 000000a5 C0CE          AND       *+XAR6[1],AL          ; [CPU_ALU] |157| 
     773 000000a6 92A3          MOV       AL,AR3                ; [CPU_ALU] |157| 
     774                      .dwpsn  file "C:/ti/controlSUITE/device_support/F2837xS/v170/F2837xS_common/source/F2837xS_Gpio.c",li
     775 000000a7 5201          CMPB      AL,#1                 ; [CPU_ALU] |158| 
     776 000000a8 611C          B         $C$L9,EQ              ; [CPU_ALU] |158| 
     777                      ; branchcc occurs ; [] |158| 
     778 000000a9 9242          MOV       AL,*-SP[2]            ; [CPU_ALU] 
     779                      .dwpsn  file "C:/ti/controlSUITE/device_support/F2837xS/v170/F2837xS_common/source/F2837xS_Gpio.c",li
     780 000000aa C0C6          AND       *+XAR6[0],AL          ; [CPU_ALU] |177| 
     781 000000ab 9241          MOV       AL,*-SP[1]            ; [CPU_ALU] |177| 
     782 000000ac C0CE          AND       *+XAR6[1],AL          ; [CPU_ALU] |177| 
     783                      .dwpsn  file "C:/ti/controlSUITE/device_support/F2837xS/v170/F2837xS_common/source/F2837xS_Gpio.c",li
     784 000000ad 40A4          TBIT      AR4,#0                ; [CPU_ALU] |180| 
     785 000000ae 6D06          B         $C$L6,TC              ; [CPU_ALU] |180| 
     786                      ; branchcc occurs ; [] |180| 
     787 000000af 92AB          MOV       AL,PL                 ; [CPU_ALU] 
     788                      .dwpsn  file "C:/ti/controlSUITE/device_support/F2837xS/v170/F2837xS_common/source/F2837xS_Gpio.c",li
     789 000000b0 93AA          MOV       AH,PH                 ; [CPU_ALU] |183| 
     790 000000b1 98C5          OR        *+XAR5[0],AL          ; [CPU_ALU] |183| 
     791 000000b2 99CD          OR        *+XAR5[1],AH          ; [CPU_ALU] |183| 
     792                      .dwpsn  file "C:/ti/controlSUITE/device_support/F2837xS/v170/F2837xS_common/source/F2837xS_Gpio.c",li
     793 000000b3 6F05          B         $C$L7,UNC             ; [CPU_ALU] |186| 
     794                      ; branch occurs ; [] |186| 
     795 000000b4       $C$L6:    
     796 000000b4 A9A9          MOVL      ACC,P                 ; [CPU_ALU] 
     797                      .dwpsn  file "C:/ti/controlSUITE/device_support/F2837xS/v170/F2837xS_common/source/F2837xS_Gpio.c",li
     798 000000b5 FF55          NOT       ACC                   ; [CPU_ALU] |181| 
TMS320C2000 Assembler PC v20.2.1 Sat Nov 14 12:25:43 2020

Copyright (c) 1996-2018 Texas Instruments Incorporated
F2837xS_Gpio.asm                                                     PAGE   16

     799 000000b6 C0C5          AND       *+XAR5[0],AL          ; [CPU_ALU] |181| 
     800 000000b7 C1CD          AND       *+XAR5[1],AH          ; [CPU_ALU] |181| 
     801 000000b8       $C$L7:    
     802                      .dwpsn  file "C:/ti/controlSUITE/device_support/F2837xS/v170/F2837xS_common/source/F2837xS_Gpio.c",li
     803 000000b8 41A4          TBIT      AR4,#1                ; [CPU_ALU] |186| 
     804 000000b9 6D06          B         $C$L8,TC              ; [CPU_ALU] |186| 
     805                      ; branchcc occurs ; [] |186| 
     806 000000ba A9A9          MOVL      ACC,P                 ; [CPU_ALU] 
     807                      .dwpsn  file "C:/ti/controlSUITE/device_support/F2837xS/v170/F2837xS_common/source/F2837xS_Gpio.c",li
     808 000000bb FF55          NOT       ACC                   ; [CPU_ALU] |189| 
     809 000000bc C0C0          AND       *+XAR0[0],AL          ; [CPU_ALU] |189| 
     810 000000bd C1C8          AND       *+XAR0[1],AH          ; [CPU_ALU] |189| 
     811 000000be 6F1F          B         $C$L13,UNC            ; [CPU_ALU] |189| 
     812                      ; branch occurs ; [] |189| 
     813 000000bf       $C$L8:    
     814 000000bf 92AB          MOV       AL,PL                 ; [CPU_ALU] 
     815                      .dwpsn  file "C:/ti/controlSUITE/device_support/F2837xS/v170/F2837xS_common/source/F2837xS_Gpio.c",li
     816 000000c0 93AA          MOV       AH,PH                 ; [CPU_ALU] |187| 
     817 000000c1 98C0          OR        *+XAR0[0],AL          ; [CPU_ALU] |187| 
     818 000000c2 99C8          OR        *+XAR0[1],AH          ; [CPU_ALU] |187| 
     819 000000c3 6F1A          B         $C$L13,UNC            ; [CPU_ALU] 
     820                      ; branch occurs ; [] 
     821 000000c4       $C$L9:    
     822 000000c4 92AB          MOV       AL,PL                 ; [CPU_ALU] 
     823                      .dwpsn  file "C:/ti/controlSUITE/device_support/F2837xS/v170/F2837xS_common/source/F2837xS_Gpio.c",li
     824 000000c5 93AA          MOV       AH,PH                 ; [CPU_ALU] |161| 
     825 000000c6 98C6          OR        *+XAR6[0],AL          ; [CPU_ALU] |161| 
     826 000000c7 99CE          OR        *+XAR6[1],AH          ; [CPU_ALU] |161| 
     827                      .dwpsn  file "C:/ti/controlSUITE/device_support/F2837xS/v170/F2837xS_common/source/F2837xS_Gpio.c",li
     828 000000c8 42A4          TBIT      AR4,#2                ; [CPU_ALU] |164| 
     829 000000c9 6D06          B         $C$L10,TC             ; [CPU_ALU] |164| 
     830                      ; branchcc occurs ; [] |164| 
     831 000000ca A9A9          MOVL      ACC,P                 ; [CPU_ALU] 
     832                      .dwpsn  file "C:/ti/controlSUITE/device_support/F2837xS/v170/F2837xS_common/source/F2837xS_Gpio.c",li
     833 000000cb FF55          NOT       ACC                   ; [CPU_ALU] |167| 
     834 000000cc C0C7          AND       *+XAR7[0],AL          ; [CPU_ALU] |167| 
     835 000000cd C1CF          AND       *+XAR7[1],AH          ; [CPU_ALU] |167| 
     836                      .dwpsn  file "C:/ti/controlSUITE/device_support/F2837xS/v170/F2837xS_common/source/F2837xS_Gpio.c",li
     837 000000ce 6F03          B         $C$L11,UNC            ; [CPU_ALU] |170| 
     838                      ; branch occurs ; [] |170| 
     839 000000cf       $C$L10:    
     840                      .dwpsn  file "C:/ti/controlSUITE/device_support/F2837xS/v170/F2837xS_common/source/F2837xS_Gpio.c",li
     841 000000cf 98C7          OR        *+XAR7[0],AL          ; [CPU_ALU] |165| 
     842 000000d0 99CF          OR        *+XAR7[1],AH          ; [CPU_ALU] |165| 
     843 000000d1       $C$L11:    
     844                      .dwpsn  file "C:/ti/controlSUITE/device_support/F2837xS/v170/F2837xS_common/source/F2837xS_Gpio.c",li
     845 000000d1 CCA4          AND       AL,AR4,#0x0005        ; [CPU_ALU] |170| 
         000000d2 0005 
     846 000000d3 6006          B         $C$L12,NEQ            ; [CPU_ALU] |170| 
     847                      ; branchcc occurs ; [] |170| 
     848 000000d4 92AB          MOV       AL,PL                 ; [CPU_ALU] 
     849                      .dwpsn  file "C:/ti/controlSUITE/device_support/F2837xS/v170/F2837xS_common/source/F2837xS_Gpio.c",li
     850 000000d5 93AA          MOV       AH,PH                 ; [CPU_ALU] |173| 
     851 000000d6 98C5          OR        *+XAR5[0],AL          ; [CPU_ALU] |173| 
     852 000000d7 99CD          OR        *+XAR5[1],AH          ; [CPU_ALU] |173| 
TMS320C2000 Assembler PC v20.2.1 Sat Nov 14 12:25:43 2020

Copyright (c) 1996-2018 Texas Instruments Incorporated
F2837xS_Gpio.asm                                                     PAGE   17

     853 000000d8 6F05          B         $C$L13,UNC            ; [CPU_ALU] |173| 
     854                      ; branch occurs ; [] |173| 
     855 000000d9       $C$L12:    
     856 000000d9 A9A9          MOVL      ACC,P                 ; [CPU_ALU] 
     857                      .dwpsn  file "C:/ti/controlSUITE/device_support/F2837xS/v170/F2837xS_common/source/F2837xS_Gpio.c",li
     858 000000da FF55          NOT       ACC                   ; [CPU_ALU] |171| 
     859 000000db C0C5          AND       *+XAR5[0],AL          ; [CPU_ALU] |171| 
     860 000000dc C1CD          AND       *+XAR5[1],AH          ; [CPU_ALU] |171| 
     861 000000dd       $C$L13:    
     862                      .dwpsn  file "C:/ti/controlSUITE/device_support/F2837xS/v170/F2837xS_common/source/F2837xS_Gpio.c",li
     863 000000dd 5603          MOV       ACC,AR2 << 1          ; [CPU_ALU] |195| 
         000000de 01A2 
     864 000000df 1EA6          MOVL      XAR6,ACC              ; [CPU_ALU] |195| 
     865 000000e0 2DA6          MOV       T,AR6                 ; [CPU_ALU] |195| 
     866 000000e1 0203          MOVB      ACC,#3                ; [CPU_ALU] |195| 
     867 000000e2 563B          LSLL      ACC,T                 ; [CPU_ALU] |195| 
     868 000000e3 FF55          NOT       ACC                   ; [CPU_ALU] |195| 
     869 000000e4 C0C1          AND       *+XAR1[0],AL          ; [CPU_ALU] |195| 
     870                      .dwpsn  file "C:/ti/controlSUITE/device_support/F2837xS/v170/F2837xS_common/source/F2837xS_Gpio.c",li
     871 000000e5 92A4          MOV       AL,AR4                ; [CPU_ALU] |196| 
     872                      .dwpsn  file "C:/ti/controlSUITE/device_support/F2837xS/v170/F2837xS_common/source/F2837xS_Gpio.c",li
     873 000000e6 C1C9          AND       *+XAR1[1],AH          ; [CPU_ALU] |195| 
     874                      .dwpsn  file "C:/ti/controlSUITE/device_support/F2837xS/v170/F2837xS_common/source/F2837xS_Gpio.c",li
     875 000000e7 FFC3          LSR       AL,4                  ; [CPU_ALU] |196| 
     876 000000e8 9003          ANDB      AL,#0x03              ; [CPU_ALU] |196| 
     877 000000e9 6105          B         $C$L14,EQ             ; [CPU_ALU] |196| 
     878                      ; branchcc occurs ; [] |196| 
     879                      .dwpsn  file "C:/ti/controlSUITE/device_support/F2837xS/v170/F2837xS_common/source/F2837xS_Gpio.c",li
     880 000000ea 0EA9          MOVU      ACC,AL                ; [CPU_ALU] |197| 
     881 000000eb 563B          LSLL      ACC,T                 ; [CPU_ALU] |197| 
     882 000000ec 98C1          OR        *+XAR1[0],AL          ; [CPU_ALU] |197| 
     883 000000ed 99C9          OR        *+XAR1[1],AH          ; [CPU_ALU] |197| 
     884 000000ee       $C$L14:    
     885 000000ee 761A   EDIS
     886 000000ef FE82          SUBB      SP,#2                 ; [CPU_ARAU] 
     887                      .dwcfi  cfa_offset, -8
     888 000000f0 FF69          SPM       #0                    ; [CPU_ALU] 
     889 000000f1 82BE          MOVL      XAR3,*--SP            ; [CPU_ALU] 
     890                      .dwcfi  cfa_offset, -6
     891                      .dwcfi  restore_reg, 11
     892 000000f2 86BE          MOVL      XAR2,*--SP            ; [CPU_ALU] 
     893                      .dwcfi  cfa_offset, -4
     894                      .dwcfi  restore_reg, 9
     895 000000f3 8BBE          MOVL      XAR1,*--SP            ; [CPU_ALU] 
     896                      .dwcfi  cfa_offset, -2
     897                      .dwcfi  restore_reg, 7
     898              $C$DW$51        .dwtag  DW_TAG_TI_branch
     899                      .dwattr $C$DW$51, DW_AT_low_pc(0x00)
     900                      .dwattr $C$DW$51, DW_AT_TI_return
     901              
     902 000000f4 0006          LRETR     ; [CPU_ALU] 
     903                      ; return occurs ; [] 
     904                      .dwattr $C$DW$37, DW_AT_TI_end_file("C:/ti/controlSUITE/device_support/F2837xS/v170/F2837xS_common/so
     905                      .dwattr $C$DW$37, DW_AT_TI_end_line(0xc8)
     906                      .dwattr $C$DW$37, DW_AT_TI_end_column(0x01)
TMS320C2000 Assembler PC v20.2.1 Sat Nov 14 12:25:43 2020

Copyright (c) 1996-2018 Texas Instruments Incorporated
F2837xS_Gpio.asm                                                     PAGE   18

     907                      .dwendentry
     908                      .dwendtag $C$DW$37
     909              
     910 000000f5               .sect   ".text"
     911                      .clink
     912                      .global _GPIO_SetupPinMux
     913              
     914              $C$DW$52        .dwtag  DW_TAG_subprogram
     915                      .dwattr $C$DW$52, DW_AT_name("GPIO_SetupPinMux")
     916                      .dwattr $C$DW$52, DW_AT_low_pc(_GPIO_SetupPinMux)
     917                      .dwattr $C$DW$52, DW_AT_high_pc(0x00)
     918                      .dwattr $C$DW$52, DW_AT_TI_symbol_name("_GPIO_SetupPinMux")
     919                      .dwattr $C$DW$52, DW_AT_external
     920                      .dwattr $C$DW$52, DW_AT_TI_begin_file("C:/ti/controlSUITE/device_support/F2837xS/v170/F2837xS_common/
     921                      .dwattr $C$DW$52, DW_AT_TI_begin_line(0x3b)
     922                      .dwattr $C$DW$52, DW_AT_TI_begin_column(0x06)
     923                      .dwattr $C$DW$52, DW_AT_TI_max_frame_size(-4)
     924                      .dwpsn  file "C:/ti/controlSUITE/device_support/F2837xS/v170/F2837xS_common/source/F2837xS_Gpio.c",li
     925              
     926                      .dwfde $C$DW$CIE, _GPIO_SetupPinMux
     927              $C$DW$53        .dwtag  DW_TAG_formal_parameter
     928                      .dwattr $C$DW$53, DW_AT_name("pin")
     929                      .dwattr $C$DW$53, DW_AT_TI_symbol_name("_pin")
     930                      .dwattr $C$DW$53, DW_AT_type(*$C$DW$T$19)
     931                      .dwattr $C$DW$53, DW_AT_location[DW_OP_reg0]
     932              
     933              $C$DW$54        .dwtag  DW_TAG_formal_parameter
     934                      .dwattr $C$DW$54, DW_AT_name("cpu")
     935                      .dwattr $C$DW$54, DW_AT_TI_symbol_name("_cpu")
     936                      .dwattr $C$DW$54, DW_AT_type(*$C$DW$T$19)
     937                      .dwattr $C$DW$54, DW_AT_location[DW_OP_reg1]
     938              
     939              $C$DW$55        .dwtag  DW_TAG_formal_parameter
     940                      .dwattr $C$DW$55, DW_AT_name("peripheral")
     941                      .dwattr $C$DW$55, DW_AT_TI_symbol_name("_peripheral")
     942                      .dwattr $C$DW$55, DW_AT_type(*$C$DW$T$19)
     943                      .dwattr $C$DW$55, DW_AT_location[DW_OP_reg12]
     944              
     945              
     946              ;***************************************************************
     947              ;* FNAME: _GPIO_SetupPinMux             FR SIZE:   2           *
     948              ;*                                                             *
     949              ;* FUNCTION ENVIRONMENT                                        *
     950              ;*                                                             *
     951              ;* FUNCTION PROPERTIES                                         *
     952              ;*                            0 Parameter,  0 Auto,  2 SOE     *
     953              ;***************************************************************
     954              
     955              _GPIO_SetupPinMux:
     956              ;* AR4   assigned to $O$C1
     957              ;* T     assigned to $O$C2
     958              ;* AR5   assigned to $O$C3
     959              ;* AR7   assigned to $O$C4
     960              ;* T     assigned to $O$C5
     961              ;* PL    assigned to $O$C6
TMS320C2000 Assembler PC v20.2.1 Sat Nov 14 12:25:43 2020

Copyright (c) 1996-2018 Texas Instruments Incorporated
F2837xS_Gpio.asm                                                     PAGE   19

     962              ;* AR0   assigned to _pin
     963              $C$DW$56        .dwtag  DW_TAG_variable
     964                      .dwattr $C$DW$56, DW_AT_name("pin")
     965                      .dwattr $C$DW$56, DW_AT_TI_symbol_name("_pin")
     966                      .dwattr $C$DW$56, DW_AT_type(*$C$DW$T$379)
     967                      .dwattr $C$DW$56, DW_AT_location[DW_OP_reg4]
     968              
     969              ;* AR2   assigned to _cpu
     970              $C$DW$57        .dwtag  DW_TAG_variable
     971                      .dwattr $C$DW$57, DW_AT_name("cpu")
     972                      .dwattr $C$DW$57, DW_AT_TI_symbol_name("_cpu")
     973                      .dwattr $C$DW$57, DW_AT_type(*$C$DW$T$379)
     974                      .dwattr $C$DW$57, DW_AT_location[DW_OP_reg8]
     975              
     976              ;* AR4   assigned to _peripheral
     977              $C$DW$58        .dwtag  DW_TAG_variable
     978                      .dwattr $C$DW$58, DW_AT_name("peripheral")
     979                      .dwattr $C$DW$58, DW_AT_TI_symbol_name("_peripheral")
     980                      .dwattr $C$DW$58, DW_AT_type(*$C$DW$T$379)
     981                      .dwattr $C$DW$58, DW_AT_location[DW_OP_reg12]
     982              
     983                      .dwcfi  cfa_offset, -2
     984                      .dwcfi  save_reg_to_mem, 26, 0
     985 000000f5 AABD          MOVL      *SP++,XAR2            ; [CPU_ALU] 
     986                      .dwcfi  save_reg_to_mem, 9, 2
     987                      .dwcfi  cfa_offset, -4
     988                      .dwpsn  file "C:/ti/controlSUITE/device_support/F2837xS/v170/F2837xS_common/source/F2837xS_Gpio.c",li
     989 000000f6 5303          CMPB      AH,#3                 ; [CPU_ALU] |71| 
     990                      .dwpsn  file "C:/ti/controlSUITE/device_support/F2837xS/v170/F2837xS_common/source/F2837xS_Gpio.c",li
     991 000000f7 58A9          MOVZ      AR0,AL                ; [CPU_ALU] |60| 
     992 000000f8 5AA8          MOVZ      AR2,AH                ; [CPU_ALU] |60| 
     993                      .dwpsn  file "C:/ti/controlSUITE/device_support/F2837xS/v170/F2837xS_common/source/F2837xS_Gpio.c",li
     994 000000f9 664E          B         $C$L15,HI             ; [CPU_ALU] |71| 
     995                      ; branchcc occurs ; [] |71| 
     996 000000fa 93A4          MOV       AH,AR4                ; [CPU_ALU] 
     997 000000fb 530F          CMPB      AH,#15                ; [CPU_ALU] |71| 
     998 000000fc 664B          B         $C$L15,HI             ; [CPU_ALU] |71| 
     999                      ; branchcc occurs ; [] |71| 
    1000 000000fd 7622   EALLOW
    1001                      .dwpsn  file "C:/ti/controlSUITE/device_support/F2837xS/v170/F2837xS_common/source/F2837xS_Gpio.c",li
    1002 000000fe 5603          MOV       ACC,AR0 << #1         ; [CPU_ALU] |95| 
         000000ff 01A0 
    1003 00000100 901F          ANDB      AL,#0x1f              ; [CPU_ALU] |95| 
    1004 00000101 2901          CLRC      SXM                   ; [CPU_FPU] 
    1005 00000102 8F40!         MOVL      XAR5,#_GpioCtrlRegs   ; [CPU_ARAU] |95| 
         00000103 0000 
    1006 00000104 2DA9          MOV       T,AL                  ; [CPU_ALU] |95| 
    1007 00000105 0203          MOVB      ACC,#3                ; [CPU_ALU] |95| 
    1008 00000106 563B          LSLL      ACC,T                 ; [CPU_ALU] |95| 
    1009 00000107 FF55          NOT       ACC                   ; [CPU_ALU] |95| 
    1010 00000108 FF5A          MOVL      P,ACC                 ; [CPU_ALU] |95| 
    1011 00000109 CCA0          AND       AL,AR0,#0xffe0        ; [CPU_ALU] |95| 
         0000010a FFE0 
    1012 0000010b 5603          MOV       ACC,AL << 1           ; [CPU_ALU] |95| 
         0000010c 01A9 
TMS320C2000 Assembler PC v20.2.1 Sat Nov 14 12:25:43 2020

Copyright (c) 1996-2018 Texas Instruments Incorporated
F2837xS_Gpio.asm                                                     PAGE   20

    1013 0000010d 5601          ADDL      XAR5,ACC              ; [CPU_ALU] |95| 
         0000010e 00A5 
    1014 0000010f 92A0          MOV       AL,AR0                ; [CPU_FPU] |95| 
    1015 00000110 FFC3          LSR       AL,4                  ; [CPU_ALU] |95| 
    1016 00000111 9001          ANDB      AL,#0x01              ; [CPU_ALU] |95| 
    1017 00000112 5603          MOV       ACC,AL << 1           ; [CPU_ALU] |95| 
         00000113 01A9 
    1018 00000114 07A5          ADDL      ACC,XAR5              ; [CPU_ALU] |95| 
    1019 00000115 1EA7          MOVL      XAR7,ACC              ; [CPU_ALU] |95| 
    1020 00000116 1EA6          MOVL      XAR6,ACC              ; [CPU_ALU] |95| 
    1021                      .dwpsn  file "C:/ti/controlSUITE/device_support/F2837xS/v170/F2837xS_common/source/F2837xS_Gpio.c",li
    1022 00000117 92AB          MOV       AL,PL                 ; [CPU_ALU] |96| 
    1023                      .dwpsn  file "C:/ti/controlSUITE/device_support/F2837xS/v170/F2837xS_common/source/F2837xS_Gpio.c",li
    1024 00000118 93AA          MOV       AH,PH                 ; [CPU_ALU] |95| 
    1025 00000119 C0F7          AND       *+XAR7[6],AL          ; [CPU_ALU] |95| 
    1026                      .dwpsn  file "C:/ti/controlSUITE/device_support/F2837xS/v170/F2837xS_common/source/F2837xS_Gpio.c",li
    1027 0000011a DE20          ADDB      XAR6,#32              ; [CPU_ALU] |96| 
    1028                      .dwpsn  file "C:/ti/controlSUITE/device_support/F2837xS/v170/F2837xS_common/source/F2837xS_Gpio.c",li
    1029 0000011b C1FF          AND       *+XAR7[7],AH          ; [CPU_FPU] |95| 
    1030                      .dwpsn  file "C:/ti/controlSUITE/device_support/F2837xS/v170/F2837xS_common/source/F2837xS_Gpio.c",li
    1031 0000011c C0C6          AND       *+XAR6[0],AL          ; [CPU_ALU] |96| 
    1032 0000011d C1CE          AND       *+XAR6[1],AH          ; [CPU_ALU] |96| 
    1033 0000011e 93A4          MOV       AH,AR4                ; [CPU_ALU] |96| 
    1034                      .dwpsn  file "C:/ti/controlSUITE/device_support/F2837xS/v170/F2837xS_common/source/F2837xS_Gpio.c",li
    1035 0000011f C4A7          MOVL      XAR6,XAR7             ; [CPU_ALU] |97| 
    1036 00000120 FFD1          LSR       AH,2                  ; [CPU_ALU] |97| 
    1037 00000121 9103          ANDB      AH,#0x03              ; [CPU_ALU] |97| 
    1038 00000122 0EA8          MOVU      ACC,AH                ; [CPU_ALU] |97| 
    1039 00000123 DE20          ADDB      XAR6,#32              ; [CPU_ALU] |97| 
    1040 00000124 563B          LSLL      ACC,T                 ; [CPU_ALU] |97| 
    1041 00000125 98C6          OR        *+XAR6[0],AL          ; [CPU_ALU] |97| 
    1042 00000126 99CE          OR        *+XAR6[1],AH          ; [CPU_ALU] |97| 
    1043 00000127 93A4          MOV       AH,AR4                ; [CPU_ALU] |97| 
    1044                      .dwpsn  file "C:/ti/controlSUITE/device_support/F2837xS/v170/F2837xS_common/source/F2837xS_Gpio.c",li
    1045 00000128 9103          ANDB      AH,#3                 ; [CPU_ALU] |98| 
    1046 00000129 0EA8          MOVU      ACC,AH                ; [CPU_ALU] |98| 
    1047 0000012a 563B          LSLL      ACC,T                 ; [CPU_ALU] |98| 
    1048 0000012b 98F7          OR        *+XAR7[6],AL          ; [CPU_ALU] |98| 
    1049 0000012c 99FF          OR        *+XAR7[7],AH          ; [CPU_ALU] |98| 
    1050                      .dwpsn  file "C:/ti/controlSUITE/device_support/F2837xS/v170/F2837xS_common/source/F2837xS_Gpio.c",li
    1051 0000012d 5603          MOV       ACC,AR0 << #2         ; [CPU_ALU] |100| 
         0000012e 02A0 
    1052 0000012f 901F          ANDB      AL,#0x1f              ; [CPU_ALU] |100| 
    1053 00000130 2DA9          MOV       T,AL                  ; [CPU_ALU] |100| 
    1054 00000131 92A0          MOV       AL,AR0                ; [CPU_ALU] |100| 
    1055 00000132 FFC2          LSR       AL,3                  ; [CPU_ALU] |100| 
    1056 00000133 9003          ANDB      AL,#0x03              ; [CPU_ALU] |100| 
    1057 00000134 5603          MOV       ACC,AL << 1           ; [CPU_ALU] |100| 
         00000135 01A9 
    1058 00000136 07A5          ADDL      ACC,XAR5              ; [CPU_ALU] |100| 
    1059 00000137 83A9          MOVL      XAR5,ACC              ; [CPU_ALU] |100| 
    1060 00000138 8AA9          MOVL      XAR4,ACC              ; [CPU_ALU] |100| 
    1061 00000139 0203          MOVB      ACC,#3                ; [CPU_ALU] |100| 
    1062 0000013a 563B          LSLL      ACC,T                 ; [CPU_ALU] |100| 
    1063 0000013b DD28          ADDB      XAR5,#40              ; [CPU_ALU] |100| 
TMS320C2000 Assembler PC v20.2.1 Sat Nov 14 12:25:43 2020

Copyright (c) 1996-2018 Texas Instruments Incorporated
F2837xS_Gpio.asm                                                     PAGE   21

    1064                      .dwpsn  file "C:/ti/controlSUITE/device_support/F2837xS/v170/F2837xS_common/source/F2837xS_Gpio.c",li
    1065 0000013c DC28          ADDB      XAR4,#40              ; [CPU_ALU] |101| 
    1066                      .dwpsn  file "C:/ti/controlSUITE/device_support/F2837xS/v170/F2837xS_common/source/F2837xS_Gpio.c",li
    1067 0000013d FF55          NOT       ACC                   ; [CPU_ALU] |100| 
    1068 0000013e C0C5          AND       *+XAR5[0],AL          ; [CPU_FPU] |100| 
    1069 0000013f 92A2          MOV       AL,AR2                ; [CPU_FPU] |100| 
    1070                      .dwpsn  file "C:/ti/controlSUITE/device_support/F2837xS/v170/F2837xS_common/source/F2837xS_Gpio.c",li
    1071 00000140 9003          ANDB      AL,#3                 ; [CPU_ALU] |101| 
    1072                      .dwpsn  file "C:/ti/controlSUITE/device_support/F2837xS/v170/F2837xS_common/source/F2837xS_Gpio.c",li
    1073 00000141 C1CD          AND       *+XAR5[1],AH          ; [CPU_FPU] |100| 
    1074                      .dwpsn  file "C:/ti/controlSUITE/device_support/F2837xS/v170/F2837xS_common/source/F2837xS_Gpio.c",li
    1075 00000142 0EA9          MOVU      ACC,AL                ; [CPU_FPU] |101| 
    1076 00000143 563B          LSLL      ACC,T                 ; [CPU_ALU] |101| 
    1077 00000144 98C4          OR        *+XAR4[0],AL          ; [CPU_ALU] |101| 
    1078 00000145 99CC          OR        *+XAR4[1],AH          ; [CPU_ALU] |101| 
    1079 00000146 761A   EDIS
    1080 00000147       $C$L15:    
    1081 00000147 86BE          MOVL      XAR2,*--SP            ; [CPU_ALU] 
    1082                      .dwcfi  cfa_offset, -2
    1083                      .dwcfi  restore_reg, 9
    1084 00000148 FF69          SPM       #0                    ; [CPU_ALU] 
    1085              $C$DW$59        .dwtag  DW_TAG_TI_branch
    1086                      .dwattr $C$DW$59, DW_AT_low_pc(0x00)
    1087                      .dwattr $C$DW$59, DW_AT_TI_return
    1088              
    1089 00000149 0006          LRETR     ; [CPU_ALU] 
    1090                      ; return occurs ; [] 
    1091                      .dwattr $C$DW$52, DW_AT_TI_end_file("C:/ti/controlSUITE/device_support/F2837xS/v170/F2837xS_common/so
    1092                      .dwattr $C$DW$52, DW_AT_TI_end_line(0x6b)
    1093                      .dwattr $C$DW$52, DW_AT_TI_end_column(0x01)
    1094                      .dwendentry
    1095                      .dwendtag $C$DW$52
    1096              
    1097 0000014a               .sect   ".text"
    1098                      .clink
    1099                      .global _GPIO_SetupLock
    1100              
    1101              $C$DW$60        .dwtag  DW_TAG_subprogram
    1102                      .dwattr $C$DW$60, DW_AT_name("GPIO_SetupLock")
    1103                      .dwattr $C$DW$60, DW_AT_low_pc(_GPIO_SetupLock)
    1104                      .dwattr $C$DW$60, DW_AT_high_pc(0x00)
    1105                      .dwattr $C$DW$60, DW_AT_TI_symbol_name("_GPIO_SetupLock")
    1106                      .dwattr $C$DW$60, DW_AT_external
    1107                      .dwattr $C$DW$60, DW_AT_TI_begin_file("C:/ti/controlSUITE/device_support/F2837xS/v170/F2837xS_common/
    1108                      .dwattr $C$DW$60, DW_AT_TI_begin_line(0xce)
    1109                      .dwattr $C$DW$60, DW_AT_TI_begin_column(0x06)
    1110                      .dwattr $C$DW$60, DW_AT_TI_max_frame_size(-2)
    1111                      .dwpsn  file "C:/ti/controlSUITE/device_support/F2837xS/v170/F2837xS_common/source/F2837xS_Gpio.c",li
    1112              
    1113                      .dwfde $C$DW$CIE, _GPIO_SetupLock
    1114              $C$DW$61        .dwtag  DW_TAG_formal_parameter
    1115                      .dwattr $C$DW$61, DW_AT_name("pin")
    1116                      .dwattr $C$DW$61, DW_AT_TI_symbol_name("_pin")
    1117                      .dwattr $C$DW$61, DW_AT_type(*$C$DW$T$19)
    1118                      .dwattr $C$DW$61, DW_AT_location[DW_OP_reg0]
TMS320C2000 Assembler PC v20.2.1 Sat Nov 14 12:25:43 2020

Copyright (c) 1996-2018 Texas Instruments Incorporated
F2837xS_Gpio.asm                                                     PAGE   22

    1119              
    1120              $C$DW$62        .dwtag  DW_TAG_formal_parameter
    1121                      .dwattr $C$DW$62, DW_AT_name("flags")
    1122                      .dwattr $C$DW$62, DW_AT_TI_symbol_name("_flags")
    1123                      .dwattr $C$DW$62, DW_AT_type(*$C$DW$T$19)
    1124                      .dwattr $C$DW$62, DW_AT_location[DW_OP_reg1]
    1125              
    1126              
    1127              ;***************************************************************
    1128              ;* FNAME: _GPIO_SetupLock               FR SIZE:   0           *
    1129              ;*                                                             *
    1130              ;* FUNCTION ENVIRONMENT                                        *
    1131              ;*                                                             *
    1132              ;* FUNCTION PROPERTIES                                         *
    1133              ;*                            0 Parameter,  0 Auto,  0 SOE     *
    1134              ;***************************************************************
    1135              
    1136              _GPIO_SetupLock:
    1137              ;* AR7   assigned to _pin
    1138              $C$DW$63        .dwtag  DW_TAG_variable
    1139                      .dwattr $C$DW$63, DW_AT_name("pin")
    1140                      .dwattr $C$DW$63, DW_AT_TI_symbol_name("_pin")
    1141                      .dwattr $C$DW$63, DW_AT_type(*$C$DW$T$379)
    1142                      .dwattr $C$DW$63, DW_AT_location[DW_OP_reg18]
    1143              
    1144              ;* AR6   assigned to _flags
    1145              $C$DW$64        .dwtag  DW_TAG_variable
    1146                      .dwattr $C$DW$64, DW_AT_name("flags")
    1147                      .dwattr $C$DW$64, DW_AT_TI_symbol_name("_flags")
    1148                      .dwattr $C$DW$64, DW_AT_type(*$C$DW$T$379)
    1149                      .dwattr $C$DW$64, DW_AT_location[DW_OP_reg16]
    1150              
    1151              ;* AR4   assigned to _lock
    1152              $C$DW$65        .dwtag  DW_TAG_variable
    1153                      .dwattr $C$DW$65, DW_AT_name("lock")
    1154                      .dwattr $C$DW$65, DW_AT_TI_symbol_name("_lock")
    1155                      .dwattr $C$DW$65, DW_AT_type(*$C$DW$T$385)
    1156                      .dwattr $C$DW$65, DW_AT_location[DW_OP_reg12]
    1157              
    1158              ;* PL    assigned to _pinMask
    1159              $C$DW$66        .dwtag  DW_TAG_variable
    1160                      .dwattr $C$DW$66, DW_AT_name("pinMask")
    1161                      .dwattr $C$DW$66, DW_AT_TI_symbol_name("_pinMask")
    1162                      .dwattr $C$DW$66, DW_AT_type(*$C$DW$T$21)
    1163                      .dwattr $C$DW$66, DW_AT_location[DW_OP_reg2]
    1164              
    1165                      .dwcfi  cfa_offset, -2
    1166                      .dwcfi  save_reg_to_mem, 26, 0
    1167 0000014a 80A9          MOVZ      AR7,AL                ; [CPU_ALU] |207| 
    1168 0000014b 88A8          MOVZ      AR6,AH                ; [CPU_ALU] |207| 
    1169                      .dwpsn  file "C:/ti/controlSUITE/device_support/F2837xS/v170/F2837xS_common/source/F2837xS_Gpio.c",li
    1170 0000014c 0201          MOVB      ACC,#1                ; [CPU_ALU] |213| 
    1171 0000014d 2901          CLRC      SXM                   ; [CPU_ALU] 
    1172 0000014e FF5A          MOVL      P,ACC                 ; [CPU_ALU] |213| 
    1173                      .dwpsn  file "C:/ti/controlSUITE/device_support/F2837xS/v170/F2837xS_common/source/F2837xS_Gpio.c",li
TMS320C2000 Assembler PC v20.2.1 Sat Nov 14 12:25:43 2020

Copyright (c) 1996-2018 Texas Instruments Incorporated
F2837xS_Gpio.asm                                                     PAGE   23

    1174 0000014f 8F00!         MOVL      XAR4,#_GpioCtrlRegs+60 ; [CPU_ARAU] |224| 
         00000150 003C 
    1175                      .dwpsn  file "C:/ti/controlSUITE/device_support/F2837xS/v170/F2837xS_common/source/F2837xS_Gpio.c",li
    1176 00000151 CCA7          AND       AL,AR7,#0x001f        ; [CPU_ALU] |213| 
         00000152 001F 
    1177 00000153 16A9          MOVP      T,AL                  ; [CPU_ALU] 
    1178 00000154 563B          LSLL      ACC,T                 ; [CPU_ALU] |213| 
    1179 00000155 FF5A          MOVL      P,ACC                 ; [CPU_ALU] |213| 
    1180                      .dwpsn  file "C:/ti/controlSUITE/device_support/F2837xS/v170/F2837xS_common/source/F2837xS_Gpio.c",li
    1181 00000156 CCA7          AND       AL,AR7,#0xffe0        ; [CPU_ALU] |224| 
         00000157 FFE0 
    1182 00000158 5603          MOV       ACC,AL << 1           ; [CPU_ALU] |224| 
         00000159 01A9 
    1183 0000015a 5601          ADDL      XAR4,ACC              ; [CPU_ALU] |224| 
         0000015b 00A4 
    1184 0000015c 7622   EALLOW
    1185 0000015d 92A6          MOV       AL,AR6                ; [CPU_ALU] 
    1186                      .dwpsn  file "C:/ti/controlSUITE/device_support/F2837xS/v170/F2837xS_common/source/F2837xS_Gpio.c",li
    1187 0000015e 6006          B         $C$L16,NEQ            ; [CPU_ALU] |228| 
    1188                      ; branchcc occurs ; [] |228| 
    1189 0000015f A9A9          MOVL      ACC,P                 ; [CPU_ALU] 
    1190                      .dwpsn  file "C:/ti/controlSUITE/device_support/F2837xS/v170/F2837xS_common/source/F2837xS_Gpio.c",li
    1191 00000160 FF55          NOT       ACC                   ; [CPU_ALU] |233| 
    1192 00000161 C0C4          AND       *+XAR4[0],AL          ; [CPU_ALU] |233| 
    1193 00000162 C1CC          AND       *+XAR4[1],AH          ; [CPU_ALU] |233| 
    1194 00000163 6F05          B         $C$L17,UNC            ; [CPU_ALU] |233| 
    1195                      ; branch occurs ; [] |233| 
    1196 00000164       $C$L16:    
    1197 00000164 92AB          MOV       AL,PL                 ; [CPU_ALU] 
    1198                      .dwpsn  file "C:/ti/controlSUITE/device_support/F2837xS/v170/F2837xS_common/source/F2837xS_Gpio.c",li
    1199 00000165 98C4          OR        *+XAR4[0],AL          ; [CPU_ALU] |230| 
    1200 00000166 92AA          MOV       AL,PH                 ; [CPU_ALU] |230| 
    1201 00000167 98CC          OR        *+XAR4[1],AL          ; [CPU_ALU] |230| 
    1202 00000168       $C$L17:    
    1203 00000168 761A   EDIS
    1204 00000169 FF69          SPM       #0                    ; [CPU_ALU] 
    1205              $C$DW$67        .dwtag  DW_TAG_TI_branch
    1206                      .dwattr $C$DW$67, DW_AT_low_pc(0x00)
    1207                      .dwattr $C$DW$67, DW_AT_TI_return
    1208              
    1209 0000016a 0006          LRETR     ; [CPU_ALU] 
    1210                      ; return occurs ; [] 
    1211                      .dwattr $C$DW$60, DW_AT_TI_end_file("C:/ti/controlSUITE/device_support/F2837xS/v170/F2837xS_common/so
    1212                      .dwattr $C$DW$60, DW_AT_TI_end_line(0xec)
    1213                      .dwattr $C$DW$60, DW_AT_TI_end_column(0x01)
    1214                      .dwendentry
    1215                      .dwendtag $C$DW$60
    1216              
    1217 0000016b               .sect   ".text"
    1218                      .clink
    1219                      .global _GPIO_ReadPin
    1220              
    1221              $C$DW$68        .dwtag  DW_TAG_subprogram
    1222                      .dwattr $C$DW$68, DW_AT_name("GPIO_ReadPin")
    1223                      .dwattr $C$DW$68, DW_AT_low_pc(_GPIO_ReadPin)
TMS320C2000 Assembler PC v20.2.1 Sat Nov 14 12:25:43 2020

Copyright (c) 1996-2018 Texas Instruments Incorporated
F2837xS_Gpio.asm                                                     PAGE   24

    1224                      .dwattr $C$DW$68, DW_AT_high_pc(0x00)
    1225                      .dwattr $C$DW$68, DW_AT_TI_symbol_name("_GPIO_ReadPin")
    1226                      .dwattr $C$DW$68, DW_AT_external
    1227                      .dwattr $C$DW$68, DW_AT_type(*$C$DW$T$19)
    1228                      .dwattr $C$DW$68, DW_AT_TI_begin_file("C:/ti/controlSUITE/device_support/F2837xS/v170/F2837xS_common/
    1229                      .dwattr $C$DW$68, DW_AT_TI_begin_line(0x155)
    1230                      .dwattr $C$DW$68, DW_AT_TI_begin_column(0x08)
    1231                      .dwattr $C$DW$68, DW_AT_TI_max_frame_size(-2)
    1232                      .dwpsn  file "C:/ti/controlSUITE/device_support/F2837xS/v170/F2837xS_common/source/F2837xS_Gpio.c",li
    1233              
    1234                      .dwfde $C$DW$CIE, _GPIO_ReadPin
    1235              $C$DW$69        .dwtag  DW_TAG_formal_parameter
    1236                      .dwattr $C$DW$69, DW_AT_name("pin")
    1237                      .dwattr $C$DW$69, DW_AT_TI_symbol_name("_pin")
    1238                      .dwattr $C$DW$69, DW_AT_type(*$C$DW$T$19)
    1239                      .dwattr $C$DW$69, DW_AT_location[DW_OP_reg0]
    1240              
    1241              
    1242              ;***************************************************************
    1243              ;* FNAME: _GPIO_ReadPin                 FR SIZE:   0           *
    1244              ;*                                                             *
    1245              ;* FUNCTION ENVIRONMENT                                        *
    1246              ;*                                                             *
    1247              ;* FUNCTION PROPERTIES                                         *
    1248              ;*                            0 Parameter,  0 Auto,  0 SOE     *
    1249              ;***************************************************************
    1250              
    1251              _GPIO_ReadPin:
    1252              ;* T     assigned to _pin
    1253              $C$DW$70        .dwtag  DW_TAG_variable
    1254                      .dwattr $C$DW$70, DW_AT_name("pin")
    1255                      .dwattr $C$DW$70, DW_AT_TI_symbol_name("_pin")
    1256                      .dwattr $C$DW$70, DW_AT_type(*$C$DW$T$379)
    1257                      .dwattr $C$DW$70, DW_AT_location[DW_OP_reg22]
    1258              
    1259                      .dwcfi  cfa_offset, -2
    1260                      .dwcfi  save_reg_to_mem, 26, 0
    1261 0000016b 2DA9          MOV       T,AL                  ; [CPU_ALU] |342| 
    1262                      .dwpsn  file "C:/ti/controlSUITE/device_support/F2837xS/v170/F2837xS_common/source/F2837xS_Gpio.c",li
    1263 0000016c 93AC          MOV       AH,T                  ; [CPU_ALU] |347| 
    1264 0000016d 2901          CLRC      SXM                   ; [CPU_ALU] 
    1265 0000016e 8F00!         MOVL      XAR4,#_GpioDataRegs   ; [CPU_ARAU] |347| 
         0000016f 0000 
    1266 00000170 FFD4          LSR       AH,5                  ; [CPU_ALU] |347| 
    1267 00000171 FF91          LSL       AH,2                  ; [CPU_ALU] |347| 
    1268 00000172 5603          MOV       ACC,AH << 1           ; [CPU_ALU] |347| 
         00000173 01A8 
    1269 00000174 5601          ADDL      XAR4,ACC              ; [CPU_ALU] |347| 
         00000175 00A4 
    1270 00000176 CCAC          AND       AL,T,#0x001f          ; [CPU_ALU] |347| 
         00000177 001F 
    1271 00000178 2DA9          MOV       T,AL                  ; [CPU_ALU] |347| 
    1272 00000179 06C4          MOVL      ACC,*+XAR4[0]         ; [CPU_ALU] |347| 
    1273 0000017a 5622          LSRL      ACC,T                 ; [CPU_ALU] |347| 
    1274 0000017b 1EA6          MOVL      XAR6,ACC              ; [CPU_ALU] |347| 
TMS320C2000 Assembler PC v20.2.1 Sat Nov 14 12:25:43 2020

Copyright (c) 1996-2018 Texas Instruments Incorporated
F2837xS_Gpio.asm                                                     PAGE   25

    1275 0000017c 92A6          MOV       AL,AR6                ; [CPU_ALU] |347| 
    1276 0000017d 9001          ANDB      AL,#0x01              ; [CPU_ALU] |347| 
    1277              $C$DW$71        .dwtag  DW_TAG_TI_branch
    1278                      .dwattr $C$DW$71, DW_AT_low_pc(0x00)
    1279                      .dwattr $C$DW$71, DW_AT_TI_return
    1280              
    1281 0000017e 0006          LRETR     ; [CPU_FPU] 
    1282                      ; return occurs ; [] 
    1283                      .dwattr $C$DW$68, DW_AT_TI_end_file("C:/ti/controlSUITE/device_support/F2837xS/v170/F2837xS_common/so
    1284                      .dwattr $C$DW$68, DW_AT_TI_end_line(0x15e)
    1285                      .dwattr $C$DW$68, DW_AT_TI_end_column(0x01)
    1286                      .dwendentry
    1287                      .dwendtag $C$DW$68
    1288              
    1289 0000017f               .sect   ".text"
    1290                      .clink
    1291                      .global _GPIO_EnableUnbondedIOPullupsFor176Pin
    1292              
    1293              $C$DW$72        .dwtag  DW_TAG_subprogram
    1294                      .dwattr $C$DW$72, DW_AT_name("GPIO_EnableUnbondedIOPullupsFor176Pin")
    1295                      .dwattr $C$DW$72, DW_AT_low_pc(_GPIO_EnableUnbondedIOPullupsFor176Pin)
    1296                      .dwattr $C$DW$72, DW_AT_high_pc(0x00)
    1297                      .dwattr $C$DW$72, DW_AT_TI_symbol_name("_GPIO_EnableUnbondedIOPullupsFor176Pin")
    1298                      .dwattr $C$DW$72, DW_AT_external
    1299                      .dwattr $C$DW$72, DW_AT_TI_begin_file("C:/ti/controlSUITE/device_support/F2837xS/v170/F2837xS_common/
    1300                      .dwattr $C$DW$72, DW_AT_TI_begin_line(0x116)
    1301                      .dwattr $C$DW$72, DW_AT_TI_begin_column(0x06)
    1302                      .dwattr $C$DW$72, DW_AT_TI_max_frame_size(-2)
    1303                      .dwpsn  file "C:/ti/controlSUITE/device_support/F2837xS/v170/F2837xS_common/source/F2837xS_Gpio.c",li
    1304              
    1305                      .dwfde $C$DW$CIE, _GPIO_EnableUnbondedIOPullupsFor176Pin
    1306              
    1307              ;***************************************************************
    1308              ;* FNAME: _GPIO_EnableUnbondedIOPullupsFor176Pin FR SIZE:   0           *
    1309              ;*                                                             *
    1310              ;* FUNCTION ENVIRONMENT                                        *
    1311              ;*                                                             *
    1312              ;* FUNCTION PROPERTIES                                         *
    1313              ;*                            0 Parameter,  0 Auto,  0 SOE     *
    1314              ;***************************************************************
    1315              
    1316 0000017f       _GPIO_EnableUnbondedIOPullupsFor176Pin:
    1317                      .dwcfi  cfa_offset, -2
    1318                      .dwcfi  save_reg_to_mem, 26, 0
    1319 0000017f 7622   EALLOW
    1320                      .dwpsn  file "C:/ti/controlSUITE/device_support/F2837xS/v170/F2837xS_common/source/F2837xS_Gpio.c",li
    1321 00000180 28A9          MOV       AL,#65535             ; [CPU_ALU] |281| 
         00000181 FFFF 
    1322 00000182 28A8          MOV       AH,#32767             ; [CPU_ALU] |281| 
         00000183 7FFF 
    1323 00000184 761F!         MOVW      DP,#_GpioCtrlRegs+140 ; [CPU_ARAU] 
         00000185 0002 
    1324 00000186 3B01          SETC      SXM                   ; [CPU_ALU] 
    1325                      .dwpsn  file "C:/ti/controlSUITE/device_support/F2837xS/v170/F2837xS_common/source/F2837xS_Gpio.c",li
    1326 00000187 B608          MOVB      XAR7,#8               ; [CPU_ALU] |282| 
TMS320C2000 Assembler PC v20.2.1 Sat Nov 14 12:25:43 2020

Copyright (c) 1996-2018 Texas Instruments Incorporated
F2837xS_Gpio.asm                                                     PAGE   26

    1327                      .dwpsn  file "C:/ti/controlSUITE/device_support/F2837xS/v170/F2837xS_common/source/F2837xS_Gpio.c",li
    1328 00000188 BE20          MOVB      XAR6,#32              ; [CPU_ALU] |283| 
    1329                      .dwpsn  file "C:/ti/controlSUITE/device_support/F2837xS/v170/F2837xS_common/source/F2837xS_Gpio.c",li
    1330 00000189 1E0C!         MOVL      @$BLOCKED(_GpioCtrlRegs)+140,ACC ; [CPU_ALU] |281| 
    1331 0000018a 761F!         MOVW      DP,#_GpioCtrlRegs+204 ; [CPU_ARAU] 
         0000018b 0003 
    1332                      .dwpsn  file "C:/ti/controlSUITE/device_support/F2837xS/v170/F2837xS_common/source/F2837xS_Gpio.c",li
    1333 0000018c FF29          MOV       ACC,#-1 << 9          ; [CPU_ALU] |284| 
         0000018d FFFF 
    1334                      .dwpsn  file "C:/ti/controlSUITE/device_support/F2837xS/v170/F2837xS_common/source/F2837xS_Gpio.c",li
    1335 0000018e C30C!         MOVL      @$BLOCKED(_GpioCtrlRegs)+204,XAR7 ; [CPU_ALU] |282| 
    1336 0000018f 761F!         MOVW      DP,#_GpioCtrlRegs+268 ; [CPU_ARAU] 
         00000190 0004 
    1337                      .dwpsn  file "C:/ti/controlSUITE/device_support/F2837xS/v170/F2837xS_common/source/F2837xS_Gpio.c",li
    1338 00000191 C20C!         MOVL      @$BLOCKED(_GpioCtrlRegs)+268,XAR6 ; [CPU_ALU] |283| 
    1339 00000192 761F!         MOVW      DP,#_GpioCtrlRegs+332 ; [CPU_ARAU] 
         00000193 0005 
    1340                      .dwpsn  file "C:/ti/controlSUITE/device_support/F2837xS/v170/F2837xS_common/source/F2837xS_Gpio.c",li
    1341 00000194 1E0C!         MOVL      @$BLOCKED(_GpioCtrlRegs)+332,ACC ; [CPU_ALU] |284| 
    1342 00000195 761A   EDIS
    1343 00000196 FF69          SPM       #0                    ; [CPU_ALU] 
    1344              $C$DW$73        .dwtag  DW_TAG_TI_branch
    1345                      .dwattr $C$DW$73, DW_AT_low_pc(0x00)
    1346                      .dwattr $C$DW$73, DW_AT_TI_return
    1347              
    1348 00000197 0006          LRETR     ; [CPU_ALU] 
    1349                      ; return occurs ; [] 
    1350                      .dwattr $C$DW$72, DW_AT_TI_end_file("C:/ti/controlSUITE/device_support/F2837xS/v170/F2837xS_common/so
    1351                      .dwattr $C$DW$72, DW_AT_TI_end_line(0x11e)
    1352                      .dwattr $C$DW$72, DW_AT_TI_end_column(0x01)
    1353                      .dwendentry
    1354                      .dwendtag $C$DW$72
    1355              
    1356 00000198               .sect   ".text"
    1357                      .clink
    1358                      .global _GPIO_EnableUnbondedIOPullupsFor100Pin
    1359              
    1360              $C$DW$74        .dwtag  DW_TAG_subprogram
    1361                      .dwattr $C$DW$74, DW_AT_name("GPIO_EnableUnbondedIOPullupsFor100Pin")
    1362                      .dwattr $C$DW$74, DW_AT_low_pc(_GPIO_EnableUnbondedIOPullupsFor100Pin)
    1363                      .dwattr $C$DW$74, DW_AT_high_pc(0x00)
    1364                      .dwattr $C$DW$74, DW_AT_TI_symbol_name("_GPIO_EnableUnbondedIOPullupsFor100Pin")
    1365                      .dwattr $C$DW$74, DW_AT_external
    1366                      .dwattr $C$DW$74, DW_AT_TI_begin_file("C:/ti/controlSUITE/device_support/F2837xS/v170/F2837xS_common/
    1367                      .dwattr $C$DW$74, DW_AT_TI_begin_line(0x12e)
    1368                      .dwattr $C$DW$74, DW_AT_TI_begin_column(0x06)
    1369                      .dwattr $C$DW$74, DW_AT_TI_max_frame_size(-2)
    1370                      .dwpsn  file "C:/ti/controlSUITE/device_support/F2837xS/v170/F2837xS_common/source/F2837xS_Gpio.c",li
    1371              
    1372                      .dwfde $C$DW$CIE, _GPIO_EnableUnbondedIOPullupsFor100Pin
    1373              
    1374              ;***************************************************************
    1375              ;* FNAME: _GPIO_EnableUnbondedIOPullupsFor100Pin FR SIZE:   0           *
    1376              ;*                                                             *
    1377              ;* FUNCTION ENVIRONMENT                                        *
TMS320C2000 Assembler PC v20.2.1 Sat Nov 14 12:25:43 2020

Copyright (c) 1996-2018 Texas Instruments Incorporated
F2837xS_Gpio.asm                                                     PAGE   27

    1378              ;*                                                             *
    1379              ;* FUNCTION PROPERTIES                                         *
    1380              ;*                            0 Parameter,  0 Auto,  0 SOE     *
    1381              ;***************************************************************
    1382              
    1383 00000198       _GPIO_EnableUnbondedIOPullupsFor100Pin:
    1384                      .dwcfi  cfa_offset, -2
    1385                      .dwcfi  save_reg_to_mem, 26, 0
    1386 00000198 7622   EALLOW
    1387                      .dwpsn  file "C:/ti/controlSUITE/device_support/F2837xS/v170/F2837xS_common/source/F2837xS_Gpio.c",li
    1388 00000199 8F3F          MOVL      XAR4,#4193308         ; [CPU_ARAU] |305| 
         0000019a FC1C 
    1389 0000019b 761F!         MOVW      DP,#_GpioCtrlRegs+12  ; [CPU_ARAU] 
         0000019c 0000 
    1390                      .dwpsn  file "C:/ti/controlSUITE/device_support/F2837xS/v170/F2837xS_common/source/F2837xS_Gpio.c",li
    1391 0000019d 28A9          MOV       AL,#3584              ; [CPU_ALU] |306| 
         0000019e 0E00 
    1392 0000019f 28A8          MOV       AH,#64512             ; [CPU_ALU] |306| 
         000001a0 FC00 
    1393 000001a1 3B01          SETC      SXM                   ; [CPU_ALU] 
    1394                      .dwpsn  file "C:/ti/controlSUITE/device_support/F2837xS/v170/F2837xS_common/source/F2837xS_Gpio.c",li
    1395 000001a2 A80C!         MOVL      @$BLOCKED(_GpioCtrlRegs)+12,XAR4 ; [CPU_ALU] |305| 
    1396                      .dwpsn  file "C:/ti/controlSUITE/device_support/F2837xS/v170/F2837xS_common/source/F2837xS_Gpio.c",li
    1397 000001a3 BE08          MOVB      XAR6,#8               ; [CPU_ALU] |308| 
    1398                      .dwpsn  file "C:/ti/controlSUITE/device_support/F2837xS/v170/F2837xS_common/source/F2837xS_Gpio.c",li
    1399 000001a4 B600          MOVB      XAR7,#0               ; [CPU_ALU] |309| 
    1400 000001a5 761F!         MOVW      DP,#_GpioCtrlRegs+76  ; [CPU_ARAU] 
         000001a6 0001 
    1401                      .dwpsn  file "C:/ti/controlSUITE/device_support/F2837xS/v170/F2837xS_common/source/F2837xS_Gpio.c",li
    1402 000001a7 1E0C!         MOVL      @$BLOCKED(_GpioCtrlRegs)+76,ACC ; [CPU_ALU] |306| 
    1403                      .dwpsn  file "C:/ti/controlSUITE/device_support/F2837xS/v170/F2837xS_common/source/F2837xS_Gpio.c",li
    1404 000001a8 28A9          MOV       AL,#17383             ; [CPU_ALU] |307| 
         000001a9 43E7 
    1405 000001aa 28A8          MOV       AH,#7920              ; [CPU_ALU] |307| 
         000001ab 1EF0 
    1406 000001ac 761F!         MOVW      DP,#_GpioCtrlRegs+140 ; [CPU_ARAU] 
         000001ad 0002 
    1407 000001ae 1E0C!         MOVL      @$BLOCKED(_GpioCtrlRegs)+140,ACC ; [CPU_ALU] |307| 
    1408 000001af 761F!         MOVW      DP,#_GpioCtrlRegs+204 ; [CPU_ARAU] 
         000001b0 0003 
    1409                      .dwpsn  file "C:/ti/controlSUITE/device_support/F2837xS/v170/F2837xS_common/source/F2837xS_Gpio.c",li
    1410 000001b1 FF29          MOV       ACC,#-1 << 9          ; [CPU_ALU] |310| 
         000001b2 FFFF 
    1411                      .dwpsn  file "C:/ti/controlSUITE/device_support/F2837xS/v170/F2837xS_common/source/F2837xS_Gpio.c",li
    1412 000001b3 C20C!         MOVL      @$BLOCKED(_GpioCtrlRegs)+204,XAR6 ; [CPU_ALU] |308| 
    1413 000001b4 761F!         MOVW      DP,#_GpioCtrlRegs+268 ; [CPU_ARAU] 
         000001b5 0004 
    1414                      .dwpsn  file "C:/ti/controlSUITE/device_support/F2837xS/v170/F2837xS_common/source/F2837xS_Gpio.c",li
    1415 000001b6 C30C!         MOVL      @$BLOCKED(_GpioCtrlRegs)+268,XAR7 ; [CPU_ALU] |309| 
    1416 000001b7 761F!         MOVW      DP,#_GpioCtrlRegs+332 ; [CPU_ARAU] 
         000001b8 0005 
    1417                      .dwpsn  file "C:/ti/controlSUITE/device_support/F2837xS/v170/F2837xS_common/source/F2837xS_Gpio.c",li
    1418 000001b9 1E0C!         MOVL      @$BLOCKED(_GpioCtrlRegs)+332,ACC ; [CPU_ALU] |310| 
    1419 000001ba 761A   EDIS
    1420 000001bb FF69          SPM       #0                    ; [CPU_ALU] 
TMS320C2000 Assembler PC v20.2.1 Sat Nov 14 12:25:43 2020

Copyright (c) 1996-2018 Texas Instruments Incorporated
F2837xS_Gpio.asm                                                     PAGE   28

    1421              $C$DW$75        .dwtag  DW_TAG_TI_branch
    1422                      .dwattr $C$DW$75, DW_AT_low_pc(0x00)
    1423                      .dwattr $C$DW$75, DW_AT_TI_return
    1424              
    1425 000001bc 0006          LRETR     ; [CPU_ALU] 
    1426                      ; return occurs ; [] 
    1427                      .dwattr $C$DW$74, DW_AT_TI_end_file("C:/ti/controlSUITE/device_support/F2837xS/v170/F2837xS_common/so
    1428                      .dwattr $C$DW$74, DW_AT_TI_end_line(0x138)
    1429                      .dwattr $C$DW$74, DW_AT_TI_end_column(0x01)
    1430                      .dwendentry
    1431                      .dwendtag $C$DW$74
    1432              
    1433 000001bd               .sect   ".text"
    1434                      .clink
    1435                      .global _GPIO_EnableUnbondedIOPullups
    1436              
    1437              $C$DW$76        .dwtag  DW_TAG_subprogram
    1438                      .dwattr $C$DW$76, DW_AT_name("GPIO_EnableUnbondedIOPullups")
    1439                      .dwattr $C$DW$76, DW_AT_low_pc(_GPIO_EnableUnbondedIOPullups)
    1440                      .dwattr $C$DW$76, DW_AT_high_pc(0x00)
    1441                      .dwattr $C$DW$76, DW_AT_TI_symbol_name("_GPIO_EnableUnbondedIOPullups")
    1442                      .dwattr $C$DW$76, DW_AT_external
    1443                      .dwattr $C$DW$76, DW_AT_TI_begin_file("C:/ti/controlSUITE/device_support/F2837xS/v170/F2837xS_common/
    1444                      .dwattr $C$DW$76, DW_AT_TI_begin_line(0x13b)
    1445                      .dwattr $C$DW$76, DW_AT_TI_begin_column(0x06)
    1446                      .dwattr $C$DW$76, DW_AT_TI_max_frame_size(-2)
    1447                      .dwpsn  file "C:/ti/controlSUITE/device_support/F2837xS/v170/F2837xS_common/source/F2837xS_Gpio.c",li
    1448              
    1449                      .dwfde $C$DW$CIE, _GPIO_EnableUnbondedIOPullups
    1450              
    1451              ;***************************************************************
    1452              ;* FNAME: _GPIO_EnableUnbondedIOPullups FR SIZE:   0           *
    1453              ;*                                                             *
    1454              ;* FUNCTION ENVIRONMENT                                        *
    1455              ;*                                                             *
    1456              ;* FUNCTION PROPERTIES                                         *
    1457              ;*                            0 Parameter,  0 Auto,  0 SOE     *
    1458              ;***************************************************************
    1459              
    1460              _GPIO_EnableUnbondedIOPullups:
    1461              ;* AL    assigned to _pin_count
    1462              $C$DW$77        .dwtag  DW_TAG_variable
    1463                      .dwattr $C$DW$77, DW_AT_name("pin_count")
    1464                      .dwattr $C$DW$77, DW_AT_TI_symbol_name("_pin_count")
    1465                      .dwattr $C$DW$77, DW_AT_type(*$C$DW$T$6)
    1466                      .dwattr $C$DW$77, DW_AT_location[DW_OP_reg0]
    1467              
    1468                      .dwcfi  cfa_offset, -2
    1469                      .dwcfi  save_reg_to_mem, 26, 0
    1470 000001bd 761F!         MOVW      DP,#_DevCfgRegs+8     ; [CPU_ARAU] 
         000001be 0000 
    1471 000001bf 2901          CLRC      SXM                   ; [CPU_ALU] 
    1472                      .dwpsn  file "C:/ti/controlSUITE/device_support/F2837xS/v170/F2837xS_common/source/F2837xS_Gpio.c",li
    1473 000001c0 0608!         MOVL      ACC,@$BLOCKED(_DevCfgRegs)+8 ; [CPU_ALU] |317| 
    1474 000001c1 FF47          SFR       ACC,8                 ; [CPU_ALU] |317| 
TMS320C2000 Assembler PC v20.2.1 Sat Nov 14 12:25:43 2020

Copyright (c) 1996-2018 Texas Instruments Incorporated
F2837xS_Gpio.asm                                                     PAGE   29

    1475 000001c2 9007          ANDB      AL,#0x07              ; [CPU_ALU] |317| 
    1476 000001c3 5205          CMPB      AL,#5                 ; [CPU_ALU] |317| 
    1477 000001c4 6106          B         $C$L18,EQ             ; [CPU_ALU] |317| 
    1478                      ; branchcc occurs ; [] |317| 
    1479                      .dwpsn  file "C:/ti/controlSUITE/device_support/F2837xS/v170/F2837xS_common/source/F2837xS_Gpio.c",li
    1480 000001c5 5206          CMPB      AL,#6                 ; [CPU_ALU] |328| 
    1481 000001c6 6006          B         $C$L19,NEQ            ; [CPU_ALU] |328| 
    1482                      ; branchcc occurs ; [] |328| 
    1483                      .dwpsn  file "C:/ti/controlSUITE/device_support/F2837xS/v170/F2837xS_common/source/F2837xS_Gpio.c",li
    1484              $C$DW$78        .dwtag  DW_TAG_TI_branch
    1485                      .dwattr $C$DW$78, DW_AT_low_pc(0x00)
    1486                      .dwattr $C$DW$78, DW_AT_name("_GPIO_EnableUnbondedIOPullupsFor176Pin")
    1487                      .dwattr $C$DW$78, DW_AT_TI_call
    1488              
    1489 000001c7 7640'         LCR       #_GPIO_EnableUnbondedIOPullupsFor176Pin ; [CPU_ALU] |330| 
         000001c8 017F 
    1490                      ; call occurs [#_GPIO_EnableUnbondedIOPullupsFor176Pin] ; [] |330| 
    1491 000001c9 6F03          B         $C$L19,UNC            ; [CPU_ALU] 
    1492                      ; branch occurs ; [] 
    1493 000001ca       $C$L18:    
    1494                      .dwpsn  file "C:/ti/controlSUITE/device_support/F2837xS/v170/F2837xS_common/source/F2837xS_Gpio.c",li
    1495              $C$DW$79        .dwtag  DW_TAG_TI_branch
    1496                      .dwattr $C$DW$79, DW_AT_low_pc(0x00)
    1497                      .dwattr $C$DW$79, DW_AT_name("_GPIO_EnableUnbondedIOPullupsFor100Pin")
    1498                      .dwattr $C$DW$79, DW_AT_TI_call
    1499              
    1500 000001ca 7640'         LCR       #_GPIO_EnableUnbondedIOPullupsFor100Pin ; [CPU_ALU] |326| 
         000001cb 0198 
    1501                      ; call occurs [#_GPIO_EnableUnbondedIOPullupsFor100Pin] ; [] |326| 
    1502              $C$L19:    
    1503              $C$DW$80        .dwtag  DW_TAG_TI_branch
    1504                      .dwattr $C$DW$80, DW_AT_low_pc(0x00)
    1505                      .dwattr $C$DW$80, DW_AT_TI_return
    1506              
    1507 000001cc 0006          LRETR     ; [CPU_ALU] 
    1508                      ; return occurs ; [] 
    1509                      .dwattr $C$DW$76, DW_AT_TI_end_file("C:/ti/controlSUITE/device_support/F2837xS/v170/F2837xS_common/so
    1510                      .dwattr $C$DW$76, DW_AT_TI_end_line(0x151)
    1511                      .dwattr $C$DW$76, DW_AT_TI_end_column(0x01)
    1512                      .dwendentry
    1513                      .dwendtag $C$DW$76
    1514              
    1515              ;**************************************************************
    1516              ;* UNDEFINED EXTERNAL REFERENCES                              *
    1517              ;**************************************************************
    1518                      .global _InputXbarRegs
    1519                      .global _GpioDataRegs
    1520                      .global _DevCfgRegs
    1521                      .global _GpioCtrlRegs
    1522              
    1523              ;***************************************************************
    1524              ;* TYPE INFORMATION                                            *
    1525              ;***************************************************************
    1526              
    1527              $C$DW$T$20      .dwtag  DW_TAG_structure_type
TMS320C2000 Assembler PC v20.2.1 Sat Nov 14 12:25:43 2020

Copyright (c) 1996-2018 Texas Instruments Incorporated
F2837xS_Gpio.asm                                                     PAGE   30

    1528                      .dwattr $C$DW$T$20, DW_AT_name("DC0_BITS")
    1529                      .dwattr $C$DW$T$20, DW_AT_byte_size(0x02)
    1530              $C$DW$81        .dwtag  DW_TAG_member
    1531                      .dwattr $C$DW$81, DW_AT_type(*$C$DW$T$19)
    1532                      .dwattr $C$DW$81, DW_AT_name("SINGLE_CORE")
    1533                      .dwattr $C$DW$81, DW_AT_TI_symbol_name("_SINGLE_CORE")
    1534                      .dwattr $C$DW$81, DW_AT_bit_offset(0x0f)
    1535                      .dwattr $C$DW$81, DW_AT_bit_size(0x01)
    1536                      .dwattr $C$DW$81, DW_AT_data_member_location[DW_OP_plus_uconst 0x0]
    1537                      .dwattr $C$DW$81, DW_AT_accessibility(DW_ACCESS_public)
    1538              
    1539              $C$DW$82        .dwtag  DW_TAG_member
    1540                      .dwattr $C$DW$82, DW_AT_type(*$C$DW$T$19)
    1541                      .dwattr $C$DW$82, DW_AT_name("rsvd1")
    1542                      .dwattr $C$DW$82, DW_AT_TI_symbol_name("_rsvd1")
    1543                      .dwattr $C$DW$82, DW_AT_bit_offset(0x00)
    1544                      .dwattr $C$DW$82, DW_AT_bit_size(0x0f)
    1545                      .dwattr $C$DW$82, DW_AT_data_member_location[DW_OP_plus_uconst 0x0]
    1546                      .dwattr $C$DW$82, DW_AT_accessibility(DW_ACCESS_public)
    1547              
    1548              $C$DW$83        .dwtag  DW_TAG_member
    1549                      .dwattr $C$DW$83, DW_AT_type(*$C$DW$T$19)
    1550                      .dwattr $C$DW$83, DW_AT_name("rsvd2")
    1551                      .dwattr $C$DW$83, DW_AT_TI_symbol_name("_rsvd2")
    1552                      .dwattr $C$DW$83, DW_AT_bit_offset(0x00)
    1553                      .dwattr $C$DW$83, DW_AT_bit_size(0x10)
    1554                      .dwattr $C$DW$83, DW_AT_data_member_location[DW_OP_plus_uconst 0x1]
    1555                      .dwattr $C$DW$83, DW_AT_accessibility(DW_ACCESS_public)
    1556              
    1557                      .dwendtag $C$DW$T$20
    1558              
    1559              
    1560              $C$DW$T$22      .dwtag  DW_TAG_union_type
    1561                      .dwattr $C$DW$T$22, DW_AT_name("DC0_REG")
    1562                      .dwattr $C$DW$T$22, DW_AT_byte_size(0x02)
    1563              $C$DW$84        .dwtag  DW_TAG_member
    1564                      .dwattr $C$DW$84, DW_AT_type(*$C$DW$T$21)
    1565                      .dwattr $C$DW$84, DW_AT_name("all")
    1566                      .dwattr $C$DW$84, DW_AT_TI_symbol_name("_all")
    1567                      .dwattr $C$DW$84, DW_AT_data_member_location[DW_OP_plus_uconst 0x0]
    1568                      .dwattr $C$DW$84, DW_AT_accessibility(DW_ACCESS_public)
    1569              
    1570              $C$DW$85        .dwtag  DW_TAG_member
    1571                      .dwattr $C$DW$85, DW_AT_type(*$C$DW$T$20)
    1572                      .dwattr $C$DW$85, DW_AT_name("bit")
    1573                      .dwattr $C$DW$85, DW_AT_TI_symbol_name("_bit")
    1574                      .dwattr $C$DW$85, DW_AT_data_member_location[DW_OP_plus_uconst 0x0]
    1575                      .dwattr $C$DW$85, DW_AT_accessibility(DW_ACCESS_public)
    1576              
    1577                      .dwendtag $C$DW$T$22
    1578              
    1579              
    1580              $C$DW$T$23      .dwtag  DW_TAG_structure_type
    1581                      .dwattr $C$DW$T$23, DW_AT_name("DC10_BITS")
    1582                      .dwattr $C$DW$T$23, DW_AT_byte_size(0x02)
TMS320C2000 Assembler PC v20.2.1 Sat Nov 14 12:25:43 2020

Copyright (c) 1996-2018 Texas Instruments Incorporated
F2837xS_Gpio.asm                                                     PAGE   31

    1583              $C$DW$86        .dwtag  DW_TAG_member
    1584                      .dwattr $C$DW$86, DW_AT_type(*$C$DW$T$19)
    1585                      .dwattr $C$DW$86, DW_AT_name("I2C_A")
    1586                      .dwattr $C$DW$86, DW_AT_TI_symbol_name("_I2C_A")
    1587                      .dwattr $C$DW$86, DW_AT_bit_offset(0x0f)
    1588                      .dwattr $C$DW$86, DW_AT_bit_size(0x01)
    1589                      .dwattr $C$DW$86, DW_AT_data_member_location[DW_OP_plus_uconst 0x0]
    1590                      .dwattr $C$DW$86, DW_AT_accessibility(DW_ACCESS_public)
    1591              
    1592              $C$DW$87        .dwtag  DW_TAG_member
    1593                      .dwattr $C$DW$87, DW_AT_type(*$C$DW$T$19)
    1594                      .dwattr $C$DW$87, DW_AT_name("I2C_B")
    1595                      .dwattr $C$DW$87, DW_AT_TI_symbol_name("_I2C_B")
    1596                      .dwattr $C$DW$87, DW_AT_bit_offset(0x0e)
    1597                      .dwattr $C$DW$87, DW_AT_bit_size(0x01)
    1598                      .dwattr $C$DW$87, DW_AT_data_member_location[DW_OP_plus_uconst 0x0]
    1599                      .dwattr $C$DW$87, DW_AT_accessibility(DW_ACCESS_public)
    1600              
    1601              $C$DW$88        .dwtag  DW_TAG_member
    1602                      .dwattr $C$DW$88, DW_AT_type(*$C$DW$T$19)
    1603                      .dwattr $C$DW$88, DW_AT_name("rsvd1")
    1604                      .dwattr $C$DW$88, DW_AT_TI_symbol_name("_rsvd1")
    1605                      .dwattr $C$DW$88, DW_AT_bit_offset(0x00)
    1606                      .dwattr $C$DW$88, DW_AT_bit_size(0x0e)
    1607                      .dwattr $C$DW$88, DW_AT_data_member_location[DW_OP_plus_uconst 0x0]
    1608                      .dwattr $C$DW$88, DW_AT_accessibility(DW_ACCESS_public)
    1609              
    1610              $C$DW$89        .dwtag  DW_TAG_member
    1611                      .dwattr $C$DW$89, DW_AT_type(*$C$DW$T$19)
    1612                      .dwattr $C$DW$89, DW_AT_name("rsvd2")
    1613                      .dwattr $C$DW$89, DW_AT_TI_symbol_name("_rsvd2")
    1614                      .dwattr $C$DW$89, DW_AT_bit_offset(0x0f)
    1615                      .dwattr $C$DW$89, DW_AT_bit_size(0x01)
    1616                      .dwattr $C$DW$89, DW_AT_data_member_location[DW_OP_plus_uconst 0x1]
    1617                      .dwattr $C$DW$89, DW_AT_accessibility(DW_ACCESS_public)
    1618              
    1619              $C$DW$90        .dwtag  DW_TAG_member
    1620                      .dwattr $C$DW$90, DW_AT_type(*$C$DW$T$19)
    1621                      .dwattr $C$DW$90, DW_AT_name("rsvd3")
    1622                      .dwattr $C$DW$90, DW_AT_TI_symbol_name("_rsvd3")
    1623                      .dwattr $C$DW$90, DW_AT_bit_offset(0x0e)
    1624                      .dwattr $C$DW$90, DW_AT_bit_size(0x01)
    1625                      .dwattr $C$DW$90, DW_AT_data_member_location[DW_OP_plus_uconst 0x1]
    1626                      .dwattr $C$DW$90, DW_AT_accessibility(DW_ACCESS_public)
    1627              
    1628              $C$DW$91        .dwtag  DW_TAG_member
    1629                      .dwattr $C$DW$91, DW_AT_type(*$C$DW$T$19)
    1630                      .dwattr $C$DW$91, DW_AT_name("rsvd4")
    1631                      .dwattr $C$DW$91, DW_AT_TI_symbol_name("_rsvd4")
    1632                      .dwattr $C$DW$91, DW_AT_bit_offset(0x00)
    1633                      .dwattr $C$DW$91, DW_AT_bit_size(0x0e)
    1634                      .dwattr $C$DW$91, DW_AT_data_member_location[DW_OP_plus_uconst 0x1]
    1635                      .dwattr $C$DW$91, DW_AT_accessibility(DW_ACCESS_public)
    1636              
    1637                      .dwendtag $C$DW$T$23
TMS320C2000 Assembler PC v20.2.1 Sat Nov 14 12:25:43 2020

Copyright (c) 1996-2018 Texas Instruments Incorporated
F2837xS_Gpio.asm                                                     PAGE   32

    1638              
    1639              
    1640              $C$DW$T$24      .dwtag  DW_TAG_union_type
    1641                      .dwattr $C$DW$T$24, DW_AT_name("DC10_REG")
    1642                      .dwattr $C$DW$T$24, DW_AT_byte_size(0x02)
    1643              $C$DW$92        .dwtag  DW_TAG_member
    1644                      .dwattr $C$DW$92, DW_AT_type(*$C$DW$T$21)
    1645                      .dwattr $C$DW$92, DW_AT_name("all")
    1646                      .dwattr $C$DW$92, DW_AT_TI_symbol_name("_all")
    1647                      .dwattr $C$DW$92, DW_AT_data_member_location[DW_OP_plus_uconst 0x0]
    1648                      .dwattr $C$DW$92, DW_AT_accessibility(DW_ACCESS_public)
    1649              
    1650              $C$DW$93        .dwtag  DW_TAG_member
    1651                      .dwattr $C$DW$93, DW_AT_type(*$C$DW$T$23)
    1652                      .dwattr $C$DW$93, DW_AT_name("bit")
    1653                      .dwattr $C$DW$93, DW_AT_TI_symbol_name("_bit")
    1654                      .dwattr $C$DW$93, DW_AT_data_member_location[DW_OP_plus_uconst 0x0]
    1655                      .dwattr $C$DW$93, DW_AT_accessibility(DW_ACCESS_public)
    1656              
    1657                      .dwendtag $C$DW$T$24
    1658              
    1659              
    1660              $C$DW$T$25      .dwtag  DW_TAG_structure_type
    1661                      .dwattr $C$DW$T$25, DW_AT_name("DC11_BITS")
    1662                      .dwattr $C$DW$T$25, DW_AT_byte_size(0x02)
    1663              $C$DW$94        .dwtag  DW_TAG_member
    1664                      .dwattr $C$DW$94, DW_AT_type(*$C$DW$T$19)
    1665                      .dwattr $C$DW$94, DW_AT_name("CAN_A")
    1666                      .dwattr $C$DW$94, DW_AT_TI_symbol_name("_CAN_A")
    1667                      .dwattr $C$DW$94, DW_AT_bit_offset(0x0f)
    1668                      .dwattr $C$DW$94, DW_AT_bit_size(0x01)
    1669                      .dwattr $C$DW$94, DW_AT_data_member_location[DW_OP_plus_uconst 0x0]
    1670                      .dwattr $C$DW$94, DW_AT_accessibility(DW_ACCESS_public)
    1671              
    1672              $C$DW$95        .dwtag  DW_TAG_member
    1673                      .dwattr $C$DW$95, DW_AT_type(*$C$DW$T$19)
    1674                      .dwattr $C$DW$95, DW_AT_name("CAN_B")
    1675                      .dwattr $C$DW$95, DW_AT_TI_symbol_name("_CAN_B")
    1676                      .dwattr $C$DW$95, DW_AT_bit_offset(0x0e)
    1677                      .dwattr $C$DW$95, DW_AT_bit_size(0x01)
    1678                      .dwattr $C$DW$95, DW_AT_data_member_location[DW_OP_plus_uconst 0x0]
    1679                      .dwattr $C$DW$95, DW_AT_accessibility(DW_ACCESS_public)
    1680              
    1681              $C$DW$96        .dwtag  DW_TAG_member
    1682                      .dwattr $C$DW$96, DW_AT_type(*$C$DW$T$19)
    1683                      .dwattr $C$DW$96, DW_AT_name("rsvd1")
    1684                      .dwattr $C$DW$96, DW_AT_TI_symbol_name("_rsvd1")
    1685                      .dwattr $C$DW$96, DW_AT_bit_offset(0x0d)
    1686                      .dwattr $C$DW$96, DW_AT_bit_size(0x01)
    1687                      .dwattr $C$DW$96, DW_AT_data_member_location[DW_OP_plus_uconst 0x0]
    1688                      .dwattr $C$DW$96, DW_AT_accessibility(DW_ACCESS_public)
    1689              
    1690              $C$DW$97        .dwtag  DW_TAG_member
    1691                      .dwattr $C$DW$97, DW_AT_type(*$C$DW$T$19)
    1692                      .dwattr $C$DW$97, DW_AT_name("rsvd2")
TMS320C2000 Assembler PC v20.2.1 Sat Nov 14 12:25:43 2020

Copyright (c) 1996-2018 Texas Instruments Incorporated
F2837xS_Gpio.asm                                                     PAGE   33

    1693                      .dwattr $C$DW$97, DW_AT_TI_symbol_name("_rsvd2")
    1694                      .dwattr $C$DW$97, DW_AT_bit_offset(0x0c)
    1695                      .dwattr $C$DW$97, DW_AT_bit_size(0x01)
    1696                      .dwattr $C$DW$97, DW_AT_data_member_location[DW_OP_plus_uconst 0x0]
    1697                      .dwattr $C$DW$97, DW_AT_accessibility(DW_ACCESS_public)
    1698              
    1699              $C$DW$98        .dwtag  DW_TAG_member
    1700                      .dwattr $C$DW$98, DW_AT_type(*$C$DW$T$19)
    1701                      .dwattr $C$DW$98, DW_AT_name("rsvd3")
    1702                      .dwattr $C$DW$98, DW_AT_TI_symbol_name("_rsvd3")
    1703                      .dwattr $C$DW$98, DW_AT_bit_offset(0x00)
    1704                      .dwattr $C$DW$98, DW_AT_bit_size(0x0c)
    1705                      .dwattr $C$DW$98, DW_AT_data_member_location[DW_OP_plus_uconst 0x0]
    1706                      .dwattr $C$DW$98, DW_AT_accessibility(DW_ACCESS_public)
    1707              
    1708              $C$DW$99        .dwtag  DW_TAG_member
    1709                      .dwattr $C$DW$99, DW_AT_type(*$C$DW$T$19)
    1710                      .dwattr $C$DW$99, DW_AT_name("rsvd4")
    1711                      .dwattr $C$DW$99, DW_AT_TI_symbol_name("_rsvd4")
    1712                      .dwattr $C$DW$99, DW_AT_bit_offset(0x00)
    1713                      .dwattr $C$DW$99, DW_AT_bit_size(0x10)
    1714                      .dwattr $C$DW$99, DW_AT_data_member_location[DW_OP_plus_uconst 0x1]
    1715                      .dwattr $C$DW$99, DW_AT_accessibility(DW_ACCESS_public)
    1716              
    1717                      .dwendtag $C$DW$T$25
    1718              
    1719              
    1720              $C$DW$T$26      .dwtag  DW_TAG_union_type
    1721                      .dwattr $C$DW$T$26, DW_AT_name("DC11_REG")
    1722                      .dwattr $C$DW$T$26, DW_AT_byte_size(0x02)
    1723              $C$DW$100       .dwtag  DW_TAG_member
    1724                      .dwattr $C$DW$100, DW_AT_type(*$C$DW$T$21)
    1725                      .dwattr $C$DW$100, DW_AT_name("all")
    1726                      .dwattr $C$DW$100, DW_AT_TI_symbol_name("_all")
    1727                      .dwattr $C$DW$100, DW_AT_data_member_location[DW_OP_plus_uconst 0x0]
    1728                      .dwattr $C$DW$100, DW_AT_accessibility(DW_ACCESS_public)
    1729              
    1730              $C$DW$101       .dwtag  DW_TAG_member
    1731                      .dwattr $C$DW$101, DW_AT_type(*$C$DW$T$25)
    1732                      .dwattr $C$DW$101, DW_AT_name("bit")
    1733                      .dwattr $C$DW$101, DW_AT_TI_symbol_name("_bit")
    1734                      .dwattr $C$DW$101, DW_AT_data_member_location[DW_OP_plus_uconst 0x0]
    1735                      .dwattr $C$DW$101, DW_AT_accessibility(DW_ACCESS_public)
    1736              
    1737                      .dwendtag $C$DW$T$26
    1738              
    1739              
    1740              $C$DW$T$27      .dwtag  DW_TAG_structure_type
    1741                      .dwattr $C$DW$T$27, DW_AT_name("DC12_BITS")
    1742                      .dwattr $C$DW$T$27, DW_AT_byte_size(0x02)
    1743              $C$DW$102       .dwtag  DW_TAG_member
    1744                      .dwattr $C$DW$102, DW_AT_type(*$C$DW$T$19)
    1745                      .dwattr $C$DW$102, DW_AT_name("McBSP_A")
    1746                      .dwattr $C$DW$102, DW_AT_TI_symbol_name("_McBSP_A")
    1747                      .dwattr $C$DW$102, DW_AT_bit_offset(0x0f)
TMS320C2000 Assembler PC v20.2.1 Sat Nov 14 12:25:43 2020

Copyright (c) 1996-2018 Texas Instruments Incorporated
F2837xS_Gpio.asm                                                     PAGE   34

    1748                      .dwattr $C$DW$102, DW_AT_bit_size(0x01)
    1749                      .dwattr $C$DW$102, DW_AT_data_member_location[DW_OP_plus_uconst 0x0]
    1750                      .dwattr $C$DW$102, DW_AT_accessibility(DW_ACCESS_public)
    1751              
    1752              $C$DW$103       .dwtag  DW_TAG_member
    1753                      .dwattr $C$DW$103, DW_AT_type(*$C$DW$T$19)
    1754                      .dwattr $C$DW$103, DW_AT_name("McBSP_B")
    1755                      .dwattr $C$DW$103, DW_AT_TI_symbol_name("_McBSP_B")
    1756                      .dwattr $C$DW$103, DW_AT_bit_offset(0x0e)
    1757                      .dwattr $C$DW$103, DW_AT_bit_size(0x01)
    1758                      .dwattr $C$DW$103, DW_AT_data_member_location[DW_OP_plus_uconst 0x0]
    1759                      .dwattr $C$DW$103, DW_AT_accessibility(DW_ACCESS_public)
    1760              
    1761              $C$DW$104       .dwtag  DW_TAG_member
    1762                      .dwattr $C$DW$104, DW_AT_type(*$C$DW$T$19)
    1763                      .dwattr $C$DW$104, DW_AT_name("rsvd1")
    1764                      .dwattr $C$DW$104, DW_AT_TI_symbol_name("_rsvd1")
    1765                      .dwattr $C$DW$104, DW_AT_bit_offset(0x00)
    1766                      .dwattr $C$DW$104, DW_AT_bit_size(0x0e)
    1767                      .dwattr $C$DW$104, DW_AT_data_member_location[DW_OP_plus_uconst 0x0]
    1768                      .dwattr $C$DW$104, DW_AT_accessibility(DW_ACCESS_public)
    1769              
    1770              $C$DW$105       .dwtag  DW_TAG_member
    1771                      .dwattr $C$DW$105, DW_AT_type(*$C$DW$T$19)
    1772                      .dwattr $C$DW$105, DW_AT_name("USB_A")
    1773                      .dwattr $C$DW$105, DW_AT_TI_symbol_name("_USB_A")
    1774                      .dwattr $C$DW$105, DW_AT_bit_offset(0x0e)
    1775                      .dwattr $C$DW$105, DW_AT_bit_size(0x02)
    1776                      .dwattr $C$DW$105, DW_AT_data_member_location[DW_OP_plus_uconst 0x1]
    1777                      .dwattr $C$DW$105, DW_AT_accessibility(DW_ACCESS_public)
    1778              
    1779              $C$DW$106       .dwtag  DW_TAG_member
    1780                      .dwattr $C$DW$106, DW_AT_type(*$C$DW$T$19)
    1781                      .dwattr $C$DW$106, DW_AT_name("rsvd2")
    1782                      .dwattr $C$DW$106, DW_AT_TI_symbol_name("_rsvd2")
    1783                      .dwattr $C$DW$106, DW_AT_bit_offset(0x0c)
    1784                      .dwattr $C$DW$106, DW_AT_bit_size(0x02)
    1785                      .dwattr $C$DW$106, DW_AT_data_member_location[DW_OP_plus_uconst 0x1]
    1786                      .dwattr $C$DW$106, DW_AT_accessibility(DW_ACCESS_public)
    1787              
    1788              $C$DW$107       .dwtag  DW_TAG_member
    1789                      .dwattr $C$DW$107, DW_AT_type(*$C$DW$T$19)
    1790                      .dwattr $C$DW$107, DW_AT_name("rsvd3")
    1791                      .dwattr $C$DW$107, DW_AT_TI_symbol_name("_rsvd3")
    1792                      .dwattr $C$DW$107, DW_AT_bit_offset(0x00)
    1793                      .dwattr $C$DW$107, DW_AT_bit_size(0x0c)
    1794                      .dwattr $C$DW$107, DW_AT_data_member_location[DW_OP_plus_uconst 0x1]
    1795                      .dwattr $C$DW$107, DW_AT_accessibility(DW_ACCESS_public)
    1796              
    1797                      .dwendtag $C$DW$T$27
    1798              
    1799              
    1800              $C$DW$T$28      .dwtag  DW_TAG_union_type
    1801                      .dwattr $C$DW$T$28, DW_AT_name("DC12_REG")
    1802                      .dwattr $C$DW$T$28, DW_AT_byte_size(0x02)
TMS320C2000 Assembler PC v20.2.1 Sat Nov 14 12:25:43 2020

Copyright (c) 1996-2018 Texas Instruments Incorporated
F2837xS_Gpio.asm                                                     PAGE   35

    1803              $C$DW$108       .dwtag  DW_TAG_member
    1804                      .dwattr $C$DW$108, DW_AT_type(*$C$DW$T$21)
    1805                      .dwattr $C$DW$108, DW_AT_name("all")
    1806                      .dwattr $C$DW$108, DW_AT_TI_symbol_name("_all")
    1807                      .dwattr $C$DW$108, DW_AT_data_member_location[DW_OP_plus_uconst 0x0]
    1808                      .dwattr $C$DW$108, DW_AT_accessibility(DW_ACCESS_public)
    1809              
    1810              $C$DW$109       .dwtag  DW_TAG_member
    1811                      .dwattr $C$DW$109, DW_AT_type(*$C$DW$T$27)
    1812                      .dwattr $C$DW$109, DW_AT_name("bit")
    1813                      .dwattr $C$DW$109, DW_AT_TI_symbol_name("_bit")
    1814                      .dwattr $C$DW$109, DW_AT_data_member_location[DW_OP_plus_uconst 0x0]
    1815                      .dwattr $C$DW$109, DW_AT_accessibility(DW_ACCESS_public)
    1816              
    1817                      .dwendtag $C$DW$T$28
    1818              
    1819              
    1820              $C$DW$T$29      .dwtag  DW_TAG_structure_type
    1821                      .dwattr $C$DW$T$29, DW_AT_name("DC13_BITS")
    1822                      .dwattr $C$DW$T$29, DW_AT_byte_size(0x02)
    1823              $C$DW$110       .dwtag  DW_TAG_member
    1824                      .dwattr $C$DW$110, DW_AT_type(*$C$DW$T$19)
    1825                      .dwattr $C$DW$110, DW_AT_name("uPP_A")
    1826                      .dwattr $C$DW$110, DW_AT_TI_symbol_name("_uPP_A")
    1827                      .dwattr $C$DW$110, DW_AT_bit_offset(0x0f)
    1828                      .dwattr $C$DW$110, DW_AT_bit_size(0x01)
    1829                      .dwattr $C$DW$110, DW_AT_data_member_location[DW_OP_plus_uconst 0x0]
    1830                      .dwattr $C$DW$110, DW_AT_accessibility(DW_ACCESS_public)
    1831              
    1832              $C$DW$111       .dwtag  DW_TAG_member
    1833                      .dwattr $C$DW$111, DW_AT_type(*$C$DW$T$19)
    1834                      .dwattr $C$DW$111, DW_AT_name("rsvd1")
    1835                      .dwattr $C$DW$111, DW_AT_TI_symbol_name("_rsvd1")
    1836                      .dwattr $C$DW$111, DW_AT_bit_offset(0x0e)
    1837                      .dwattr $C$DW$111, DW_AT_bit_size(0x01)
    1838                      .dwattr $C$DW$111, DW_AT_data_member_location[DW_OP_plus_uconst 0x0]
    1839                      .dwattr $C$DW$111, DW_AT_accessibility(DW_ACCESS_public)
    1840              
    1841              $C$DW$112       .dwtag  DW_TAG_member
    1842                      .dwattr $C$DW$112, DW_AT_type(*$C$DW$T$19)
    1843                      .dwattr $C$DW$112, DW_AT_name("rsvd2")
    1844                      .dwattr $C$DW$112, DW_AT_TI_symbol_name("_rsvd2")
    1845                      .dwattr $C$DW$112, DW_AT_bit_offset(0x00)
    1846                      .dwattr $C$DW$112, DW_AT_bit_size(0x0e)
    1847                      .dwattr $C$DW$112, DW_AT_data_member_location[DW_OP_plus_uconst 0x0]
    1848                      .dwattr $C$DW$112, DW_AT_accessibility(DW_ACCESS_public)
    1849              
    1850              $C$DW$113       .dwtag  DW_TAG_member
    1851                      .dwattr $C$DW$113, DW_AT_type(*$C$DW$T$19)
    1852                      .dwattr $C$DW$113, DW_AT_name("rsvd3")
    1853                      .dwattr $C$DW$113, DW_AT_TI_symbol_name("_rsvd3")
    1854                      .dwattr $C$DW$113, DW_AT_bit_offset(0x00)
    1855                      .dwattr $C$DW$113, DW_AT_bit_size(0x10)
    1856                      .dwattr $C$DW$113, DW_AT_data_member_location[DW_OP_plus_uconst 0x1]
    1857                      .dwattr $C$DW$113, DW_AT_accessibility(DW_ACCESS_public)
TMS320C2000 Assembler PC v20.2.1 Sat Nov 14 12:25:43 2020

Copyright (c) 1996-2018 Texas Instruments Incorporated
F2837xS_Gpio.asm                                                     PAGE   36

    1858              
    1859                      .dwendtag $C$DW$T$29
    1860              
    1861              
    1862              $C$DW$T$30      .dwtag  DW_TAG_union_type
    1863                      .dwattr $C$DW$T$30, DW_AT_name("DC13_REG")
    1864                      .dwattr $C$DW$T$30, DW_AT_byte_size(0x02)
    1865              $C$DW$114       .dwtag  DW_TAG_member
    1866                      .dwattr $C$DW$114, DW_AT_type(*$C$DW$T$21)
    1867                      .dwattr $C$DW$114, DW_AT_name("all")
    1868                      .dwattr $C$DW$114, DW_AT_TI_symbol_name("_all")
    1869                      .dwattr $C$DW$114, DW_AT_data_member_location[DW_OP_plus_uconst 0x0]
    1870                      .dwattr $C$DW$114, DW_AT_accessibility(DW_ACCESS_public)
    1871              
    1872              $C$DW$115       .dwtag  DW_TAG_member
    1873                      .dwattr $C$DW$115, DW_AT_type(*$C$DW$T$29)
    1874                      .dwattr $C$DW$115, DW_AT_name("bit")
    1875                      .dwattr $C$DW$115, DW_AT_TI_symbol_name("_bit")
    1876                      .dwattr $C$DW$115, DW_AT_data_member_location[DW_OP_plus_uconst 0x0]
    1877                      .dwattr $C$DW$115, DW_AT_accessibility(DW_ACCESS_public)
    1878              
    1879                      .dwendtag $C$DW$T$30
    1880              
    1881              
    1882              $C$DW$T$31      .dwtag  DW_TAG_structure_type
    1883                      .dwattr $C$DW$T$31, DW_AT_name("DC14_BITS")
    1884                      .dwattr $C$DW$T$31, DW_AT_byte_size(0x02)
    1885              $C$DW$116       .dwtag  DW_TAG_member
    1886                      .dwattr $C$DW$116, DW_AT_type(*$C$DW$T$19)
    1887                      .dwattr $C$DW$116, DW_AT_name("ADC_A")
    1888                      .dwattr $C$DW$116, DW_AT_TI_symbol_name("_ADC_A")
    1889                      .dwattr $C$DW$116, DW_AT_bit_offset(0x0f)
    1890                      .dwattr $C$DW$116, DW_AT_bit_size(0x01)
    1891                      .dwattr $C$DW$116, DW_AT_data_member_location[DW_OP_plus_uconst 0x0]
    1892                      .dwattr $C$DW$116, DW_AT_accessibility(DW_ACCESS_public)
    1893              
    1894              $C$DW$117       .dwtag  DW_TAG_member
    1895                      .dwattr $C$DW$117, DW_AT_type(*$C$DW$T$19)
    1896                      .dwattr $C$DW$117, DW_AT_name("ADC_B")
    1897                      .dwattr $C$DW$117, DW_AT_TI_symbol_name("_ADC_B")
    1898                      .dwattr $C$DW$117, DW_AT_bit_offset(0x0e)
    1899                      .dwattr $C$DW$117, DW_AT_bit_size(0x01)
    1900                      .dwattr $C$DW$117, DW_AT_data_member_location[DW_OP_plus_uconst 0x0]
    1901                      .dwattr $C$DW$117, DW_AT_accessibility(DW_ACCESS_public)
    1902              
    1903              $C$DW$118       .dwtag  DW_TAG_member
    1904                      .dwattr $C$DW$118, DW_AT_type(*$C$DW$T$19)
    1905                      .dwattr $C$DW$118, DW_AT_name("ADC_C")
    1906                      .dwattr $C$DW$118, DW_AT_TI_symbol_name("_ADC_C")
    1907                      .dwattr $C$DW$118, DW_AT_bit_offset(0x0d)
    1908                      .dwattr $C$DW$118, DW_AT_bit_size(0x01)
    1909                      .dwattr $C$DW$118, DW_AT_data_member_location[DW_OP_plus_uconst 0x0]
    1910                      .dwattr $C$DW$118, DW_AT_accessibility(DW_ACCESS_public)
    1911              
    1912              $C$DW$119       .dwtag  DW_TAG_member
TMS320C2000 Assembler PC v20.2.1 Sat Nov 14 12:25:43 2020

Copyright (c) 1996-2018 Texas Instruments Incorporated
F2837xS_Gpio.asm                                                     PAGE   37

    1913                      .dwattr $C$DW$119, DW_AT_type(*$C$DW$T$19)
    1914                      .dwattr $C$DW$119, DW_AT_name("ADC_D")
    1915                      .dwattr $C$DW$119, DW_AT_TI_symbol_name("_ADC_D")
    1916                      .dwattr $C$DW$119, DW_AT_bit_offset(0x0c)
    1917                      .dwattr $C$DW$119, DW_AT_bit_size(0x01)
    1918                      .dwattr $C$DW$119, DW_AT_data_member_location[DW_OP_plus_uconst 0x0]
    1919                      .dwattr $C$DW$119, DW_AT_accessibility(DW_ACCESS_public)
    1920              
    1921              $C$DW$120       .dwtag  DW_TAG_member
    1922                      .dwattr $C$DW$120, DW_AT_type(*$C$DW$T$19)
    1923                      .dwattr $C$DW$120, DW_AT_name("rsvd1")
    1924                      .dwattr $C$DW$120, DW_AT_TI_symbol_name("_rsvd1")
    1925                      .dwattr $C$DW$120, DW_AT_bit_offset(0x00)
    1926                      .dwattr $C$DW$120, DW_AT_bit_size(0x0c)
    1927                      .dwattr $C$DW$120, DW_AT_data_member_location[DW_OP_plus_uconst 0x0]
    1928                      .dwattr $C$DW$120, DW_AT_accessibility(DW_ACCESS_public)
    1929              
    1930              $C$DW$121       .dwtag  DW_TAG_member
    1931                      .dwattr $C$DW$121, DW_AT_type(*$C$DW$T$19)
    1932                      .dwattr $C$DW$121, DW_AT_name("rsvd2")
    1933                      .dwattr $C$DW$121, DW_AT_TI_symbol_name("_rsvd2")
    1934                      .dwattr $C$DW$121, DW_AT_bit_offset(0x00)
    1935                      .dwattr $C$DW$121, DW_AT_bit_size(0x10)
    1936                      .dwattr $C$DW$121, DW_AT_data_member_location[DW_OP_plus_uconst 0x1]
    1937                      .dwattr $C$DW$121, DW_AT_accessibility(DW_ACCESS_public)
    1938              
    1939                      .dwendtag $C$DW$T$31
    1940              
    1941              
    1942              $C$DW$T$32      .dwtag  DW_TAG_union_type
    1943                      .dwattr $C$DW$T$32, DW_AT_name("DC14_REG")
    1944                      .dwattr $C$DW$T$32, DW_AT_byte_size(0x02)
    1945              $C$DW$122       .dwtag  DW_TAG_member
    1946                      .dwattr $C$DW$122, DW_AT_type(*$C$DW$T$21)
    1947                      .dwattr $C$DW$122, DW_AT_name("all")
    1948                      .dwattr $C$DW$122, DW_AT_TI_symbol_name("_all")
    1949                      .dwattr $C$DW$122, DW_AT_data_member_location[DW_OP_plus_uconst 0x0]
    1950                      .dwattr $C$DW$122, DW_AT_accessibility(DW_ACCESS_public)
    1951              
    1952              $C$DW$123       .dwtag  DW_TAG_member
    1953                      .dwattr $C$DW$123, DW_AT_type(*$C$DW$T$31)
    1954                      .dwattr $C$DW$123, DW_AT_name("bit")
    1955                      .dwattr $C$DW$123, DW_AT_TI_symbol_name("_bit")
    1956                      .dwattr $C$DW$123, DW_AT_data_member_location[DW_OP_plus_uconst 0x0]
    1957                      .dwattr $C$DW$123, DW_AT_accessibility(DW_ACCESS_public)
    1958              
    1959                      .dwendtag $C$DW$T$32
    1960              
    1961              
    1962              $C$DW$T$33      .dwtag  DW_TAG_structure_type
    1963                      .dwattr $C$DW$T$33, DW_AT_name("DC15_BITS")
    1964                      .dwattr $C$DW$T$33, DW_AT_byte_size(0x02)
    1965              $C$DW$124       .dwtag  DW_TAG_member
    1966                      .dwattr $C$DW$124, DW_AT_type(*$C$DW$T$19)
    1967                      .dwattr $C$DW$124, DW_AT_name("CMPSS1")
TMS320C2000 Assembler PC v20.2.1 Sat Nov 14 12:25:43 2020

Copyright (c) 1996-2018 Texas Instruments Incorporated
F2837xS_Gpio.asm                                                     PAGE   38

    1968                      .dwattr $C$DW$124, DW_AT_TI_symbol_name("_CMPSS1")
    1969                      .dwattr $C$DW$124, DW_AT_bit_offset(0x0f)
    1970                      .dwattr $C$DW$124, DW_AT_bit_size(0x01)
    1971                      .dwattr $C$DW$124, DW_AT_data_member_location[DW_OP_plus_uconst 0x0]
    1972                      .dwattr $C$DW$124, DW_AT_accessibility(DW_ACCESS_public)
    1973              
    1974              $C$DW$125       .dwtag  DW_TAG_member
    1975                      .dwattr $C$DW$125, DW_AT_type(*$C$DW$T$19)
    1976                      .dwattr $C$DW$125, DW_AT_name("CMPSS2")
    1977                      .dwattr $C$DW$125, DW_AT_TI_symbol_name("_CMPSS2")
    1978                      .dwattr $C$DW$125, DW_AT_bit_offset(0x0e)
    1979                      .dwattr $C$DW$125, DW_AT_bit_size(0x01)
    1980                      .dwattr $C$DW$125, DW_AT_data_member_location[DW_OP_plus_uconst 0x0]
    1981                      .dwattr $C$DW$125, DW_AT_accessibility(DW_ACCESS_public)
    1982              
    1983              $C$DW$126       .dwtag  DW_TAG_member
    1984                      .dwattr $C$DW$126, DW_AT_type(*$C$DW$T$19)
    1985                      .dwattr $C$DW$126, DW_AT_name("CMPSS3")
    1986                      .dwattr $C$DW$126, DW_AT_TI_symbol_name("_CMPSS3")
    1987                      .dwattr $C$DW$126, DW_AT_bit_offset(0x0d)
    1988                      .dwattr $C$DW$126, DW_AT_bit_size(0x01)
    1989                      .dwattr $C$DW$126, DW_AT_data_member_location[DW_OP_plus_uconst 0x0]
    1990                      .dwattr $C$DW$126, DW_AT_accessibility(DW_ACCESS_public)
    1991              
    1992              $C$DW$127       .dwtag  DW_TAG_member
    1993                      .dwattr $C$DW$127, DW_AT_type(*$C$DW$T$19)
    1994                      .dwattr $C$DW$127, DW_AT_name("CMPSS4")
    1995                      .dwattr $C$DW$127, DW_AT_TI_symbol_name("_CMPSS4")
    1996                      .dwattr $C$DW$127, DW_AT_bit_offset(0x0c)
    1997                      .dwattr $C$DW$127, DW_AT_bit_size(0x01)
    1998                      .dwattr $C$DW$127, DW_AT_data_member_location[DW_OP_plus_uconst 0x0]
    1999                      .dwattr $C$DW$127, DW_AT_accessibility(DW_ACCESS_public)
    2000              
    2001              $C$DW$128       .dwtag  DW_TAG_member
    2002                      .dwattr $C$DW$128, DW_AT_type(*$C$DW$T$19)
    2003                      .dwattr $C$DW$128, DW_AT_name("CMPSS5")
    2004                      .dwattr $C$DW$128, DW_AT_TI_symbol_name("_CMPSS5")
    2005                      .dwattr $C$DW$128, DW_AT_bit_offset(0x0b)
    2006                      .dwattr $C$DW$128, DW_AT_bit_size(0x01)
    2007                      .dwattr $C$DW$128, DW_AT_data_member_location[DW_OP_plus_uconst 0x0]
    2008                      .dwattr $C$DW$128, DW_AT_accessibility(DW_ACCESS_public)
    2009              
    2010              $C$DW$129       .dwtag  DW_TAG_member
    2011                      .dwattr $C$DW$129, DW_AT_type(*$C$DW$T$19)
    2012                      .dwattr $C$DW$129, DW_AT_name("CMPSS6")
    2013                      .dwattr $C$DW$129, DW_AT_TI_symbol_name("_CMPSS6")
    2014                      .dwattr $C$DW$129, DW_AT_bit_offset(0x0a)
    2015                      .dwattr $C$DW$129, DW_AT_bit_size(0x01)
    2016                      .dwattr $C$DW$129, DW_AT_data_member_location[DW_OP_plus_uconst 0x0]
    2017                      .dwattr $C$DW$129, DW_AT_accessibility(DW_ACCESS_public)
    2018              
    2019              $C$DW$130       .dwtag  DW_TAG_member
    2020                      .dwattr $C$DW$130, DW_AT_type(*$C$DW$T$19)
    2021                      .dwattr $C$DW$130, DW_AT_name("CMPSS7")
    2022                      .dwattr $C$DW$130, DW_AT_TI_symbol_name("_CMPSS7")
TMS320C2000 Assembler PC v20.2.1 Sat Nov 14 12:25:43 2020

Copyright (c) 1996-2018 Texas Instruments Incorporated
F2837xS_Gpio.asm                                                     PAGE   39

    2023                      .dwattr $C$DW$130, DW_AT_bit_offset(0x09)
    2024                      .dwattr $C$DW$130, DW_AT_bit_size(0x01)
    2025                      .dwattr $C$DW$130, DW_AT_data_member_location[DW_OP_plus_uconst 0x0]
    2026                      .dwattr $C$DW$130, DW_AT_accessibility(DW_ACCESS_public)
    2027              
    2028              $C$DW$131       .dwtag  DW_TAG_member
    2029                      .dwattr $C$DW$131, DW_AT_type(*$C$DW$T$19)
    2030                      .dwattr $C$DW$131, DW_AT_name("CMPSS8")
    2031                      .dwattr $C$DW$131, DW_AT_TI_symbol_name("_CMPSS8")
    2032                      .dwattr $C$DW$131, DW_AT_bit_offset(0x08)
    2033                      .dwattr $C$DW$131, DW_AT_bit_size(0x01)
    2034                      .dwattr $C$DW$131, DW_AT_data_member_location[DW_OP_plus_uconst 0x0]
    2035                      .dwattr $C$DW$131, DW_AT_accessibility(DW_ACCESS_public)
    2036              
    2037              $C$DW$132       .dwtag  DW_TAG_member
    2038                      .dwattr $C$DW$132, DW_AT_type(*$C$DW$T$19)
    2039                      .dwattr $C$DW$132, DW_AT_name("rsvd1")
    2040                      .dwattr $C$DW$132, DW_AT_TI_symbol_name("_rsvd1")
    2041                      .dwattr $C$DW$132, DW_AT_bit_offset(0x00)
    2042                      .dwattr $C$DW$132, DW_AT_bit_size(0x08)
    2043                      .dwattr $C$DW$132, DW_AT_data_member_location[DW_OP_plus_uconst 0x0]
    2044                      .dwattr $C$DW$132, DW_AT_accessibility(DW_ACCESS_public)
    2045              
    2046              $C$DW$133       .dwtag  DW_TAG_member
    2047                      .dwattr $C$DW$133, DW_AT_type(*$C$DW$T$19)
    2048                      .dwattr $C$DW$133, DW_AT_name("rsvd2")
    2049                      .dwattr $C$DW$133, DW_AT_TI_symbol_name("_rsvd2")
    2050                      .dwattr $C$DW$133, DW_AT_bit_offset(0x00)
    2051                      .dwattr $C$DW$133, DW_AT_bit_size(0x10)
    2052                      .dwattr $C$DW$133, DW_AT_data_member_location[DW_OP_plus_uconst 0x1]
    2053                      .dwattr $C$DW$133, DW_AT_accessibility(DW_ACCESS_public)
    2054              
    2055                      .dwendtag $C$DW$T$33
    2056              
    2057              
    2058              $C$DW$T$34      .dwtag  DW_TAG_union_type
    2059                      .dwattr $C$DW$T$34, DW_AT_name("DC15_REG")
    2060                      .dwattr $C$DW$T$34, DW_AT_byte_size(0x02)
    2061              $C$DW$134       .dwtag  DW_TAG_member
    2062                      .dwattr $C$DW$134, DW_AT_type(*$C$DW$T$21)
    2063                      .dwattr $C$DW$134, DW_AT_name("all")
    2064                      .dwattr $C$DW$134, DW_AT_TI_symbol_name("_all")
    2065                      .dwattr $C$DW$134, DW_AT_data_member_location[DW_OP_plus_uconst 0x0]
    2066                      .dwattr $C$DW$134, DW_AT_accessibility(DW_ACCESS_public)
    2067              
    2068              $C$DW$135       .dwtag  DW_TAG_member
    2069                      .dwattr $C$DW$135, DW_AT_type(*$C$DW$T$33)
    2070                      .dwattr $C$DW$135, DW_AT_name("bit")
    2071                      .dwattr $C$DW$135, DW_AT_TI_symbol_name("_bit")
    2072                      .dwattr $C$DW$135, DW_AT_data_member_location[DW_OP_plus_uconst 0x0]
    2073                      .dwattr $C$DW$135, DW_AT_accessibility(DW_ACCESS_public)
    2074              
    2075                      .dwendtag $C$DW$T$34
    2076              
    2077              
TMS320C2000 Assembler PC v20.2.1 Sat Nov 14 12:25:43 2020

Copyright (c) 1996-2018 Texas Instruments Incorporated
F2837xS_Gpio.asm                                                     PAGE   40

    2078              $C$DW$T$35      .dwtag  DW_TAG_structure_type
    2079                      .dwattr $C$DW$T$35, DW_AT_name("DC17_BITS")
    2080                      .dwattr $C$DW$T$35, DW_AT_byte_size(0x02)
    2081              $C$DW$136       .dwtag  DW_TAG_member
    2082                      .dwattr $C$DW$136, DW_AT_type(*$C$DW$T$19)
    2083                      .dwattr $C$DW$136, DW_AT_name("rsvd1")
    2084                      .dwattr $C$DW$136, DW_AT_TI_symbol_name("_rsvd1")
    2085                      .dwattr $C$DW$136, DW_AT_bit_offset(0x0f)
    2086                      .dwattr $C$DW$136, DW_AT_bit_size(0x01)
    2087                      .dwattr $C$DW$136, DW_AT_data_member_location[DW_OP_plus_uconst 0x0]
    2088                      .dwattr $C$DW$136, DW_AT_accessibility(DW_ACCESS_public)
    2089              
    2090              $C$DW$137       .dwtag  DW_TAG_member
    2091                      .dwattr $C$DW$137, DW_AT_type(*$C$DW$T$19)
    2092                      .dwattr $C$DW$137, DW_AT_name("rsvd2")
    2093                      .dwattr $C$DW$137, DW_AT_TI_symbol_name("_rsvd2")
    2094                      .dwattr $C$DW$137, DW_AT_bit_offset(0x0e)
    2095                      .dwattr $C$DW$137, DW_AT_bit_size(0x01)
    2096                      .dwattr $C$DW$137, DW_AT_data_member_location[DW_OP_plus_uconst 0x0]
    2097                      .dwattr $C$DW$137, DW_AT_accessibility(DW_ACCESS_public)
    2098              
    2099              $C$DW$138       .dwtag  DW_TAG_member
    2100                      .dwattr $C$DW$138, DW_AT_type(*$C$DW$T$19)
    2101                      .dwattr $C$DW$138, DW_AT_name("rsvd3")
    2102                      .dwattr $C$DW$138, DW_AT_TI_symbol_name("_rsvd3")
    2103                      .dwattr $C$DW$138, DW_AT_bit_offset(0x0d)
    2104                      .dwattr $C$DW$138, DW_AT_bit_size(0x01)
    2105                      .dwattr $C$DW$138, DW_AT_data_member_location[DW_OP_plus_uconst 0x0]
    2106                      .dwattr $C$DW$138, DW_AT_accessibility(DW_ACCESS_public)
    2107              
    2108              $C$DW$139       .dwtag  DW_TAG_member
    2109                      .dwattr $C$DW$139, DW_AT_type(*$C$DW$T$19)
    2110                      .dwattr $C$DW$139, DW_AT_name("rsvd4")
    2111                      .dwattr $C$DW$139, DW_AT_TI_symbol_name("_rsvd4")
    2112                      .dwattr $C$DW$139, DW_AT_bit_offset(0x0c)
    2113                      .dwattr $C$DW$139, DW_AT_bit_size(0x01)
    2114                      .dwattr $C$DW$139, DW_AT_data_member_location[DW_OP_plus_uconst 0x0]
    2115                      .dwattr $C$DW$139, DW_AT_accessibility(DW_ACCESS_public)
    2116              
    2117              $C$DW$140       .dwtag  DW_TAG_member
    2118                      .dwattr $C$DW$140, DW_AT_type(*$C$DW$T$19)
    2119                      .dwattr $C$DW$140, DW_AT_name("rsvd5")
    2120                      .dwattr $C$DW$140, DW_AT_TI_symbol_name("_rsvd5")
    2121                      .dwattr $C$DW$140, DW_AT_bit_offset(0x00)
    2122                      .dwattr $C$DW$140, DW_AT_bit_size(0x0c)
    2123                      .dwattr $C$DW$140, DW_AT_data_member_location[DW_OP_plus_uconst 0x0]
    2124                      .dwattr $C$DW$140, DW_AT_accessibility(DW_ACCESS_public)
    2125              
    2126              $C$DW$141       .dwtag  DW_TAG_member
    2127                      .dwattr $C$DW$141, DW_AT_type(*$C$DW$T$19)
    2128                      .dwattr $C$DW$141, DW_AT_name("DAC_A")
    2129                      .dwattr $C$DW$141, DW_AT_TI_symbol_name("_DAC_A")
    2130                      .dwattr $C$DW$141, DW_AT_bit_offset(0x0f)
    2131                      .dwattr $C$DW$141, DW_AT_bit_size(0x01)
    2132                      .dwattr $C$DW$141, DW_AT_data_member_location[DW_OP_plus_uconst 0x1]
TMS320C2000 Assembler PC v20.2.1 Sat Nov 14 12:25:43 2020

Copyright (c) 1996-2018 Texas Instruments Incorporated
F2837xS_Gpio.asm                                                     PAGE   41

    2133                      .dwattr $C$DW$141, DW_AT_accessibility(DW_ACCESS_public)
    2134              
    2135              $C$DW$142       .dwtag  DW_TAG_member
    2136                      .dwattr $C$DW$142, DW_AT_type(*$C$DW$T$19)
    2137                      .dwattr $C$DW$142, DW_AT_name("DAC_B")
    2138                      .dwattr $C$DW$142, DW_AT_TI_symbol_name("_DAC_B")
    2139                      .dwattr $C$DW$142, DW_AT_bit_offset(0x0e)
    2140                      .dwattr $C$DW$142, DW_AT_bit_size(0x01)
    2141                      .dwattr $C$DW$142, DW_AT_data_member_location[DW_OP_plus_uconst 0x1]
    2142                      .dwattr $C$DW$142, DW_AT_accessibility(DW_ACCESS_public)
    2143              
    2144              $C$DW$143       .dwtag  DW_TAG_member
    2145                      .dwattr $C$DW$143, DW_AT_type(*$C$DW$T$19)
    2146                      .dwattr $C$DW$143, DW_AT_name("DAC_C")
    2147                      .dwattr $C$DW$143, DW_AT_TI_symbol_name("_DAC_C")
    2148                      .dwattr $C$DW$143, DW_AT_bit_offset(0x0d)
    2149                      .dwattr $C$DW$143, DW_AT_bit_size(0x01)
    2150                      .dwattr $C$DW$143, DW_AT_data_member_location[DW_OP_plus_uconst 0x1]
    2151                      .dwattr $C$DW$143, DW_AT_accessibility(DW_ACCESS_public)
    2152              
    2153              $C$DW$144       .dwtag  DW_TAG_member
    2154                      .dwattr $C$DW$144, DW_AT_type(*$C$DW$T$19)
    2155                      .dwattr $C$DW$144, DW_AT_name("rsvd6")
    2156                      .dwattr $C$DW$144, DW_AT_TI_symbol_name("_rsvd6")
    2157                      .dwattr $C$DW$144, DW_AT_bit_offset(0x0c)
    2158                      .dwattr $C$DW$144, DW_AT_bit_size(0x01)
    2159                      .dwattr $C$DW$144, DW_AT_data_member_location[DW_OP_plus_uconst 0x1]
    2160                      .dwattr $C$DW$144, DW_AT_accessibility(DW_ACCESS_public)
    2161              
    2162              $C$DW$145       .dwtag  DW_TAG_member
    2163                      .dwattr $C$DW$145, DW_AT_type(*$C$DW$T$19)
    2164                      .dwattr $C$DW$145, DW_AT_name("rsvd7")
    2165                      .dwattr $C$DW$145, DW_AT_TI_symbol_name("_rsvd7")
    2166                      .dwattr $C$DW$145, DW_AT_bit_offset(0x00)
    2167                      .dwattr $C$DW$145, DW_AT_bit_size(0x0c)
    2168                      .dwattr $C$DW$145, DW_AT_data_member_location[DW_OP_plus_uconst 0x1]
    2169                      .dwattr $C$DW$145, DW_AT_accessibility(DW_ACCESS_public)
    2170              
    2171                      .dwendtag $C$DW$T$35
    2172              
    2173              
    2174              $C$DW$T$36      .dwtag  DW_TAG_union_type
    2175                      .dwattr $C$DW$T$36, DW_AT_name("DC17_REG")
    2176                      .dwattr $C$DW$T$36, DW_AT_byte_size(0x02)
    2177              $C$DW$146       .dwtag  DW_TAG_member
    2178                      .dwattr $C$DW$146, DW_AT_type(*$C$DW$T$21)
    2179                      .dwattr $C$DW$146, DW_AT_name("all")
    2180                      .dwattr $C$DW$146, DW_AT_TI_symbol_name("_all")
    2181                      .dwattr $C$DW$146, DW_AT_data_member_location[DW_OP_plus_uconst 0x0]
    2182                      .dwattr $C$DW$146, DW_AT_accessibility(DW_ACCESS_public)
    2183              
    2184              $C$DW$147       .dwtag  DW_TAG_member
    2185                      .dwattr $C$DW$147, DW_AT_type(*$C$DW$T$35)
    2186                      .dwattr $C$DW$147, DW_AT_name("bit")
    2187                      .dwattr $C$DW$147, DW_AT_TI_symbol_name("_bit")
TMS320C2000 Assembler PC v20.2.1 Sat Nov 14 12:25:43 2020

Copyright (c) 1996-2018 Texas Instruments Incorporated
F2837xS_Gpio.asm                                                     PAGE   42

    2188                      .dwattr $C$DW$147, DW_AT_data_member_location[DW_OP_plus_uconst 0x0]
    2189                      .dwattr $C$DW$147, DW_AT_accessibility(DW_ACCESS_public)
    2190              
    2191                      .dwendtag $C$DW$T$36
    2192              
    2193              
    2194              $C$DW$T$37      .dwtag  DW_TAG_structure_type
    2195                      .dwattr $C$DW$T$37, DW_AT_name("DC18_BITS")
    2196                      .dwattr $C$DW$T$37, DW_AT_byte_size(0x02)
    2197              $C$DW$148       .dwtag  DW_TAG_member
    2198                      .dwattr $C$DW$148, DW_AT_type(*$C$DW$T$19)
    2199                      .dwattr $C$DW$148, DW_AT_name("LS0_1")
    2200                      .dwattr $C$DW$148, DW_AT_TI_symbol_name("_LS0_1")
    2201                      .dwattr $C$DW$148, DW_AT_bit_offset(0x0f)
    2202                      .dwattr $C$DW$148, DW_AT_bit_size(0x01)
    2203                      .dwattr $C$DW$148, DW_AT_data_member_location[DW_OP_plus_uconst 0x0]
    2204                      .dwattr $C$DW$148, DW_AT_accessibility(DW_ACCESS_public)
    2205              
    2206              $C$DW$149       .dwtag  DW_TAG_member
    2207                      .dwattr $C$DW$149, DW_AT_type(*$C$DW$T$19)
    2208                      .dwattr $C$DW$149, DW_AT_name("LS1_1")
    2209                      .dwattr $C$DW$149, DW_AT_TI_symbol_name("_LS1_1")
    2210                      .dwattr $C$DW$149, DW_AT_bit_offset(0x0e)
    2211                      .dwattr $C$DW$149, DW_AT_bit_size(0x01)
    2212                      .dwattr $C$DW$149, DW_AT_data_member_location[DW_OP_plus_uconst 0x0]
    2213                      .dwattr $C$DW$149, DW_AT_accessibility(DW_ACCESS_public)
    2214              
    2215              $C$DW$150       .dwtag  DW_TAG_member
    2216                      .dwattr $C$DW$150, DW_AT_type(*$C$DW$T$19)
    2217                      .dwattr $C$DW$150, DW_AT_name("LS2_1")
    2218                      .dwattr $C$DW$150, DW_AT_TI_symbol_name("_LS2_1")
    2219                      .dwattr $C$DW$150, DW_AT_bit_offset(0x0d)
    2220                      .dwattr $C$DW$150, DW_AT_bit_size(0x01)
    2221                      .dwattr $C$DW$150, DW_AT_data_member_location[DW_OP_plus_uconst 0x0]
    2222                      .dwattr $C$DW$150, DW_AT_accessibility(DW_ACCESS_public)
    2223              
    2224              $C$DW$151       .dwtag  DW_TAG_member
    2225                      .dwattr $C$DW$151, DW_AT_type(*$C$DW$T$19)
    2226                      .dwattr $C$DW$151, DW_AT_name("LS3_1")
    2227                      .dwattr $C$DW$151, DW_AT_TI_symbol_name("_LS3_1")
    2228                      .dwattr $C$DW$151, DW_AT_bit_offset(0x0c)
    2229                      .dwattr $C$DW$151, DW_AT_bit_size(0x01)
    2230                      .dwattr $C$DW$151, DW_AT_data_member_location[DW_OP_plus_uconst 0x0]
    2231                      .dwattr $C$DW$151, DW_AT_accessibility(DW_ACCESS_public)
    2232              
    2233              $C$DW$152       .dwtag  DW_TAG_member
    2234                      .dwattr $C$DW$152, DW_AT_type(*$C$DW$T$19)
    2235                      .dwattr $C$DW$152, DW_AT_name("LS4_1")
    2236                      .dwattr $C$DW$152, DW_AT_TI_symbol_name("_LS4_1")
    2237                      .dwattr $C$DW$152, DW_AT_bit_offset(0x0b)
    2238                      .dwattr $C$DW$152, DW_AT_bit_size(0x01)
    2239                      .dwattr $C$DW$152, DW_AT_data_member_location[DW_OP_plus_uconst 0x0]
    2240                      .dwattr $C$DW$152, DW_AT_accessibility(DW_ACCESS_public)
    2241              
    2242              $C$DW$153       .dwtag  DW_TAG_member
TMS320C2000 Assembler PC v20.2.1 Sat Nov 14 12:25:43 2020

Copyright (c) 1996-2018 Texas Instruments Incorporated
F2837xS_Gpio.asm                                                     PAGE   43

    2243                      .dwattr $C$DW$153, DW_AT_type(*$C$DW$T$19)
    2244                      .dwattr $C$DW$153, DW_AT_name("LS5_1")
    2245                      .dwattr $C$DW$153, DW_AT_TI_symbol_name("_LS5_1")
    2246                      .dwattr $C$DW$153, DW_AT_bit_offset(0x0a)
    2247                      .dwattr $C$DW$153, DW_AT_bit_size(0x01)
    2248                      .dwattr $C$DW$153, DW_AT_data_member_location[DW_OP_plus_uconst 0x0]
    2249                      .dwattr $C$DW$153, DW_AT_accessibility(DW_ACCESS_public)
    2250              
    2251              $C$DW$154       .dwtag  DW_TAG_member
    2252                      .dwattr $C$DW$154, DW_AT_type(*$C$DW$T$19)
    2253                      .dwattr $C$DW$154, DW_AT_name("rsvd1")
    2254                      .dwattr $C$DW$154, DW_AT_TI_symbol_name("_rsvd1")
    2255                      .dwattr $C$DW$154, DW_AT_bit_offset(0x00)
    2256                      .dwattr $C$DW$154, DW_AT_bit_size(0x0a)
    2257                      .dwattr $C$DW$154, DW_AT_data_member_location[DW_OP_plus_uconst 0x0]
    2258                      .dwattr $C$DW$154, DW_AT_accessibility(DW_ACCESS_public)
    2259              
    2260              $C$DW$155       .dwtag  DW_TAG_member
    2261                      .dwattr $C$DW$155, DW_AT_type(*$C$DW$T$19)
    2262                      .dwattr $C$DW$155, DW_AT_name("rsvd2")
    2263                      .dwattr $C$DW$155, DW_AT_TI_symbol_name("_rsvd2")
    2264                      .dwattr $C$DW$155, DW_AT_bit_offset(0x00)
    2265                      .dwattr $C$DW$155, DW_AT_bit_size(0x10)
    2266                      .dwattr $C$DW$155, DW_AT_data_member_location[DW_OP_plus_uconst 0x1]
    2267                      .dwattr $C$DW$155, DW_AT_accessibility(DW_ACCESS_public)
    2268              
    2269                      .dwendtag $C$DW$T$37
    2270              
    2271              
    2272              $C$DW$T$38      .dwtag  DW_TAG_union_type
    2273                      .dwattr $C$DW$T$38, DW_AT_name("DC18_REG")
    2274                      .dwattr $C$DW$T$38, DW_AT_byte_size(0x02)
    2275              $C$DW$156       .dwtag  DW_TAG_member
    2276                      .dwattr $C$DW$156, DW_AT_type(*$C$DW$T$21)
    2277                      .dwattr $C$DW$156, DW_AT_name("all")
    2278                      .dwattr $C$DW$156, DW_AT_TI_symbol_name("_all")
    2279                      .dwattr $C$DW$156, DW_AT_data_member_location[DW_OP_plus_uconst 0x0]
    2280                      .dwattr $C$DW$156, DW_AT_accessibility(DW_ACCESS_public)
    2281              
    2282              $C$DW$157       .dwtag  DW_TAG_member
    2283                      .dwattr $C$DW$157, DW_AT_type(*$C$DW$T$37)
    2284                      .dwattr $C$DW$157, DW_AT_name("bit")
    2285                      .dwattr $C$DW$157, DW_AT_TI_symbol_name("_bit")
    2286                      .dwattr $C$DW$157, DW_AT_data_member_location[DW_OP_plus_uconst 0x0]
    2287                      .dwattr $C$DW$157, DW_AT_accessibility(DW_ACCESS_public)
    2288              
    2289                      .dwendtag $C$DW$T$38
    2290              
    2291              
    2292              $C$DW$T$39      .dwtag  DW_TAG_structure_type
    2293                      .dwattr $C$DW$T$39, DW_AT_name("DC1_BITS")
    2294                      .dwattr $C$DW$T$39, DW_AT_byte_size(0x02)
    2295              $C$DW$158       .dwtag  DW_TAG_member
    2296                      .dwattr $C$DW$158, DW_AT_type(*$C$DW$T$19)
    2297                      .dwattr $C$DW$158, DW_AT_name("CPU1_FPU_TMU")
TMS320C2000 Assembler PC v20.2.1 Sat Nov 14 12:25:43 2020

Copyright (c) 1996-2018 Texas Instruments Incorporated
F2837xS_Gpio.asm                                                     PAGE   44

    2298                      .dwattr $C$DW$158, DW_AT_TI_symbol_name("_CPU1_FPU_TMU")
    2299                      .dwattr $C$DW$158, DW_AT_bit_offset(0x0f)
    2300                      .dwattr $C$DW$158, DW_AT_bit_size(0x01)
    2301                      .dwattr $C$DW$158, DW_AT_data_member_location[DW_OP_plus_uconst 0x0]
    2302                      .dwattr $C$DW$158, DW_AT_accessibility(DW_ACCESS_public)
    2303              
    2304              $C$DW$159       .dwtag  DW_TAG_member
    2305                      .dwattr $C$DW$159, DW_AT_type(*$C$DW$T$19)
    2306                      .dwattr $C$DW$159, DW_AT_name("rsvd1")
    2307                      .dwattr $C$DW$159, DW_AT_TI_symbol_name("_rsvd1")
    2308                      .dwattr $C$DW$159, DW_AT_bit_offset(0x0e)
    2309                      .dwattr $C$DW$159, DW_AT_bit_size(0x01)
    2310                      .dwattr $C$DW$159, DW_AT_data_member_location[DW_OP_plus_uconst 0x0]
    2311                      .dwattr $C$DW$159, DW_AT_accessibility(DW_ACCESS_public)
    2312              
    2313              $C$DW$160       .dwtag  DW_TAG_member
    2314                      .dwattr $C$DW$160, DW_AT_type(*$C$DW$T$19)
    2315                      .dwattr $C$DW$160, DW_AT_name("CPU1_VCU")
    2316                      .dwattr $C$DW$160, DW_AT_TI_symbol_name("_CPU1_VCU")
    2317                      .dwattr $C$DW$160, DW_AT_bit_offset(0x0d)
    2318                      .dwattr $C$DW$160, DW_AT_bit_size(0x01)
    2319                      .dwattr $C$DW$160, DW_AT_data_member_location[DW_OP_plus_uconst 0x0]
    2320                      .dwattr $C$DW$160, DW_AT_accessibility(DW_ACCESS_public)
    2321              
    2322              $C$DW$161       .dwtag  DW_TAG_member
    2323                      .dwattr $C$DW$161, DW_AT_type(*$C$DW$T$19)
    2324                      .dwattr $C$DW$161, DW_AT_name("rsvd2")
    2325                      .dwattr $C$DW$161, DW_AT_TI_symbol_name("_rsvd2")
    2326                      .dwattr $C$DW$161, DW_AT_bit_offset(0x0c)
    2327                      .dwattr $C$DW$161, DW_AT_bit_size(0x01)
    2328                      .dwattr $C$DW$161, DW_AT_data_member_location[DW_OP_plus_uconst 0x0]
    2329                      .dwattr $C$DW$161, DW_AT_accessibility(DW_ACCESS_public)
    2330              
    2331              $C$DW$162       .dwtag  DW_TAG_member
    2332                      .dwattr $C$DW$162, DW_AT_type(*$C$DW$T$19)
    2333                      .dwattr $C$DW$162, DW_AT_name("rsvd3")
    2334                      .dwattr $C$DW$162, DW_AT_TI_symbol_name("_rsvd3")
    2335                      .dwattr $C$DW$162, DW_AT_bit_offset(0x0a)
    2336                      .dwattr $C$DW$162, DW_AT_bit_size(0x02)
    2337                      .dwattr $C$DW$162, DW_AT_data_member_location[DW_OP_plus_uconst 0x0]
    2338                      .dwattr $C$DW$162, DW_AT_accessibility(DW_ACCESS_public)
    2339              
    2340              $C$DW$163       .dwtag  DW_TAG_member
    2341                      .dwattr $C$DW$163, DW_AT_type(*$C$DW$T$19)
    2342                      .dwattr $C$DW$163, DW_AT_name("CPU1_CLA1")
    2343                      .dwattr $C$DW$163, DW_AT_TI_symbol_name("_CPU1_CLA1")
    2344                      .dwattr $C$DW$163, DW_AT_bit_offset(0x09)
    2345                      .dwattr $C$DW$163, DW_AT_bit_size(0x01)
    2346                      .dwattr $C$DW$163, DW_AT_data_member_location[DW_OP_plus_uconst 0x0]
    2347                      .dwattr $C$DW$163, DW_AT_accessibility(DW_ACCESS_public)
    2348              
    2349              $C$DW$164       .dwtag  DW_TAG_member
    2350                      .dwattr $C$DW$164, DW_AT_type(*$C$DW$T$19)
    2351                      .dwattr $C$DW$164, DW_AT_name("rsvd4")
    2352                      .dwattr $C$DW$164, DW_AT_TI_symbol_name("_rsvd4")
TMS320C2000 Assembler PC v20.2.1 Sat Nov 14 12:25:43 2020

Copyright (c) 1996-2018 Texas Instruments Incorporated
F2837xS_Gpio.asm                                                     PAGE   45

    2353                      .dwattr $C$DW$164, DW_AT_bit_offset(0x08)
    2354                      .dwattr $C$DW$164, DW_AT_bit_size(0x01)
    2355                      .dwattr $C$DW$164, DW_AT_data_member_location[DW_OP_plus_uconst 0x0]
    2356                      .dwattr $C$DW$164, DW_AT_accessibility(DW_ACCESS_public)
    2357              
    2358              $C$DW$165       .dwtag  DW_TAG_member
    2359                      .dwattr $C$DW$165, DW_AT_type(*$C$DW$T$19)
    2360                      .dwattr $C$DW$165, DW_AT_name("rsvd5")
    2361                      .dwattr $C$DW$165, DW_AT_TI_symbol_name("_rsvd5")
    2362                      .dwattr $C$DW$165, DW_AT_bit_offset(0x07)
    2363                      .dwattr $C$DW$165, DW_AT_bit_size(0x01)
    2364                      .dwattr $C$DW$165, DW_AT_data_member_location[DW_OP_plus_uconst 0x0]
    2365                      .dwattr $C$DW$165, DW_AT_accessibility(DW_ACCESS_public)
    2366              
    2367              $C$DW$166       .dwtag  DW_TAG_member
    2368                      .dwattr $C$DW$166, DW_AT_type(*$C$DW$T$19)
    2369                      .dwattr $C$DW$166, DW_AT_name("rsvd6")
    2370                      .dwattr $C$DW$166, DW_AT_TI_symbol_name("_rsvd6")
    2371                      .dwattr $C$DW$166, DW_AT_bit_offset(0x06)
    2372                      .dwattr $C$DW$166, DW_AT_bit_size(0x01)
    2373                      .dwattr $C$DW$166, DW_AT_data_member_location[DW_OP_plus_uconst 0x0]
    2374                      .dwattr $C$DW$166, DW_AT_accessibility(DW_ACCESS_public)
    2375              
    2376              $C$DW$167       .dwtag  DW_TAG_member
    2377                      .dwattr $C$DW$167, DW_AT_type(*$C$DW$T$19)
    2378                      .dwattr $C$DW$167, DW_AT_name("rsvd7")
    2379                      .dwattr $C$DW$167, DW_AT_TI_symbol_name("_rsvd7")
    2380                      .dwattr $C$DW$167, DW_AT_bit_offset(0x00)
    2381                      .dwattr $C$DW$167, DW_AT_bit_size(0x06)
    2382                      .dwattr $C$DW$167, DW_AT_data_member_location[DW_OP_plus_uconst 0x0]
    2383                      .dwattr $C$DW$167, DW_AT_accessibility(DW_ACCESS_public)
    2384              
    2385              $C$DW$168       .dwtag  DW_TAG_member
    2386                      .dwattr $C$DW$168, DW_AT_type(*$C$DW$T$19)
    2387                      .dwattr $C$DW$168, DW_AT_name("rsvd8")
    2388                      .dwattr $C$DW$168, DW_AT_TI_symbol_name("_rsvd8")
    2389                      .dwattr $C$DW$168, DW_AT_bit_offset(0x00)
    2390                      .dwattr $C$DW$168, DW_AT_bit_size(0x10)
    2391                      .dwattr $C$DW$168, DW_AT_data_member_location[DW_OP_plus_uconst 0x1]
    2392                      .dwattr $C$DW$168, DW_AT_accessibility(DW_ACCESS_public)
    2393              
    2394                      .dwendtag $C$DW$T$39
    2395              
    2396              
    2397              $C$DW$T$40      .dwtag  DW_TAG_union_type
    2398                      .dwattr $C$DW$T$40, DW_AT_name("DC1_REG")
    2399                      .dwattr $C$DW$T$40, DW_AT_byte_size(0x02)
    2400              $C$DW$169       .dwtag  DW_TAG_member
    2401                      .dwattr $C$DW$169, DW_AT_type(*$C$DW$T$21)
    2402                      .dwattr $C$DW$169, DW_AT_name("all")
    2403                      .dwattr $C$DW$169, DW_AT_TI_symbol_name("_all")
    2404                      .dwattr $C$DW$169, DW_AT_data_member_location[DW_OP_plus_uconst 0x0]
    2405                      .dwattr $C$DW$169, DW_AT_accessibility(DW_ACCESS_public)
    2406              
    2407              $C$DW$170       .dwtag  DW_TAG_member
TMS320C2000 Assembler PC v20.2.1 Sat Nov 14 12:25:43 2020

Copyright (c) 1996-2018 Texas Instruments Incorporated
F2837xS_Gpio.asm                                                     PAGE   46

    2408                      .dwattr $C$DW$170, DW_AT_type(*$C$DW$T$39)
    2409                      .dwattr $C$DW$170, DW_AT_name("bit")
    2410                      .dwattr $C$DW$170, DW_AT_TI_symbol_name("_bit")
    2411                      .dwattr $C$DW$170, DW_AT_data_member_location[DW_OP_plus_uconst 0x0]
    2412                      .dwattr $C$DW$170, DW_AT_accessibility(DW_ACCESS_public)
    2413              
    2414                      .dwendtag $C$DW$T$40
    2415              
    2416              
    2417              $C$DW$T$41      .dwtag  DW_TAG_structure_type
    2418                      .dwattr $C$DW$T$41, DW_AT_name("DC20_BITS")
    2419                      .dwattr $C$DW$T$41, DW_AT_byte_size(0x02)
    2420              $C$DW$171       .dwtag  DW_TAG_member
    2421                      .dwattr $C$DW$171, DW_AT_type(*$C$DW$T$19)
    2422                      .dwattr $C$DW$171, DW_AT_name("GS0")
    2423                      .dwattr $C$DW$171, DW_AT_TI_symbol_name("_GS0")
    2424                      .dwattr $C$DW$171, DW_AT_bit_offset(0x0f)
    2425                      .dwattr $C$DW$171, DW_AT_bit_size(0x01)
    2426                      .dwattr $C$DW$171, DW_AT_data_member_location[DW_OP_plus_uconst 0x0]
    2427                      .dwattr $C$DW$171, DW_AT_accessibility(DW_ACCESS_public)
    2428              
    2429              $C$DW$172       .dwtag  DW_TAG_member
    2430                      .dwattr $C$DW$172, DW_AT_type(*$C$DW$T$19)
    2431                      .dwattr $C$DW$172, DW_AT_name("GS1")
    2432                      .dwattr $C$DW$172, DW_AT_TI_symbol_name("_GS1")
    2433                      .dwattr $C$DW$172, DW_AT_bit_offset(0x0e)
    2434                      .dwattr $C$DW$172, DW_AT_bit_size(0x01)
    2435                      .dwattr $C$DW$172, DW_AT_data_member_location[DW_OP_plus_uconst 0x0]
    2436                      .dwattr $C$DW$172, DW_AT_accessibility(DW_ACCESS_public)
    2437              
    2438              $C$DW$173       .dwtag  DW_TAG_member
    2439                      .dwattr $C$DW$173, DW_AT_type(*$C$DW$T$19)
    2440                      .dwattr $C$DW$173, DW_AT_name("GS2")
    2441                      .dwattr $C$DW$173, DW_AT_TI_symbol_name("_GS2")
    2442                      .dwattr $C$DW$173, DW_AT_bit_offset(0x0d)
    2443                      .dwattr $C$DW$173, DW_AT_bit_size(0x01)
    2444                      .dwattr $C$DW$173, DW_AT_data_member_location[DW_OP_plus_uconst 0x0]
    2445                      .dwattr $C$DW$173, DW_AT_accessibility(DW_ACCESS_public)
    2446              
    2447              $C$DW$174       .dwtag  DW_TAG_member
    2448                      .dwattr $C$DW$174, DW_AT_type(*$C$DW$T$19)
    2449                      .dwattr $C$DW$174, DW_AT_name("GS3")
    2450                      .dwattr $C$DW$174, DW_AT_TI_symbol_name("_GS3")
    2451                      .dwattr $C$DW$174, DW_AT_bit_offset(0x0c)
    2452                      .dwattr $C$DW$174, DW_AT_bit_size(0x01)
    2453                      .dwattr $C$DW$174, DW_AT_data_member_location[DW_OP_plus_uconst 0x0]
    2454                      .dwattr $C$DW$174, DW_AT_accessibility(DW_ACCESS_public)
    2455              
    2456              $C$DW$175       .dwtag  DW_TAG_member
    2457                      .dwattr $C$DW$175, DW_AT_type(*$C$DW$T$19)
    2458                      .dwattr $C$DW$175, DW_AT_name("GS4")
    2459                      .dwattr $C$DW$175, DW_AT_TI_symbol_name("_GS4")
    2460                      .dwattr $C$DW$175, DW_AT_bit_offset(0x0b)
    2461                      .dwattr $C$DW$175, DW_AT_bit_size(0x01)
    2462                      .dwattr $C$DW$175, DW_AT_data_member_location[DW_OP_plus_uconst 0x0]
TMS320C2000 Assembler PC v20.2.1 Sat Nov 14 12:25:43 2020

Copyright (c) 1996-2018 Texas Instruments Incorporated
F2837xS_Gpio.asm                                                     PAGE   47

    2463                      .dwattr $C$DW$175, DW_AT_accessibility(DW_ACCESS_public)
    2464              
    2465              $C$DW$176       .dwtag  DW_TAG_member
    2466                      .dwattr $C$DW$176, DW_AT_type(*$C$DW$T$19)
    2467                      .dwattr $C$DW$176, DW_AT_name("GS5")
    2468                      .dwattr $C$DW$176, DW_AT_TI_symbol_name("_GS5")
    2469                      .dwattr $C$DW$176, DW_AT_bit_offset(0x0a)
    2470                      .dwattr $C$DW$176, DW_AT_bit_size(0x01)
    2471                      .dwattr $C$DW$176, DW_AT_data_member_location[DW_OP_plus_uconst 0x0]
    2472                      .dwattr $C$DW$176, DW_AT_accessibility(DW_ACCESS_public)
    2473              
    2474              $C$DW$177       .dwtag  DW_TAG_member
    2475                      .dwattr $C$DW$177, DW_AT_type(*$C$DW$T$19)
    2476                      .dwattr $C$DW$177, DW_AT_name("GS6")
    2477                      .dwattr $C$DW$177, DW_AT_TI_symbol_name("_GS6")
    2478                      .dwattr $C$DW$177, DW_AT_bit_offset(0x09)
    2479                      .dwattr $C$DW$177, DW_AT_bit_size(0x01)
    2480                      .dwattr $C$DW$177, DW_AT_data_member_location[DW_OP_plus_uconst 0x0]
    2481                      .dwattr $C$DW$177, DW_AT_accessibility(DW_ACCESS_public)
    2482              
    2483              $C$DW$178       .dwtag  DW_TAG_member
    2484                      .dwattr $C$DW$178, DW_AT_type(*$C$DW$T$19)
    2485                      .dwattr $C$DW$178, DW_AT_name("GS7")
    2486                      .dwattr $C$DW$178, DW_AT_TI_symbol_name("_GS7")
    2487                      .dwattr $C$DW$178, DW_AT_bit_offset(0x08)
    2488                      .dwattr $C$DW$178, DW_AT_bit_size(0x01)
    2489                      .dwattr $C$DW$178, DW_AT_data_member_location[DW_OP_plus_uconst 0x0]
    2490                      .dwattr $C$DW$178, DW_AT_accessibility(DW_ACCESS_public)
    2491              
    2492              $C$DW$179       .dwtag  DW_TAG_member
    2493                      .dwattr $C$DW$179, DW_AT_type(*$C$DW$T$19)
    2494                      .dwattr $C$DW$179, DW_AT_name("GS8")
    2495                      .dwattr $C$DW$179, DW_AT_TI_symbol_name("_GS8")
    2496                      .dwattr $C$DW$179, DW_AT_bit_offset(0x07)
    2497                      .dwattr $C$DW$179, DW_AT_bit_size(0x01)
    2498                      .dwattr $C$DW$179, DW_AT_data_member_location[DW_OP_plus_uconst 0x0]
    2499                      .dwattr $C$DW$179, DW_AT_accessibility(DW_ACCESS_public)
    2500              
    2501              $C$DW$180       .dwtag  DW_TAG_member
    2502                      .dwattr $C$DW$180, DW_AT_type(*$C$DW$T$19)
    2503                      .dwattr $C$DW$180, DW_AT_name("GS9")
    2504                      .dwattr $C$DW$180, DW_AT_TI_symbol_name("_GS9")
    2505                      .dwattr $C$DW$180, DW_AT_bit_offset(0x06)
    2506                      .dwattr $C$DW$180, DW_AT_bit_size(0x01)
    2507                      .dwattr $C$DW$180, DW_AT_data_member_location[DW_OP_plus_uconst 0x0]
    2508                      .dwattr $C$DW$180, DW_AT_accessibility(DW_ACCESS_public)
    2509              
    2510              $C$DW$181       .dwtag  DW_TAG_member
    2511                      .dwattr $C$DW$181, DW_AT_type(*$C$DW$T$19)
    2512                      .dwattr $C$DW$181, DW_AT_name("GS10")
    2513                      .dwattr $C$DW$181, DW_AT_TI_symbol_name("_GS10")
    2514                      .dwattr $C$DW$181, DW_AT_bit_offset(0x05)
    2515                      .dwattr $C$DW$181, DW_AT_bit_size(0x01)
    2516                      .dwattr $C$DW$181, DW_AT_data_member_location[DW_OP_plus_uconst 0x0]
    2517                      .dwattr $C$DW$181, DW_AT_accessibility(DW_ACCESS_public)
TMS320C2000 Assembler PC v20.2.1 Sat Nov 14 12:25:43 2020

Copyright (c) 1996-2018 Texas Instruments Incorporated
F2837xS_Gpio.asm                                                     PAGE   48

    2518              
    2519              $C$DW$182       .dwtag  DW_TAG_member
    2520                      .dwattr $C$DW$182, DW_AT_type(*$C$DW$T$19)
    2521                      .dwattr $C$DW$182, DW_AT_name("GS11")
    2522                      .dwattr $C$DW$182, DW_AT_TI_symbol_name("_GS11")
    2523                      .dwattr $C$DW$182, DW_AT_bit_offset(0x04)
    2524                      .dwattr $C$DW$182, DW_AT_bit_size(0x01)
    2525                      .dwattr $C$DW$182, DW_AT_data_member_location[DW_OP_plus_uconst 0x0]
    2526                      .dwattr $C$DW$182, DW_AT_accessibility(DW_ACCESS_public)
    2527              
    2528              $C$DW$183       .dwtag  DW_TAG_member
    2529                      .dwattr $C$DW$183, DW_AT_type(*$C$DW$T$19)
    2530                      .dwattr $C$DW$183, DW_AT_name("GS12")
    2531                      .dwattr $C$DW$183, DW_AT_TI_symbol_name("_GS12")
    2532                      .dwattr $C$DW$183, DW_AT_bit_offset(0x03)
    2533                      .dwattr $C$DW$183, DW_AT_bit_size(0x01)
    2534                      .dwattr $C$DW$183, DW_AT_data_member_location[DW_OP_plus_uconst 0x0]
    2535                      .dwattr $C$DW$183, DW_AT_accessibility(DW_ACCESS_public)
    2536              
    2537              $C$DW$184       .dwtag  DW_TAG_member
    2538                      .dwattr $C$DW$184, DW_AT_type(*$C$DW$T$19)
    2539                      .dwattr $C$DW$184, DW_AT_name("GS13")
    2540                      .dwattr $C$DW$184, DW_AT_TI_symbol_name("_GS13")
    2541                      .dwattr $C$DW$184, DW_AT_bit_offset(0x02)
    2542                      .dwattr $C$DW$184, DW_AT_bit_size(0x01)
    2543                      .dwattr $C$DW$184, DW_AT_data_member_location[DW_OP_plus_uconst 0x0]
    2544                      .dwattr $C$DW$184, DW_AT_accessibility(DW_ACCESS_public)
    2545              
    2546              $C$DW$185       .dwtag  DW_TAG_member
    2547                      .dwattr $C$DW$185, DW_AT_type(*$C$DW$T$19)
    2548                      .dwattr $C$DW$185, DW_AT_name("GS14")
    2549                      .dwattr $C$DW$185, DW_AT_TI_symbol_name("_GS14")
    2550                      .dwattr $C$DW$185, DW_AT_bit_offset(0x01)
    2551                      .dwattr $C$DW$185, DW_AT_bit_size(0x01)
    2552                      .dwattr $C$DW$185, DW_AT_data_member_location[DW_OP_plus_uconst 0x0]
    2553                      .dwattr $C$DW$185, DW_AT_accessibility(DW_ACCESS_public)
    2554              
    2555              $C$DW$186       .dwtag  DW_TAG_member
    2556                      .dwattr $C$DW$186, DW_AT_type(*$C$DW$T$19)
    2557                      .dwattr $C$DW$186, DW_AT_name("GS15")
    2558                      .dwattr $C$DW$186, DW_AT_TI_symbol_name("_GS15")
    2559                      .dwattr $C$DW$186, DW_AT_bit_offset(0x00)
    2560                      .dwattr $C$DW$186, DW_AT_bit_size(0x01)
    2561                      .dwattr $C$DW$186, DW_AT_data_member_location[DW_OP_plus_uconst 0x0]
    2562                      .dwattr $C$DW$186, DW_AT_accessibility(DW_ACCESS_public)
    2563              
    2564              $C$DW$187       .dwtag  DW_TAG_member
    2565                      .dwattr $C$DW$187, DW_AT_type(*$C$DW$T$19)
    2566                      .dwattr $C$DW$187, DW_AT_name("rsvd1")
    2567                      .dwattr $C$DW$187, DW_AT_TI_symbol_name("_rsvd1")
    2568                      .dwattr $C$DW$187, DW_AT_bit_offset(0x00)
    2569                      .dwattr $C$DW$187, DW_AT_bit_size(0x10)
    2570                      .dwattr $C$DW$187, DW_AT_data_member_location[DW_OP_plus_uconst 0x1]
    2571                      .dwattr $C$DW$187, DW_AT_accessibility(DW_ACCESS_public)
    2572              
TMS320C2000 Assembler PC v20.2.1 Sat Nov 14 12:25:43 2020

Copyright (c) 1996-2018 Texas Instruments Incorporated
F2837xS_Gpio.asm                                                     PAGE   49

    2573                      .dwendtag $C$DW$T$41
    2574              
    2575              
    2576              $C$DW$T$42      .dwtag  DW_TAG_union_type
    2577                      .dwattr $C$DW$T$42, DW_AT_name("DC20_REG")
    2578                      .dwattr $C$DW$T$42, DW_AT_byte_size(0x02)
    2579              $C$DW$188       .dwtag  DW_TAG_member
    2580                      .dwattr $C$DW$188, DW_AT_type(*$C$DW$T$21)
    2581                      .dwattr $C$DW$188, DW_AT_name("all")
    2582                      .dwattr $C$DW$188, DW_AT_TI_symbol_name("_all")
    2583                      .dwattr $C$DW$188, DW_AT_data_member_location[DW_OP_plus_uconst 0x0]
    2584                      .dwattr $C$DW$188, DW_AT_accessibility(DW_ACCESS_public)
    2585              
    2586              $C$DW$189       .dwtag  DW_TAG_member
    2587                      .dwattr $C$DW$189, DW_AT_type(*$C$DW$T$41)
    2588                      .dwattr $C$DW$189, DW_AT_name("bit")
    2589                      .dwattr $C$DW$189, DW_AT_TI_symbol_name("_bit")
    2590                      .dwattr $C$DW$189, DW_AT_data_member_location[DW_OP_plus_uconst 0x0]
    2591                      .dwattr $C$DW$189, DW_AT_accessibility(DW_ACCESS_public)
    2592              
    2593                      .dwendtag $C$DW$T$42
    2594              
    2595              
    2596              $C$DW$T$43      .dwtag  DW_TAG_structure_type
    2597                      .dwattr $C$DW$T$43, DW_AT_name("DC2_BITS")
    2598                      .dwattr $C$DW$T$43, DW_AT_byte_size(0x02)
    2599              $C$DW$190       .dwtag  DW_TAG_member
    2600                      .dwattr $C$DW$190, DW_AT_type(*$C$DW$T$19)
    2601                      .dwattr $C$DW$190, DW_AT_name("EMIF1")
    2602                      .dwattr $C$DW$190, DW_AT_TI_symbol_name("_EMIF1")
    2603                      .dwattr $C$DW$190, DW_AT_bit_offset(0x0f)
    2604                      .dwattr $C$DW$190, DW_AT_bit_size(0x01)
    2605                      .dwattr $C$DW$190, DW_AT_data_member_location[DW_OP_plus_uconst 0x0]
    2606                      .dwattr $C$DW$190, DW_AT_accessibility(DW_ACCESS_public)
    2607              
    2608              $C$DW$191       .dwtag  DW_TAG_member
    2609                      .dwattr $C$DW$191, DW_AT_type(*$C$DW$T$19)
    2610                      .dwattr $C$DW$191, DW_AT_name("EMIF2")
    2611                      .dwattr $C$DW$191, DW_AT_TI_symbol_name("_EMIF2")
    2612                      .dwattr $C$DW$191, DW_AT_bit_offset(0x0e)
    2613                      .dwattr $C$DW$191, DW_AT_bit_size(0x01)
    2614                      .dwattr $C$DW$191, DW_AT_data_member_location[DW_OP_plus_uconst 0x0]
    2615                      .dwattr $C$DW$191, DW_AT_accessibility(DW_ACCESS_public)
    2616              
    2617              $C$DW$192       .dwtag  DW_TAG_member
    2618                      .dwattr $C$DW$192, DW_AT_type(*$C$DW$T$19)
    2619                      .dwattr $C$DW$192, DW_AT_name("rsvd1")
    2620                      .dwattr $C$DW$192, DW_AT_TI_symbol_name("_rsvd1")
    2621                      .dwattr $C$DW$192, DW_AT_bit_offset(0x00)
    2622                      .dwattr $C$DW$192, DW_AT_bit_size(0x0e)
    2623                      .dwattr $C$DW$192, DW_AT_data_member_location[DW_OP_plus_uconst 0x0]
    2624                      .dwattr $C$DW$192, DW_AT_accessibility(DW_ACCESS_public)
    2625              
    2626              $C$DW$193       .dwtag  DW_TAG_member
    2627                      .dwattr $C$DW$193, DW_AT_type(*$C$DW$T$19)
TMS320C2000 Assembler PC v20.2.1 Sat Nov 14 12:25:43 2020

Copyright (c) 1996-2018 Texas Instruments Incorporated
F2837xS_Gpio.asm                                                     PAGE   50

    2628                      .dwattr $C$DW$193, DW_AT_name("rsvd2")
    2629                      .dwattr $C$DW$193, DW_AT_TI_symbol_name("_rsvd2")
    2630                      .dwattr $C$DW$193, DW_AT_bit_offset(0x00)
    2631                      .dwattr $C$DW$193, DW_AT_bit_size(0x10)
    2632                      .dwattr $C$DW$193, DW_AT_data_member_location[DW_OP_plus_uconst 0x1]
    2633                      .dwattr $C$DW$193, DW_AT_accessibility(DW_ACCESS_public)
    2634              
    2635                      .dwendtag $C$DW$T$43
    2636              
    2637              
    2638              $C$DW$T$44      .dwtag  DW_TAG_union_type
    2639                      .dwattr $C$DW$T$44, DW_AT_name("DC2_REG")
    2640                      .dwattr $C$DW$T$44, DW_AT_byte_size(0x02)
    2641              $C$DW$194       .dwtag  DW_TAG_member
    2642                      .dwattr $C$DW$194, DW_AT_type(*$C$DW$T$21)
    2643                      .dwattr $C$DW$194, DW_AT_name("all")
    2644                      .dwattr $C$DW$194, DW_AT_TI_symbol_name("_all")
    2645                      .dwattr $C$DW$194, DW_AT_data_member_location[DW_OP_plus_uconst 0x0]
    2646                      .dwattr $C$DW$194, DW_AT_accessibility(DW_ACCESS_public)
    2647              
    2648              $C$DW$195       .dwtag  DW_TAG_member
    2649                      .dwattr $C$DW$195, DW_AT_type(*$C$DW$T$43)
    2650                      .dwattr $C$DW$195, DW_AT_name("bit")
    2651                      .dwattr $C$DW$195, DW_AT_TI_symbol_name("_bit")
    2652                      .dwattr $C$DW$195, DW_AT_data_member_location[DW_OP_plus_uconst 0x0]
    2653                      .dwattr $C$DW$195, DW_AT_accessibility(DW_ACCESS_public)
    2654              
    2655                      .dwendtag $C$DW$T$44
    2656              
    2657              
    2658              $C$DW$T$45      .dwtag  DW_TAG_structure_type
    2659                      .dwattr $C$DW$T$45, DW_AT_name("DC3_BITS")
    2660                      .dwattr $C$DW$T$45, DW_AT_byte_size(0x02)
    2661              $C$DW$196       .dwtag  DW_TAG_member
    2662                      .dwattr $C$DW$196, DW_AT_type(*$C$DW$T$19)
    2663                      .dwattr $C$DW$196, DW_AT_name("EPWM1")
    2664                      .dwattr $C$DW$196, DW_AT_TI_symbol_name("_EPWM1")
    2665                      .dwattr $C$DW$196, DW_AT_bit_offset(0x0f)
    2666                      .dwattr $C$DW$196, DW_AT_bit_size(0x01)
    2667                      .dwattr $C$DW$196, DW_AT_data_member_location[DW_OP_plus_uconst 0x0]
    2668                      .dwattr $C$DW$196, DW_AT_accessibility(DW_ACCESS_public)
    2669              
    2670              $C$DW$197       .dwtag  DW_TAG_member
    2671                      .dwattr $C$DW$197, DW_AT_type(*$C$DW$T$19)
    2672                      .dwattr $C$DW$197, DW_AT_name("EPWM2")
    2673                      .dwattr $C$DW$197, DW_AT_TI_symbol_name("_EPWM2")
    2674                      .dwattr $C$DW$197, DW_AT_bit_offset(0x0e)
    2675                      .dwattr $C$DW$197, DW_AT_bit_size(0x01)
    2676                      .dwattr $C$DW$197, DW_AT_data_member_location[DW_OP_plus_uconst 0x0]
    2677                      .dwattr $C$DW$197, DW_AT_accessibility(DW_ACCESS_public)
    2678              
    2679              $C$DW$198       .dwtag  DW_TAG_member
    2680                      .dwattr $C$DW$198, DW_AT_type(*$C$DW$T$19)
    2681                      .dwattr $C$DW$198, DW_AT_name("EPWM3")
    2682                      .dwattr $C$DW$198, DW_AT_TI_symbol_name("_EPWM3")
TMS320C2000 Assembler PC v20.2.1 Sat Nov 14 12:25:43 2020

Copyright (c) 1996-2018 Texas Instruments Incorporated
F2837xS_Gpio.asm                                                     PAGE   51

    2683                      .dwattr $C$DW$198, DW_AT_bit_offset(0x0d)
    2684                      .dwattr $C$DW$198, DW_AT_bit_size(0x01)
    2685                      .dwattr $C$DW$198, DW_AT_data_member_location[DW_OP_plus_uconst 0x0]
    2686                      .dwattr $C$DW$198, DW_AT_accessibility(DW_ACCESS_public)
    2687              
    2688              $C$DW$199       .dwtag  DW_TAG_member
    2689                      .dwattr $C$DW$199, DW_AT_type(*$C$DW$T$19)
    2690                      .dwattr $C$DW$199, DW_AT_name("EPWM4")
    2691                      .dwattr $C$DW$199, DW_AT_TI_symbol_name("_EPWM4")
    2692                      .dwattr $C$DW$199, DW_AT_bit_offset(0x0c)
    2693                      .dwattr $C$DW$199, DW_AT_bit_size(0x01)
    2694                      .dwattr $C$DW$199, DW_AT_data_member_location[DW_OP_plus_uconst 0x0]
    2695                      .dwattr $C$DW$199, DW_AT_accessibility(DW_ACCESS_public)
    2696              
    2697              $C$DW$200       .dwtag  DW_TAG_member
    2698                      .dwattr $C$DW$200, DW_AT_type(*$C$DW$T$19)
    2699                      .dwattr $C$DW$200, DW_AT_name("EPWM5")
    2700                      .dwattr $C$DW$200, DW_AT_TI_symbol_name("_EPWM5")
    2701                      .dwattr $C$DW$200, DW_AT_bit_offset(0x0b)
    2702                      .dwattr $C$DW$200, DW_AT_bit_size(0x01)
    2703                      .dwattr $C$DW$200, DW_AT_data_member_location[DW_OP_plus_uconst 0x0]
    2704                      .dwattr $C$DW$200, DW_AT_accessibility(DW_ACCESS_public)
    2705              
    2706              $C$DW$201       .dwtag  DW_TAG_member
    2707                      .dwattr $C$DW$201, DW_AT_type(*$C$DW$T$19)
    2708                      .dwattr $C$DW$201, DW_AT_name("EPWM6")
    2709                      .dwattr $C$DW$201, DW_AT_TI_symbol_name("_EPWM6")
    2710                      .dwattr $C$DW$201, DW_AT_bit_offset(0x0a)
    2711                      .dwattr $C$DW$201, DW_AT_bit_size(0x01)
    2712                      .dwattr $C$DW$201, DW_AT_data_member_location[DW_OP_plus_uconst 0x0]
    2713                      .dwattr $C$DW$201, DW_AT_accessibility(DW_ACCESS_public)
    2714              
    2715              $C$DW$202       .dwtag  DW_TAG_member
    2716                      .dwattr $C$DW$202, DW_AT_type(*$C$DW$T$19)
    2717                      .dwattr $C$DW$202, DW_AT_name("EPWM7")
    2718                      .dwattr $C$DW$202, DW_AT_TI_symbol_name("_EPWM7")
    2719                      .dwattr $C$DW$202, DW_AT_bit_offset(0x09)
    2720                      .dwattr $C$DW$202, DW_AT_bit_size(0x01)
    2721                      .dwattr $C$DW$202, DW_AT_data_member_location[DW_OP_plus_uconst 0x0]
    2722                      .dwattr $C$DW$202, DW_AT_accessibility(DW_ACCESS_public)
    2723              
    2724              $C$DW$203       .dwtag  DW_TAG_member
    2725                      .dwattr $C$DW$203, DW_AT_type(*$C$DW$T$19)
    2726                      .dwattr $C$DW$203, DW_AT_name("EPWM8")
    2727                      .dwattr $C$DW$203, DW_AT_TI_symbol_name("_EPWM8")
    2728                      .dwattr $C$DW$203, DW_AT_bit_offset(0x08)
    2729                      .dwattr $C$DW$203, DW_AT_bit_size(0x01)
    2730                      .dwattr $C$DW$203, DW_AT_data_member_location[DW_OP_plus_uconst 0x0]
    2731                      .dwattr $C$DW$203, DW_AT_accessibility(DW_ACCESS_public)
    2732              
    2733              $C$DW$204       .dwtag  DW_TAG_member
    2734                      .dwattr $C$DW$204, DW_AT_type(*$C$DW$T$19)
    2735                      .dwattr $C$DW$204, DW_AT_name("EPWM9")
    2736                      .dwattr $C$DW$204, DW_AT_TI_symbol_name("_EPWM9")
    2737                      .dwattr $C$DW$204, DW_AT_bit_offset(0x07)
TMS320C2000 Assembler PC v20.2.1 Sat Nov 14 12:25:43 2020

Copyright (c) 1996-2018 Texas Instruments Incorporated
F2837xS_Gpio.asm                                                     PAGE   52

    2738                      .dwattr $C$DW$204, DW_AT_bit_size(0x01)
    2739                      .dwattr $C$DW$204, DW_AT_data_member_location[DW_OP_plus_uconst 0x0]
    2740                      .dwattr $C$DW$204, DW_AT_accessibility(DW_ACCESS_public)
    2741              
    2742              $C$DW$205       .dwtag  DW_TAG_member
    2743                      .dwattr $C$DW$205, DW_AT_type(*$C$DW$T$19)
    2744                      .dwattr $C$DW$205, DW_AT_name("EPWM10")
    2745                      .dwattr $C$DW$205, DW_AT_TI_symbol_name("_EPWM10")
    2746                      .dwattr $C$DW$205, DW_AT_bit_offset(0x06)
    2747                      .dwattr $C$DW$205, DW_AT_bit_size(0x01)
    2748                      .dwattr $C$DW$205, DW_AT_data_member_location[DW_OP_plus_uconst 0x0]
    2749                      .dwattr $C$DW$205, DW_AT_accessibility(DW_ACCESS_public)
    2750              
    2751              $C$DW$206       .dwtag  DW_TAG_member
    2752                      .dwattr $C$DW$206, DW_AT_type(*$C$DW$T$19)
    2753                      .dwattr $C$DW$206, DW_AT_name("EPWM11")
    2754                      .dwattr $C$DW$206, DW_AT_TI_symbol_name("_EPWM11")
    2755                      .dwattr $C$DW$206, DW_AT_bit_offset(0x05)
    2756                      .dwattr $C$DW$206, DW_AT_bit_size(0x01)
    2757                      .dwattr $C$DW$206, DW_AT_data_member_location[DW_OP_plus_uconst 0x0]
    2758                      .dwattr $C$DW$206, DW_AT_accessibility(DW_ACCESS_public)
    2759              
    2760              $C$DW$207       .dwtag  DW_TAG_member
    2761                      .dwattr $C$DW$207, DW_AT_type(*$C$DW$T$19)
    2762                      .dwattr $C$DW$207, DW_AT_name("EPWM12")
    2763                      .dwattr $C$DW$207, DW_AT_TI_symbol_name("_EPWM12")
    2764                      .dwattr $C$DW$207, DW_AT_bit_offset(0x04)
    2765                      .dwattr $C$DW$207, DW_AT_bit_size(0x01)
    2766                      .dwattr $C$DW$207, DW_AT_data_member_location[DW_OP_plus_uconst 0x0]
    2767                      .dwattr $C$DW$207, DW_AT_accessibility(DW_ACCESS_public)
    2768              
    2769              $C$DW$208       .dwtag  DW_TAG_member
    2770                      .dwattr $C$DW$208, DW_AT_type(*$C$DW$T$19)
    2771                      .dwattr $C$DW$208, DW_AT_name("rsvd1")
    2772                      .dwattr $C$DW$208, DW_AT_TI_symbol_name("_rsvd1")
    2773                      .dwattr $C$DW$208, DW_AT_bit_offset(0x03)
    2774                      .dwattr $C$DW$208, DW_AT_bit_size(0x01)
    2775                      .dwattr $C$DW$208, DW_AT_data_member_location[DW_OP_plus_uconst 0x0]
    2776                      .dwattr $C$DW$208, DW_AT_accessibility(DW_ACCESS_public)
    2777              
    2778              $C$DW$209       .dwtag  DW_TAG_member
    2779                      .dwattr $C$DW$209, DW_AT_type(*$C$DW$T$19)
    2780                      .dwattr $C$DW$209, DW_AT_name("rsvd2")
    2781                      .dwattr $C$DW$209, DW_AT_TI_symbol_name("_rsvd2")
    2782                      .dwattr $C$DW$209, DW_AT_bit_offset(0x02)
    2783                      .dwattr $C$DW$209, DW_AT_bit_size(0x01)
    2784                      .dwattr $C$DW$209, DW_AT_data_member_location[DW_OP_plus_uconst 0x0]
    2785                      .dwattr $C$DW$209, DW_AT_accessibility(DW_ACCESS_public)
    2786              
    2787              $C$DW$210       .dwtag  DW_TAG_member
    2788                      .dwattr $C$DW$210, DW_AT_type(*$C$DW$T$19)
    2789                      .dwattr $C$DW$210, DW_AT_name("rsvd3")
    2790                      .dwattr $C$DW$210, DW_AT_TI_symbol_name("_rsvd3")
    2791                      .dwattr $C$DW$210, DW_AT_bit_offset(0x01)
    2792                      .dwattr $C$DW$210, DW_AT_bit_size(0x01)
TMS320C2000 Assembler PC v20.2.1 Sat Nov 14 12:25:43 2020

Copyright (c) 1996-2018 Texas Instruments Incorporated
F2837xS_Gpio.asm                                                     PAGE   53

    2793                      .dwattr $C$DW$210, DW_AT_data_member_location[DW_OP_plus_uconst 0x0]
    2794                      .dwattr $C$DW$210, DW_AT_accessibility(DW_ACCESS_public)
    2795              
    2796              $C$DW$211       .dwtag  DW_TAG_member
    2797                      .dwattr $C$DW$211, DW_AT_type(*$C$DW$T$19)
    2798                      .dwattr $C$DW$211, DW_AT_name("rsvd4")
    2799                      .dwattr $C$DW$211, DW_AT_TI_symbol_name("_rsvd4")
    2800                      .dwattr $C$DW$211, DW_AT_bit_offset(0x00)
    2801                      .dwattr $C$DW$211, DW_AT_bit_size(0x01)
    2802                      .dwattr $C$DW$211, DW_AT_data_member_location[DW_OP_plus_uconst 0x0]
    2803                      .dwattr $C$DW$211, DW_AT_accessibility(DW_ACCESS_public)
    2804              
    2805              $C$DW$212       .dwtag  DW_TAG_member
    2806                      .dwattr $C$DW$212, DW_AT_type(*$C$DW$T$19)
    2807                      .dwattr $C$DW$212, DW_AT_name("rsvd5")
    2808                      .dwattr $C$DW$212, DW_AT_TI_symbol_name("_rsvd5")
    2809                      .dwattr $C$DW$212, DW_AT_bit_offset(0x00)
    2810                      .dwattr $C$DW$212, DW_AT_bit_size(0x10)
    2811                      .dwattr $C$DW$212, DW_AT_data_member_location[DW_OP_plus_uconst 0x1]
    2812                      .dwattr $C$DW$212, DW_AT_accessibility(DW_ACCESS_public)
    2813              
    2814                      .dwendtag $C$DW$T$45
    2815              
    2816              
    2817              $C$DW$T$46      .dwtag  DW_TAG_union_type
    2818                      .dwattr $C$DW$T$46, DW_AT_name("DC3_REG")
    2819                      .dwattr $C$DW$T$46, DW_AT_byte_size(0x02)
    2820              $C$DW$213       .dwtag  DW_TAG_member
    2821                      .dwattr $C$DW$213, DW_AT_type(*$C$DW$T$21)
    2822                      .dwattr $C$DW$213, DW_AT_name("all")
    2823                      .dwattr $C$DW$213, DW_AT_TI_symbol_name("_all")
    2824                      .dwattr $C$DW$213, DW_AT_data_member_location[DW_OP_plus_uconst 0x0]
    2825                      .dwattr $C$DW$213, DW_AT_accessibility(DW_ACCESS_public)
    2826              
    2827              $C$DW$214       .dwtag  DW_TAG_member
    2828                      .dwattr $C$DW$214, DW_AT_type(*$C$DW$T$45)
    2829                      .dwattr $C$DW$214, DW_AT_name("bit")
    2830                      .dwattr $C$DW$214, DW_AT_TI_symbol_name("_bit")
    2831                      .dwattr $C$DW$214, DW_AT_data_member_location[DW_OP_plus_uconst 0x0]
    2832                      .dwattr $C$DW$214, DW_AT_accessibility(DW_ACCESS_public)
    2833              
    2834                      .dwendtag $C$DW$T$46
    2835              
    2836              
    2837              $C$DW$T$47      .dwtag  DW_TAG_structure_type
    2838                      .dwattr $C$DW$T$47, DW_AT_name("DC4_BITS")
    2839                      .dwattr $C$DW$T$47, DW_AT_byte_size(0x02)
    2840              $C$DW$215       .dwtag  DW_TAG_member
    2841                      .dwattr $C$DW$215, DW_AT_type(*$C$DW$T$19)
    2842                      .dwattr $C$DW$215, DW_AT_name("ECAP1")
    2843                      .dwattr $C$DW$215, DW_AT_TI_symbol_name("_ECAP1")
    2844                      .dwattr $C$DW$215, DW_AT_bit_offset(0x0f)
    2845                      .dwattr $C$DW$215, DW_AT_bit_size(0x01)
    2846                      .dwattr $C$DW$215, DW_AT_data_member_location[DW_OP_plus_uconst 0x0]
    2847                      .dwattr $C$DW$215, DW_AT_accessibility(DW_ACCESS_public)
TMS320C2000 Assembler PC v20.2.1 Sat Nov 14 12:25:43 2020

Copyright (c) 1996-2018 Texas Instruments Incorporated
F2837xS_Gpio.asm                                                     PAGE   54

    2848              
    2849              $C$DW$216       .dwtag  DW_TAG_member
    2850                      .dwattr $C$DW$216, DW_AT_type(*$C$DW$T$19)
    2851                      .dwattr $C$DW$216, DW_AT_name("ECAP2")
    2852                      .dwattr $C$DW$216, DW_AT_TI_symbol_name("_ECAP2")
    2853                      .dwattr $C$DW$216, DW_AT_bit_offset(0x0e)
    2854                      .dwattr $C$DW$216, DW_AT_bit_size(0x01)
    2855                      .dwattr $C$DW$216, DW_AT_data_member_location[DW_OP_plus_uconst 0x0]
    2856                      .dwattr $C$DW$216, DW_AT_accessibility(DW_ACCESS_public)
    2857              
    2858              $C$DW$217       .dwtag  DW_TAG_member
    2859                      .dwattr $C$DW$217, DW_AT_type(*$C$DW$T$19)
    2860                      .dwattr $C$DW$217, DW_AT_name("ECAP3")
    2861                      .dwattr $C$DW$217, DW_AT_TI_symbol_name("_ECAP3")
    2862                      .dwattr $C$DW$217, DW_AT_bit_offset(0x0d)
    2863                      .dwattr $C$DW$217, DW_AT_bit_size(0x01)
    2864                      .dwattr $C$DW$217, DW_AT_data_member_location[DW_OP_plus_uconst 0x0]
    2865                      .dwattr $C$DW$217, DW_AT_accessibility(DW_ACCESS_public)
    2866              
    2867              $C$DW$218       .dwtag  DW_TAG_member
    2868                      .dwattr $C$DW$218, DW_AT_type(*$C$DW$T$19)
    2869                      .dwattr $C$DW$218, DW_AT_name("ECAP4")
    2870                      .dwattr $C$DW$218, DW_AT_TI_symbol_name("_ECAP4")
    2871                      .dwattr $C$DW$218, DW_AT_bit_offset(0x0c)
    2872                      .dwattr $C$DW$218, DW_AT_bit_size(0x01)
    2873                      .dwattr $C$DW$218, DW_AT_data_member_location[DW_OP_plus_uconst 0x0]
    2874                      .dwattr $C$DW$218, DW_AT_accessibility(DW_ACCESS_public)
    2875              
    2876              $C$DW$219       .dwtag  DW_TAG_member
    2877                      .dwattr $C$DW$219, DW_AT_type(*$C$DW$T$19)
    2878                      .dwattr $C$DW$219, DW_AT_name("ECAP5")
    2879                      .dwattr $C$DW$219, DW_AT_TI_symbol_name("_ECAP5")
    2880                      .dwattr $C$DW$219, DW_AT_bit_offset(0x0b)
    2881                      .dwattr $C$DW$219, DW_AT_bit_size(0x01)
    2882                      .dwattr $C$DW$219, DW_AT_data_member_location[DW_OP_plus_uconst 0x0]
    2883                      .dwattr $C$DW$219, DW_AT_accessibility(DW_ACCESS_public)
    2884              
    2885              $C$DW$220       .dwtag  DW_TAG_member
    2886                      .dwattr $C$DW$220, DW_AT_type(*$C$DW$T$19)
    2887                      .dwattr $C$DW$220, DW_AT_name("ECAP6")
    2888                      .dwattr $C$DW$220, DW_AT_TI_symbol_name("_ECAP6")
    2889                      .dwattr $C$DW$220, DW_AT_bit_offset(0x0a)
    2890                      .dwattr $C$DW$220, DW_AT_bit_size(0x01)
    2891                      .dwattr $C$DW$220, DW_AT_data_member_location[DW_OP_plus_uconst 0x0]
    2892                      .dwattr $C$DW$220, DW_AT_accessibility(DW_ACCESS_public)
    2893              
    2894              $C$DW$221       .dwtag  DW_TAG_member
    2895                      .dwattr $C$DW$221, DW_AT_type(*$C$DW$T$19)
    2896                      .dwattr $C$DW$221, DW_AT_name("rsvd1")
    2897                      .dwattr $C$DW$221, DW_AT_TI_symbol_name("_rsvd1")
    2898                      .dwattr $C$DW$221, DW_AT_bit_offset(0x09)
    2899                      .dwattr $C$DW$221, DW_AT_bit_size(0x01)
    2900                      .dwattr $C$DW$221, DW_AT_data_member_location[DW_OP_plus_uconst 0x0]
    2901                      .dwattr $C$DW$221, DW_AT_accessibility(DW_ACCESS_public)
    2902              
TMS320C2000 Assembler PC v20.2.1 Sat Nov 14 12:25:43 2020

Copyright (c) 1996-2018 Texas Instruments Incorporated
F2837xS_Gpio.asm                                                     PAGE   55

    2903              $C$DW$222       .dwtag  DW_TAG_member
    2904                      .dwattr $C$DW$222, DW_AT_type(*$C$DW$T$19)
    2905                      .dwattr $C$DW$222, DW_AT_name("rsvd2")
    2906                      .dwattr $C$DW$222, DW_AT_TI_symbol_name("_rsvd2")
    2907                      .dwattr $C$DW$222, DW_AT_bit_offset(0x08)
    2908                      .dwattr $C$DW$222, DW_AT_bit_size(0x01)
    2909                      .dwattr $C$DW$222, DW_AT_data_member_location[DW_OP_plus_uconst 0x0]
    2910                      .dwattr $C$DW$222, DW_AT_accessibility(DW_ACCESS_public)
    2911              
    2912              $C$DW$223       .dwtag  DW_TAG_member
    2913                      .dwattr $C$DW$223, DW_AT_type(*$C$DW$T$19)
    2914                      .dwattr $C$DW$223, DW_AT_name("rsvd3")
    2915                      .dwattr $C$DW$223, DW_AT_TI_symbol_name("_rsvd3")
    2916                      .dwattr $C$DW$223, DW_AT_bit_offset(0x00)
    2917                      .dwattr $C$DW$223, DW_AT_bit_size(0x08)
    2918                      .dwattr $C$DW$223, DW_AT_data_member_location[DW_OP_plus_uconst 0x0]
    2919                      .dwattr $C$DW$223, DW_AT_accessibility(DW_ACCESS_public)
    2920              
    2921              $C$DW$224       .dwtag  DW_TAG_member
    2922                      .dwattr $C$DW$224, DW_AT_type(*$C$DW$T$19)
    2923                      .dwattr $C$DW$224, DW_AT_name("rsvd4")
    2924                      .dwattr $C$DW$224, DW_AT_TI_symbol_name("_rsvd4")
    2925                      .dwattr $C$DW$224, DW_AT_bit_offset(0x00)
    2926                      .dwattr $C$DW$224, DW_AT_bit_size(0x10)
    2927                      .dwattr $C$DW$224, DW_AT_data_member_location[DW_OP_plus_uconst 0x1]
    2928                      .dwattr $C$DW$224, DW_AT_accessibility(DW_ACCESS_public)
    2929              
    2930                      .dwendtag $C$DW$T$47
    2931              
    2932              
    2933              $C$DW$T$48      .dwtag  DW_TAG_union_type
    2934                      .dwattr $C$DW$T$48, DW_AT_name("DC4_REG")
    2935                      .dwattr $C$DW$T$48, DW_AT_byte_size(0x02)
    2936              $C$DW$225       .dwtag  DW_TAG_member
    2937                      .dwattr $C$DW$225, DW_AT_type(*$C$DW$T$21)
    2938                      .dwattr $C$DW$225, DW_AT_name("all")
    2939                      .dwattr $C$DW$225, DW_AT_TI_symbol_name("_all")
    2940                      .dwattr $C$DW$225, DW_AT_data_member_location[DW_OP_plus_uconst 0x0]
    2941                      .dwattr $C$DW$225, DW_AT_accessibility(DW_ACCESS_public)
    2942              
    2943              $C$DW$226       .dwtag  DW_TAG_member
    2944                      .dwattr $C$DW$226, DW_AT_type(*$C$DW$T$47)
    2945                      .dwattr $C$DW$226, DW_AT_name("bit")
    2946                      .dwattr $C$DW$226, DW_AT_TI_symbol_name("_bit")
    2947                      .dwattr $C$DW$226, DW_AT_data_member_location[DW_OP_plus_uconst 0x0]
    2948                      .dwattr $C$DW$226, DW_AT_accessibility(DW_ACCESS_public)
    2949              
    2950                      .dwendtag $C$DW$T$48
    2951              
    2952              
    2953              $C$DW$T$49      .dwtag  DW_TAG_structure_type
    2954                      .dwattr $C$DW$T$49, DW_AT_name("DC5_BITS")
    2955                      .dwattr $C$DW$T$49, DW_AT_byte_size(0x02)
    2956              $C$DW$227       .dwtag  DW_TAG_member
    2957                      .dwattr $C$DW$227, DW_AT_type(*$C$DW$T$19)
TMS320C2000 Assembler PC v20.2.1 Sat Nov 14 12:25:43 2020

Copyright (c) 1996-2018 Texas Instruments Incorporated
F2837xS_Gpio.asm                                                     PAGE   56

    2958                      .dwattr $C$DW$227, DW_AT_name("EQEP1")
    2959                      .dwattr $C$DW$227, DW_AT_TI_symbol_name("_EQEP1")
    2960                      .dwattr $C$DW$227, DW_AT_bit_offset(0x0f)
    2961                      .dwattr $C$DW$227, DW_AT_bit_size(0x01)
    2962                      .dwattr $C$DW$227, DW_AT_data_member_location[DW_OP_plus_uconst 0x0]
    2963                      .dwattr $C$DW$227, DW_AT_accessibility(DW_ACCESS_public)
    2964              
    2965              $C$DW$228       .dwtag  DW_TAG_member
    2966                      .dwattr $C$DW$228, DW_AT_type(*$C$DW$T$19)
    2967                      .dwattr $C$DW$228, DW_AT_name("EQEP2")
    2968                      .dwattr $C$DW$228, DW_AT_TI_symbol_name("_EQEP2")
    2969                      .dwattr $C$DW$228, DW_AT_bit_offset(0x0e)
    2970                      .dwattr $C$DW$228, DW_AT_bit_size(0x01)
    2971                      .dwattr $C$DW$228, DW_AT_data_member_location[DW_OP_plus_uconst 0x0]
    2972                      .dwattr $C$DW$228, DW_AT_accessibility(DW_ACCESS_public)
    2973              
    2974              $C$DW$229       .dwtag  DW_TAG_member
    2975                      .dwattr $C$DW$229, DW_AT_type(*$C$DW$T$19)
    2976                      .dwattr $C$DW$229, DW_AT_name("EQEP3")
    2977                      .dwattr $C$DW$229, DW_AT_TI_symbol_name("_EQEP3")
    2978                      .dwattr $C$DW$229, DW_AT_bit_offset(0x0d)
    2979                      .dwattr $C$DW$229, DW_AT_bit_size(0x01)
    2980                      .dwattr $C$DW$229, DW_AT_data_member_location[DW_OP_plus_uconst 0x0]
    2981                      .dwattr $C$DW$229, DW_AT_accessibility(DW_ACCESS_public)
    2982              
    2983              $C$DW$230       .dwtag  DW_TAG_member
    2984                      .dwattr $C$DW$230, DW_AT_type(*$C$DW$T$19)
    2985                      .dwattr $C$DW$230, DW_AT_name("rsvd1")
    2986                      .dwattr $C$DW$230, DW_AT_TI_symbol_name("_rsvd1")
    2987                      .dwattr $C$DW$230, DW_AT_bit_offset(0x0c)
    2988                      .dwattr $C$DW$230, DW_AT_bit_size(0x01)
    2989                      .dwattr $C$DW$230, DW_AT_data_member_location[DW_OP_plus_uconst 0x0]
    2990                      .dwattr $C$DW$230, DW_AT_accessibility(DW_ACCESS_public)
    2991              
    2992              $C$DW$231       .dwtag  DW_TAG_member
    2993                      .dwattr $C$DW$231, DW_AT_type(*$C$DW$T$19)
    2994                      .dwattr $C$DW$231, DW_AT_name("rsvd2")
    2995                      .dwattr $C$DW$231, DW_AT_TI_symbol_name("_rsvd2")
    2996                      .dwattr $C$DW$231, DW_AT_bit_offset(0x00)
    2997                      .dwattr $C$DW$231, DW_AT_bit_size(0x0c)
    2998                      .dwattr $C$DW$231, DW_AT_data_member_location[DW_OP_plus_uconst 0x0]
    2999                      .dwattr $C$DW$231, DW_AT_accessibility(DW_ACCESS_public)
    3000              
    3001              $C$DW$232       .dwtag  DW_TAG_member
    3002                      .dwattr $C$DW$232, DW_AT_type(*$C$DW$T$19)
    3003                      .dwattr $C$DW$232, DW_AT_name("rsvd3")
    3004                      .dwattr $C$DW$232, DW_AT_TI_symbol_name("_rsvd3")
    3005                      .dwattr $C$DW$232, DW_AT_bit_offset(0x00)
    3006                      .dwattr $C$DW$232, DW_AT_bit_size(0x10)
    3007                      .dwattr $C$DW$232, DW_AT_data_member_location[DW_OP_plus_uconst 0x1]
    3008                      .dwattr $C$DW$232, DW_AT_accessibility(DW_ACCESS_public)
    3009              
    3010                      .dwendtag $C$DW$T$49
    3011              
    3012              
TMS320C2000 Assembler PC v20.2.1 Sat Nov 14 12:25:43 2020

Copyright (c) 1996-2018 Texas Instruments Incorporated
F2837xS_Gpio.asm                                                     PAGE   57

    3013              $C$DW$T$50      .dwtag  DW_TAG_union_type
    3014                      .dwattr $C$DW$T$50, DW_AT_name("DC5_REG")
    3015                      .dwattr $C$DW$T$50, DW_AT_byte_size(0x02)
    3016              $C$DW$233       .dwtag  DW_TAG_member
    3017                      .dwattr $C$DW$233, DW_AT_type(*$C$DW$T$21)
    3018                      .dwattr $C$DW$233, DW_AT_name("all")
    3019                      .dwattr $C$DW$233, DW_AT_TI_symbol_name("_all")
    3020                      .dwattr $C$DW$233, DW_AT_data_member_location[DW_OP_plus_uconst 0x0]
    3021                      .dwattr $C$DW$233, DW_AT_accessibility(DW_ACCESS_public)
    3022              
    3023              $C$DW$234       .dwtag  DW_TAG_member
    3024                      .dwattr $C$DW$234, DW_AT_type(*$C$DW$T$49)
    3025                      .dwattr $C$DW$234, DW_AT_name("bit")
    3026                      .dwattr $C$DW$234, DW_AT_TI_symbol_name("_bit")
    3027                      .dwattr $C$DW$234, DW_AT_data_member_location[DW_OP_plus_uconst 0x0]
    3028                      .dwattr $C$DW$234, DW_AT_accessibility(DW_ACCESS_public)
    3029              
    3030                      .dwendtag $C$DW$T$50
    3031              
    3032              
    3033              $C$DW$T$51      .dwtag  DW_TAG_structure_type
    3034                      .dwattr $C$DW$T$51, DW_AT_name("DC6_BITS")
    3035                      .dwattr $C$DW$T$51, DW_AT_byte_size(0x02)
    3036              $C$DW$235       .dwtag  DW_TAG_member
    3037                      .dwattr $C$DW$235, DW_AT_type(*$C$DW$T$19)
    3038                      .dwattr $C$DW$235, DW_AT_name("rsvd1")
    3039                      .dwattr $C$DW$235, DW_AT_TI_symbol_name("_rsvd1")
    3040                      .dwattr $C$DW$235, DW_AT_bit_offset(0x0f)
    3041                      .dwattr $C$DW$235, DW_AT_bit_size(0x01)
    3042                      .dwattr $C$DW$235, DW_AT_data_member_location[DW_OP_plus_uconst 0x0]
    3043                      .dwattr $C$DW$235, DW_AT_accessibility(DW_ACCESS_public)
    3044              
    3045              $C$DW$236       .dwtag  DW_TAG_member
    3046                      .dwattr $C$DW$236, DW_AT_type(*$C$DW$T$19)
    3047                      .dwattr $C$DW$236, DW_AT_name("rsvd2")
    3048                      .dwattr $C$DW$236, DW_AT_TI_symbol_name("_rsvd2")
    3049                      .dwattr $C$DW$236, DW_AT_bit_offset(0x0e)
    3050                      .dwattr $C$DW$236, DW_AT_bit_size(0x01)
    3051                      .dwattr $C$DW$236, DW_AT_data_member_location[DW_OP_plus_uconst 0x0]
    3052                      .dwattr $C$DW$236, DW_AT_accessibility(DW_ACCESS_public)
    3053              
    3054              $C$DW$237       .dwtag  DW_TAG_member
    3055                      .dwattr $C$DW$237, DW_AT_type(*$C$DW$T$19)
    3056                      .dwattr $C$DW$237, DW_AT_name("rsvd3")
    3057                      .dwattr $C$DW$237, DW_AT_TI_symbol_name("_rsvd3")
    3058                      .dwattr $C$DW$237, DW_AT_bit_offset(0x0d)
    3059                      .dwattr $C$DW$237, DW_AT_bit_size(0x01)
    3060                      .dwattr $C$DW$237, DW_AT_data_member_location[DW_OP_plus_uconst 0x0]
    3061                      .dwattr $C$DW$237, DW_AT_accessibility(DW_ACCESS_public)
    3062              
    3063              $C$DW$238       .dwtag  DW_TAG_member
    3064                      .dwattr $C$DW$238, DW_AT_type(*$C$DW$T$19)
    3065                      .dwattr $C$DW$238, DW_AT_name("rsvd4")
    3066                      .dwattr $C$DW$238, DW_AT_TI_symbol_name("_rsvd4")
    3067                      .dwattr $C$DW$238, DW_AT_bit_offset(0x0c)
TMS320C2000 Assembler PC v20.2.1 Sat Nov 14 12:25:43 2020

Copyright (c) 1996-2018 Texas Instruments Incorporated
F2837xS_Gpio.asm                                                     PAGE   58

    3068                      .dwattr $C$DW$238, DW_AT_bit_size(0x01)
    3069                      .dwattr $C$DW$238, DW_AT_data_member_location[DW_OP_plus_uconst 0x0]
    3070                      .dwattr $C$DW$238, DW_AT_accessibility(DW_ACCESS_public)
    3071              
    3072              $C$DW$239       .dwtag  DW_TAG_member
    3073                      .dwattr $C$DW$239, DW_AT_type(*$C$DW$T$19)
    3074                      .dwattr $C$DW$239, DW_AT_name("rsvd5")
    3075                      .dwattr $C$DW$239, DW_AT_TI_symbol_name("_rsvd5")
    3076                      .dwattr $C$DW$239, DW_AT_bit_offset(0x0b)
    3077                      .dwattr $C$DW$239, DW_AT_bit_size(0x01)
    3078                      .dwattr $C$DW$239, DW_AT_data_member_location[DW_OP_plus_uconst 0x0]
    3079                      .dwattr $C$DW$239, DW_AT_accessibility(DW_ACCESS_public)
    3080              
    3081              $C$DW$240       .dwtag  DW_TAG_member
    3082                      .dwattr $C$DW$240, DW_AT_type(*$C$DW$T$19)
    3083                      .dwattr $C$DW$240, DW_AT_name("rsvd6")
    3084                      .dwattr $C$DW$240, DW_AT_TI_symbol_name("_rsvd6")
    3085                      .dwattr $C$DW$240, DW_AT_bit_offset(0x0a)
    3086                      .dwattr $C$DW$240, DW_AT_bit_size(0x01)
    3087                      .dwattr $C$DW$240, DW_AT_data_member_location[DW_OP_plus_uconst 0x0]
    3088                      .dwattr $C$DW$240, DW_AT_accessibility(DW_ACCESS_public)
    3089              
    3090              $C$DW$241       .dwtag  DW_TAG_member
    3091                      .dwattr $C$DW$241, DW_AT_type(*$C$DW$T$19)
    3092                      .dwattr $C$DW$241, DW_AT_name("rsvd7")
    3093                      .dwattr $C$DW$241, DW_AT_TI_symbol_name("_rsvd7")
    3094                      .dwattr $C$DW$241, DW_AT_bit_offset(0x09)
    3095                      .dwattr $C$DW$241, DW_AT_bit_size(0x01)
    3096                      .dwattr $C$DW$241, DW_AT_data_member_location[DW_OP_plus_uconst 0x0]
    3097                      .dwattr $C$DW$241, DW_AT_accessibility(DW_ACCESS_public)
    3098              
    3099              $C$DW$242       .dwtag  DW_TAG_member
    3100                      .dwattr $C$DW$242, DW_AT_type(*$C$DW$T$19)
    3101                      .dwattr $C$DW$242, DW_AT_name("rsvd8")
    3102                      .dwattr $C$DW$242, DW_AT_TI_symbol_name("_rsvd8")
    3103                      .dwattr $C$DW$242, DW_AT_bit_offset(0x08)
    3104                      .dwattr $C$DW$242, DW_AT_bit_size(0x01)
    3105                      .dwattr $C$DW$242, DW_AT_data_member_location[DW_OP_plus_uconst 0x0]
    3106                      .dwattr $C$DW$242, DW_AT_accessibility(DW_ACCESS_public)
    3107              
    3108              $C$DW$243       .dwtag  DW_TAG_member
    3109                      .dwattr $C$DW$243, DW_AT_type(*$C$DW$T$19)
    3110                      .dwattr $C$DW$243, DW_AT_name("rsvd9")
    3111                      .dwattr $C$DW$243, DW_AT_TI_symbol_name("_rsvd9")
    3112                      .dwattr $C$DW$243, DW_AT_bit_offset(0x00)
    3113                      .dwattr $C$DW$243, DW_AT_bit_size(0x08)
    3114                      .dwattr $C$DW$243, DW_AT_data_member_location[DW_OP_plus_uconst 0x0]
    3115                      .dwattr $C$DW$243, DW_AT_accessibility(DW_ACCESS_public)
    3116              
    3117              $C$DW$244       .dwtag  DW_TAG_member
    3118                      .dwattr $C$DW$244, DW_AT_type(*$C$DW$T$19)
    3119                      .dwattr $C$DW$244, DW_AT_name("rsvd10")
    3120                      .dwattr $C$DW$244, DW_AT_TI_symbol_name("_rsvd10")
    3121                      .dwattr $C$DW$244, DW_AT_bit_offset(0x00)
    3122                      .dwattr $C$DW$244, DW_AT_bit_size(0x10)
TMS320C2000 Assembler PC v20.2.1 Sat Nov 14 12:25:43 2020

Copyright (c) 1996-2018 Texas Instruments Incorporated
F2837xS_Gpio.asm                                                     PAGE   59

    3123                      .dwattr $C$DW$244, DW_AT_data_member_location[DW_OP_plus_uconst 0x1]
    3124                      .dwattr $C$DW$244, DW_AT_accessibility(DW_ACCESS_public)
    3125              
    3126                      .dwendtag $C$DW$T$51
    3127              
    3128              
    3129              $C$DW$T$52      .dwtag  DW_TAG_union_type
    3130                      .dwattr $C$DW$T$52, DW_AT_name("DC6_REG")
    3131                      .dwattr $C$DW$T$52, DW_AT_byte_size(0x02)
    3132              $C$DW$245       .dwtag  DW_TAG_member
    3133                      .dwattr $C$DW$245, DW_AT_type(*$C$DW$T$21)
    3134                      .dwattr $C$DW$245, DW_AT_name("all")
    3135                      .dwattr $C$DW$245, DW_AT_TI_symbol_name("_all")
    3136                      .dwattr $C$DW$245, DW_AT_data_member_location[DW_OP_plus_uconst 0x0]
    3137                      .dwattr $C$DW$245, DW_AT_accessibility(DW_ACCESS_public)
    3138              
    3139              $C$DW$246       .dwtag  DW_TAG_member
    3140                      .dwattr $C$DW$246, DW_AT_type(*$C$DW$T$51)
    3141                      .dwattr $C$DW$246, DW_AT_name("bit")
    3142                      .dwattr $C$DW$246, DW_AT_TI_symbol_name("_bit")
    3143                      .dwattr $C$DW$246, DW_AT_data_member_location[DW_OP_plus_uconst 0x0]
    3144                      .dwattr $C$DW$246, DW_AT_accessibility(DW_ACCESS_public)
    3145              
    3146                      .dwendtag $C$DW$T$52
    3147              
    3148              
    3149              $C$DW$T$53      .dwtag  DW_TAG_structure_type
    3150                      .dwattr $C$DW$T$53, DW_AT_name("DC7_BITS")
    3151                      .dwattr $C$DW$T$53, DW_AT_byte_size(0x02)
    3152              $C$DW$247       .dwtag  DW_TAG_member
    3153                      .dwattr $C$DW$247, DW_AT_type(*$C$DW$T$19)
    3154                      .dwattr $C$DW$247, DW_AT_name("SD1")
    3155                      .dwattr $C$DW$247, DW_AT_TI_symbol_name("_SD1")
    3156                      .dwattr $C$DW$247, DW_AT_bit_offset(0x0f)
    3157                      .dwattr $C$DW$247, DW_AT_bit_size(0x01)
    3158                      .dwattr $C$DW$247, DW_AT_data_member_location[DW_OP_plus_uconst 0x0]
    3159                      .dwattr $C$DW$247, DW_AT_accessibility(DW_ACCESS_public)
    3160              
    3161              $C$DW$248       .dwtag  DW_TAG_member
    3162                      .dwattr $C$DW$248, DW_AT_type(*$C$DW$T$19)
    3163                      .dwattr $C$DW$248, DW_AT_name("SD2")
    3164                      .dwattr $C$DW$248, DW_AT_TI_symbol_name("_SD2")
    3165                      .dwattr $C$DW$248, DW_AT_bit_offset(0x0e)
    3166                      .dwattr $C$DW$248, DW_AT_bit_size(0x01)
    3167                      .dwattr $C$DW$248, DW_AT_data_member_location[DW_OP_plus_uconst 0x0]
    3168                      .dwattr $C$DW$248, DW_AT_accessibility(DW_ACCESS_public)
    3169              
    3170              $C$DW$249       .dwtag  DW_TAG_member
    3171                      .dwattr $C$DW$249, DW_AT_type(*$C$DW$T$19)
    3172                      .dwattr $C$DW$249, DW_AT_name("rsvd1")
    3173                      .dwattr $C$DW$249, DW_AT_TI_symbol_name("_rsvd1")
    3174                      .dwattr $C$DW$249, DW_AT_bit_offset(0x0d)
    3175                      .dwattr $C$DW$249, DW_AT_bit_size(0x01)
    3176                      .dwattr $C$DW$249, DW_AT_data_member_location[DW_OP_plus_uconst 0x0]
    3177                      .dwattr $C$DW$249, DW_AT_accessibility(DW_ACCESS_public)
TMS320C2000 Assembler PC v20.2.1 Sat Nov 14 12:25:43 2020

Copyright (c) 1996-2018 Texas Instruments Incorporated
F2837xS_Gpio.asm                                                     PAGE   60

    3178              
    3179              $C$DW$250       .dwtag  DW_TAG_member
    3180                      .dwattr $C$DW$250, DW_AT_type(*$C$DW$T$19)
    3181                      .dwattr $C$DW$250, DW_AT_name("rsvd2")
    3182                      .dwattr $C$DW$250, DW_AT_TI_symbol_name("_rsvd2")
    3183                      .dwattr $C$DW$250, DW_AT_bit_offset(0x0c)
    3184                      .dwattr $C$DW$250, DW_AT_bit_size(0x01)
    3185                      .dwattr $C$DW$250, DW_AT_data_member_location[DW_OP_plus_uconst 0x0]
    3186                      .dwattr $C$DW$250, DW_AT_accessibility(DW_ACCESS_public)
    3187              
    3188              $C$DW$251       .dwtag  DW_TAG_member
    3189                      .dwattr $C$DW$251, DW_AT_type(*$C$DW$T$19)
    3190                      .dwattr $C$DW$251, DW_AT_name("rsvd3")
    3191                      .dwattr $C$DW$251, DW_AT_TI_symbol_name("_rsvd3")
    3192                      .dwattr $C$DW$251, DW_AT_bit_offset(0x0b)
    3193                      .dwattr $C$DW$251, DW_AT_bit_size(0x01)
    3194                      .dwattr $C$DW$251, DW_AT_data_member_location[DW_OP_plus_uconst 0x0]
    3195                      .dwattr $C$DW$251, DW_AT_accessibility(DW_ACCESS_public)
    3196              
    3197              $C$DW$252       .dwtag  DW_TAG_member
    3198                      .dwattr $C$DW$252, DW_AT_type(*$C$DW$T$19)
    3199                      .dwattr $C$DW$252, DW_AT_name("rsvd4")
    3200                      .dwattr $C$DW$252, DW_AT_TI_symbol_name("_rsvd4")
    3201                      .dwattr $C$DW$252, DW_AT_bit_offset(0x0a)
    3202                      .dwattr $C$DW$252, DW_AT_bit_size(0x01)
    3203                      .dwattr $C$DW$252, DW_AT_data_member_location[DW_OP_plus_uconst 0x0]
    3204                      .dwattr $C$DW$252, DW_AT_accessibility(DW_ACCESS_public)
    3205              
    3206              $C$DW$253       .dwtag  DW_TAG_member
    3207                      .dwattr $C$DW$253, DW_AT_type(*$C$DW$T$19)
    3208                      .dwattr $C$DW$253, DW_AT_name("rsvd5")
    3209                      .dwattr $C$DW$253, DW_AT_TI_symbol_name("_rsvd5")
    3210                      .dwattr $C$DW$253, DW_AT_bit_offset(0x09)
    3211                      .dwattr $C$DW$253, DW_AT_bit_size(0x01)
    3212                      .dwattr $C$DW$253, DW_AT_data_member_location[DW_OP_plus_uconst 0x0]
    3213                      .dwattr $C$DW$253, DW_AT_accessibility(DW_ACCESS_public)
    3214              
    3215              $C$DW$254       .dwtag  DW_TAG_member
    3216                      .dwattr $C$DW$254, DW_AT_type(*$C$DW$T$19)
    3217                      .dwattr $C$DW$254, DW_AT_name("rsvd6")
    3218                      .dwattr $C$DW$254, DW_AT_TI_symbol_name("_rsvd6")
    3219                      .dwattr $C$DW$254, DW_AT_bit_offset(0x08)
    3220                      .dwattr $C$DW$254, DW_AT_bit_size(0x01)
    3221                      .dwattr $C$DW$254, DW_AT_data_member_location[DW_OP_plus_uconst 0x0]
    3222                      .dwattr $C$DW$254, DW_AT_accessibility(DW_ACCESS_public)
    3223              
    3224              $C$DW$255       .dwtag  DW_TAG_member
    3225                      .dwattr $C$DW$255, DW_AT_type(*$C$DW$T$19)
    3226                      .dwattr $C$DW$255, DW_AT_name("rsvd7")
    3227                      .dwattr $C$DW$255, DW_AT_TI_symbol_name("_rsvd7")
    3228                      .dwattr $C$DW$255, DW_AT_bit_offset(0x00)
    3229                      .dwattr $C$DW$255, DW_AT_bit_size(0x08)
    3230                      .dwattr $C$DW$255, DW_AT_data_member_location[DW_OP_plus_uconst 0x0]
    3231                      .dwattr $C$DW$255, DW_AT_accessibility(DW_ACCESS_public)
    3232              
TMS320C2000 Assembler PC v20.2.1 Sat Nov 14 12:25:43 2020

Copyright (c) 1996-2018 Texas Instruments Incorporated
F2837xS_Gpio.asm                                                     PAGE   61

    3233              $C$DW$256       .dwtag  DW_TAG_member
    3234                      .dwattr $C$DW$256, DW_AT_type(*$C$DW$T$19)
    3235                      .dwattr $C$DW$256, DW_AT_name("rsvd8")
    3236                      .dwattr $C$DW$256, DW_AT_TI_symbol_name("_rsvd8")
    3237                      .dwattr $C$DW$256, DW_AT_bit_offset(0x00)
    3238                      .dwattr $C$DW$256, DW_AT_bit_size(0x10)
    3239                      .dwattr $C$DW$256, DW_AT_data_member_location[DW_OP_plus_uconst 0x1]
    3240                      .dwattr $C$DW$256, DW_AT_accessibility(DW_ACCESS_public)
    3241              
    3242                      .dwendtag $C$DW$T$53
    3243              
    3244              
    3245              $C$DW$T$54      .dwtag  DW_TAG_union_type
    3246                      .dwattr $C$DW$T$54, DW_AT_name("DC7_REG")
    3247                      .dwattr $C$DW$T$54, DW_AT_byte_size(0x02)
    3248              $C$DW$257       .dwtag  DW_TAG_member
    3249                      .dwattr $C$DW$257, DW_AT_type(*$C$DW$T$21)
    3250                      .dwattr $C$DW$257, DW_AT_name("all")
    3251                      .dwattr $C$DW$257, DW_AT_TI_symbol_name("_all")
    3252                      .dwattr $C$DW$257, DW_AT_data_member_location[DW_OP_plus_uconst 0x0]
    3253                      .dwattr $C$DW$257, DW_AT_accessibility(DW_ACCESS_public)
    3254              
    3255              $C$DW$258       .dwtag  DW_TAG_member
    3256                      .dwattr $C$DW$258, DW_AT_type(*$C$DW$T$53)
    3257                      .dwattr $C$DW$258, DW_AT_name("bit")
    3258                      .dwattr $C$DW$258, DW_AT_TI_symbol_name("_bit")
    3259                      .dwattr $C$DW$258, DW_AT_data_member_location[DW_OP_plus_uconst 0x0]
    3260                      .dwattr $C$DW$258, DW_AT_accessibility(DW_ACCESS_public)
    3261              
    3262                      .dwendtag $C$DW$T$54
    3263              
    3264              
    3265              $C$DW$T$55      .dwtag  DW_TAG_structure_type
    3266                      .dwattr $C$DW$T$55, DW_AT_name("DC8_BITS")
    3267                      .dwattr $C$DW$T$55, DW_AT_byte_size(0x02)
    3268              $C$DW$259       .dwtag  DW_TAG_member
    3269                      .dwattr $C$DW$259, DW_AT_type(*$C$DW$T$19)
    3270                      .dwattr $C$DW$259, DW_AT_name("SCI_A")
    3271                      .dwattr $C$DW$259, DW_AT_TI_symbol_name("_SCI_A")
    3272                      .dwattr $C$DW$259, DW_AT_bit_offset(0x0f)
    3273                      .dwattr $C$DW$259, DW_AT_bit_size(0x01)
    3274                      .dwattr $C$DW$259, DW_AT_data_member_location[DW_OP_plus_uconst 0x0]
    3275                      .dwattr $C$DW$259, DW_AT_accessibility(DW_ACCESS_public)
    3276              
    3277              $C$DW$260       .dwtag  DW_TAG_member
    3278                      .dwattr $C$DW$260, DW_AT_type(*$C$DW$T$19)
    3279                      .dwattr $C$DW$260, DW_AT_name("SCI_B")
    3280                      .dwattr $C$DW$260, DW_AT_TI_symbol_name("_SCI_B")
    3281                      .dwattr $C$DW$260, DW_AT_bit_offset(0x0e)
    3282                      .dwattr $C$DW$260, DW_AT_bit_size(0x01)
    3283                      .dwattr $C$DW$260, DW_AT_data_member_location[DW_OP_plus_uconst 0x0]
    3284                      .dwattr $C$DW$260, DW_AT_accessibility(DW_ACCESS_public)
    3285              
    3286              $C$DW$261       .dwtag  DW_TAG_member
    3287                      .dwattr $C$DW$261, DW_AT_type(*$C$DW$T$19)
TMS320C2000 Assembler PC v20.2.1 Sat Nov 14 12:25:43 2020

Copyright (c) 1996-2018 Texas Instruments Incorporated
F2837xS_Gpio.asm                                                     PAGE   62

    3288                      .dwattr $C$DW$261, DW_AT_name("SCI_C")
    3289                      .dwattr $C$DW$261, DW_AT_TI_symbol_name("_SCI_C")
    3290                      .dwattr $C$DW$261, DW_AT_bit_offset(0x0d)
    3291                      .dwattr $C$DW$261, DW_AT_bit_size(0x01)
    3292                      .dwattr $C$DW$261, DW_AT_data_member_location[DW_OP_plus_uconst 0x0]
    3293                      .dwattr $C$DW$261, DW_AT_accessibility(DW_ACCESS_public)
    3294              
    3295              $C$DW$262       .dwtag  DW_TAG_member
    3296                      .dwattr $C$DW$262, DW_AT_type(*$C$DW$T$19)
    3297                      .dwattr $C$DW$262, DW_AT_name("SCI_D")
    3298                      .dwattr $C$DW$262, DW_AT_TI_symbol_name("_SCI_D")
    3299                      .dwattr $C$DW$262, DW_AT_bit_offset(0x0c)
    3300                      .dwattr $C$DW$262, DW_AT_bit_size(0x01)
    3301                      .dwattr $C$DW$262, DW_AT_data_member_location[DW_OP_plus_uconst 0x0]
    3302                      .dwattr $C$DW$262, DW_AT_accessibility(DW_ACCESS_public)
    3303              
    3304              $C$DW$263       .dwtag  DW_TAG_member
    3305                      .dwattr $C$DW$263, DW_AT_type(*$C$DW$T$19)
    3306                      .dwattr $C$DW$263, DW_AT_name("rsvd1")
    3307                      .dwattr $C$DW$263, DW_AT_TI_symbol_name("_rsvd1")
    3308                      .dwattr $C$DW$263, DW_AT_bit_offset(0x00)
    3309                      .dwattr $C$DW$263, DW_AT_bit_size(0x0c)
    3310                      .dwattr $C$DW$263, DW_AT_data_member_location[DW_OP_plus_uconst 0x0]
    3311                      .dwattr $C$DW$263, DW_AT_accessibility(DW_ACCESS_public)
    3312              
    3313              $C$DW$264       .dwtag  DW_TAG_member
    3314                      .dwattr $C$DW$264, DW_AT_type(*$C$DW$T$19)
    3315                      .dwattr $C$DW$264, DW_AT_name("rsvd2")
    3316                      .dwattr $C$DW$264, DW_AT_TI_symbol_name("_rsvd2")
    3317                      .dwattr $C$DW$264, DW_AT_bit_offset(0x00)
    3318                      .dwattr $C$DW$264, DW_AT_bit_size(0x10)
    3319                      .dwattr $C$DW$264, DW_AT_data_member_location[DW_OP_plus_uconst 0x1]
    3320                      .dwattr $C$DW$264, DW_AT_accessibility(DW_ACCESS_public)
    3321              
    3322                      .dwendtag $C$DW$T$55
    3323              
    3324              
    3325              $C$DW$T$56      .dwtag  DW_TAG_union_type
    3326                      .dwattr $C$DW$T$56, DW_AT_name("DC8_REG")
    3327                      .dwattr $C$DW$T$56, DW_AT_byte_size(0x02)
    3328              $C$DW$265       .dwtag  DW_TAG_member
    3329                      .dwattr $C$DW$265, DW_AT_type(*$C$DW$T$21)
    3330                      .dwattr $C$DW$265, DW_AT_name("all")
    3331                      .dwattr $C$DW$265, DW_AT_TI_symbol_name("_all")
    3332                      .dwattr $C$DW$265, DW_AT_data_member_location[DW_OP_plus_uconst 0x0]
    3333                      .dwattr $C$DW$265, DW_AT_accessibility(DW_ACCESS_public)
    3334              
    3335              $C$DW$266       .dwtag  DW_TAG_member
    3336                      .dwattr $C$DW$266, DW_AT_type(*$C$DW$T$55)
    3337                      .dwattr $C$DW$266, DW_AT_name("bit")
    3338                      .dwattr $C$DW$266, DW_AT_TI_symbol_name("_bit")
    3339                      .dwattr $C$DW$266, DW_AT_data_member_location[DW_OP_plus_uconst 0x0]
    3340                      .dwattr $C$DW$266, DW_AT_accessibility(DW_ACCESS_public)
    3341              
    3342                      .dwendtag $C$DW$T$56
TMS320C2000 Assembler PC v20.2.1 Sat Nov 14 12:25:43 2020

Copyright (c) 1996-2018 Texas Instruments Incorporated
F2837xS_Gpio.asm                                                     PAGE   63

    3343              
    3344              
    3345              $C$DW$T$57      .dwtag  DW_TAG_structure_type
    3346                      .dwattr $C$DW$T$57, DW_AT_name("DC9_BITS")
    3347                      .dwattr $C$DW$T$57, DW_AT_byte_size(0x02)
    3348              $C$DW$267       .dwtag  DW_TAG_member
    3349                      .dwattr $C$DW$267, DW_AT_type(*$C$DW$T$19)
