TMS320C2000 Assembler PC v20.2.1 Sat Nov 14 13:32:33 2020

Copyright (c) 1996-2018 Texas Instruments Incorporated
MonoMtrServo.asm                                                     PAGE    1

       1              ;***************************************************************
       2              ;* TMS320C2000 G3 C/C++ Codegen                               PC v20.2.1.LTS *
       3              ;* Date/Time created: Sat Nov 14 13:32:32 2020                 *
       4              ;***************************************************************
       5                      .compiler_opts --abi=coffabi --cla_support=cla0 --float_support=fpu32 --hll_source=on --mem_model:cod
       6                      .asg    XAR2, FP
       7              
       8              $C$DW$CU        .dwtag  DW_TAG_compile_unit
       9                      .dwattr $C$DW$CU, DW_AT_name("../MonoMtrServo.c")
      10                      .dwattr $C$DW$CU, DW_AT_producer("TI TMS320C2000 G3 C/C++ Codegen PC v20.2.1.LTS Copyright (c) 1996-2
      11                      .dwattr $C$DW$CU, DW_AT_TI_version(0x01)
      12                      .dwattr $C$DW$CU, DW_AT_comp_dir("C:\Users\admin\Documents\GitHub\fault_tolerant_drives\Software\MPC_
      13              ;**************************************************************
      14              ;* CINIT RECORDS                                              *
      15              ;**************************************************************
      16 00000000               .sect   ".cinit"
      17                      .align  1
      18 00000000 FFFF          .field          -1,16
      19 00000001 0001-         .field          _EnableFlag+0,32
         00000002 0000 
      20 00000003 0000          .bits           0,16
      21                                      ; _EnableFlag @ 0
      22              
      23 00000004               .sect   ".cinit"
      24                      .align  1
      25 00000004 FFFF          .field          -1,16
      26 00000005 0002-         .field          _BackTicker+0,32
         00000006 0000 
      27 00000007 0000          .bits           0,16
      28                                      ; _BackTicker @ 0
      29              
      30 00000008               .sect   ".cinit"
      31                      .align  1
      32 00000008 FFFF          .field          -1,16
      33 00000009 0003-         .field          _LedCnt+0,32
         0000000a 0000 
      34 0000000b 01F4          .bits           0x1f4,16
      35                                      ; _LedCnt @ 0
      36              
      37 0000000c               .sect   ".cinit"
      38                      .align  1
      39 0000000c FFFF          .field          -1,16
      40 0000000d 0005-         .field          _ptrMax+0,32
         0000000e 0000 
      41 0000000f 0002          .bits           0x2,16
      42                                      ; _ptrMax @ 0
      43              
      44 00000010               .sect   ".cinit"
      45                      .align  1
      46 00000010 FFFF          .field          -1,16
      47 00000011 0006-         .field          _ptr1+0,32
         00000012 0000 
      48 00000013 0000          .bits           0,16
      49                                      ; _ptr1 @ 0
      50              
TMS320C2000 Assembler PC v20.2.1 Sat Nov 14 13:32:33 2020

Copyright (c) 1996-2018 Texas Instruments Incorporated
MonoMtrServo.asm                                                     PAGE    2

      51 00000014               .sect   ".cinit"
      52                      .align  1
      53 00000014 FFFF          .field          -1,16
      54 00000015 0007-         .field          _DRV_RESET+0,32
         00000016 0000 
      55 00000017 0000          .bits           0,16
      56                                      ; _DRV_RESET @ 0
      57              
      58 00000018               .sect   ".cinit"
      59                      .align  1
      60 00000018 FFFE          .field          -2,16
      61 00000019 0014-         .field          _IsrTicker+0,32
         0000001a 0000 
      62 0000001b 0000          .bits           0,32
         0000001c 0000 
      63                                      ; _IsrTicker @ 0
      64              
      65 0000001d               .sect   ".cinit"
      66                      .align  1
      67 0000001d FFFE          .field          -2,16
      68 0000001e 0016-         .field          _K1+0,32
         0000001f 0000 
      69 00000020 7CEE          .xfloat $strtod("0x1.fef9dcp-1")                ; _K1 @ 0
         00000021 3F7F 
      70              
      71 00000022               .sect   ".cinit"
      72                      .align  1
      73 00000022 FFFE          .field          -2,16
      74 00000023 0018-         .field          _K2+0,32
         00000024 0000 
      75 00000025 01A8          .xfloat $strtod("0x1.06035p-9")         ; _K2 @ 0
         00000026 3B03 
      76              
      77 00000027               .sect   ".cinit"
      78                      .align  1
      79 00000027 FFFE          .field          -2,16
      80 00000028 001A-         .field          _IdRef_start+0,32
         00000029 0000 
      81 0000002a CCCD          .xfloat $strtod("0x1.99999ap-4")                ; _IdRef_start @ 0
         0000002b 3DCC 
      82              
      83 0000002c               .sect   ".cinit"
      84                      .align  1
      85 0000002c FFFE          .field          -2,16
      86 0000002d 001C-         .field          _IdRef_run+0,32
         0000002e 0000 
      87 0000002f 0000          .xfloat $strtod("0x0p+0")               ; _IdRef_run @ 0
         00000030 0000 
      88              
      89 00000031               .sect   ".cinit"
      90                      .align  1
      91 00000031 FFFE          .field          -2,16
      92 00000032 001E-         .field          _cntr1+0,32
         00000033 0000 
      93 00000034 0000          .xfloat $strtod("0x0p+0")               ; _cntr1 @ 0
TMS320C2000 Assembler PC v20.2.1 Sat Nov 14 13:32:33 2020

Copyright (c) 1996-2018 Texas Instruments Incorporated
MonoMtrServo.asm                                                     PAGE    3

         00000035 0000 
      94              
      95 00000036               .sect   ".cinit"
      96                      .align  1
      97 00000036 FFFE          .field          -2,16
      98 00000037 0020-         .field          _posSlewRate+0,32
         00000038 0000 
      99 00000039 126F          .xfloat $strtod("0x1.0624dep-10")               ; _posSlewRate @ 0
         0000003a 3A83 
     100              
     101 00000000               .sect   ".cinit:_posArray"
     102                      .clink
     103                      .align  1
     104 00000000 FFF8          .field          -$C$IR_1,16
     105 00000001 0000-         .field          _posArray+0,32
         00000002 0000 
     106 00000003 0000          .xfloat $strtod("0x1.8p+0")             ; _posArray[0] @ 0
         00000004 3FC0 
     107 00000005 0000          .xfloat $strtod("-0x1.8p+0")            ; _posArray[1] @ 32
         00000006 BFC0 
     108 00000007 0000          .xfloat $strtod("0x1.4p+1")             ; _posArray[2] @ 64
         00000008 4020 
     109 00000009 0000          .xfloat $strtod("-0x1.4p+1")            ; _posArray[3] @ 96
         0000000a C020 
     110        0008  $C$IR_1:        .set    8
     111              
     112 0000003b               .sect   ".cinit"
     113                      .align  1
     114 0000003b FEB0          .field          -$C$IR_2,16
     115 0000003c 0080-         .field          _motor1+0,32
         0000003d 0000 
     116 0000003e 0000!         .bits   _EPwm1Regs,32           ; _motor1._PwmARegs @ 0
         0000003f 0000 
     117 00000040 0000!         .bits   _EPwm1Regs,32           ; _motor1._PwmBRegs @ 32
         00000041 0000 
     118 00000042 0000!         .bits   _EPwm1Regs,32           ; _motor1._PwmCRegs @ 64
         00000043 0000 
     119 00000044 0000!         .bits   _EQep1Regs,32           ; _motor1._QepRegs @ 96
         00000045 0000 
     120 00000046 0000!         .bits   _SpiaRegs,32            ; _motor1._SpiRegs @ 128
         00000047 0000 
     121 00000048 0000          .bits           0,16
     122                                      ; _motor1._drvScsPin @ 160
     123 00000049               .space  16
     124 0000004a 0000          .xfloat $strtod("0x0p+0")               ; _motor1._offset_shntA @ 192
         0000004b 0000 
     125 0000004c 0000          .xfloat $strtod("0x0p+0")               ; _motor1._offset_shntB @ 224
         0000004d 0000 
     126 0000004e 0000          .xfloat $strtod("0x0p+0")               ; _motor1._offset_shntC @ 256
         0000004f 0000 
     127 00000050 0000          .xfloat $strtod("0x0p+0")               ; _motor1._VdTesting @ 288
         00000051 0000 
     128 00000052 5C29          .xfloat $strtod("0x1.1eb852p-4")                ; _motor1._VqTesting @ 320
         00000053 3D8F 
     129 00000054 0000          .xfloat $strtod("0x0p+0")               ; _motor1._IdRef @ 352
TMS320C2000 Assembler PC v20.2.1 Sat Nov 14 13:32:33 2020

Copyright (c) 1996-2018 Texas Instruments Incorporated
MonoMtrServo.asm                                                     PAGE    4

         00000055 0000 
     130 00000056 0000          .xfloat $strtod("0x0p+0")               ; _motor1._IqRef @ 384
         00000057 0000 
     131 00000058 0000          .xfloat $strtod("0x0p+0")               ; _motor1._SpeedRef @ 416
         00000059 0000 
     132 0000005a 0000          .xfloat $strtod("0x0p+0")               ; _motor1._ElecTheta @ 448
         0000005b 0000 
     133 0000005c 0000          .xfloat $strtod("0x0p+0")               ; _motor1._MechTheta @ 480
         0000005d 0000 
     134 0000005e 0000          .xfloat $strtod("0x0p+0")               ; _motor1._currentAs @ 512
         0000005f 0000 
     135 00000060 0000          .xfloat $strtod("0x0p+0")               ; _motor1._currentBs @ 544
         00000061 0000 
     136 00000062 0000          .xfloat $strtod("0x0p+0")               ; _motor1._currentCs @ 576
         00000063 0000 
     137 00000064 0000          .bits           0,32
         00000065 0000 
     138                                      ; _motor1._alignCntr @ 608
     139 00000066 4E20          .bits           0x4e20,32
         00000067 0000 
     140                                      ; _motor1._alignCnt @ 640
     141 00000068 0000          .bits           0,16
     142                                      ; _motor1._lsw @ 672
     143 00000069 0000          .bits           0,16
     144                                      ; _motor1._TripFlagDMC @ 688
     145 0000006a 0000          .bits           0,16
     146                                      ; _motor1._clearTripFlagDMC @ 704
     147 0000006b 0000          .bits           0,16
     148                                      ; _motor1._RunMotor @ 720
     149 0000006c 000A          .bits           0xa,16
     150                                      ; _motor1._SpeedLoopPrescaler @ 736
     151 0000006d 0001          .bits           0x1,16
     152                                      ; _motor1._SpeedLoopCount @ 752
     153 0000006e 0000          .bits           0,16
     154                                      ; _motor1._PosSenseReverse @ 768
     155 0000006f 0000          .bits           0,16
     156                                      ; _motor1._newCmdDRV @ 784
     157 00000070 B718          .xfloat $strtod("0x1.a36e3p-14")                ; _motor1._T @ 800
         00000071 38D1 
     158 00000072 0000          .xfloat $strtod("0x0p+0")               ; _motor1._clarke._As @ 832
         00000073 0000 
     159 00000074 0000          .xfloat $strtod("0x0p+0")               ; _motor1._clarke._Bs @ 864
         00000075 0000 
     160 00000076 0000          .xfloat $strtod("0x0p+0")               ; _motor1._clarke._Cs @ 896
         00000077 0000 
     161 00000078 0000          .xfloat $strtod("0x0p+0")               ; _motor1._clarke._Alpha @ 928
         00000079 0000 
     162 0000007a 0000          .xfloat $strtod("0x0p+0")               ; _motor1._clarke._Beta @ 960
         0000007b 0000 
     163 0000007c 0000          .xfloat $strtod("0x0p+0")               ; _motor1._park._Alpha @ 992
         0000007d 0000 
     164 0000007e 0000          .xfloat $strtod("0x0p+0")               ; _motor1._park._Beta @ 1024
         0000007f 0000 
     165 00000080 0000          .xfloat $strtod("0x0p+0")               ; _motor1._park._Angle @ 1056
         00000081 0000 
TMS320C2000 Assembler PC v20.2.1 Sat Nov 14 13:32:33 2020

Copyright (c) 1996-2018 Texas Instruments Incorporated
MonoMtrServo.asm                                                     PAGE    5

     166 00000082 0000          .xfloat $strtod("0x0p+0")               ; _motor1._park._Ds @ 1088
         00000083 0000 
     167 00000084 0000          .xfloat $strtod("0x0p+0")               ; _motor1._park._Qs @ 1120
         00000085 0000 
     168 00000086 0000          .xfloat $strtod("0x0p+0")               ; _motor1._park._Sine @ 1152
         00000087 0000 
     169 00000088 0000          .xfloat $strtod("0x0p+0")               ; _motor1._park._Cosine @ 1184
         00000089 0000 
     170 0000008a 0000          .xfloat $strtod("0x0p+0")               ; _motor1._ipark._Alpha @ 1216
         0000008b 0000 
     171 0000008c 0000          .xfloat $strtod("0x0p+0")               ; _motor1._ipark._Beta @ 1248
         0000008d 0000 
     172 0000008e 0000          .xfloat $strtod("0x0p+0")               ; _motor1._ipark._Angle @ 1280
         0000008f 0000 
     173 00000090 0000          .xfloat $strtod("0x0p+0")               ; _motor1._ipark._Ds @ 1312
         00000091 0000 
     174 00000092 0000          .xfloat $strtod("0x0p+0")               ; _motor1._ipark._Qs @ 1344
         00000093 0000 
     175 00000094 0000          .xfloat $strtod("0x0p+0")               ; _motor1._ipark._Sine @ 1376
         00000095 0000 
     176 00000096 0000          .xfloat $strtod("0x0p+0")               ; _motor1._ipark._Cosine @ 1408
         00000097 0000 
     177 00000098 0000          .xfloat $strtod("0x0p+0")               ; _motor1._pi_pos._Ref @ 1440
         00000099 0000 
     178 0000009a 0000          .xfloat $strtod("0x0p+0")               ; _motor1._pi_pos._Fbk @ 1472
         0000009b 0000 
     179 0000009c 0000          .xfloat $strtod("0x0p+0")               ; _motor1._pi_pos._Out @ 1504
         0000009d 0000 
     180 0000009e 0000          .xfloat $strtod("0x1p+0")               ; _motor1._pi_pos._Kp @ 1536
         0000009f 3F80 
     181 000000a0 0000          .xfloat $strtod("0x0p+0")               ; _motor1._pi_pos._Ki @ 1568
         000000a1 0000 
     182 000000a2 0000          .xfloat $strtod("0x1p+0")               ; _motor1._pi_pos._Umax @ 1600
         000000a3 3F80 
     183 000000a4 0000          .xfloat $strtod("-0x1p+0")              ; _motor1._pi_pos._Umin @ 1632
         000000a5 BF80 
     184 000000a6 0000          .xfloat $strtod("0x0p+0")               ; _motor1._pi_pos._up @ 1664
         000000a7 0000 
     185 000000a8 0000          .xfloat $strtod("0x0p+0")               ; _motor1._pi_pos._ui @ 1696
         000000a9 0000 
     186 000000aa 0000          .xfloat $strtod("0x0p+0")               ; _motor1._pi_pos._v1 @ 1728
         000000ab 0000 
     187 000000ac 0000          .xfloat $strtod("0x0p+0")               ; _motor1._pi_pos._i1 @ 1760
         000000ad 0000 
     188 000000ae 0000          .xfloat $strtod("0x1p+0")               ; _motor1._pi_pos._w1 @ 1792
         000000af 3F80 
     189 000000b0 0000          .xfloat $strtod("0x0p+0")               ; _motor1._pid_spd._term._Ref @ 1824
         000000b1 0000 
     190 000000b2 0000          .xfloat $strtod("0x0p+0")               ; _motor1._pid_spd._term._Fbk @ 1856
         000000b3 0000 
     191 000000b4 0000          .xfloat $strtod("0x0p+0")               ; _motor1._pid_spd._term._Out @ 1888
         000000b5 0000 
     192 000000b6 0000          .xfloat $strtod("0x0p+0")               ; _motor1._pid_spd._term._c1 @ 1920
         000000b7 0000 
     193 000000b8 0000          .xfloat $strtod("0x0p+0")               ; _motor1._pid_spd._term._c2 @ 1952
TMS320C2000 Assembler PC v20.2.1 Sat Nov 14 13:32:33 2020

Copyright (c) 1996-2018 Texas Instruments Incorporated
MonoMtrServo.asm                                                     PAGE    6

         000000b9 0000 
     194 000000ba 0000          .xfloat $strtod("0x1p+0")               ; _motor1._pid_spd._param._Kr @ 1984
         000000bb 3F80 
     195 000000bc 0000          .xfloat $strtod("0x1p+0")               ; _motor1._pid_spd._param._Kp @ 2016
         000000bd 3F80 
     196 000000be 0000          .xfloat $strtod("0x0p+0")               ; _motor1._pid_spd._param._Ki @ 2048
         000000bf 0000 
     197 000000c0 0000          .xfloat $strtod("0x0p+0")               ; _motor1._pid_spd._param._Kd @ 2080
         000000c1 0000 
     198 000000c2 0000          .xfloat $strtod("0x1p+0")               ; _motor1._pid_spd._param._Km @ 2112
         000000c3 3F80 
     199 000000c4 0000          .xfloat $strtod("0x1p+0")               ; _motor1._pid_spd._param._Umax @ 2144
         000000c5 3F80 
     200 000000c6 0000          .xfloat $strtod("-0x1p+0")              ; _motor1._pid_spd._param._Umin @ 2176
         000000c7 BF80 
     201 000000c8 0000          .xfloat $strtod("0x0p+0")               ; _motor1._pid_spd._data._up @ 2208
         000000c9 0000 
     202 000000ca 0000          .xfloat $strtod("0x0p+0")               ; _motor1._pid_spd._data._ui @ 2240
         000000cb 0000 
     203 000000cc 0000          .xfloat $strtod("0x0p+0")               ; _motor1._pid_spd._data._ud @ 2272
         000000cd 0000 
     204 000000ce 0000          .xfloat $strtod("0x0p+0")               ; _motor1._pid_spd._data._v1 @ 2304
         000000cf 0000 
     205 000000d0 0000          .xfloat $strtod("0x0p+0")               ; _motor1._pid_spd._data._i1 @ 2336
         000000d1 0000 
     206 000000d2 0000          .xfloat $strtod("0x0p+0")               ; _motor1._pid_spd._data._d1 @ 2368
         000000d3 0000 
     207 000000d4 0000          .xfloat $strtod("0x0p+0")               ; _motor1._pid_spd._data._d2 @ 2400
         000000d5 0000 
     208 000000d6 0000          .xfloat $strtod("0x1p+0")               ; _motor1._pid_spd._data._w1 @ 2432
         000000d7 3F80 
     209 000000d8 0000          .xfloat $strtod("0x0p+0")               ; _motor1._pi_id._Ref @ 2464
         000000d9 0000 
     210 000000da 0000          .xfloat $strtod("0x0p+0")               ; _motor1._pi_id._Fbk @ 2496
         000000db 0000 
     211 000000dc 0000          .xfloat $strtod("0x0p+0")               ; _motor1._pi_id._Out @ 2528
         000000dd 0000 
     212 000000de 0000          .xfloat $strtod("0x1p+0")               ; _motor1._pi_id._Kp @ 2560
         000000df 3F80 
     213 000000e0 0000          .xfloat $strtod("0x0p+0")               ; _motor1._pi_id._Ki @ 2592
         000000e1 0000 
     214 000000e2 0000          .xfloat $strtod("0x1p+0")               ; _motor1._pi_id._Umax @ 2624
         000000e3 3F80 
     215 000000e4 0000          .xfloat $strtod("-0x1p+0")              ; _motor1._pi_id._Umin @ 2656
         000000e5 BF80 
     216 000000e6 0000          .xfloat $strtod("0x0p+0")               ; _motor1._pi_id._up @ 2688
         000000e7 0000 
     217 000000e8 0000          .xfloat $strtod("0x0p+0")               ; _motor1._pi_id._ui @ 2720
         000000e9 0000 
     218 000000ea 0000          .xfloat $strtod("0x0p+0")               ; _motor1._pi_id._v1 @ 2752
         000000eb 0000 
     219 000000ec 0000          .xfloat $strtod("0x0p+0")               ; _motor1._pi_id._i1 @ 2784
         000000ed 0000 
     220 000000ee 0000          .xfloat $strtod("0x1p+0")               ; _motor1._pi_id._w1 @ 2816
         000000ef 3F80 
TMS320C2000 Assembler PC v20.2.1 Sat Nov 14 13:32:33 2020

Copyright (c) 1996-2018 Texas Instruments Incorporated
MonoMtrServo.asm                                                     PAGE    7

     221 000000f0 0000          .xfloat $strtod("0x0p+0")               ; _motor1._pi_iq._Ref @ 2848
         000000f1 0000 
     222 000000f2 0000          .xfloat $strtod("0x0p+0")               ; _motor1._pi_iq._Fbk @ 2880
         000000f3 0000 
     223 000000f4 0000          .xfloat $strtod("0x0p+0")               ; _motor1._pi_iq._Out @ 2912
         000000f5 0000 
     224 000000f6 0000          .xfloat $strtod("0x1p+0")               ; _motor1._pi_iq._Kp @ 2944
         000000f7 3F80 
     225 000000f8 0000          .xfloat $strtod("0x0p+0")               ; _motor1._pi_iq._Ki @ 2976
         000000f9 0000 
     226 000000fa 0000          .xfloat $strtod("0x1p+0")               ; _motor1._pi_iq._Umax @ 3008
         000000fb 3F80 
     227 000000fc 0000          .xfloat $strtod("-0x1p+0")              ; _motor1._pi_iq._Umin @ 3040
         000000fd BF80 
     228 000000fe 0000          .xfloat $strtod("0x0p+0")               ; _motor1._pi_iq._up @ 3072
         000000ff 0000 
     229 00000100 0000          .xfloat $strtod("0x0p+0")               ; _motor1._pi_iq._ui @ 3104
         00000101 0000 
     230 00000102 0000          .xfloat $strtod("0x0p+0")               ; _motor1._pi_iq._v1 @ 3136
         00000103 0000 
     231 00000104 0000          .xfloat $strtod("0x0p+0")               ; _motor1._pi_iq._i1 @ 3168
         00000105 0000 
     232 00000106 0000          .xfloat $strtod("0x1p+0")               ; _motor1._pi_iq._w1 @ 3200
         00000107 3F80 
     233 00000108 0000          .xfloat $strtod("0x0p+0")               ; _motor1._svgen._Ualpha @ 3232
         00000109 0000 
     234 0000010a 0000          .xfloat $strtod("0x0p+0")               ; _motor1._svgen._Ubeta @ 3264
         0000010b 0000 
     235 0000010c 0000          .xfloat $strtod("0x0p+0")               ; _motor1._svgen._Ta @ 3296
         0000010d 0000 
     236 0000010e 0000          .xfloat $strtod("0x0p+0")               ; _motor1._svgen._Tb @ 3328
         0000010f 0000 
     237 00000110 0000          .xfloat $strtod("0x0p+0")               ; _motor1._svgen._Tc @ 3360
         00000111 0000 
     238 00000112               .space  128
     239 0000011a 0000          .xfloat $strtod("0x0p+0")               ; _motor1._rc._TargetValue @ 3520
         0000011b 0000 
     240 0000011c 0005          .bits           0x5,32
         0000011d 0000 
     241                                      ; _motor1._rc._RampDelayMax @ 3552
     242 0000011e 0000          .xfloat $strtod("-0x1p+0")              ; _motor1._rc._RampLowLimit @ 3584
         0000011f BF80 
     243 00000120 0000          .xfloat $strtod("0x1p+0")               ; _motor1._rc._RampHighLimit @ 3616
         00000121 3F80 
     244 00000122 0000          .bits           0,32
         00000123 0000 
     245                                      ; _motor1._rc._RampDelayCount @ 3648
     246 00000124 0000          .xfloat $strtod("0x0p+0")               ; _motor1._rc._SetpointValue @ 3680
         00000125 0000 
     247 00000126 0000          .bits           0,32
         00000127 0000 
     248                                      ; _motor1._rc._EqualFlag @ 3712
     249 00000128 0000          .xfloat $strtod("0x0p+0")               ; _motor1._rc._Tmp @ 3744
         00000129 0000 
     250 0000012a 0000          .xfloat $strtod("0x0p+0")               ; _motor1._rg._Freq @ 3776
TMS320C2000 Assembler PC v20.2.1 Sat Nov 14 13:32:33 2020

Copyright (c) 1996-2018 Texas Instruments Incorporated
MonoMtrServo.asm                                                     PAGE    8

         0000012b 0000 
     251 0000012c 0000          .xfloat $strtod("0x0p+0")               ; _motor1._rg._StepAngleMax @ 3808
         0000012d 0000 
     252 0000012e 0000          .xfloat $strtod("0x0p+0")               ; _motor1._rg._Angle @ 3840
         0000012f 0000 
     253 00000130 0000          .xfloat $strtod("0x1p+0")               ; _motor1._rg._Gain @ 3872
         00000131 3F80 
     254 00000132 0000          .xfloat $strtod("0x0p+0")               ; _motor1._rg._Out @ 3904
         00000133 0000 
     255 00000134 0000          .xfloat $strtod("0x1p+0")               ; _motor1._rg._Offset @ 3936
         00000135 3F80 
     256 00000136 0000          .xfloat $strtod("0x0p+0")               ; _motor1._volt._DcBusVolt @ 3968
         00000137 0000 
     257 00000138 0000          .xfloat $strtod("0x0p+0")               ; _motor1._volt._MfuncV1 @ 4000
         00000139 0000 
     258 0000013a 0000          .xfloat $strtod("0x0p+0")               ; _motor1._volt._MfuncV2 @ 4032
         0000013b 0000 
     259 0000013c 0000          .xfloat $strtod("0x0p+0")               ; _motor1._volt._MfuncV3 @ 4064
         0000013d 0000 
     260 0000013e 0001          .bits           0x1,16
     261                                      ; _motor1._volt._OutOfPhase @ 4096
     262 0000013f               .space  16
     263 00000140 0000          .xfloat $strtod("0x0p+0")               ; _motor1._volt._VphaseA @ 4128
         00000141 0000 
     264 00000142 0000          .xfloat $strtod("0x0p+0")               ; _motor1._volt._VphaseB @ 4160
         00000143 0000 
     265 00000144 0000          .xfloat $strtod("0x0p+0")               ; _motor1._volt._VphaseC @ 4192
         00000145 0000 
     266 00000146 0000          .xfloat $strtod("0x0p+0")               ; _motor1._volt._Valpha @ 4224
         00000147 0000 
     267 00000148 0000          .xfloat $strtod("0x0p+0")               ; _motor1._volt._Vbeta @ 4256
         00000149 0000 
     268 0000014a               .space  32
     269 0000014c 0000          .xfloat $strtod("0x0p+0")               ; _motor1._speed._ElecTheta @ 4320
         0000014d 0000 
     270 0000014e 0001          .bits           0x1,32
         0000014f 0000 
     271                                      ; _motor1._speed._DirectionQep @ 4352
     272 00000150 0000          .xfloat $strtod("0x0p+0")               ; _motor1._speed._OldElecTheta @ 4384
         00000151 0000 
     273 00000152 0000          .xfloat $strtod("0x0p+0")               ; _motor1._speed._Speed @ 4416
         00000153 0000 
     274 00000154 0000          .bits           0,32
         00000155 0000 
     275                                      ; _motor1._speed._BaseRpm @ 4448
     276 00000156 0000          .xfloat $strtod("0x0p+0")               ; _motor1._speed._K1 @ 4480
         00000157 0000 
     277 00000158 0000          .xfloat $strtod("0x0p+0")               ; _motor1._speed._K2 @ 4512
         00000159 0000 
     278 0000015a 0000          .xfloat $strtod("0x0p+0")               ; _motor1._speed._K3 @ 4544
         0000015b 0000 
     279 0000015c 0000          .bits           0,32
         0000015d 0000 
     280                                      ; _motor1._speed._SpeedRpm @ 4576
     281 0000015e 0000          .xfloat $strtod("0x0p+0")               ; _motor1._speed._Tmp @ 4608
TMS320C2000 Assembler PC v20.2.1 Sat Nov 14 13:32:33 2020

Copyright (c) 1996-2018 Texas Instruments Incorporated
MonoMtrServo.asm                                                     PAGE    9

         0000015f 0000 
     282 00000160 0000          .xfloat $strtod("0x0p+0")               ; _motor1._qep._ElecTheta @ 4640
         00000161 0000 
     283 00000162 0000          .xfloat $strtod("0x0p+0")               ; _motor1._qep._MechTheta @ 4672
         00000163 0000 
     284 00000164 0000          .bits           0,16
     285                                      ; _motor1._qep._DirectionQep @ 4704
     286 00000165 0000          .bits           0,16
     287                                      ; _motor1._qep._QepPeriod @ 4720
     288 00000166 0000          .bits           0,32
         00000167 0000 
     289                                      ; _motor1._qep._QepCountIndex @ 4736
     290 00000168 0000          .bits           0,32
         00000169 0000 
     291                                      ; _motor1._qep._RawTheta @ 4768
     292 0000016a 0000          .xfloat $strtod("0x1p+17")              ; _motor1._qep._MechScaler @ 4800
         0000016b 4800 
     293 0000016c 0000          .bits           0,16
     294                                      ; _motor1._qep._LineEncoder @ 4832
     295 0000016d 0002          .bits           0x2,16
     296                                      ; _motor1._qep._PolePairs @ 4848
     297 0000016e 0000          .bits           0,32
         0000016f 0000 
     298                                      ; _motor1._qep._CalibratedAngle @ 4864
     299 00000170 0000          .bits           0,16
     300                                      ; _motor1._qep._IndexSyncFlag @ 4896
     301 00000171               .space  16
     302 00000172 0000          .bits           0,16
     303                                      ; _motor1._drv8301._stat_reg1._all @ 4928
     304 00000173 0000          .bits           0,16
     305                                      ; _motor1._drv8301._stat_reg2._all @ 4944
     306 00000174 0000          .bits           0,16
     307                                      ; _motor1._drv8301._cntrl_reg1._all @ 4960
     308 00000175 0000          .bits           0,16
     309                                      ; _motor1._drv8301._cntrl_reg2._all @ 4976
     310 00000176 0000          .bits           0,16
     311                                      ; _motor1._drv8301._readCntrl1 @ 4992
     312 00000177 0000          .bits           0,16
     313                                      ; _motor1._drv8301._readCntrl2 @ 5008
     314 00000178 0000          .bits           0,16
     315                                      ; _motor1._drv8301._DRV_fault @ 5024
     316 00000179 0000          .bits           0,16
     317                                      ; _motor1._drv8305._Rsvd0 @ 5040
     318 0000017a 0000          .bits           0,16
     319                                      ; _motor1._drv8305._status1_wwd._all @ 5056
     320 0000017b 0000          .bits           0,16
     321                                      ; _motor1._drv8305._status2_ov_vds._all @ 5072
     322 0000017c 0000          .bits           0,16
     323                                      ; _motor1._drv8305._status3_IC._all @ 5088
     324 0000017d 0000          .bits           0,16
     325                                      ; _motor1._drv8305._status4_gd_Vgs._all @ 5104
     326 0000017e 0000          .bits           0,16
     327                                      ; _motor1._drv8305._cntrl5_hs_gd._all @ 5120
     328 0000017f 0000          .bits           0,16
     329                                      ; _motor1._drv8305._cntrl6_ls_gd._all @ 5136
TMS320C2000 Assembler PC v20.2.1 Sat Nov 14 13:32:33 2020

Copyright (c) 1996-2018 Texas Instruments Incorporated
MonoMtrServo.asm                                                     PAGE   10

     330 00000180 0000          .bits           0,16
     331                                      ; _motor1._drv8305._cntrl7_gd._all @ 5152
     332 00000181 0000          .bits           0,16
     333                                      ; _motor1._drv8305._Rsvd8 @ 5168
     334 00000182 0000          .bits           0,16
     335                                      ; _motor1._drv8305._cntrl9_IC_ops._all @ 5184
     336 00000183 0000          .bits           0,16
     337                                      ; _motor1._drv8305._cntrlA_shunt_amp._all @ 5200
     338 00000184 0000          .bits           0,16
     339                                      ; _motor1._drv8305._cntrlB_Vreg._all @ 5216
     340 00000185 0000          .bits           0,16
     341                                      ; _motor1._drv8305._cntrlC_Vds_SNS._all @ 5232
     342 00000186 0000          .bits           0,16
     343                                      ; _motor1._drv8305._readCntrl5 @ 5248
     344 00000187 0000          .bits           0,16
     345                                      ; _motor1._drv8305._readCntrl6 @ 5264
     346 00000188 0000          .bits           0,16
     347                                      ; _motor1._drv8305._readCntrl7 @ 5280
     348 00000189 0000          .bits           0,16
     349                                      ; _motor1._drv8305._readCntrl9 @ 5296
     350 0000018a 0000          .bits           0,16
     351                                      ; _motor1._drv8305._readCntrlA @ 5312
     352 0000018b 0000          .bits           0,16
     353                                      ; _motor1._drv8305._readCntrlB @ 5328
     354 0000018c 0000          .bits           0,16
     355                                      ; _motor1._drv8305._readCntrlC @ 5344
     356 0000018d 0000          .bits           0,16
     357                                      ; _motor1._drv8305._DRV_fault @ 5360
     358        0150  $C$IR_2:        .set    336
     359              
     360              
     361              $C$DW$1 .dwtag  DW_TAG_subprogram
     362                      .dwattr $C$DW$1, DW_AT_name("GPIO_SetupPinOptions")
     363                      .dwattr $C$DW$1, DW_AT_TI_symbol_name("_GPIO_SetupPinOptions")
     364                      .dwattr $C$DW$1, DW_AT_declaration
     365                      .dwattr $C$DW$1, DW_AT_external
     366              $C$DW$2 .dwtag  DW_TAG_formal_parameter
     367                      .dwattr $C$DW$2, DW_AT_type(*$C$DW$T$31)
     368              
     369              $C$DW$3 .dwtag  DW_TAG_formal_parameter
     370                      .dwattr $C$DW$3, DW_AT_type(*$C$DW$T$31)
     371              
     372              $C$DW$4 .dwtag  DW_TAG_formal_parameter
     373                      .dwattr $C$DW$4, DW_AT_type(*$C$DW$T$31)
     374              
     375                      .dwendtag $C$DW$1
     376              
     377              
     378              $C$DW$5 .dwtag  DW_TAG_subprogram
     379                      .dwattr $C$DW$5, DW_AT_name("GPIO_SetupPinMux")
     380                      .dwattr $C$DW$5, DW_AT_TI_symbol_name("_GPIO_SetupPinMux")
     381                      .dwattr $C$DW$5, DW_AT_declaration
     382                      .dwattr $C$DW$5, DW_AT_external
     383              $C$DW$6 .dwtag  DW_TAG_formal_parameter
     384                      .dwattr $C$DW$6, DW_AT_type(*$C$DW$T$31)
TMS320C2000 Assembler PC v20.2.1 Sat Nov 14 13:32:33 2020

Copyright (c) 1996-2018 Texas Instruments Incorporated
MonoMtrServo.asm                                                     PAGE   11

     385              
     386              $C$DW$7 .dwtag  DW_TAG_formal_parameter
     387                      .dwattr $C$DW$7, DW_AT_type(*$C$DW$T$31)
     388              
     389              $C$DW$8 .dwtag  DW_TAG_formal_parameter
     390                      .dwattr $C$DW$8, DW_AT_type(*$C$DW$T$31)
     391              
     392                      .dwendtag $C$DW$5
     393              
     394              
     395              $C$DW$9 .dwtag  DW_TAG_subprogram
     396                      .dwattr $C$DW$9, DW_AT_name("InitSysCtrl1")
     397                      .dwattr $C$DW$9, DW_AT_TI_symbol_name("_InitSysCtrl1")
     398                      .dwattr $C$DW$9, DW_AT_declaration
     399                      .dwattr $C$DW$9, DW_AT_external
     400                      .dwendtag $C$DW$9
     401              
     402              
     403              $C$DW$10        .dwtag  DW_TAG_subprogram
     404                      .dwattr $C$DW$10, DW_AT_name("InitPieCtrl")
     405                      .dwattr $C$DW$10, DW_AT_TI_symbol_name("_InitPieCtrl")
     406                      .dwattr $C$DW$10, DW_AT_declaration
     407                      .dwattr $C$DW$10, DW_AT_external
     408                      .dwendtag $C$DW$10
     409              
     410              
     411              $C$DW$11        .dwtag  DW_TAG_subprogram
     412                      .dwattr $C$DW$11, DW_AT_name("InitPieVectTable")
     413                      .dwattr $C$DW$11, DW_AT_TI_symbol_name("_InitPieVectTable")
     414                      .dwattr $C$DW$11, DW_AT_declaration
     415                      .dwattr $C$DW$11, DW_AT_external
     416                      .dwendtag $C$DW$11
     417              
     418              
     419              $C$DW$12        .dwtag  DW_TAG_subprogram
     420                      .dwattr $C$DW$12, DW_AT_name("PWM_1ch_UpDwnCnt_CNF_noDB")
     421                      .dwattr $C$DW$12, DW_AT_TI_symbol_name("_PWM_1ch_UpDwnCnt_CNF_noDB")
     422                      .dwattr $C$DW$12, DW_AT_declaration
     423                      .dwattr $C$DW$12, DW_AT_external
     424              $C$DW$13        .dwtag  DW_TAG_formal_parameter
     425                      .dwattr $C$DW$13, DW_AT_type(*$C$DW$T$60)
     426              
     427              $C$DW$14        .dwtag  DW_TAG_formal_parameter
     428                      .dwattr $C$DW$14, DW_AT_type(*$C$DW$T$31)
     429              
     430                      .dwendtag $C$DW$12
     431              
     432              
     433              $C$DW$15        .dwtag  DW_TAG_subprogram
     434                      .dwattr $C$DW$15, DW_AT_name("InitMotor1EPwmGpio")
     435                      .dwattr $C$DW$15, DW_AT_TI_symbol_name("_InitMotor1EPwmGpio")
     436                      .dwattr $C$DW$15, DW_AT_declaration
     437                      .dwattr $C$DW$15, DW_AT_external
     438                      .dwendtag $C$DW$15
     439              
TMS320C2000 Assembler PC v20.2.1 Sat Nov 14 13:32:33 2020

Copyright (c) 1996-2018 Texas Instruments Incorporated
MonoMtrServo.asm                                                     PAGE   12

     440              
     441              $C$DW$16        .dwtag  DW_TAG_subprogram
     442                      .dwattr $C$DW$16, DW_AT_name("ConfigureADC")
     443                      .dwattr $C$DW$16, DW_AT_TI_symbol_name("_ConfigureADC")
     444                      .dwattr $C$DW$16, DW_AT_declaration
     445                      .dwattr $C$DW$16, DW_AT_external
     446                      .dwendtag $C$DW$16
     447              
     448              
     449              $C$DW$17        .dwtag  DW_TAG_subprogram
     450                      .dwattr $C$DW$17, DW_AT_name("InitMotor1EQepGpio")
     451                      .dwattr $C$DW$17, DW_AT_TI_symbol_name("_InitMotor1EQepGpio")
     452                      .dwattr $C$DW$17, DW_AT_declaration
     453                      .dwattr $C$DW$17, DW_AT_external
     454                      .dwendtag $C$DW$17
     455              
     456              
     457              $C$DW$18        .dwtag  DW_TAG_subprogram
     458                      .dwattr $C$DW$18, DW_AT_name("InitMotor1SpiGpio")
     459                      .dwattr $C$DW$18, DW_AT_TI_symbol_name("_InitMotor1SpiGpio")
     460                      .dwattr $C$DW$18, DW_AT_declaration
     461                      .dwattr $C$DW$18, DW_AT_external
     462                      .dwendtag $C$DW$18
     463              
     464              
     465              $C$DW$19        .dwtag  DW_TAG_subprogram
     466                      .dwattr $C$DW$19, DW_AT_name("InitSpiRegs_DRV830x")
     467                      .dwattr $C$DW$19, DW_AT_TI_symbol_name("_InitSpiRegs_DRV830x")
     468                      .dwattr $C$DW$19, DW_AT_declaration
     469                      .dwattr $C$DW$19, DW_AT_external
     470              $C$DW$20        .dwtag  DW_TAG_formal_parameter
     471                      .dwattr $C$DW$20, DW_AT_type(*$C$DW$T$64)
     472              
     473                      .dwendtag $C$DW$19
     474              
     475              
     476              $C$DW$21        .dwtag  DW_TAG_subprogram
     477                      .dwattr $C$DW$21, DW_AT_name("InitDRV8305Regs")
     478                      .dwattr $C$DW$21, DW_AT_TI_symbol_name("_InitDRV8305Regs")
     479                      .dwattr $C$DW$21, DW_AT_declaration
     480                      .dwattr $C$DW$21, DW_AT_external
     481              $C$DW$22        .dwtag  DW_TAG_formal_parameter
     482                      .dwattr $C$DW$22, DW_AT_type(*$C$DW$T$636)
     483              
     484                      .dwendtag $C$DW$21
     485              
     486              
     487              $C$DW$23        .dwtag  DW_TAG_subprogram
     488                      .dwattr $C$DW$23, DW_AT_name("InitMotor1_DRV_Gpio")
     489                      .dwattr $C$DW$23, DW_AT_TI_symbol_name("_InitMotor1_DRV_Gpio")
     490                      .dwattr $C$DW$23, DW_AT_declaration
     491                      .dwattr $C$DW$23, DW_AT_external
     492                      .dwendtag $C$DW$23
     493              
     494              
TMS320C2000 Assembler PC v20.2.1 Sat Nov 14 13:32:33 2020

Copyright (c) 1996-2018 Texas Instruments Incorporated
MonoMtrServo.asm                                                     PAGE   13

     495              $C$DW$24        .dwtag  DW_TAG_subprogram
     496                      .dwattr $C$DW$24, DW_AT_name("GPIO_WritePin")
     497                      .dwattr $C$DW$24, DW_AT_TI_symbol_name("_GPIO_WritePin")
     498                      .dwattr $C$DW$24, DW_AT_declaration
     499                      .dwattr $C$DW$24, DW_AT_external
     500              $C$DW$25        .dwtag  DW_TAG_formal_parameter
     501                      .dwattr $C$DW$25, DW_AT_type(*$C$DW$T$31)
     502              
     503              $C$DW$26        .dwtag  DW_TAG_formal_parameter
     504                      .dwattr $C$DW$26, DW_AT_type(*$C$DW$T$31)
     505              
     506                      .dwendtag $C$DW$24
     507              
     508              
     509              $C$DW$27        .dwtag  DW_TAG_subprogram
     510                      .dwattr $C$DW$27, DW_AT_name("F28x_usDelay")
     511                      .dwattr $C$DW$27, DW_AT_TI_symbol_name("_F28x_usDelay")
     512                      .dwattr $C$DW$27, DW_AT_declaration
     513                      .dwattr $C$DW$27, DW_AT_external
     514              $C$DW$28        .dwtag  DW_TAG_formal_parameter
     515                      .dwattr $C$DW$28, DW_AT_type(*$C$DW$T$12)
     516              
     517                      .dwendtag $C$DW$27
     518              
     519              
     520              $C$DW$29        .dwtag  DW_TAG_subprogram
     521                      .dwattr $C$DW$29, DW_AT_name("InitDRV8305")
     522                      .dwattr $C$DW$29, DW_AT_TI_symbol_name("_InitDRV8305")
     523                      .dwattr $C$DW$29, DW_AT_declaration
     524                      .dwattr $C$DW$29, DW_AT_external
     525              $C$DW$30        .dwtag  DW_TAG_formal_parameter
     526                      .dwattr $C$DW$30, DW_AT_type(*$C$DW$T$636)
     527              
     528                      .dwendtag $C$DW$29
     529              
     530              
     531              $C$DW$31        .dwtag  DW_TAG_subprogram
     532                      .dwattr $C$DW$31, DW_AT_name("DLOG_4CH_F_init")
     533                      .dwattr $C$DW$31, DW_AT_TI_symbol_name("_DLOG_4CH_F_init")
     534                      .dwattr $C$DW$31, DW_AT_declaration
     535                      .dwattr $C$DW$31, DW_AT_external
     536              $C$DW$32        .dwtag  DW_TAG_formal_parameter
     537                      .dwattr $C$DW$32, DW_AT_type(*$C$DW$T$639)
     538              
     539                      .dwendtag $C$DW$31
     540              
     541              
     542              $C$DW$33        .dwtag  DW_TAG_subprogram
     543                      .dwattr $C$DW$33, DW_AT_name("DRV8305_diagnostics")
     544                      .dwattr $C$DW$33, DW_AT_TI_symbol_name("_DRV8305_diagnostics")
     545                      .dwattr $C$DW$33, DW_AT_declaration
     546                      .dwattr $C$DW$33, DW_AT_external
     547              $C$DW$34        .dwtag  DW_TAG_formal_parameter
     548                      .dwattr $C$DW$34, DW_AT_type(*$C$DW$T$636)
     549              
TMS320C2000 Assembler PC v20.2.1 Sat Nov 14 13:32:33 2020

Copyright (c) 1996-2018 Texas Instruments Incorporated
MonoMtrServo.asm                                                     PAGE   14

     550                      .dwendtag $C$DW$33
     551              
     552              
     553              $C$DW$35        .dwtag  DW_TAG_subprogram
     554                      .dwattr $C$DW$35, DW_AT_name("DLOG_4CH_F_FUNC")
     555                      .dwattr $C$DW$35, DW_AT_TI_symbol_name("_DLOG_4CH_F_FUNC")
     556                      .dwattr $C$DW$35, DW_AT_declaration
     557                      .dwattr $C$DW$35, DW_AT_external
     558              $C$DW$36        .dwtag  DW_TAG_formal_parameter
     559                      .dwattr $C$DW$36, DW_AT_type(*$C$DW$T$639)
     560              
     561                      .dwendtag $C$DW$35
     562              
     563                      .global _SerialCommsTimer
     564 00000000       _SerialCommsTimer:      .usect  ".ebss",1,1,0
     565              $C$DW$37        .dwtag  DW_TAG_variable
     566                      .dwattr $C$DW$37, DW_AT_name("SerialCommsTimer")
     567                      .dwattr $C$DW$37, DW_AT_TI_symbol_name("_SerialCommsTimer")
     568                      .dwattr $C$DW$37, DW_AT_location[DW_OP_addr _SerialCommsTimer]
     569                      .dwattr $C$DW$37, DW_AT_type(*$C$DW$T$80)
     570                      .dwattr $C$DW$37, DW_AT_external
     571              
     572                      .global _EnableFlag
     573 00000001       _EnableFlag:    .usect  ".ebss",1,1,0
     574              $C$DW$38        .dwtag  DW_TAG_variable
     575                      .dwattr $C$DW$38, DW_AT_name("EnableFlag")
     576                      .dwattr $C$DW$38, DW_AT_TI_symbol_name("_EnableFlag")
     577                      .dwattr $C$DW$38, DW_AT_location[DW_OP_addr _EnableFlag]
     578                      .dwattr $C$DW$38, DW_AT_type(*$C$DW$T$688)
     579                      .dwattr $C$DW$38, DW_AT_external
     580              
     581                      .global _BackTicker
     582 00000002       _BackTicker:    .usect  ".ebss",1,1,0
     583              $C$DW$39        .dwtag  DW_TAG_variable
     584                      .dwattr $C$DW$39, DW_AT_name("BackTicker")
     585                      .dwattr $C$DW$39, DW_AT_TI_symbol_name("_BackTicker")
     586                      .dwattr $C$DW$39, DW_AT_location[DW_OP_addr _BackTicker]
     587                      .dwattr $C$DW$39, DW_AT_type(*$C$DW$T$31)
     588                      .dwattr $C$DW$39, DW_AT_external
     589              
     590                      .global _LedCnt
     591 00000003       _LedCnt:        .usect  ".ebss",1,1,0
     592              $C$DW$40        .dwtag  DW_TAG_variable
     593                      .dwattr $C$DW$40, DW_AT_name("LedCnt")
     594                      .dwattr $C$DW$40, DW_AT_TI_symbol_name("_LedCnt")
     595                      .dwattr $C$DW$40, DW_AT_location[DW_OP_addr _LedCnt]
     596                      .dwattr $C$DW$40, DW_AT_type(*$C$DW$T$10)
     597                      .dwattr $C$DW$40, DW_AT_external
     598              
     599                      .global _OffsetCalCounter
     600 00000004       _OffsetCalCounter:      .usect  ".ebss",1,1,0
     601              $C$DW$41        .dwtag  DW_TAG_variable
     602                      .dwattr $C$DW$41, DW_AT_name("OffsetCalCounter")
     603                      .dwattr $C$DW$41, DW_AT_TI_symbol_name("_OffsetCalCounter")
     604                      .dwattr $C$DW$41, DW_AT_location[DW_OP_addr _OffsetCalCounter]
TMS320C2000 Assembler PC v20.2.1 Sat Nov 14 13:32:33 2020

Copyright (c) 1996-2018 Texas Instruments Incorporated
MonoMtrServo.asm                                                     PAGE   15

     605                      .dwattr $C$DW$41, DW_AT_type(*$C$DW$T$80)
     606                      .dwattr $C$DW$41, DW_AT_external
     607              
     608                      .global _ptrMax
     609 00000005       _ptrMax:        .usect  ".ebss",1,1,0
     610              $C$DW$42        .dwtag  DW_TAG_variable
     611                      .dwattr $C$DW$42, DW_AT_name("ptrMax")
     612                      .dwattr $C$DW$42, DW_AT_TI_symbol_name("_ptrMax")
     613                      .dwattr $C$DW$42, DW_AT_location[DW_OP_addr _ptrMax]
     614                      .dwattr $C$DW$42, DW_AT_type(*$C$DW$T$80)
     615                      .dwattr $C$DW$42, DW_AT_external
     616              
     617                      .global _ptr1
     618 00000006       _ptr1:  .usect  ".ebss",1,1,0
     619              $C$DW$43        .dwtag  DW_TAG_variable
     620                      .dwattr $C$DW$43, DW_AT_name("ptr1")
     621                      .dwattr $C$DW$43, DW_AT_TI_symbol_name("_ptr1")
     622                      .dwattr $C$DW$43, DW_AT_location[DW_OP_addr _ptr1]
     623                      .dwattr $C$DW$43, DW_AT_type(*$C$DW$T$80)
     624                      .dwattr $C$DW$43, DW_AT_external
     625              
     626                      .global _DRV_RESET
     627 00000007       _DRV_RESET:     .usect  ".ebss",1,1,0
     628              $C$DW$44        .dwtag  DW_TAG_variable
     629                      .dwattr $C$DW$44, DW_AT_name("DRV_RESET")
     630                      .dwattr $C$DW$44, DW_AT_TI_symbol_name("_DRV_RESET")
     631                      .dwattr $C$DW$44, DW_AT_location[DW_OP_addr _DRV_RESET]
     632                      .dwattr $C$DW$44, DW_AT_type(*$C$DW$T$31)
     633                      .dwattr $C$DW$44, DW_AT_external
     634              
     635              
     636              $C$DW$45        .dwtag  DW_TAG_subprogram
     637                      .dwattr $C$DW$45, DW_AT_name("DRV8305_SPI_Write")
     638                      .dwattr $C$DW$45, DW_AT_TI_symbol_name("_DRV8305_SPI_Write")
     639                      .dwattr $C$DW$45, DW_AT_type(*$C$DW$T$31)
     640                      .dwattr $C$DW$45, DW_AT_declaration
     641                      .dwattr $C$DW$45, DW_AT_external
     642              $C$DW$46        .dwtag  DW_TAG_formal_parameter
     643                      .dwattr $C$DW$46, DW_AT_type(*$C$DW$T$636)
     644              
     645              $C$DW$47        .dwtag  DW_TAG_formal_parameter
     646                      .dwattr $C$DW$47, DW_AT_type(*$C$DW$T$31)
     647              
     648                      .dwendtag $C$DW$45
     649              
     650 00000008       _i$1:   .usect  ".ebss",1,1,0
     651                      .global _Alpha_State_Ptr
     652 0000000a       _Alpha_State_Ptr:       .usect  ".ebss",2,1,1
     653              $C$DW$48        .dwtag  DW_TAG_variable
     654                      .dwattr $C$DW$48, DW_AT_name("Alpha_State_Ptr")
     655                      .dwattr $C$DW$48, DW_AT_TI_symbol_name("_Alpha_State_Ptr")
     656                      .dwattr $C$DW$48, DW_AT_location[DW_OP_addr _Alpha_State_Ptr]
     657                      .dwattr $C$DW$48, DW_AT_type(*$C$DW$T$493)
     658                      .dwattr $C$DW$48, DW_AT_external
     659              
TMS320C2000 Assembler PC v20.2.1 Sat Nov 14 13:32:33 2020

Copyright (c) 1996-2018 Texas Instruments Incorporated
MonoMtrServo.asm                                                     PAGE   16

     660                      .global _A_Task_Ptr
     661 0000000c       _A_Task_Ptr:    .usect  ".ebss",2,1,1
     662              $C$DW$49        .dwtag  DW_TAG_variable
     663                      .dwattr $C$DW$49, DW_AT_name("A_Task_Ptr")
     664                      .dwattr $C$DW$49, DW_AT_TI_symbol_name("_A_Task_Ptr")
     665                      .dwattr $C$DW$49, DW_AT_location[DW_OP_addr _A_Task_Ptr]
     666                      .dwattr $C$DW$49, DW_AT_type(*$C$DW$T$493)
     667                      .dwattr $C$DW$49, DW_AT_external
     668              
     669                      .global _B_Task_Ptr
     670 0000000e       _B_Task_Ptr:    .usect  ".ebss",2,1,1
     671              $C$DW$50        .dwtag  DW_TAG_variable
     672                      .dwattr $C$DW$50, DW_AT_name("B_Task_Ptr")
     673                      .dwattr $C$DW$50, DW_AT_TI_symbol_name("_B_Task_Ptr")
     674                      .dwattr $C$DW$50, DW_AT_location[DW_OP_addr _B_Task_Ptr]
     675                      .dwattr $C$DW$50, DW_AT_type(*$C$DW$T$493)
     676                      .dwattr $C$DW$50, DW_AT_external
     677              
     678                      .global _C_Task_Ptr
     679 00000010       _C_Task_Ptr:    .usect  ".ebss",2,1,1
     680              $C$DW$51        .dwtag  DW_TAG_variable
     681                      .dwattr $C$DW$51, DW_AT_name("C_Task_Ptr")
     682                      .dwattr $C$DW$51, DW_AT_TI_symbol_name("_C_Task_Ptr")
     683                      .dwattr $C$DW$51, DW_AT_location[DW_OP_addr _C_Task_Ptr]
     684                      .dwattr $C$DW$51, DW_AT_type(*$C$DW$T$493)
     685                      .dwattr $C$DW$51, DW_AT_external
     686              
     687                      .global _adc_cal
     688 00000012       _adc_cal:       .usect  ".ebss",2,1,1
     689              $C$DW$52        .dwtag  DW_TAG_variable
     690                      .dwattr $C$DW$52, DW_AT_name("adc_cal")
     691                      .dwattr $C$DW$52, DW_AT_TI_symbol_name("_adc_cal")
     692                      .dwattr $C$DW$52, DW_AT_location[DW_OP_addr _adc_cal]
     693                      .dwattr $C$DW$52, DW_AT_type(*$C$DW$T$685)
     694                      .dwattr $C$DW$52, DW_AT_external
     695              
     696                      .global _IsrTicker
     697 00000014       _IsrTicker:     .usect  ".ebss",2,1,1
     698              $C$DW$53        .dwtag  DW_TAG_variable
     699                      .dwattr $C$DW$53, DW_AT_name("IsrTicker")
     700                      .dwattr $C$DW$53, DW_AT_TI_symbol_name("_IsrTicker")
     701                      .dwattr $C$DW$53, DW_AT_location[DW_OP_addr _IsrTicker]
     702                      .dwattr $C$DW$53, DW_AT_type(*$C$DW$T$33)
     703                      .dwattr $C$DW$53, DW_AT_external
     704              
     705                      .global _K1
     706 00000016       _K1:    .usect  ".ebss",2,1,1
     707              $C$DW$54        .dwtag  DW_TAG_variable
     708                      .dwattr $C$DW$54, DW_AT_name("K1")
     709                      .dwattr $C$DW$54, DW_AT_TI_symbol_name("_K1")
     710                      .dwattr $C$DW$54, DW_AT_location[DW_OP_addr _K1]
     711                      .dwattr $C$DW$54, DW_AT_type(*$C$DW$T$19)
     712                      .dwattr $C$DW$54, DW_AT_external
     713              
     714                      .global _K2
TMS320C2000 Assembler PC v20.2.1 Sat Nov 14 13:32:33 2020

Copyright (c) 1996-2018 Texas Instruments Incorporated
MonoMtrServo.asm                                                     PAGE   17

     715 00000018       _K2:    .usect  ".ebss",2,1,1
     716              $C$DW$55        .dwtag  DW_TAG_variable
     717                      .dwattr $C$DW$55, DW_AT_name("K2")
     718                      .dwattr $C$DW$55, DW_AT_TI_symbol_name("_K2")
     719                      .dwattr $C$DW$55, DW_AT_location[DW_OP_addr _K2]
     720                      .dwattr $C$DW$55, DW_AT_type(*$C$DW$T$19)
     721                      .dwattr $C$DW$55, DW_AT_external
     722              
     723                      .global _IdRef_start
     724 0000001a       _IdRef_start:   .usect  ".ebss",2,1,1
     725              $C$DW$56        .dwtag  DW_TAG_variable
     726                      .dwattr $C$DW$56, DW_AT_name("IdRef_start")
     727                      .dwattr $C$DW$56, DW_AT_TI_symbol_name("_IdRef_start")
     728                      .dwattr $C$DW$56, DW_AT_location[DW_OP_addr _IdRef_start]
     729                      .dwattr $C$DW$56, DW_AT_type(*$C$DW$T$19)
     730                      .dwattr $C$DW$56, DW_AT_external
     731              
     732                      .global _IdRef_run
     733 0000001c       _IdRef_run:     .usect  ".ebss",2,1,1
     734              $C$DW$57        .dwtag  DW_TAG_variable
     735                      .dwattr $C$DW$57, DW_AT_name("IdRef_run")
     736                      .dwattr $C$DW$57, DW_AT_TI_symbol_name("_IdRef_run")
     737                      .dwattr $C$DW$57, DW_AT_location[DW_OP_addr _IdRef_run]
     738                      .dwattr $C$DW$57, DW_AT_type(*$C$DW$T$19)
     739                      .dwattr $C$DW$57, DW_AT_external
     740              
     741                      .global _cntr1
     742 0000001e       _cntr1: .usect  ".ebss",2,1,1
     743              $C$DW$58        .dwtag  DW_TAG_variable
     744                      .dwattr $C$DW$58, DW_AT_name("cntr1")
     745                      .dwattr $C$DW$58, DW_AT_TI_symbol_name("_cntr1")
     746                      .dwattr $C$DW$58, DW_AT_location[DW_OP_addr _cntr1]
     747                      .dwattr $C$DW$58, DW_AT_type(*$C$DW$T$19)
     748                      .dwattr $C$DW$58, DW_AT_external
     749              
     750                      .global _posSlewRate
     751 00000020       _posSlewRate:   .usect  ".ebss",2,1,1
     752              $C$DW$59        .dwtag  DW_TAG_variable
     753                      .dwattr $C$DW$59, DW_AT_name("posSlewRate")
     754                      .dwattr $C$DW$59, DW_AT_TI_symbol_name("_posSlewRate")
     755                      .dwattr $C$DW$59, DW_AT_location[DW_OP_addr _posSlewRate]
     756                      .dwattr $C$DW$59, DW_AT_type(*$C$DW$T$19)
     757                      .dwattr $C$DW$59, DW_AT_external
     758              
     759                      .global _DlogCh1
     760 00000022       _DlogCh1:       .usect  ".ebss",2,1,1
     761              $C$DW$60        .dwtag  DW_TAG_variable
     762                      .dwattr $C$DW$60, DW_AT_name("DlogCh1")
     763                      .dwattr $C$DW$60, DW_AT_TI_symbol_name("_DlogCh1")
     764                      .dwattr $C$DW$60, DW_AT_location[DW_OP_addr _DlogCh1]
     765                      .dwattr $C$DW$60, DW_AT_type(*$C$DW$T$16)
     766                      .dwattr $C$DW$60, DW_AT_external
     767              
     768                      .global _DlogCh2
     769 00000024       _DlogCh2:       .usect  ".ebss",2,1,1
TMS320C2000 Assembler PC v20.2.1 Sat Nov 14 13:32:33 2020

Copyright (c) 1996-2018 Texas Instruments Incorporated
MonoMtrServo.asm                                                     PAGE   18

     770              $C$DW$61        .dwtag  DW_TAG_variable
     771                      .dwattr $C$DW$61, DW_AT_name("DlogCh2")
     772                      .dwattr $C$DW$61, DW_AT_TI_symbol_name("_DlogCh2")
     773                      .dwattr $C$DW$61, DW_AT_location[DW_OP_addr _DlogCh2]
     774                      .dwattr $C$DW$61, DW_AT_type(*$C$DW$T$16)
     775                      .dwattr $C$DW$61, DW_AT_external
     776              
     777                      .global _DlogCh3
     778 00000026       _DlogCh3:       .usect  ".ebss",2,1,1
     779              $C$DW$62        .dwtag  DW_TAG_variable
     780                      .dwattr $C$DW$62, DW_AT_name("DlogCh3")
     781                      .dwattr $C$DW$62, DW_AT_TI_symbol_name("_DlogCh3")
     782                      .dwattr $C$DW$62, DW_AT_location[DW_OP_addr _DlogCh3]
     783                      .dwattr $C$DW$62, DW_AT_type(*$C$DW$T$16)
     784                      .dwattr $C$DW$62, DW_AT_external
     785              
     786                      .global _DlogCh4
     787 00000028       _DlogCh4:       .usect  ".ebss",2,1,1
     788              $C$DW$63        .dwtag  DW_TAG_variable
     789                      .dwattr $C$DW$63, DW_AT_name("DlogCh4")
     790                      .dwattr $C$DW$63, DW_AT_TI_symbol_name("_DlogCh4")
     791                      .dwattr $C$DW$63, DW_AT_location[DW_OP_addr _DlogCh4]
     792                      .dwattr $C$DW$63, DW_AT_type(*$C$DW$T$16)
     793                      .dwattr $C$DW$63, DW_AT_external
     794              
     795              
     796              $C$DW$64        .dwtag  DW_TAG_subprogram
     797                      .dwattr $C$DW$64, DW_AT_name("floor")
     798                      .dwattr $C$DW$64, DW_AT_TI_symbol_name("_floor")
     799                      .dwattr $C$DW$64, DW_AT_type(*$C$DW$T$17)
     800                      .dwattr $C$DW$64, DW_AT_declaration
     801                      .dwattr $C$DW$64, DW_AT_external
     802              $C$DW$65        .dwtag  DW_TAG_formal_parameter
     803                      .dwattr $C$DW$65, DW_AT_type(*$C$DW$T$17)
     804              
     805                      .dwendtag $C$DW$64
     806              
     807                      .global _VTimer0
     808 00000000       _VTimer0:       .usect  ".ebss:_VTimer0",4,1,0
     809                      .clink ".ebss:_VTimer0"
     810              $C$DW$66        .dwtag  DW_TAG_variable
     811                      .dwattr $C$DW$66, DW_AT_name("VTimer0")
     812                      .dwattr $C$DW$66, DW_AT_TI_symbol_name("_VTimer0")
     813                      .dwattr $C$DW$66, DW_AT_location[DW_OP_addr _VTimer0]
     814                      .dwattr $C$DW$66, DW_AT_type(*$C$DW$T$687)
     815                      .dwattr $C$DW$66, DW_AT_external
     816              
     817                      .global _VTimer1
     818 00000000       _VTimer1:       .usect  ".ebss:_VTimer1",4,1,0
     819                      .clink ".ebss:_VTimer1"
     820              $C$DW$67        .dwtag  DW_TAG_variable
     821                      .dwattr $C$DW$67, DW_AT_name("VTimer1")
     822                      .dwattr $C$DW$67, DW_AT_TI_symbol_name("_VTimer1")
     823                      .dwattr $C$DW$67, DW_AT_location[DW_OP_addr _VTimer1]
     824                      .dwattr $C$DW$67, DW_AT_type(*$C$DW$T$687)
TMS320C2000 Assembler PC v20.2.1 Sat Nov 14 13:32:33 2020

Copyright (c) 1996-2018 Texas Instruments Incorporated
MonoMtrServo.asm                                                     PAGE   19

     825                      .dwattr $C$DW$67, DW_AT_external
     826              
     827                      .global _VTimer2
     828 00000000       _VTimer2:       .usect  ".ebss:_VTimer2",4,1,0
     829                      .clink ".ebss:_VTimer2"
     830              $C$DW$68        .dwtag  DW_TAG_variable
     831                      .dwattr $C$DW$68, DW_AT_name("VTimer2")
     832                      .dwattr $C$DW$68, DW_AT_TI_symbol_name("_VTimer2")
     833                      .dwattr $C$DW$68, DW_AT_location[DW_OP_addr _VTimer2]
     834                      .dwattr $C$DW$68, DW_AT_type(*$C$DW$T$687)
     835                      .dwattr $C$DW$68, DW_AT_external
     836              
     837              $C$DW$69        .dwtag  DW_TAG_variable
     838                      .dwattr $C$DW$69, DW_AT_name("CpuTimer0Regs")
     839                      .dwattr $C$DW$69, DW_AT_TI_symbol_name("_CpuTimer0Regs")
     840                      .dwattr $C$DW$69, DW_AT_type(*$C$DW$T$645)
     841                      .dwattr $C$DW$69, DW_AT_declaration
     842                      .dwattr $C$DW$69, DW_AT_external
     843              
     844              $C$DW$70        .dwtag  DW_TAG_variable
     845                      .dwattr $C$DW$70, DW_AT_name("CpuTimer1Regs")
     846                      .dwattr $C$DW$70, DW_AT_TI_symbol_name("_CpuTimer1Regs")
     847                      .dwattr $C$DW$70, DW_AT_type(*$C$DW$T$645)
     848                      .dwattr $C$DW$70, DW_AT_declaration
     849                      .dwattr $C$DW$70, DW_AT_external
     850              
     851              $C$DW$71        .dwtag  DW_TAG_variable
     852                      .dwattr $C$DW$71, DW_AT_name("CpuTimer2Regs")
     853                      .dwattr $C$DW$71, DW_AT_TI_symbol_name("_CpuTimer2Regs")
     854                      .dwattr $C$DW$71, DW_AT_type(*$C$DW$T$645)
     855                      .dwattr $C$DW$71, DW_AT_declaration
     856                      .dwattr $C$DW$71, DW_AT_external
     857              
     858              $C$DW$72        .dwtag  DW_TAG_variable
     859                      .dwattr $C$DW$72, DW_AT_name("SpiaRegs")
     860                      .dwattr $C$DW$72, DW_AT_TI_symbol_name("_SpiaRegs")
     861                      .dwattr $C$DW$72, DW_AT_type(*$C$DW$T$63)
     862                      .dwattr $C$DW$72, DW_AT_declaration
     863                      .dwattr $C$DW$72, DW_AT_external
     864              
     865                      .global _posArray
     866 00000000       _posArray:      .usect  ".ebss:_posArray",16,1,1
     867                      .clink ".ebss:_posArray"
     868              $C$DW$73        .dwtag  DW_TAG_variable
     869                      .dwattr $C$DW$73, DW_AT_name("posArray")
     870                      .dwattr $C$DW$73, DW_AT_TI_symbol_name("_posArray")
     871                      .dwattr $C$DW$73, DW_AT_location[DW_OP_addr _posArray]
     872                      .dwattr $C$DW$73, DW_AT_type(*$C$DW$T$709)
     873                      .dwattr $C$DW$73, DW_AT_external
     874              
     875              $C$DW$74        .dwtag  DW_TAG_variable
     876                      .dwattr $C$DW$74, DW_AT_name("AdcaResultRegs")
     877                      .dwattr $C$DW$74, DW_AT_TI_symbol_name("_AdcaResultRegs")
     878                      .dwattr $C$DW$74, DW_AT_type(*$C$DW$T$644)
     879                      .dwattr $C$DW$74, DW_AT_declaration
TMS320C2000 Assembler PC v20.2.1 Sat Nov 14 13:32:33 2020

Copyright (c) 1996-2018 Texas Instruments Incorporated
MonoMtrServo.asm                                                     PAGE   20

     880                      .dwattr $C$DW$74, DW_AT_external
     881              
     882              $C$DW$75        .dwtag  DW_TAG_variable
     883                      .dwattr $C$DW$75, DW_AT_name("AdcbResultRegs")
     884                      .dwattr $C$DW$75, DW_AT_TI_symbol_name("_AdcbResultRegs")
     885                      .dwattr $C$DW$75, DW_AT_type(*$C$DW$T$644)
     886                      .dwattr $C$DW$75, DW_AT_declaration
     887                      .dwattr $C$DW$75, DW_AT_external
     888              
     889              $C$DW$76        .dwtag  DW_TAG_variable
     890                      .dwattr $C$DW$76, DW_AT_name("PieCtrlRegs")
     891                      .dwattr $C$DW$76, DW_AT_TI_symbol_name("_PieCtrlRegs")
     892                      .dwattr $C$DW$76, DW_AT_type(*$C$DW$T$656)
     893                      .dwattr $C$DW$76, DW_AT_declaration
     894                      .dwattr $C$DW$76, DW_AT_external
     895              
     896                      .global _dlog_4ch1
     897 00000040       _dlog_4ch1:     .usect  ".ebss",26,1,1
     898              $C$DW$77        .dwtag  DW_TAG_variable
     899                      .dwattr $C$DW$77, DW_AT_name("dlog_4ch1")
     900                      .dwattr $C$DW$77, DW_AT_TI_symbol_name("_dlog_4ch1")
     901                      .dwattr $C$DW$77, DW_AT_location[DW_OP_addr _dlog_4ch1]
     902                      .dwattr $C$DW$77, DW_AT_type(*$C$DW$T$638)
     903                      .dwattr $C$DW$77, DW_AT_external
     904              
     905              $C$DW$78        .dwtag  DW_TAG_variable
     906                      .dwattr $C$DW$78, DW_AT_name("InputXbarRegs")
     907                      .dwattr $C$DW$78, DW_AT_TI_symbol_name("_InputXbarRegs")
     908                      .dwattr $C$DW$78, DW_AT_type(*$C$DW$T$654)
     909                      .dwattr $C$DW$78, DW_AT_declaration
     910                      .dwattr $C$DW$78, DW_AT_external
     911              
     912              $C$DW$79        .dwtag  DW_TAG_variable
     913                      .dwattr $C$DW$79, DW_AT_name("EQep1Regs")
     914                      .dwattr $C$DW$79, DW_AT_TI_symbol_name("_EQep1Regs")
     915                      .dwattr $C$DW$79, DW_AT_type(*$C$DW$T$61)
     916                      .dwattr $C$DW$79, DW_AT_declaration
     917                      .dwattr $C$DW$79, DW_AT_external
     918              
     919              $C$DW$80        .dwtag  DW_TAG_variable
     920                      .dwattr $C$DW$80, DW_AT_name("EQep3Regs")
     921                      .dwattr $C$DW$80, DW_AT_TI_symbol_name("_EQep3Regs")
     922                      .dwattr $C$DW$80, DW_AT_type(*$C$DW$T$61)
     923                      .dwattr $C$DW$80, DW_AT_declaration
     924                      .dwattr $C$DW$80, DW_AT_external
     925              
     926              $C$DW$81        .dwtag  DW_TAG_variable
     927                      .dwattr $C$DW$81, DW_AT_name("GpioDataRegs")
     928                      .dwattr $C$DW$81, DW_AT_TI_symbol_name("_GpioDataRegs")
     929                      .dwattr $C$DW$81, DW_AT_type(*$C$DW$T$652)
     930                      .dwattr $C$DW$81, DW_AT_declaration
     931                      .dwattr $C$DW$81, DW_AT_external
     932              
     933              $C$DW$82        .dwtag  DW_TAG_variable
     934                      .dwattr $C$DW$82, DW_AT_name("EPwmXbarRegs")
TMS320C2000 Assembler PC v20.2.1 Sat Nov 14 13:32:33 2020

Copyright (c) 1996-2018 Texas Instruments Incorporated
MonoMtrServo.asm                                                     PAGE   21

     935                      .dwattr $C$DW$82, DW_AT_TI_symbol_name("_EPwmXbarRegs")
     936                      .dwattr $C$DW$82, DW_AT_type(*$C$DW$T$650)
     937                      .dwattr $C$DW$82, DW_AT_declaration
     938                      .dwattr $C$DW$82, DW_AT_external
     939              
     940              $C$DW$83        .dwtag  DW_TAG_variable
     941                      .dwattr $C$DW$83, DW_AT_name("AdcaRegs")
     942                      .dwattr $C$DW$83, DW_AT_TI_symbol_name("_AdcaRegs")
     943                      .dwattr $C$DW$83, DW_AT_type(*$C$DW$T$642)
     944                      .dwattr $C$DW$83, DW_AT_declaration
     945                      .dwattr $C$DW$83, DW_AT_external
     946              
     947              $C$DW$84        .dwtag  DW_TAG_variable
     948                      .dwattr $C$DW$84, DW_AT_name("AdcbRegs")
     949                      .dwattr $C$DW$84, DW_AT_TI_symbol_name("_AdcbRegs")
     950                      .dwattr $C$DW$84, DW_AT_type(*$C$DW$T$642)
     951                      .dwattr $C$DW$84, DW_AT_declaration
     952                      .dwattr $C$DW$84, DW_AT_external
     953              
     954              $C$DW$85        .dwtag  DW_TAG_variable
     955                      .dwattr $C$DW$85, DW_AT_name("CpuSysRegs")
     956                      .dwattr $C$DW$85, DW_AT_TI_symbol_name("_CpuSysRegs")
     957                      .dwattr $C$DW$85, DW_AT_type(*$C$DW$T$647)
     958                      .dwattr $C$DW$85, DW_AT_declaration
     959                      .dwattr $C$DW$85, DW_AT_external
     960              
     961              $C$DW$86        .dwtag  DW_TAG_variable
     962                      .dwattr $C$DW$86, DW_AT_name("EPwm1Regs")
     963                      .dwattr $C$DW$86, DW_AT_TI_symbol_name("_EPwm1Regs")
     964                      .dwattr $C$DW$86, DW_AT_type(*$C$DW$T$59)
     965                      .dwattr $C$DW$86, DW_AT_declaration
     966                      .dwattr $C$DW$86, DW_AT_external
     967              
     968              $C$DW$87        .dwtag  DW_TAG_variable
     969                      .dwattr $C$DW$87, DW_AT_name("EPwm7Regs")
     970                      .dwattr $C$DW$87, DW_AT_TI_symbol_name("_EPwm7Regs")
     971                      .dwattr $C$DW$87, DW_AT_type(*$C$DW$T$59)
     972                      .dwattr $C$DW$87, DW_AT_declaration
     973                      .dwattr $C$DW$87, DW_AT_external
     974              
     975              $C$DW$88        .dwtag  DW_TAG_variable
     976                      .dwattr $C$DW$88, DW_AT_name("EPwm8Regs")
     977                      .dwattr $C$DW$88, DW_AT_TI_symbol_name("_EPwm8Regs")
     978                      .dwattr $C$DW$88, DW_AT_type(*$C$DW$T$59)
     979                      .dwattr $C$DW$88, DW_AT_declaration
     980                      .dwattr $C$DW$88, DW_AT_external
     981              
     982              $C$DW$89        .dwtag  DW_TAG_variable
     983                      .dwattr $C$DW$89, DW_AT_name("EPwm9Regs")
     984                      .dwattr $C$DW$89, DW_AT_TI_symbol_name("_EPwm9Regs")
     985                      .dwattr $C$DW$89, DW_AT_type(*$C$DW$T$59)
     986                      .dwattr $C$DW$89, DW_AT_declaration
     987                      .dwattr $C$DW$89, DW_AT_external
     988              
     989                      .global _motor1
TMS320C2000 Assembler PC v20.2.1 Sat Nov 14 13:32:33 2020

Copyright (c) 1996-2018 Texas Instruments Incorporated
MonoMtrServo.asm                                                     PAGE   22

     990 00000080       _motor1:        .usect  ".ebss",336,1,1
     991              $C$DW$90        .dwtag  DW_TAG_variable
     992                      .dwattr $C$DW$90, DW_AT_name("motor1")
     993                      .dwattr $C$DW$90, DW_AT_TI_symbol_name("_motor1")
     994                      .dwattr $C$DW$90, DW_AT_location[DW_OP_addr _motor1]
     995                      .dwattr $C$DW$90, DW_AT_type(*$C$DW$T$635)
     996                      .dwattr $C$DW$90, DW_AT_external
     997              
     998                      .global _DBUFF_4CH1
     999 00000000       _DBUFF_4CH1:    .usect  ".ebss:_DBUFF_4CH1",400,1,1
    1000                      .clink ".ebss:_DBUFF_4CH1"
    1001              $C$DW$91        .dwtag  DW_TAG_variable
    1002                      .dwattr $C$DW$91, DW_AT_name("DBUFF_4CH1")
    1003                      .dwattr $C$DW$91, DW_AT_TI_symbol_name("_DBUFF_4CH1")
    1004                      .dwattr $C$DW$91, DW_AT_location[DW_OP_addr _DBUFF_4CH1]
    1005                      .dwattr $C$DW$91, DW_AT_type(*$C$DW$T$699)
    1006                      .dwattr $C$DW$91, DW_AT_external
    1007              
    1008                      .global _DBUFF_4CH2
    1009 00000000       _DBUFF_4CH2:    .usect  ".ebss:_DBUFF_4CH2",400,1,1
    1010                      .clink ".ebss:_DBUFF_4CH2"
    1011              $C$DW$92        .dwtag  DW_TAG_variable
    1012                      .dwattr $C$DW$92, DW_AT_name("DBUFF_4CH2")
    1013                      .dwattr $C$DW$92, DW_AT_TI_symbol_name("_DBUFF_4CH2")
    1014                      .dwattr $C$DW$92, DW_AT_location[DW_OP_addr _DBUFF_4CH2]
    1015                      .dwattr $C$DW$92, DW_AT_type(*$C$DW$T$699)
    1016                      .dwattr $C$DW$92, DW_AT_external
    1017              
    1018                      .global _DBUFF_4CH3
    1019 00000000       _DBUFF_4CH3:    .usect  ".ebss:_DBUFF_4CH3",400,1,1
    1020                      .clink ".ebss:_DBUFF_4CH3"
    1021              $C$DW$93        .dwtag  DW_TAG_variable
    1022                      .dwattr $C$DW$93, DW_AT_name("DBUFF_4CH3")
    1023                      .dwattr $C$DW$93, DW_AT_TI_symbol_name("_DBUFF_4CH3")
    1024                      .dwattr $C$DW$93, DW_AT_location[DW_OP_addr _DBUFF_4CH3]
    1025                      .dwattr $C$DW$93, DW_AT_type(*$C$DW$T$699)
    1026                      .dwattr $C$DW$93, DW_AT_external
    1027              
    1028                      .global _DBUFF_4CH4
    1029 00000000       _DBUFF_4CH4:    .usect  ".ebss:_DBUFF_4CH4",400,1,1
    1030                      .clink ".ebss:_DBUFF_4CH4"
    1031              $C$DW$94        .dwtag  DW_TAG_variable
    1032                      .dwattr $C$DW$94, DW_AT_name("DBUFF_4CH4")
    1033                      .dwattr $C$DW$94, DW_AT_TI_symbol_name("_DBUFF_4CH4")
    1034                      .dwattr $C$DW$94, DW_AT_location[DW_OP_addr _DBUFF_4CH4]
    1035                      .dwattr $C$DW$94, DW_AT_type(*$C$DW$T$699)
    1036                      .dwattr $C$DW$94, DW_AT_external
    1037              
    1038              $C$DW$95        .dwtag  DW_TAG_variable
    1039                      .dwattr $C$DW$95, DW_AT_name("PieVectTable")
    1040                      .dwattr $C$DW$95, DW_AT_TI_symbol_name("_PieVectTable")
    1041                      .dwattr $C$DW$95, DW_AT_type(*$C$DW$T$658)
    1042                      .dwattr $C$DW$95, DW_AT_declaration
    1043                      .dwattr $C$DW$95, DW_AT_external
    1044              
TMS320C2000 Assembler PC v20.2.1 Sat Nov 14 13:32:33 2020

Copyright (c) 1996-2018 Texas Instruments Incorporated
MonoMtrServo.asm                                                     PAGE   23

    1045                      .sblock ".ebss"
    1046                      .sblock ".ebss:_DBUFF_4CH1"
    1047                      .sblock ".ebss:_DBUFF_4CH2"
    1048                      .sblock ".ebss:_DBUFF_4CH3"
    1049                      .sblock ".ebss:_DBUFF_4CH4"
    1050                      .sblock ".ebss:_VTimer0"
    1051                      .sblock ".ebss:_VTimer1"
    1052                      .sblock ".ebss:_VTimer2"
    1053                      .sblock ".ebss:_posArray"
    1054              ;       C:\ti\ccs1011\ccs\tools\compiler\ti-cgt-c2000_20.2.1.LTS\bin\opt2000.exe C:\\Users\\admin\\AppData\\L
    1055              ;       C:\ti\ccs1011\ccs\tools\compiler\ti-cgt-c2000_20.2.1.LTS\bin\ac2000.exe -@C:\\Users\\admin\\AppData\\
    1056 00000000               .sect   ".text"
    1057                      .clink
    1058                      .global _ramper
    1059              
    1060              $C$DW$96        .dwtag  DW_TAG_subprogram
    1061                      .dwattr $C$DW$96, DW_AT_name("ramper")
    1062                      .dwattr $C$DW$96, DW_AT_low_pc(_ramper)
    1063                      .dwattr $C$DW$96, DW_AT_high_pc(0x00)
    1064                      .dwattr $C$DW$96, DW_AT_TI_symbol_name("_ramper")
    1065                      .dwattr $C$DW$96, DW_AT_external
    1066                      .dwattr $C$DW$96, DW_AT_type(*$C$DW$T$19)
    1067                      .dwattr $C$DW$96, DW_AT_TI_begin_file("../MonoMtrServo.c")
    1068                      .dwattr $C$DW$96, DW_AT_TI_begin_line(0x152)
    1069                      .dwattr $C$DW$96, DW_AT_TI_begin_column(0x05)
    1070                      .dwattr $C$DW$96, DW_AT_TI_max_frame_size(-6)
    1071                      .dwpsn  file "../MonoMtrServo.c",line 339,column 1,is_stmt,address _ramper,isa 0
    1072              
    1073                      .dwfde $C$DW$CIE, _ramper
    1074              $C$DW$97        .dwtag  DW_TAG_formal_parameter
    1075                      .dwattr $C$DW$97, DW_AT_name("in")
    1076                      .dwattr $C$DW$97, DW_AT_TI_symbol_name("_in")
    1077                      .dwattr $C$DW$97, DW_AT_type(*$C$DW$T$19)
    1078                      .dwattr $C$DW$97, DW_AT_location[DW_OP_regx 0x2b]
    1079              
    1080              $C$DW$98        .dwtag  DW_TAG_formal_parameter
    1081                      .dwattr $C$DW$98, DW_AT_name("out")
    1082                      .dwattr $C$DW$98, DW_AT_TI_symbol_name("_out")
    1083                      .dwattr $C$DW$98, DW_AT_type(*$C$DW$T$19)
    1084                      .dwattr $C$DW$98, DW_AT_location[DW_OP_regx 0x2f]
    1085              
    1086              $C$DW$99        .dwtag  DW_TAG_formal_parameter
    1087                      .dwattr $C$DW$99, DW_AT_name("rampDelta")
    1088                      .dwattr $C$DW$99, DW_AT_TI_symbol_name("_rampDelta")
    1089                      .dwattr $C$DW$99, DW_AT_type(*$C$DW$T$19)
    1090                      .dwattr $C$DW$99, DW_AT_location[DW_OP_regx 0x33]
    1091              
    1092              
    1093              ;***************************************************************
    1094              ;* FNAME: _ramper                       FR SIZE:   4           *
    1095              ;*                                                             *
    1096              ;* FUNCTION ENVIRONMENT                                        *
    1097              ;*                                                             *
    1098              ;* FUNCTION PROPERTIES                                         *
    1099              ;*                            2 Parameter,  0 Auto,  2 SOE     *
TMS320C2000 Assembler PC v20.2.1 Sat Nov 14 13:32:33 2020

Copyright (c) 1996-2018 Texas Instruments Incorporated
MonoMtrServo.asm                                                     PAGE   24

    1100              ;***************************************************************
    1101              
    1102              _ramper:
    1103              ;* R4    assigned to $O$C1
    1104              ;* R0    assigned to _in
    1105              $C$DW$100       .dwtag  DW_TAG_variable
    1106                      .dwattr $C$DW$100, DW_AT_name("in")
    1107                      .dwattr $C$DW$100, DW_AT_TI_symbol_name("_in")
    1108                      .dwattr $C$DW$100, DW_AT_type(*$C$DW$T$710)
    1109                      .dwattr $C$DW$100, DW_AT_location[DW_OP_regx 0x2b]
    1110              
    1111              ;* R1    assigned to _out
    1112              $C$DW$101       .dwtag  DW_TAG_variable
    1113                      .dwattr $C$DW$101, DW_AT_name("out")
    1114                      .dwattr $C$DW$101, DW_AT_TI_symbol_name("_out")
    1115                      .dwattr $C$DW$101, DW_AT_type(*$C$DW$T$710)
    1116                      .dwattr $C$DW$101, DW_AT_location[DW_OP_regx 0x2f]
    1117              
    1118              ;* R2    assigned to _rampDelta
    1119              $C$DW$102       .dwtag  DW_TAG_variable
    1120                      .dwattr $C$DW$102, DW_AT_name("rampDelta")
    1121                      .dwattr $C$DW$102, DW_AT_TI_symbol_name("_rampDelta")
    1122                      .dwattr $C$DW$102, DW_AT_type(*$C$DW$T$710)
    1123                      .dwattr $C$DW$102, DW_AT_location[DW_OP_regx 0x33]
    1124              
    1125                      .dwcfi  cfa_offset, -2
    1126                      .dwcfi  save_reg_to_mem, 26, 0
    1127 00000000 E203          MOV32     *SP++,R4H             ; [CPU_FPU] 
         00000001 04BD 
    1128                      .dwcfi  save_reg_to_mem, 59, 2
    1129                      .dwcfi  cfa_offset, -4
    1130 00000002 FE02          ADDB      SP,#2                 ; [CPU_ARAU] 
    1131                      .dwcfi  cfa_offset, -6
    1132                      .dwpsn  file "../MonoMtrServo.c",line 343,column 2,is_stmt,isa 0
    1133 00000003 E720          SUBF32    R4H,R0H,R1H           ; [CPU_FPU] |343| 
         00000004 0044 
    1134 00000005 7700          NOP       ; [CPU_ALU] 
    1135                      .dwpsn  file "../MonoMtrServo.c",line 344,column 3,is_stmt,isa 0
    1136 00000006 E694          CMPF32    R4H,R2H               ; [CPU_FPU] |344| 
         00000007 0014 
    1137 00000008 AD14          MOVST0    ZF, NF                ; [CPU_FPU] |344| 
    1138 00000009 6504          B         $C$L1,LEQ             ; [CPU_ALU] |344| 
    1139                      ; branchcc occurs ; [] |344| 
    1140 0000000a E710          ADDF32    R0H,R2H,R1H           ; [CPU_FPU] |344| 
         0000000b 0050 
    1141 0000000c 6F0C          B         $C$L2,UNC             ; [CPU_ALU] |344| 
    1142                      ; branch occurs ; [] |344| 
    1143 0000000d       $C$L1:    
    1144 0000000d E6CF          MOV32     R3H,R2H               ; [CPU_FPU] |344| 
         0000000e 0013 
    1145 0000000f E6AF          NEGF32    R3H,R3H               ; [CPU_FPU] |344| 
         00000010 001B 
    1146 00000011 E694          CMPF32    R4H,R3H               ; [CPU_FPU] |344| 
         00000012 001C 
    1147 00000013 AD14          MOVST0    ZF, NF                ; [CPU_FPU] |344| 
TMS320C2000 Assembler PC v20.2.1 Sat Nov 14 13:32:33 2020

Copyright (c) 1996-2018 Texas Instruments Incorporated
MonoMtrServo.asm                                                     PAGE   25

    1148 00000014 6304          B         $C$L2,GEQ             ; [CPU_ALU] |344| 
    1149                      ; branchcc occurs ; [] |344| 
    1150 00000015 E720          SUBF32    R0H,R1H,R2H           ; [CPU_FPU] |344| 
         00000016 0088 
    1151 00000017 7700          NOP       ; [CPU_ALU] 
    1152 00000018       $C$L2:    
    1153 00000018 FE82          SUBB      SP,#2                 ; [CPU_ARAU] 
    1154                      .dwcfi  cfa_offset, -4
    1155 00000019 E2AF          MOV32     R4H,*--SP             ; [CPU_FPU] 
         0000001a 04BE 
    1156                      .dwcfi  cfa_offset, -2
    1157                      .dwcfi  restore_reg, 59
    1158              $C$DW$103       .dwtag  DW_TAG_TI_branch
    1159                      .dwattr $C$DW$103, DW_AT_low_pc(0x00)
    1160                      .dwattr $C$DW$103, DW_AT_TI_return
    1161              
    1162 0000001b 0006          LRETR     ; [CPU_ALU] 
    1163                      ; return occurs ; [] 
    1164                      .dwattr $C$DW$96, DW_AT_TI_end_file("../MonoMtrServo.c")
    1165                      .dwattr $C$DW$96, DW_AT_TI_end_line(0x15d)
    1166                      .dwattr $C$DW$96, DW_AT_TI_end_column(0x01)
    1167                      .dwendentry
    1168                      .dwendtag $C$DW$96
    1169              
    1170 0000001c               .sect   ".text"
    1171                      .clink
    1172                      .global _refPosGen
    1173              
    1174              $C$DW$104       .dwtag  DW_TAG_subprogram
    1175                      .dwattr $C$DW$104, DW_AT_name("refPosGen")
    1176                      .dwattr $C$DW$104, DW_AT_low_pc(_refPosGen)
    1177                      .dwattr $C$DW$104, DW_AT_high_pc(0x00)
    1178                      .dwattr $C$DW$104, DW_AT_TI_symbol_name("_refPosGen")
    1179                      .dwattr $C$DW$104, DW_AT_external
    1180                      .dwattr $C$DW$104, DW_AT_type(*$C$DW$T$19)
    1181                      .dwattr $C$DW$104, DW_AT_TI_begin_file("../MonoMtrServo.c")
    1182                      .dwattr $C$DW$104, DW_AT_TI_begin_line(0x17a)
    1183                      .dwattr $C$DW$104, DW_AT_TI_begin_column(0x05)
    1184                      .dwattr $C$DW$104, DW_AT_TI_max_frame_size(-6)
    1185                      .dwpsn  file "../MonoMtrServo.c",line 379,column 1,is_stmt,address _refPosGen,isa 0
    1186              
    1187                      .dwfde $C$DW$CIE, _refPosGen
    1188              $C$DW$105       .dwtag  DW_TAG_formal_parameter
    1189                      .dwattr $C$DW$105, DW_AT_name("out")
    1190                      .dwattr $C$DW$105, DW_AT_TI_symbol_name("_out")
    1191                      .dwattr $C$DW$105, DW_AT_type(*$C$DW$T$19)
    1192                      .dwattr $C$DW$105, DW_AT_location[DW_OP_regx 0x2b]
    1193              
    1194              
    1195              ;***************************************************************
    1196              ;* FNAME: _refPosGen                    FR SIZE:   4           *
    1197              ;*                                                             *
    1198              ;* FUNCTION ENVIRONMENT                                        *
    1199              ;*                                                             *
    1200              ;* FUNCTION PROPERTIES                                         *
TMS320C2000 Assembler PC v20.2.1 Sat Nov 14 13:32:33 2020

Copyright (c) 1996-2018 Texas Instruments Incorporated
MonoMtrServo.asm                                                     PAGE   26

    1201              ;*                            2 Parameter,  0 Auto,  2 SOE     *
    1202              ;***************************************************************
    1203              
    1204              _refPosGen:
    1205              ;* R0    assigned to $O$C1
    1206              ;* R1    assigned to _out
    1207              $C$DW$106       .dwtag  DW_TAG_variable
    1208                      .dwattr $C$DW$106, DW_AT_name("out")
    1209                      .dwattr $C$DW$106, DW_AT_TI_symbol_name("_out")
    1210                      .dwattr $C$DW$106, DW_AT_type(*$C$DW$T$19)
    1211                      .dwattr $C$DW$106, DW_AT_location[DW_OP_regx 0x2f]
    1212              
    1213              ;* R4    assigned to _in
    1214              $C$DW$107       .dwtag  DW_TAG_variable
    1215                      .dwattr $C$DW$107, DW_AT_name("in")
    1216                      .dwattr $C$DW$107, DW_AT_TI_symbol_name("_in")
    1217                      .dwattr $C$DW$107, DW_AT_type(*$C$DW$T$19)
    1218                      .dwattr $C$DW$107, DW_AT_location[DW_OP_regx 0x3b]
    1219              
    1220                      .dwcfi  cfa_offset, -2
    1221                      .dwcfi  save_reg_to_mem, 26, 0
    1222 0000001c E203          MOV32     *SP++,R4H             ; [CPU_FPU] 
         0000001d 04BD 
    1223                      .dwcfi  save_reg_to_mem, 59, 2
    1224                      .dwcfi  cfa_offset, -4
    1225 0000001e FE02          ADDB      SP,#2                 ; [CPU_ARAU] 
    1226                      .dwcfi  cfa_offset, -6
    1227 0000001f 3B01          SETC      SXM                   ; [CPU_ALU] 
    1228 00000020 761F-         MOVW      DP,#_ptr1             ; [CPU_ARAU] 
         00000021 0000 
    1229                      .dwpsn  file "../MonoMtrServo.c",line 380,column 9,is_stmt,isa 0
    1230 00000022 8F00-         MOVL      XAR4,#_posArray       ; [CPU_ARAU] |380| 
         00000023 0000 
    1231 00000024 5603-         MOV       ACC,@_ptr1 << 1       ; [CPU_ALU] |380| 
         00000025 0106 
    1232 00000026 5601          ADDL      XAR4,ACC              ; [CPU_ALU] |380| 
         00000027 00A4 
    1233                      .dwpsn  file "../MonoMtrServo.c",line 382,column 2,is_stmt,isa 0
    1234 00000028 E2AF-         MOV32     R2H,@_posSlewRate     ; [CPU_FPU] |382| 
         00000029 0220 
    1235                      .dwpsn  file "../MonoMtrServo.c",line 379,column 1,is_stmt,isa 0
    1236 0000002a E6CF          MOV32     R1H,R0H               ; [CPU_FPU] |379| 
         0000002b 0001 
    1237                      .dwpsn  file "../MonoMtrServo.c",line 380,column 9,is_stmt,isa 0
    1238 0000002c E2AF          MOV32     R0H,*+XAR4[0]         ; [CPU_FPU] |380| 
         0000002d 00C4 
    1239 0000002e E6CF          MOV32     R4H,R0H               ; [CPU_FPU] |380| 
         0000002f 0004 
    1240                      .dwpsn  file "../MonoMtrServo.c",line 382,column 2,is_stmt,isa 0
    1241              $C$DW$108       .dwtag  DW_TAG_TI_branch
    1242                      .dwattr $C$DW$108, DW_AT_low_pc(0x00)
    1243                      .dwattr $C$DW$108, DW_AT_name("_ramper")
    1244                      .dwattr $C$DW$108, DW_AT_TI_call
    1245              
    1246 00000030 7640'         LCR       #_ramper              ; [CPU_ALU] |382| 
TMS320C2000 Assembler PC v20.2.1 Sat Nov 14 13:32:33 2020

Copyright (c) 1996-2018 Texas Instruments Incorporated
MonoMtrServo.asm                                                     PAGE   27

         00000031 0000 
    1247                      ; call occurs [#_ramper] ; [] |382| 
    1248 00000032 E6CF          MOV32     R1H,R0H               ; [CPU_FPU] |382| 
         00000033 0001 
    1249                      .dwpsn  file "../MonoMtrServo.c",line 384,column 2,is_stmt,isa 0
    1250 00000034 E694          CMPF32    R4H,R1H               ; [CPU_FPU] |384| 
         00000035 000C 
    1251 00000036 AD14          MOVST0    ZF, NF                ; [CPU_FPU] |384| 
    1252 00000037 6014          B         $C$L3,NEQ             ; [CPU_ALU] |384| 
    1253                      ; branchcc occurs ; [] |384| 
    1254                      .dwpsn  file "../MonoMtrServo.c",line 385,column 2,is_stmt,isa 0
    1255 00000038 E2AF-         MOV32     R0H,@_cntr1           ; [CPU_FPU] |385| 
         00000039 001E 
    1256 0000003a E88F          ADDF32    R0H,R0H,#16256        ; [CPU_FPU] |385| 
         0000003b E000 
    1257 0000003c 7700          NOP       ; [CPU_ALU] 
    1258 0000003d E812          CMPF32    R0H,#17530            ; [CPU_FPU] |385| 
         0000003e 23D0 
    1259 0000003f E203-         MOV32     @_cntr1,R0H           ; [CPU_FPU] |385| 
         00000040 001E 
    1260 00000041 AD14          MOVST0    ZF, NF                ; [CPU_FPU] |385| 
    1261 00000042 6509          B         $C$L3,LEQ             ; [CPU_ALU] |385| 
    1262                      ; branchcc occurs ; [] |385| 
    1263                      .dwpsn  file "../MonoMtrServo.c",line 387,column 3,is_stmt,isa 0
    1264 00000043 E590          ZERO      R0H                   ; [CPU_FPU] |387| 
    1265                      .dwpsn  file "../MonoMtrServo.c",line 388,column 3,is_stmt,isa 0
    1266 00000044 9205-         MOV       AL,@_ptrMax           ; [CPU_ALU] |388| 
    1267 00000045 0A06-         INC       @_ptr1                ; [CPU_ALU] |388| 
    1268                      .dwpsn  file "../MonoMtrServo.c",line 387,column 3,is_stmt,isa 0
    1269 00000046 E203-         MOV32     @_cntr1,R0H           ; [CPU_FPU] |387| 
         00000047 001E 
    1270                      .dwpsn  file "../MonoMtrServo.c",line 388,column 3,is_stmt,isa 0
    1271 00000048 5406-         CMP       AL,@_ptr1             ; [CPU_ALU] |388| 
    1272 00000049 6202          B         $C$L3,GT              ; [CPU_ALU] |388| 
    1273                      ; branchcc occurs ; [] |388| 
    1274                      .dwpsn  file "../MonoMtrServo.c",line 389,column 4,is_stmt,isa 0
    1275 0000004a 2B06-         MOV       @_ptr1,#0             ; [CPU_ALU] |389| 
    1276 0000004b       $C$L3:    
    1277 0000004b FE82          SUBB      SP,#2                 ; [CPU_ARAU] 
    1278                      .dwcfi  cfa_offset, -4
    1279                      .dwpsn  file "../MonoMtrServo.c",line 391,column 2,is_stmt,isa 0
    1280 0000004c E6CF          MOV32     R0H,R1H               ; [CPU_FPU] |391| 
         0000004d 0008 
    1281 0000004e E2AF          MOV32     R4H,*--SP             ; [CPU_FPU] 
         0000004f 04BE 
    1282                      .dwcfi  cfa_offset, -2
    1283                      .dwcfi  restore_reg, 59
    1284              $C$DW$109       .dwtag  DW_TAG_TI_branch
    1285                      .dwattr $C$DW$109, DW_AT_low_pc(0x00)
    1286                      .dwattr $C$DW$109, DW_AT_TI_return
    1287              
    1288 00000050 0006          LRETR     ; [CPU_ALU] 
    1289                      ; return occurs ; [] 
    1290                      .dwattr $C$DW$104, DW_AT_TI_end_file("../MonoMtrServo.c")
    1291                      .dwattr $C$DW$104, DW_AT_TI_end_line(0x188)
TMS320C2000 Assembler PC v20.2.1 Sat Nov 14 13:32:33 2020

Copyright (c) 1996-2018 Texas Instruments Incorporated
MonoMtrServo.asm                                                     PAGE   28

    1292                      .dwattr $C$DW$104, DW_AT_TI_end_column(0x01)
    1293                      .dwendentry
    1294                      .dwendtag $C$DW$104
    1295              
    1296 00000051               .sect   ".text"
    1297                      .clink
    1298                      .global _ramper_speed
    1299              
    1300              $C$DW$110       .dwtag  DW_TAG_subprogram
    1301                      .dwattr $C$DW$110, DW_AT_name("ramper_speed")
    1302                      .dwattr $C$DW$110, DW_AT_low_pc(_ramper_speed)
    1303                      .dwattr $C$DW$110, DW_AT_high_pc(0x00)
    1304                      .dwattr $C$DW$110, DW_AT_TI_symbol_name("_ramper_speed")
    1305                      .dwattr $C$DW$110, DW_AT_external
    1306                      .dwattr $C$DW$110, DW_AT_type(*$C$DW$T$19)
    1307                      .dwattr $C$DW$110, DW_AT_TI_begin_file("../MonoMtrServo.c")
    1308                      .dwattr $C$DW$110, DW_AT_TI_begin_line(0x161)
    1309                      .dwattr $C$DW$110, DW_AT_TI_begin_column(0x05)
    1310                      .dwattr $C$DW$110, DW_AT_TI_max_frame_size(-6)
    1311                      .dwpsn  file "../MonoMtrServo.c",line 354,column 1,is_stmt,address _ramper_speed,isa 0
    1312              
    1313                      .dwfde $C$DW$CIE, _ramper_speed
    1314              $C$DW$111       .dwtag  DW_TAG_formal_parameter
    1315                      .dwattr $C$DW$111, DW_AT_name("in")
    1316                      .dwattr $C$DW$111, DW_AT_TI_symbol_name("_in")
    1317                      .dwattr $C$DW$111, DW_AT_type(*$C$DW$T$19)
    1318                      .dwattr $C$DW$111, DW_AT_location[DW_OP_regx 0x2b]
    1319              
    1320              $C$DW$112       .dwtag  DW_TAG_formal_parameter
    1321                      .dwattr $C$DW$112, DW_AT_name("out")
    1322                      .dwattr $C$DW$112, DW_AT_TI_symbol_name("_out")
    1323                      .dwattr $C$DW$112, DW_AT_type(*$C$DW$T$19)
    1324                      .dwattr $C$DW$112, DW_AT_location[DW_OP_regx 0x2f]
    1325              
    1326              $C$DW$113       .dwtag  DW_TAG_formal_parameter
    1327                      .dwattr $C$DW$113, DW_AT_name("rampDelta")
    1328                      .dwattr $C$DW$113, DW_AT_TI_symbol_name("_rampDelta")
    1329                      .dwattr $C$DW$113, DW_AT_type(*$C$DW$T$19)
    1330                      .dwattr $C$DW$113, DW_AT_location[DW_OP_regx 0x33]
    1331              
    1332              
    1333              ;***************************************************************
    1334              ;* FNAME: _ramper_speed                 FR SIZE:   4           *
    1335              ;*                                                             *
    1336              ;* FUNCTION ENVIRONMENT                                        *
    1337              ;*                                                             *
    1338              ;* FUNCTION PROPERTIES                                         *
    1339              ;*                            2 Parameter,  0 Auto,  2 SOE     *
    1340              ;***************************************************************
    1341              
    1342              _ramper_speed:
    1343              ;* R4    assigned to $O$C1
    1344              ;* R0    assigned to _in
    1345              $C$DW$114       .dwtag  DW_TAG_variable
    1346                      .dwattr $C$DW$114, DW_AT_name("in")
TMS320C2000 Assembler PC v20.2.1 Sat Nov 14 13:32:33 2020

Copyright (c) 1996-2018 Texas Instruments Incorporated
MonoMtrServo.asm                                                     PAGE   29

    1347                      .dwattr $C$DW$114, DW_AT_TI_symbol_name("_in")
    1348                      .dwattr $C$DW$114, DW_AT_type(*$C$DW$T$710)
    1349                      .dwattr $C$DW$114, DW_AT_location[DW_OP_regx 0x2b]
    1350              
    1351              ;* R1    assigned to _out
    1352              $C$DW$115       .dwtag  DW_TAG_variable
    1353                      .dwattr $C$DW$115, DW_AT_name("out")
    1354                      .dwattr $C$DW$115, DW_AT_TI_symbol_name("_out")
    1355                      .dwattr $C$DW$115, DW_AT_type(*$C$DW$T$710)
    1356                      .dwattr $C$DW$115, DW_AT_location[DW_OP_regx 0x2f]
    1357              
    1358              ;* R2    assigned to _rampDelta
    1359              $C$DW$116       .dwtag  DW_TAG_variable
    1360                      .dwattr $C$DW$116, DW_AT_name("rampDelta")
    1361                      .dwattr $C$DW$116, DW_AT_TI_symbol_name("_rampDelta")
    1362                      .dwattr $C$DW$116, DW_AT_type(*$C$DW$T$710)
    1363                      .dwattr $C$DW$116, DW_AT_location[DW_OP_regx 0x33]
    1364              
    1365                      .dwcfi  cfa_offset, -2
    1366                      .dwcfi  save_reg_to_mem, 26, 0
    1367 00000051 E203          MOV32     *SP++,R4H             ; [CPU_FPU] 
         00000052 04BD 
    1368                      .dwcfi  save_reg_to_mem, 59, 2
    1369                      .dwcfi  cfa_offset, -4
    1370 00000053 FE02          ADDB      SP,#2                 ; [CPU_ARAU] 
    1371                      .dwcfi  cfa_offset, -6
    1372                      .dwpsn  file "../MonoMtrServo.c",line 358,column 2,is_stmt,isa 0
    1373 00000054 E720          SUBF32    R4H,R0H,R1H           ; [CPU_FPU] |358| 
         00000055 0044 
    1374 00000056 7700          NOP       ; [CPU_ALU] 
    1375                      .dwpsn  file "../MonoMtrServo.c",line 361,column 4,is_stmt,isa 0
    1376 00000057 E694          CMPF32    R4H,R2H               ; [CPU_FPU] |361| 
         00000058 0014 
    1377 00000059 AD14          MOVST0    ZF, NF                ; [CPU_FPU] |361| 
    1378 0000005a 6507          B         $C$L4,LEQ             ; [CPU_ALU] |361| 
    1379                      ; branchcc occurs ; [] |361| 
    1380 0000005b E710          ADDF32    R0H,R2H,R1H           ; [CPU_FPU] |361| 
         0000005c 0050 
    1381 0000005d 7700          NOP       ; [CPU_ALU] 
    1382 0000005e E831          MINF32    R0H,#16256            ; [CPU_FPU] |361| 
         0000005f FC00 
    1383 00000060 6F0E          B         $C$L5,UNC             ; [CPU_ALU] |361| 
    1384                      ; branch occurs ; [] |361| 
    1385 00000061       $C$L4:    
    1386 00000061 E6CF          MOV32     R3H,R2H               ; [CPU_FPU] |361| 
         00000062 0013 
    1387 00000063 E6AF          NEGF32    R3H,R3H               ; [CPU_FPU] |361| 
         00000064 001B 
    1388 00000065 E694          CMPF32    R4H,R3H               ; [CPU_FPU] |361| 
         00000066 001C 
    1389 00000067 AD14          MOVST0    ZF, NF                ; [CPU_FPU] |361| 
    1390 00000068 6306          B         $C$L5,GEQ             ; [CPU_ALU] |361| 
    1391                      ; branchcc occurs ; [] |361| 
    1392 00000069 E720          SUBF32    R0H,R1H,R2H           ; [CPU_FPU] |361| 
         0000006a 0088 
TMS320C2000 Assembler PC v20.2.1 Sat Nov 14 13:32:33 2020

Copyright (c) 1996-2018 Texas Instruments Incorporated
MonoMtrServo.asm                                                     PAGE   30

    1393 0000006b 7700          NOP       ; [CPU_ALU] 
    1394 0000006c E820          MAXF32    R0H,#0                ; [CPU_FPU] |361| 
         0000006d 0000 
    1395 0000006e       $C$L5:    
    1396 0000006e FE82          SUBB      SP,#2                 ; [CPU_ARAU] 
    1397                      .dwcfi  cfa_offset, -4
    1398 0000006f E2AF          MOV32     R4H,*--SP             ; [CPU_FPU] 
         00000070 04BE 
    1399                      .dwcfi  cfa_offset, -2
    1400                      .dwcfi  restore_reg, 59
    1401              $C$DW$117       .dwtag  DW_TAG_TI_branch
    1402                      .dwattr $C$DW$117, DW_AT_low_pc(0x00)
    1403                      .dwattr $C$DW$117, DW_AT_TI_return
    1404              
    1405 00000071 0006          LRETR     ; [CPU_ALU] 
    1406                      ; return occurs ; [] 
    1407                      .dwattr $C$DW$110, DW_AT_TI_end_file("../MonoMtrServo.c")
    1408                      .dwattr $C$DW$110, DW_AT_TI_end_line(0x176)
    1409                      .dwattr $C$DW$110, DW_AT_TI_end_column(0x01)
    1410                      .dwendentry
    1411                      .dwendtag $C$DW$110
    1412              
    1413 00000072               .sect   ".text"
    1414                      .clink
    1415                      .global _PwmTripConfig
    1416              
    1417              $C$DW$118       .dwtag  DW_TAG_subprogram
    1418                      .dwattr $C$DW$118, DW_AT_name("PwmTripConfig")
    1419                      .dwattr $C$DW$118, DW_AT_low_pc(_PwmTripConfig)
    1420                      .dwattr $C$DW$118, DW_AT_high_pc(0x00)
    1421                      .dwattr $C$DW$118, DW_AT_TI_symbol_name("_PwmTripConfig")
    1422                      .dwattr $C$DW$118, DW_AT_external
    1423                      .dwattr $C$DW$118, DW_AT_TI_begin_file("../MonoMtrServo.c")
    1424                      .dwattr $C$DW$118, DW_AT_TI_begin_line(0x10e)
    1425                      .dwattr $C$DW$118, DW_AT_TI_begin_column(0x06)
    1426                      .dwattr $C$DW$118, DW_AT_TI_max_frame_size(-4)
    1427                      .dwpsn  file "../MonoMtrServo.c",line 271,column 1,is_stmt,address _PwmTripConfig,isa 0
    1428              
    1429                      .dwfde $C$DW$CIE, _PwmTripConfig
    1430              $C$DW$119       .dwtag  DW_TAG_formal_parameter
    1431                      .dwattr $C$DW$119, DW_AT_name("PwmRegs")
    1432                      .dwattr $C$DW$119, DW_AT_TI_symbol_name("_PwmRegs")
    1433                      .dwattr $C$DW$119, DW_AT_type(*$C$DW$T$60)
    1434                      .dwattr $C$DW$119, DW_AT_location[DW_OP_reg12]
    1435              
    1436              $C$DW$120       .dwtag  DW_TAG_formal_parameter
    1437                      .dwattr $C$DW$120, DW_AT_name("TripNum")
    1438                      .dwattr $C$DW$120, DW_AT_TI_symbol_name("_TripNum")
    1439                      .dwattr $C$DW$120, DW_AT_type(*$C$DW$T$31)
    1440                      .dwattr $C$DW$120, DW_AT_location[DW_OP_reg0]
    1441              
    1442              
    1443              ;***************************************************************
    1444              ;* FNAME: _PwmTripConfig                FR SIZE:   2           *
    1445              ;*                                                             *
TMS320C2000 Assembler PC v20.2.1 Sat Nov 14 13:32:33 2020

Copyright (c) 1996-2018 Texas Instruments Incorporated
MonoMtrServo.asm                                                     PAGE   31

    1446              ;* FUNCTION ENVIRONMENT                                        *
    1447              ;*                                                             *
    1448              ;* FUNCTION PROPERTIES                                         *
    1449              ;*                            0 Parameter,  0 Auto,  2 SOE     *
    1450              ;***************************************************************
    1451              
    1452              _PwmTripConfig:
    1453              ;* AR4   assigned to _PwmRegs
    1454              $C$DW$121       .dwtag  DW_TAG_variable
    1455                      .dwattr $C$DW$121, DW_AT_name("PwmRegs")
    1456                      .dwattr $C$DW$121, DW_AT_TI_symbol_name("_PwmRegs")
    1457                      .dwattr $C$DW$121, DW_AT_type(*$C$DW$T$649)
    1458                      .dwattr $C$DW$121, DW_AT_location[DW_OP_reg12]
    1459              
    1460                      .dwcfi  cfa_offset, -2
    1461                      .dwcfi  save_reg_to_mem, 26, 0
    1462 00000072 B2BD          MOVL      *SP++,XAR1            ; [CPU_ALU] 
    1463                      .dwcfi  save_reg_to_mem, 7, 2
    1464                      .dwcfi  cfa_offset, -4
    1465 00000073 7622   EALLOW
    1466                      .dwpsn  file "../MonoMtrServo.c",line 274,column 2,is_stmt,isa 0
    1467 00000074 D0C0          MOVB      XAR0,#192             ; [CPU_ALU] |274| 
    1468 00000075 900F          ANDB      AL,#15                ; [CPU_ALU] |274| 
    1469 00000076 D1C0          MOVB      XAR1,#192             ; [CPU_ALU] |274| 
    1470 00000077 CD94          AND       AH,*+XAR4[AR0],#0xfff0 ; [CPU_FPU] |274| 
         00000078 FFF0 
    1471                      .dwpsn  file "../MonoMtrServo.c",line 275,column 2,is_stmt,isa 0
    1472 00000079 D082          MOVB      XAR0,#130             ; [CPU_FPU] |275| 
    1473                      .dwpsn  file "../MonoMtrServo.c",line 274,column 2,is_stmt,isa 0
    1474 0000007a CAA8          OR        AL,AH                 ; [CPU_ALU] |274| 
    1475 0000007b 969C          MOV       *+XAR4[AR1],AL        ; [CPU_ALU] |274| 
    1476                      .dwpsn  file "../MonoMtrServo.c",line 275,column 2,is_stmt,isa 0
    1477 0000007c CC94          AND       AL,*+XAR4[AR0],#0xfff8 ; [CPU_ALU] |275| 
         0000007d FFF8 
    1478 0000007e D082          MOVB      XAR0,#130             ; [CPU_ALU] |275| 
    1479 0000007f 5002          ORB       AL,#0x02              ; [CPU_ALU] |275| 
    1480 00000080 9694          MOV       *+XAR4[AR0],AL        ; [CPU_ALU] |275| 
    1481                      .dwpsn  file "../MonoMtrServo.c",line 276,column 2,is_stmt,isa 0
    1482 00000081 A8A9          MOVL      ACC,XAR4              ; [CPU_ALU] |276| 
    1483 00000082 09C3          ADDB      ACC,#195              ; [CPU_ALU] |276| 
    1484 00000083 8BA9          MOVL      XAR1,ACC              ; [CPU_ALU] |276| 
    1485                      .dwpsn  file "../MonoMtrServo.c",line 277,column 2,is_stmt,isa 0
    1486 00000084 A8A9          MOVL      ACC,XAR4              ; [CPU_ALU] |277| 
    1487 00000085 09C3          ADDB      ACC,#195              ; [CPU_ALU] |277| 
    1488 00000086 1EA7          MOVL      XAR7,ACC              ; [CPU_ALU] |277| 
    1489                      .dwpsn  file "../MonoMtrServo.c",line 276,column 2,is_stmt,isa 0
    1490 00000087 18C1          AND       *+XAR1[0],#0xfffe     ; [CPU_ALU] |276| 
         00000088 FFFE 
    1491                      .dwpsn  file "../MonoMtrServo.c",line 278,column 2,is_stmt,isa 0
    1492 00000089 A8A9          MOVL      ACC,XAR4              ; [CPU_ALU] |278| 
    1493 0000008a 0980          ADDB      ACC,#128              ; [CPU_ALU] |278| 
    1494 0000008b 1EA6          MOVL      XAR6,ACC              ; [CPU_ALU] |278| 
    1495                      .dwpsn  file "../MonoMtrServo.c",line 277,column 2,is_stmt,isa 0
    1496 0000008c 1AC7          OR        *+XAR7[0],#0x0002     ; [CPU_ALU] |277| 
         0000008d 0002 
TMS320C2000 Assembler PC v20.2.1 Sat Nov 14 13:32:33 2020

Copyright (c) 1996-2018 Texas Instruments Incorporated
MonoMtrServo.asm                                                     PAGE   32

    1497                      .dwpsn  file "../MonoMtrServo.c",line 279,column 2,is_stmt,isa 0
    1498 0000008e A8A9          MOVL      ACC,XAR4              ; [CPU_ALU] |279| 
    1499 0000008f 0980          ADDB      ACC,#128              ; [CPU_ALU] |279| 
    1500 00000090 83A9          MOVL      XAR5,ACC              ; [CPU_ALU] |279| 
    1501                      .dwpsn  file "../MonoMtrServo.c",line 280,column 2,is_stmt,isa 0
    1502 00000091 D084          MOVB      XAR0,#132             ; [CPU_ALU] |280| 
    1503 00000092 D184          MOVB      XAR1,#132             ; [CPU_ALU] |280| 
    1504                      .dwpsn  file "../MonoMtrServo.c",line 278,column 2,is_stmt,isa 0
    1505 00000093 1AC6          OR        *+XAR6[0],#0x4000     ; [CPU_ALU] |278| 
         00000094 4000 
    1506                      .dwpsn  file "../MonoMtrServo.c",line 279,column 2,is_stmt,isa 0
    1507 00000095 1AC5          OR        *+XAR5[0],#0x0020     ; [CPU_ALU] |279| 
         00000096 0020 
    1508                      .dwpsn  file "../MonoMtrServo.c",line 280,column 2,is_stmt,isa 0
    1509 00000097 CC94          AND       AL,*+XAR4[AR0],#0xfffe ; [CPU_ALU] |280| 
         00000098 FFFE 
    1510 00000099 5002          ORB       AL,#0x02              ; [CPU_ALU] |280| 
    1511                      .dwpsn  file "../MonoMtrServo.c",line 281,column 2,is_stmt,isa 0
    1512 0000009a D084          MOVB      XAR0,#132             ; [CPU_ALU] |281| 
    1513                      .dwpsn  file "../MonoMtrServo.c",line 280,column 2,is_stmt,isa 0
    1514 0000009b 969C          MOV       *+XAR4[AR1],AL        ; [CPU_ALU] |280| 
    1515                      .dwpsn  file "../MonoMtrServo.c",line 281,column 2,is_stmt,isa 0
    1516 0000009c CC94          AND       AL,*+XAR4[AR0],#0xfffb ; [CPU_ALU] |281| 
         0000009d FFFB 
    1517 0000009e D084          MOVB      XAR0,#132             ; [CPU_ALU] |281| 
    1518 0000009f 5008          ORB       AL,#0x08              ; [CPU_ALU] |281| 
    1519 000000a0 9694          MOV       *+XAR4[AR0],AL        ; [CPU_ALU] |281| 
    1520                      .dwpsn  file "../MonoMtrServo.c",line 282,column 2,is_stmt,isa 0
    1521 000000a1 A8A9          MOVL      ACC,XAR4              ; [CPU_ALU] |282| 
    1522 000000a2 0997          ADDB      ACC,#151              ; [CPU_ALU] |282| 
    1523 000000a3 83A9          MOVL      XAR5,ACC              ; [CPU_ALU] |282| 
    1524                      .dwpsn  file "../MonoMtrServo.c",line 283,column 2,is_stmt,isa 0
    1525 000000a4 A8A9          MOVL      ACC,XAR4              ; [CPU_ALU] |283| 
    1526 000000a5 0997          ADDB      ACC,#151              ; [CPU_ALU] |283| 
    1527 000000a6 8AA9          MOVL      XAR4,ACC              ; [CPU_ALU] |283| 
    1528                      .dwpsn  file "../MonoMtrServo.c",line 282,column 2,is_stmt,isa 0
    1529 000000a7 1AC5          OR        *+XAR5[0],#0x0008     ; [CPU_ALU] |282| 
         000000a8 0008 
    1530                      .dwpsn  file "../MonoMtrServo.c",line 283,column 2,is_stmt,isa 0
    1531 000000a9 1AC4          OR        *+XAR4[0],#0x0004     ; [CPU_ALU] |283| 
         000000aa 0004 
    1532 000000ab 761A   EDIS
    1533 000000ac FF69          SPM       #0                    ; [CPU_ALU] 
    1534 000000ad 8BBE          MOVL      XAR1,*--SP            ; [CPU_ALU] 
    1535                      .dwcfi  cfa_offset, -2
    1536                      .dwcfi  restore_reg, 7
    1537              $C$DW$122       .dwtag  DW_TAG_TI_branch
    1538                      .dwattr $C$DW$122, DW_AT_low_pc(0x00)
    1539                      .dwattr $C$DW$122, DW_AT_TI_return
    1540              
    1541 000000ae 0006          LRETR     ; [CPU_ALU] 
    1542                      ; return occurs ; [] 
    1543                      .dwattr $C$DW$118, DW_AT_TI_end_file("../MonoMtrServo.c")
    1544                      .dwattr $C$DW$118, DW_AT_TI_end_line(0x11e)
    1545                      .dwattr $C$DW$118, DW_AT_TI_end_column(0x01)
TMS320C2000 Assembler PC v20.2.1 Sat Nov 14 13:32:33 2020

Copyright (c) 1996-2018 Texas Instruments Incorporated
MonoMtrServo.asm                                                     PAGE   33

    1546                      .dwendentry
    1547                      .dwendtag $C$DW$118
    1548              
    1549 000000af               .sect   ".text"
    1550                      .clink
    1551                      .global _DMC1_Protection
    1552              
    1553              $C$DW$123       .dwtag  DW_TAG_subprogram
    1554                      .dwattr $C$DW$123, DW_AT_name("DMC1_Protection")
    1555                      .dwattr $C$DW$123, DW_AT_low_pc(_DMC1_Protection)
    1556                      .dwattr $C$DW$123, DW_AT_high_pc(0x00)
    1557                      .dwattr $C$DW$123, DW_AT_TI_symbol_name("_DMC1_Protection")
    1558                      .dwattr $C$DW$123, DW_AT_external
    1559                      .dwattr $C$DW$123, DW_AT_TI_begin_file("../MonoMtrServo.c")
    1560                      .dwattr $C$DW$123, DW_AT_TI_begin_line(0x121)
    1561                      .dwattr $C$DW$123, DW_AT_TI_begin_column(0x06)
    1562                      .dwattr $C$DW$123, DW_AT_TI_max_frame_size(-2)
    1563                      .dwpsn  file "../MonoMtrServo.c",line 290,column 1,is_stmt,address _DMC1_Protection,isa 0
    1564              
    1565                      .dwfde $C$DW$CIE, _DMC1_Protection
    1566              
    1567              ;***************************************************************
    1568              ;* FNAME: _DMC1_Protection              FR SIZE:   0           *
    1569              ;*                                                             *
    1570              ;* FUNCTION ENVIRONMENT                                        *
    1571              ;*                                                             *
    1572              ;* FUNCTION PROPERTIES                                         *
    1573              ;*                            0 Parameter,  0 Auto,  0 SOE     *
    1574              ;***************************************************************
    1575              
    1576 000000af       _DMC1_Protection:
    1577              ;* AR5   assigned to $O$C1
    1578                      .dwcfi  cfa_offset, -2
    1579                      .dwcfi  save_reg_to_mem, 26, 0
    1580                      .dwpsn  file "../MonoMtrServo.c",line 300,column 2,is_stmt,isa 0
    1581 000000af 9A5A          MOVB      AL,#90                ; [CPU_ALU] |300| 
    1582 000000b0 D402          MOVB      XAR4,#2               ; [CPU_ALU] |300| 
    1583 000000b1 9B00          MOVB      AH,#0                 ; [CPU_ALU] |300| 
    1584              $C$DW$124       .dwtag  DW_TAG_TI_branch
    1585                      .dwattr $C$DW$124, DW_AT_low_pc(0x00)
    1586                      .dwattr $C$DW$124, DW_AT_name("_GPIO_SetupPinOptions")
    1587                      .dwattr $C$DW$124, DW_AT_TI_call
    1588              
    1589 000000b2 7640!         LCR       #_GPIO_SetupPinOptions ; [CPU_ALU] |300| 
         000000b3 0000 
    1590                      ; call occurs [#_GPIO_SetupPinOptions] ; [] |300| 
    1591                      .dwpsn  file "../MonoMtrServo.c",line 301,column 2,is_stmt,isa 0
    1592 000000b4 9A5A          MOVB      AL,#90                ; [CPU_ALU] |301| 
    1593 000000b5 D400          MOVB      XAR4,#0               ; [CPU_ALU] |301| 
    1594 000000b6 9B00          MOVB      AH,#0                 ; [CPU_ALU] |301| 
    1595              $C$DW$125       .dwtag  DW_TAG_TI_branch
    1596                      .dwattr $C$DW$125, DW_AT_low_pc(0x00)
    1597                      .dwattr $C$DW$125, DW_AT_name("_GPIO_SetupPinMux")
    1598                      .dwattr $C$DW$125, DW_AT_TI_call
    1599              
TMS320C2000 Assembler PC v20.2.1 Sat Nov 14 13:32:33 2020

Copyright (c) 1996-2018 Texas Instruments Incorporated
MonoMtrServo.asm                                                     PAGE   34

    1600 000000b7 7640!         LCR       #_GPIO_SetupPinMux    ; [CPU_ALU] |301| 
         000000b8 0000 
    1601                      ; call occurs [#_GPIO_SetupPinMux] ; [] |301| 
    1602 000000b9 7622   EALLOW
    1603 000000ba 761F!         MOVW      DP,#_EPwmXbarRegs     ; [CPU_ARAU] 
         000000bb 0000 
    1604                      .dwpsn  file "../MonoMtrServo.c",line 313,column 2,is_stmt,isa 0
    1605 000000bc 8F40!         MOVL      XAR5,#_EPwmXbarRegs   ; [CPU_ARAU] |313| 
         000000bd 0000 
    1606                      .dwpsn  file "../MonoMtrServo.c",line 307,column 2,is_stmt,isa 0
    1607 000000be B600          MOVB      XAR7,#0               ; [CPU_ALU] |307| 
    1608                      .dwpsn  file "../MonoMtrServo.c",line 308,column 2,is_stmt,isa 0
    1609 000000bf BE00          MOVB      XAR6,#0               ; [CPU_ALU] |308| 
    1610                      .dwpsn  file "../MonoMtrServo.c",line 314,column 2,is_stmt,isa 0
    1611 000000c0 8AA5          MOVL      XAR4,XAR5             ; [CPU_ALU] |314| 
    1612                      .dwpsn  file "../MonoMtrServo.c",line 309,column 2,is_stmt,isa 0
    1613 000000c1 0200          MOVB      ACC,#0                ; [CPU_ALU] |309| 
    1614                      .dwpsn  file "../MonoMtrServo.c",line 307,column 2,is_stmt,isa 0
    1615 000000c2 C300!         MOVL      @$BLOCKED(_EPwmXbarRegs),XAR7 ; [CPU_ALU] |307| 
    1616                      .dwpsn  file "../MonoMtrServo.c",line 308,column 2,is_stmt,isa 0
    1617 000000c3 C202!         MOVL      @$BLOCKED(_EPwmXbarRegs)+2,XAR6 ; [CPU_ALU] |308| 
    1618                      .dwpsn  file "../MonoMtrServo.c",line 314,column 2,is_stmt,isa 0
    1619 000000c4 DC20          ADDB      XAR4,#32              ; [CPU_ALU] |314| 
    1620                      .dwpsn  file "../MonoMtrServo.c",line 309,column 2,is_stmt,isa 0
    1621 000000c5 1E20!         MOVL      @$BLOCKED(_EPwmXbarRegs)+32,ACC ; [CPU_FPU] |309| 
    1622 000000c6 761F!         MOVW      DP,#_InputXbarRegs    ; [CPU_ARAU] 
         000000c7 0000 
    1623                      .dwpsn  file "../MonoMtrServo.c",line 312,column 2,is_stmt,isa 0
    1624 000000c8 56BF!         MOVB      @$BLOCKED(_InputXbarRegs),#90,UNC ; [CPU_FPU] |312| 
         000000c9 5A00 
    1625                      .dwpsn  file "../MonoMtrServo.c",line 313,column 2,is_stmt,isa 0
    1626 000000ca CCC5          AND       AL,*+XAR5[0],#0xfff7  ; [CPU_FPU] |313| 
         000000cb FFF7 
    1627 000000cc 5004          ORB       AL,#0x04              ; [CPU_ALU] |313| 
    1628 000000cd 96C5          MOV       *+XAR5[0],AL          ; [CPU_FPU] |313| 
    1629                      .dwpsn  file "../MonoMtrServo.c",line 314,column 2,is_stmt,isa 0
    1630 000000ce 1AC4          OR        *+XAR4[0],#0x0002     ; [CPU_ALU] |314| 
         000000cf 0002 
    1631 000000d0 761A   EDIS
    1632 000000d1 761F-         MOVW      DP,#_motor1           ; [CPU_ARAU] 
         000000d2 0002 
    1633 000000d3 FF69          SPM       #0                    ; [CPU_ALU] 
    1634                      .dwpsn  file "../MonoMtrServo.c",line 324,column 2,is_stmt,isa 0
    1635 000000d4 9A03          MOVB      AL,#3                 ; [CPU_ALU] |324| 
    1636 000000d5 8A00!         MOVL      XAR4,@$BLOCKED(_motor1) ; [CPU_ALU] |324| 
    1637              $C$DW$126       .dwtag  DW_TAG_TI_branch
    1638                      .dwattr $C$DW$126, DW_AT_low_pc(0x00)
    1639                      .dwattr $C$DW$126, DW_AT_name("_PwmTripConfig")
    1640                      .dwattr $C$DW$126, DW_AT_TI_call
    1641              
    1642 000000d6 7640'         LCR       #_PwmTripConfig       ; [CPU_ALU] |324| 
         000000d7 0072 
    1643                      ; call occurs [#_PwmTripConfig] ; [] |324| 
    1644                      .dwpsn  file "../MonoMtrServo.c",line 325,column 2,is_stmt,isa 0
    1645 000000d8 9A03          MOVB      AL,#3                 ; [CPU_ALU] |325| 
TMS320C2000 Assembler PC v20.2.1 Sat Nov 14 13:32:33 2020

Copyright (c) 1996-2018 Texas Instruments Incorporated
MonoMtrServo.asm                                                     PAGE   35

    1646 000000d9 8A02!         MOVL      XAR4,@$BLOCKED(_motor1)+2 ; [CPU_ALU] |325| 
    1647              $C$DW$127       .dwtag  DW_TAG_TI_branch
    1648                      .dwattr $C$DW$127, DW_AT_low_pc(0x00)
    1649                      .dwattr $C$DW$127, DW_AT_name("_PwmTripConfig")
    1650                      .dwattr $C$DW$127, DW_AT_TI_call
    1651              
    1652 000000da 7640'         LCR       #_PwmTripConfig       ; [CPU_ALU] |325| 
         000000db 0072 
    1653                      ; call occurs [#_PwmTripConfig] ; [] |325| 
    1654                      .dwpsn  file "../MonoMtrServo.c",line 326,column 2,is_stmt,isa 0
    1655 000000dc 9A03          MOVB      AL,#3                 ; [CPU_ALU] |326| 
    1656 000000dd 8A04!         MOVL      XAR4,@$BLOCKED(_motor1)+4 ; [CPU_ALU] |326| 
    1657              $C$DW$128       .dwtag  DW_TAG_TI_branch
    1658                      .dwattr $C$DW$128, DW_AT_low_pc(0x00)
    1659                      .dwattr $C$DW$128, DW_AT_name("_PwmTripConfig")
    1660                      .dwattr $C$DW$128, DW_AT_TI_call
    1661              
    1662 000000de 7640'         LCR       #_PwmTripConfig       ; [CPU_ALU] |326| 
         000000df 0072 
    1663                      ; call occurs [#_PwmTripConfig] ; [] |326| 
    1664              $C$DW$129       .dwtag  DW_TAG_TI_branch
    1665                      .dwattr $C$DW$129, DW_AT_low_pc(0x00)
    1666                      .dwattr $C$DW$129, DW_AT_TI_return
    1667              
    1668 000000e0 0006          LRETR     ; [CPU_ALU] 
    1669                      ; return occurs ; [] 
    1670                      .dwattr $C$DW$123, DW_AT_TI_end_file("../MonoMtrServo.c")
    1671                      .dwattr $C$DW$123, DW_AT_TI_end_line(0x149)
    1672                      .dwattr $C$DW$123, DW_AT_TI_end_column(0x01)
    1673                      .dwendentry
    1674                      .dwendtag $C$DW$123
    1675              
    1676 000000e1               .sect   ".text"
    1677                      .clink
    1678                      .global _GPIO_TogglePin
    1679              
    1680              $C$DW$130       .dwtag  DW_TAG_subprogram
    1681                      .dwattr $C$DW$130, DW_AT_name("GPIO_TogglePin")
    1682                      .dwattr $C$DW$130, DW_AT_low_pc(_GPIO_TogglePin)
    1683                      .dwattr $C$DW$130, DW_AT_high_pc(0x00)
    1684                      .dwattr $C$DW$130, DW_AT_TI_symbol_name("_GPIO_TogglePin")
    1685                      .dwattr $C$DW$130, DW_AT_external
    1686                      .dwattr $C$DW$130, DW_AT_TI_begin_file("../MonoMtrServo.c")
    1687                      .dwattr $C$DW$130, DW_AT_TI_begin_line(0x18c)
    1688                      .dwattr $C$DW$130, DW_AT_TI_begin_column(0x06)
    1689                      .dwattr $C$DW$130, DW_AT_TI_max_frame_size(-2)
    1690                      .dwpsn  file "../MonoMtrServo.c",line 397,column 1,is_stmt,address _GPIO_TogglePin,isa 0
    1691              
    1692                      .dwfde $C$DW$CIE, _GPIO_TogglePin
    1693              $C$DW$131       .dwtag  DW_TAG_formal_parameter
    1694                      .dwattr $C$DW$131, DW_AT_name("pin")
    1695                      .dwattr $C$DW$131, DW_AT_TI_symbol_name("_pin")
    1696                      .dwattr $C$DW$131, DW_AT_type(*$C$DW$T$31)
    1697                      .dwattr $C$DW$131, DW_AT_location[DW_OP_reg0]
    1698              
TMS320C2000 Assembler PC v20.2.1 Sat Nov 14 13:32:33 2020

Copyright (c) 1996-2018 Texas Instruments Incorporated
MonoMtrServo.asm                                                     PAGE   36

    1699              
    1700              ;***************************************************************
    1701              ;* FNAME: _GPIO_TogglePin               FR SIZE:   0           *
    1702              ;*                                                             *
    1703              ;* FUNCTION ENVIRONMENT                                        *
    1704              ;*                                                             *
    1705              ;* FUNCTION PROPERTIES                                         *
    1706              ;*                            0 Parameter,  0 Auto,  0 SOE     *
    1707              ;***************************************************************
    1708              
    1709              _GPIO_TogglePin:
    1710              ;* T     assigned to _pin
    1711              $C$DW$132       .dwtag  DW_TAG_variable
    1712                      .dwattr $C$DW$132, DW_AT_name("pin")
    1713                      .dwattr $C$DW$132, DW_AT_TI_symbol_name("_pin")
    1714                      .dwattr $C$DW$132, DW_AT_type(*$C$DW$T$689)
    1715                      .dwattr $C$DW$132, DW_AT_location[DW_OP_reg22]
    1716              
    1717                      .dwcfi  cfa_offset, -2
    1718                      .dwcfi  save_reg_to_mem, 26, 0
    1719 000000e1 2DA9          MOV       T,AL                  ; [CPU_ALU] |397| 
    1720                      .dwpsn  file "../MonoMtrServo.c",line 404,column 2,is_stmt,isa 0
    1721 000000e2 93AC          MOV       AH,T                  ; [CPU_ALU] |404| 
    1722 000000e3 2901          CLRC      SXM                   ; [CPU_ALU] 
    1723 000000e4 8F00!         MOVL      XAR4,#_GpioDataRegs+6 ; [CPU_ARAU] |404| 
         000000e5 0006 
    1724 000000e6 FFD4          LSR       AH,5                  ; [CPU_ALU] |404| 
    1725 000000e7 FF91          LSL       AH,2                  ; [CPU_ALU] |404| 
    1726 000000e8 5603          MOV       ACC,AH << 1           ; [CPU_ALU] |404| 
         000000e9 01A8 
    1727 000000ea 5601          ADDL      XAR4,ACC              ; [CPU_ALU] |404| 
         000000eb 00A4 
    1728 000000ec 0201          MOVB      ACC,#1                ; [CPU_FPU] |404| 
    1729 000000ed 1EA6          MOVL      XAR6,ACC              ; [CPU_ALU] |404| 
    1730 000000ee CCAC          AND       AL,T,#0x001f          ; [CPU_ALU] |404| 
         000000ef 001F 
    1731 000000f0 2DA9          MOV       T,AL                  ; [CPU_ALU] |404| 
    1732 000000f1 06A6          MOVL      ACC,XAR6              ; [CPU_ALU] |404| 
    1733 000000f2 563B          LSLL      ACC,T                 ; [CPU_ALU] |404| 
    1734 000000f3 1EC4          MOVL      *+XAR4[0],ACC         ; [CPU_ALU] |404| 
    1735              $C$DW$133       .dwtag  DW_TAG_TI_branch
    1736                      .dwattr $C$DW$133, DW_AT_low_pc(0x00)
    1737                      .dwattr $C$DW$133, DW_AT_TI_return
    1738              
    1739 000000f4 0006          LRETR     ; [CPU_ALU] 
    1740                      ; return occurs ; [] 
    1741                      .dwattr $C$DW$130, DW_AT_TI_end_file("../MonoMtrServo.c")
    1742                      .dwattr $C$DW$130, DW_AT_TI_end_line(0x197)
    1743                      .dwattr $C$DW$130, DW_AT_TI_end_column(0x01)
    1744                      .dwendentry
    1745                      .dwendtag $C$DW$130
    1746              
    1747 000000f5               .sect   ".text"
    1748                      .clink
    1749                      .global _C3
TMS320C2000 Assembler PC v20.2.1 Sat Nov 14 13:32:33 2020

Copyright (c) 1996-2018 Texas Instruments Incorporated
MonoMtrServo.asm                                                     PAGE   37

    1750              
    1751              $C$DW$134       .dwtag  DW_TAG_subprogram
    1752                      .dwattr $C$DW$134, DW_AT_name("C3")
    1753                      .dwattr $C$DW$134, DW_AT_low_pc(_C3)
    1754                      .dwattr $C$DW$134, DW_AT_high_pc(0x00)
    1755                      .dwattr $C$DW$134, DW_AT_TI_symbol_name("_C3")
    1756                      .dwattr $C$DW$134, DW_AT_external
    1757                      .dwattr $C$DW$134, DW_AT_TI_begin_file("../MonoMtrServo.c")
    1758                      .dwattr $C$DW$134, DW_AT_TI_begin_line(0x43f)
    1759                      .dwattr $C$DW$134, DW_AT_TI_begin_column(0x06)
    1760                      .dwattr $C$DW$134, DW_AT_TI_max_frame_size(-2)
    1761                      .dwpsn  file "../MonoMtrServo.c",line 1089,column 1,is_stmt,address _C3,isa 0
    1762              
    1763                      .dwfde $C$DW$CIE, _C3
    1764              $C$DW$135       .dwtag  DW_TAG_variable
    1765                      .dwattr $C$DW$135, DW_AT_name("i")
    1766                      .dwattr $C$DW$135, DW_AT_TI_symbol_name("_i$1")
    1767                      .dwattr $C$DW$135, DW_AT_type(*$C$DW$T$31)
    1768                      .dwattr $C$DW$135, DW_AT_location[DW_OP_addr _i$1]
    1769              
    1770              
    1771              ;***************************************************************
    1772              ;* FNAME: _C3                           FR SIZE:   0           *
    1773              ;*                                                             *
    1774              ;* FUNCTION ENVIRONMENT                                        *
    1775              ;*                                                             *
    1776              ;* FUNCTION PROPERTIES                                         *
    1777              ;*                            0 Parameter,  0 Auto,  0 SOE     *
    1778              ;***************************************************************
    1779              
    1780 000000f5       _C3:
    1781                      .dwcfi  cfa_offset, -2
    1782                      .dwcfi  save_reg_to_mem, 26, 0
    1783 000000f5 761F-         MOVW      DP,#_LedCnt           ; [CPU_ARAU] 
         000000f6 0000 
    1784                      .dwpsn  file "../MonoMtrServo.c",line 1093,column 2,is_stmt,isa 0
    1785 000000f7 9203-         MOV       AL,@_LedCnt           ; [CPU_ALU] |1093| 
    1786 000000f8 0A08-         INC       @_i$1                 ; [CPU_ALU] |1093| 
    1787 000000f9 5408-         CMP       AL,@_i$1              ; [CPU_ALU] |1093| 
    1788 000000fa 6605          B         $C$L6,HI              ; [CPU_ALU] |1093| 
    1789                      ; branchcc occurs ; [] |1093| 
    1790                      .dwpsn  file "../MonoMtrServo.c",line 1095,column 3,is_stmt,isa 0
    1791 000000fb 2B08-         MOV       @_i$1,#0              ; [CPU_ALU] |1095| 
    1792                      .dwpsn  file "../MonoMtrServo.c",line 1096,column 3,is_stmt,isa 0
    1793 000000fc 9A0D          MOVB      AL,#13                ; [CPU_ALU] |1096| 
    1794              $C$DW$136       .dwtag  DW_TAG_TI_branch
    1795                      .dwattr $C$DW$136, DW_AT_low_pc(0x00)
    1796                      .dwattr $C$DW$136, DW_AT_name("_GPIO_TogglePin")
    1797                      .dwattr $C$DW$136, DW_AT_TI_call
    1798              
    1799 000000fd 7640'         LCR       #_GPIO_TogglePin      ; [CPU_ALU] |1096| 
         000000fe 00E1 
    1800                      ; call occurs [#_GPIO_TogglePin] ; [] |1096| 
    1801 000000ff       $C$L6:    
    1802                      .dwpsn  file "../MonoMtrServo.c",line 1101,column 2,is_stmt,isa 0
TMS320C2000 Assembler PC v20.2.1 Sat Nov 14 13:32:33 2020

Copyright (c) 1996-2018 Texas Instruments Incorporated
MonoMtrServo.asm                                                     PAGE   38

    1803 000000ff 8F00'         MOVL      XAR4,#_C1             ; [CPU_ARAU] |1101| 
         00000100 0125 
    1804 00000101 A810-         MOVL      @_C_Task_Ptr,XAR4     ; [CPU_ALU] |1101| 
    1805              $C$DW$137       .dwtag  DW_TAG_TI_branch
    1806                      .dwattr $C$DW$137, DW_AT_low_pc(0x00)
    1807                      .dwattr $C$DW$137, DW_AT_TI_return
    1808              
    1809 00000102 0006          LRETR     ; [CPU_ALU] 
    1810                      ; return occurs ; [] 
    1811                      .dwattr $C$DW$134, DW_AT_TI_end_file("../MonoMtrServo.c")
    1812                      .dwattr $C$DW$134, DW_AT_TI_end_line(0x44f)
    1813                      .dwattr $C$DW$134, DW_AT_TI_end_column(0x01)
    1814                      .dwendentry
    1815                      .dwendtag $C$DW$134
    1816              
    1817 00000103               .sect   ".text"
    1818                      .clink
    1819                      .global _C2
    1820              
    1821              $C$DW$138       .dwtag  DW_TAG_subprogram
    1822                      .dwattr $C$DW$138, DW_AT_name("C2")
    1823                      .dwattr $C$DW$138, DW_AT_low_pc(_C2)
    1824                      .dwattr $C$DW$138, DW_AT_high_pc(0x00)
    1825                      .dwattr $C$DW$138, DW_AT_TI_symbol_name("_C2")
    1826                      .dwattr $C$DW$138, DW_AT_external
    1827                      .dwattr $C$DW$138, DW_AT_TI_begin_file("../MonoMtrServo.c")
    1828                      .dwattr $C$DW$138, DW_AT_TI_begin_line(0x42e)
    1829                      .dwattr $C$DW$138, DW_AT_TI_begin_column(0x06)
    1830                      .dwattr $C$DW$138, DW_AT_TI_max_frame_size(-2)
    1831                      .dwpsn  file "../MonoMtrServo.c",line 1072,column 1,is_stmt,address _C2,isa 0
    1832              
    1833                      .dwfde $C$DW$CIE, _C2
    1834              
    1835              ;***************************************************************
    1836              ;* FNAME: _C2                           FR SIZE:   0           *
    1837              ;*                                                             *
    1838              ;* FUNCTION ENVIRONMENT                                        *
    1839              ;*                                                             *
    1840              ;* FUNCTION PROPERTIES                                         *
    1841              ;*                            0 Parameter,  0 Auto,  0 SOE     *
    1842              ;***************************************************************
    1843              
    1844 00000103       _C2:
    1845                      .dwcfi  cfa_offset, -2
    1846                      .dwcfi  save_reg_to_mem, 26, 0
    1847                      .dwpsn  file "../MonoMtrServo.c",line 1076,column 2,is_stmt,isa 0
    1848 00000103 8F00-         MOVL      XAR4,#_motor1         ; [CPU_ARAU] |1076| 
         00000104 0080 
    1849              $C$DW$139       .dwtag  DW_TAG_TI_branch
    1850                      .dwattr $C$DW$139, DW_AT_low_pc(0x00)
    1851                      .dwattr $C$DW$139, DW_AT_name("_DRV8305_diagnostics")
    1852                      .dwattr $C$DW$139, DW_AT_TI_call
    1853              
    1854 00000105 7640!         LCR       #_DRV8305_diagnostics ; [CPU_ALU] |1076| 
         00000106 0000 
TMS320C2000 Assembler PC v20.2.1 Sat Nov 14 13:32:33 2020

Copyright (c) 1996-2018 Texas Instruments Incorporated
MonoMtrServo.asm                                                     PAGE   39

    1855                      ; call occurs [#_DRV8305_diagnostics] ; [] |1076| 
    1856 00000107 761F-         MOVW      DP,#_C_Task_Ptr       ; [CPU_ARAU] 
         00000108 0000 
    1857                      .dwpsn  file "../MonoMtrServo.c",line 1081,column 2,is_stmt,isa 0
    1858 00000109 8F00'         MOVL      XAR4,#_C3             ; [CPU_ARAU] |1081| 
         0000010a 00F5 
    1859 0000010b A810-         MOVL      @_C_Task_Ptr,XAR4     ; [CPU_ALU] |1081| 
    1860              $C$DW$140       .dwtag  DW_TAG_TI_branch
    1861                      .dwattr $C$DW$140, DW_AT_low_pc(0x00)
    1862                      .dwattr $C$DW$140, DW_AT_TI_return
    1863              
    1864 0000010c 0006          LRETR     ; [CPU_ALU] 
    1865                      ; return occurs ; [] 
    1866                      .dwattr $C$DW$138, DW_AT_TI_end_file("../MonoMtrServo.c")
    1867                      .dwattr $C$DW$138, DW_AT_TI_end_line(0x43b)
    1868                      .dwattr $C$DW$138, DW_AT_TI_end_column(0x01)
    1869                      .dwendentry
    1870                      .dwendtag $C$DW$138
    1871              
    1872 0000010d               .sect   ".text"
    1873                      .clink
    1874                      .global _B3
    1875              
    1876              $C$DW$141       .dwtag  DW_TAG_subprogram
    1877                      .dwattr $C$DW$141, DW_AT_name("B3")
    1878                      .dwattr $C$DW$141, DW_AT_low_pc(_B3)
    1879                      .dwattr $C$DW$141, DW_AT_high_pc(0x00)
    1880                      .dwattr $C$DW$141, DW_AT_TI_symbol_name("_B3")
    1881                      .dwattr $C$DW$141, DW_AT_external
    1882                      .dwattr $C$DW$141, DW_AT_TI_begin_file("../MonoMtrServo.c")
    1883                      .dwattr $C$DW$141, DW_AT_TI_begin_line(0x3f9)
    1884                      .dwattr $C$DW$141, DW_AT_TI_begin_column(0x06)
    1885                      .dwattr $C$DW$141, DW_AT_TI_max_frame_size(-2)
    1886                      .dwpsn  file "../MonoMtrServo.c",line 1019,column 1,is_stmt,address _B3,isa 0
    1887              
    1888                      .dwfde $C$DW$CIE, _B3
    1889              
    1890              ;***************************************************************
    1891              ;* FNAME: _B3                           FR SIZE:   0           *
    1892              ;*                                                             *
    1893              ;* FUNCTION ENVIRONMENT                                        *
    1894              ;*                                                             *
    1895              ;* FUNCTION PROPERTIES                                         *
    1896              ;*                            0 Parameter,  0 Auto,  0 SOE     *
    1897              ;***************************************************************
    1898              
    1899 0000010d       _B3:
    1900                      .dwcfi  cfa_offset, -2
    1901                      .dwcfi  save_reg_to_mem, 26, 0
    1902                      .dwpsn  file "../MonoMtrServo.c",line 1023,column 2,is_stmt,isa 0
    1903 0000010d 8F00'         MOVL      XAR4,#_B1             ; [CPU_ARAU] |1023| 
         0000010e 0143 
    1904 0000010f 761F-         MOVW      DP,#_B_Task_Ptr       ; [CPU_ARAU] 
         00000110 0000 
    1905 00000111 A80E-         MOVL      @_B_Task_Ptr,XAR4     ; [CPU_ALU] |1023| 
TMS320C2000 Assembler PC v20.2.1 Sat Nov 14 13:32:33 2020

Copyright (c) 1996-2018 Texas Instruments Incorporated
MonoMtrServo.asm                                                     PAGE   40

    1906              $C$DW$142       .dwtag  DW_TAG_TI_branch
    1907                      .dwattr $C$DW$142, DW_AT_low_pc(0x00)
    1908                      .dwattr $C$DW$142, DW_AT_TI_return
    1909              
    1910 00000112 0006          LRETR     ; [CPU_ALU] 
    1911                      ; return occurs ; [] 
    1912                      .dwattr $C$DW$141, DW_AT_TI_end_file("../MonoMtrServo.c")
    1913                      .dwattr $C$DW$141, DW_AT_TI_end_line(0x401)
    1914                      .dwattr $C$DW$141, DW_AT_TI_end_column(0x01)
    1915                      .dwendentry
    1916                      .dwendtag $C$DW$141
    1917              
    1918 00000113               .sect   ".text"
    1919                      .clink
    1920                      .global _B2
    1921              
    1922              $C$DW$143       .dwtag  DW_TAG_subprogram
    1923                      .dwattr $C$DW$143, DW_AT_name("B2")
    1924                      .dwattr $C$DW$143, DW_AT_low_pc(_B2)
    1925                      .dwattr $C$DW$143, DW_AT_high_pc(0x00)
    1926                      .dwattr $C$DW$143, DW_AT_TI_symbol_name("_B2")
    1927                      .dwattr $C$DW$143, DW_AT_external
    1928                      .dwattr $C$DW$143, DW_AT_TI_begin_file("../MonoMtrServo.c")
    1929                      .dwattr $C$DW$143, DW_AT_TI_begin_line(0x3ee)
    1930                      .dwattr $C$DW$143, DW_AT_TI_begin_column(0x06)
    1931                      .dwattr $C$DW$143, DW_AT_TI_max_frame_size(-2)
    1932                      .dwpsn  file "../MonoMtrServo.c",line 1008,column 1,is_stmt,address _B2,isa 0
    1933              
    1934                      .dwfde $C$DW$CIE, _B2
    1935              
    1936              ;***************************************************************
    1937              ;* FNAME: _B2                           FR SIZE:   0           *
    1938              ;*                                                             *
    1939              ;* FUNCTION ENVIRONMENT                                        *
    1940              ;*                                                             *
    1941              ;* FUNCTION PROPERTIES                                         *
    1942              ;*                            0 Parameter,  0 Auto,  0 SOE     *
    1943              ;***************************************************************
    1944              
    1945 00000113       _B2:
    1946                      .dwcfi  cfa_offset, -2
    1947                      .dwcfi  save_reg_to_mem, 26, 0
    1948                      .dwpsn  file "../MonoMtrServo.c",line 1012,column 2,is_stmt,isa 0
    1949 00000113 8F00'         MOVL      XAR4,#_B3             ; [CPU_ARAU] |1012| 
         00000114 010D 
    1950 00000115 761F-         MOVW      DP,#_B_Task_Ptr       ; [CPU_ARAU] 
         00000116 0000 
    1951 00000117 A80E-         MOVL      @_B_Task_Ptr,XAR4     ; [CPU_ALU] |1012| 
    1952              $C$DW$144       .dwtag  DW_TAG_TI_branch
    1953                      .dwattr $C$DW$144, DW_AT_low_pc(0x00)
    1954                      .dwattr $C$DW$144, DW_AT_TI_return
    1955              
    1956 00000118 0006          LRETR     ; [CPU_ALU] 
    1957                      ; return occurs ; [] 
    1958                      .dwattr $C$DW$143, DW_AT_TI_end_file("../MonoMtrServo.c")
TMS320C2000 Assembler PC v20.2.1 Sat Nov 14 13:32:33 2020

Copyright (c) 1996-2018 Texas Instruments Incorporated
MonoMtrServo.asm                                                     PAGE   41

    1959                      .dwattr $C$DW$143, DW_AT_TI_end_line(0x3f6)
    1960                      .dwattr $C$DW$143, DW_AT_TI_end_column(0x01)
    1961                      .dwendentry
    1962                      .dwendtag $C$DW$143
    1963              
    1964 00000119               .sect   ".text"
    1965                      .clink
    1966                      .global _A3
    1967              
    1968              $C$DW$145       .dwtag  DW_TAG_subprogram
    1969                      .dwattr $C$DW$145, DW_AT_name("A3")
    1970                      .dwattr $C$DW$145, DW_AT_low_pc(_A3)
    1971                      .dwattr $C$DW$145, DW_AT_high_pc(0x00)
    1972                      .dwattr $C$DW$145, DW_AT_TI_symbol_name("_A3")
    1973                      .dwattr $C$DW$145, DW_AT_external
    1974                      .dwattr $C$DW$145, DW_AT_TI_begin_file("../MonoMtrServo.c")
    1975                      .dwattr $C$DW$145, DW_AT_TI_begin_line(0x3d0)
    1976                      .dwattr $C$DW$145, DW_AT_TI_begin_column(0x06)
    1977                      .dwattr $C$DW$145, DW_AT_TI_max_frame_size(-2)
    1978                      .dwpsn  file "../MonoMtrServo.c",line 978,column 1,is_stmt,address _A3,isa 0
    1979              
    1980                      .dwfde $C$DW$CIE, _A3
    1981              
    1982              ;***************************************************************
    1983              ;* FNAME: _A3                           FR SIZE:   0           *
    1984              ;*                                                             *
    1985              ;* FUNCTION ENVIRONMENT                                        *
    1986              ;*                                                             *
    1987              ;* FUNCTION PROPERTIES                                         *
    1988              ;*                            0 Parameter,  0 Auto,  0 SOE     *
    1989              ;***************************************************************
    1990              
    1991 00000119       _A3:
    1992                      .dwcfi  cfa_offset, -2
    1993                      .dwcfi  save_reg_to_mem, 26, 0
    1994                      .dwpsn  file "../MonoMtrServo.c",line 982,column 2,is_stmt,isa 0
    1995 00000119 8F00'         MOVL      XAR4,#_A1             ; [CPU_ARAU] |982| 
         0000011a 0149 
    1996 0000011b 761F-         MOVW      DP,#_A_Task_Ptr       ; [CPU_ARAU] 
         0000011c 0000 
    1997 0000011d A80C-         MOVL      @_A_Task_Ptr,XAR4     ; [CPU_ALU] |982| 
    1998              $C$DW$146       .dwtag  DW_TAG_TI_branch
    1999                      .dwattr $C$DW$146, DW_AT_low_pc(0x00)
    2000                      .dwattr $C$DW$146, DW_AT_TI_return
    2001              
    2002 0000011e 0006          LRETR     ; [CPU_ALU] 
    2003                      ; return occurs ; [] 
    2004                      .dwattr $C$DW$145, DW_AT_TI_end_file("../MonoMtrServo.c")
    2005                      .dwattr $C$DW$145, DW_AT_TI_end_line(0x3d8)
    2006                      .dwattr $C$DW$145, DW_AT_TI_end_column(0x01)
    2007                      .dwendentry
    2008                      .dwendtag $C$DW$145
    2009              
    2010 0000011f               .sect   ".text"
    2011                      .clink
TMS320C2000 Assembler PC v20.2.1 Sat Nov 14 13:32:33 2020

Copyright (c) 1996-2018 Texas Instruments Incorporated
MonoMtrServo.asm                                                     PAGE   42

    2012                      .global _A2
    2013              
    2014              $C$DW$147       .dwtag  DW_TAG_subprogram
    2015                      .dwattr $C$DW$147, DW_AT_name("A2")
    2016                      .dwattr $C$DW$147, DW_AT_low_pc(_A2)
    2017                      .dwattr $C$DW$147, DW_AT_high_pc(0x00)
    2018                      .dwattr $C$DW$147, DW_AT_TI_symbol_name("_A2")
    2019                      .dwattr $C$DW$147, DW_AT_external
    2020                      .dwattr $C$DW$147, DW_AT_TI_begin_file("../MonoMtrServo.c")
    2021                      .dwattr $C$DW$147, DW_AT_TI_begin_line(0x3c5)
    2022                      .dwattr $C$DW$147, DW_AT_TI_begin_column(0x06)
    2023                      .dwattr $C$DW$147, DW_AT_TI_max_frame_size(-2)
    2024                      .dwpsn  file "../MonoMtrServo.c",line 967,column 1,is_stmt,address _A2,isa 0
    2025              
    2026                      .dwfde $C$DW$CIE, _A2
    2027              
    2028              ;***************************************************************
    2029              ;* FNAME: _A2                           FR SIZE:   0           *
    2030              ;*                                                             *
    2031              ;* FUNCTION ENVIRONMENT                                        *
    2032              ;*                                                             *
    2033              ;* FUNCTION PROPERTIES                                         *
    2034              ;*                            0 Parameter,  0 Auto,  0 SOE     *
    2035              ;***************************************************************
    2036              
    2037 0000011f       _A2:
    2038                      .dwcfi  cfa_offset, -2
    2039                      .dwcfi  save_reg_to_mem, 26, 0
    2040                      .dwpsn  file "../MonoMtrServo.c",line 971,column 2,is_stmt,isa 0
    2041 0000011f 8F00'         MOVL      XAR4,#_A3             ; [CPU_ARAU] |971| 
         00000120 0119 
    2042 00000121 761F-         MOVW      DP,#_A_Task_Ptr       ; [CPU_ARAU] 
         00000122 0000 
    2043 00000123 A80C-         MOVL      @_A_Task_Ptr,XAR4     ; [CPU_ALU] |971| 
    2044              $C$DW$148       .dwtag  DW_TAG_TI_branch
    2045                      .dwattr $C$DW$148, DW_AT_low_pc(0x00)
    2046                      .dwattr $C$DW$148, DW_AT_TI_return
    2047              
    2048 00000124 0006          LRETR     ; [CPU_ALU] 
    2049                      ; return occurs ; [] 
    2050                      .dwattr $C$DW$147, DW_AT_TI_end_file("../MonoMtrServo.c")
    2051                      .dwattr $C$DW$147, DW_AT_TI_end_line(0x3cd)
    2052                      .dwattr $C$DW$147, DW_AT_TI_end_column(0x01)
    2053                      .dwendentry
    2054                      .dwendtag $C$DW$147
    2055              
    2056 00000125               .sect   ".text"
    2057                      .clink
    2058                      .global _C1
    2059              
    2060              $C$DW$149       .dwtag  DW_TAG_subprogram
    2061                      .dwattr $C$DW$149, DW_AT_name("C1")
    2062                      .dwattr $C$DW$149, DW_AT_low_pc(_C1)
    2063                      .dwattr $C$DW$149, DW_AT_high_pc(0x00)
    2064                      .dwattr $C$DW$149, DW_AT_TI_symbol_name("_C1")
TMS320C2000 Assembler PC v20.2.1 Sat Nov 14 13:32:33 2020

Copyright (c) 1996-2018 Texas Instruments Incorporated
MonoMtrServo.asm                                                     PAGE   43

    2065                      .dwattr $C$DW$149, DW_AT_external
    2066                      .dwattr $C$DW$149, DW_AT_TI_begin_file("../MonoMtrServo.c")
    2067                      .dwattr $C$DW$149, DW_AT_TI_begin_line(0x40b)
    2068                      .dwattr $C$DW$149, DW_AT_TI_begin_column(0x06)
    2069                      .dwattr $C$DW$149, DW_AT_TI_max_frame_size(-4)
    2070                      .dwpsn  file "../MonoMtrServo.c",line 1037,column 1,is_stmt,address _C1,isa 0
    2071              
    2072                      .dwfde $C$DW$CIE, _C1
    2073              
    2074              ;***************************************************************
    2075              ;* FNAME: _C1                           FR SIZE:   2           *
    2076              ;*                                                             *
    2077              ;* FUNCTION ENVIRONMENT                                        *
    2078              ;*                                                             *
    2079              ;* FUNCTION PROPERTIES                                         *
    2080              ;*                            0 Parameter,  0 Auto,  2 SOE     *
    2081              ;***************************************************************
    2082              
    2083              _C1:
    2084              ;* AR1   assigned to _tmp1
    2085              $C$DW$150       .dwtag  DW_TAG_variable
    2086                      .dwattr $C$DW$150, DW_AT_name("tmp1")
    2087                      .dwattr $C$DW$150, DW_AT_TI_symbol_name("_tmp1")
    2088                      .dwattr $C$DW$150, DW_AT_type(*$C$DW$T$31)
    2089                      .dwattr $C$DW$150, DW_AT_location[DW_OP_reg6]
    2090              
    2091                      .dwcfi  cfa_offset, -2
    2092                      .dwcfi  save_reg_to_mem, 26, 0
    2093 00000125 B2BD          MOVL      *SP++,XAR1            ; [CPU_ALU] 
    2094                      .dwcfi  save_reg_to_mem, 7, 2
    2095                      .dwcfi  cfa_offset, -4
    2096                      .dwpsn  file "../MonoMtrServo.c",line 1042,column 5,is_stmt,isa 0
    2097 00000126 9A4E          MOVB      AL,#78                ; [CPU_ALU] |1042| 
    2098              $C$DW$151       .dwtag  DW_TAG_TI_branch
    2099                      .dwattr $C$DW$151, DW_AT_low_pc(0x00)
    2100                      .dwattr $C$DW$151, DW_AT_name("_GPIO_TogglePin")
    2101                      .dwattr $C$DW$151, DW_AT_TI_call
    2102              
    2103 00000127 7640'         LCR       #_GPIO_TogglePin      ; [CPU_ALU] |1042| 
         00000128 00E1 
    2104                      ; call occurs [#_GPIO_TogglePin] ; [] |1042| 
    2105 00000129 761F-         MOVW      DP,#_motor1+49        ; [CPU_ARAU] 
         0000012a 0002 
    2106                      .dwpsn  file "../MonoMtrServo.c",line 1044,column 2,is_stmt,isa 0
    2107 0000012b 9231!         MOV       AL,@$BLOCKED(_motor1)+49 ; [CPU_ALU] |1044| 
    2108 0000012c 6110          B         $C$L9,EQ              ; [CPU_ALU] |1044| 
    2109                      ; branchcc occurs ; [] |1044| 
    2110                      .dwpsn  file "../MonoMtrServo.c",line 1053,column 8,is_stmt,isa 0
    2111 0000012d D105          MOVB      XAR1,#5               ; [CPU_ALU] |1053| 
    2112 0000012e       $C$L7:    
    2113 0000012e 92A1          MOV       AL,AR1                ; [CPU_ALU] 
    2114                      .dwpsn  file "../MonoMtrServo.c",line 1055,column 4,is_stmt,isa 0
    2115 0000012f 5208          CMPB      AL,#8                 ; [CPU_ALU] |1055| 
    2116 00000130 6105          B         $C$L8,EQ              ; [CPU_ALU] |1055| 
    2117                      ; branchcc occurs ; [] |1055| 
TMS320C2000 Assembler PC v20.2.1 Sat Nov 14 13:32:33 2020

Copyright (c) 1996-2018 Texas Instruments Incorporated
MonoMtrServo.asm                                                     PAGE   44

    2118                      .dwpsn  file "../MonoMtrServo.c",line 1056,column 5,is_stmt,isa 0
    2119 00000131 8F00-         MOVL      XAR4,#_motor1         ; [CPU_ARAU] |1056| 
         00000132 0080 
    2120              $C$DW$152       .dwtag  DW_TAG_TI_branch
    2121                      .dwattr $C$DW$152, DW_AT_low_pc(0x00)
    2122                      .dwattr $C$DW$152, DW_AT_name("_DRV8305_SPI_Write")
    2123                      .dwattr $C$DW$152, DW_AT_TI_call
    2124              
    2125 00000133 7640!         LCR       #_DRV8305_SPI_Write   ; [CPU_ALU] |1056| 
         00000134 0000 
    2126                      ; call occurs [#_DRV8305_SPI_Write] ; [] |1056| 
    2127 00000135       $C$L8:    
    2128                      .dwpsn  file "../MonoMtrServo.c",line 1053,column 28,is_stmt,isa 0
    2129 00000135 D901          ADDB      XAR1,#1               ; [CPU_ALU] |1053| 
    2130 00000136 92A1          MOV       AL,AR1                ; [CPU_ALU] |1053| 
    2131 00000137 520C          CMPB      AL,#12                ; [CPU_ALU] |1053| 
    2132 00000138 69F6          B         $C$L7,LOS             ; [CPU_ALU] |1053| 
    2133                      ; branchcc occurs ; [] |1053| 
    2134 00000139 761F-         MOVW      DP,#_motor1+49        ; [CPU_ARAU] 
         0000013a 0002 
    2135                      .dwpsn  file "../MonoMtrServo.c",line 1059,column 3,is_stmt,isa 0
    2136 0000013b 2B31!         MOV       @$BLOCKED(_motor1)+49,#0 ; [CPU_ALU] |1059| 
    2137 0000013c       $C$L9:    
    2138                      .dwpsn  file "../MonoMtrServo.c",line 1064,column 2,is_stmt,isa 0
    2139 0000013c 8F00'         MOVL      XAR4,#_C2             ; [CPU_ARAU] |1064| 
         0000013d 0103 
    2140 0000013e 761F-         MOVW      DP,#_C_Task_Ptr       ; [CPU_ARAU] 
         0000013f 0000 
    2141 00000140 8BBE          MOVL      XAR1,*--SP            ; [CPU_ALU] 
    2142                      .dwcfi  cfa_offset, -2
    2143                      .dwcfi  restore_reg, 7
    2144 00000141 A810-         MOVL      @_C_Task_Ptr,XAR4     ; [CPU_ALU] |1064| 
    2145              $C$DW$153       .dwtag  DW_TAG_TI_branch
    2146                      .dwattr $C$DW$153, DW_AT_low_pc(0x00)
    2147                      .dwattr $C$DW$153, DW_AT_TI_return
    2148              
    2149 00000142 0006          LRETR     ; [CPU_ALU] 
    2150                      ; return occurs ; [] 
    2151                      .dwattr $C$DW$149, DW_AT_TI_end_file("../MonoMtrServo.c")
    2152                      .dwattr $C$DW$149, DW_AT_TI_end_line(0x42b)
    2153                      .dwattr $C$DW$149, DW_AT_TI_end_column(0x01)
    2154                      .dwendentry
    2155                      .dwendtag $C$DW$149
    2156              
    2157 00000143               .sect   ".text"
    2158                      .clink
    2159                      .global _B1
    2160              
    2161              $C$DW$154       .dwtag  DW_TAG_subprogram
    2162                      .dwattr $C$DW$154, DW_AT_name("B1")
    2163                      .dwattr $C$DW$154, DW_AT_low_pc(_B1)
    2164                      .dwattr $C$DW$154, DW_AT_high_pc(0x00)
    2165                      .dwattr $C$DW$154, DW_AT_TI_symbol_name("_B1")
    2166                      .dwattr $C$DW$154, DW_AT_external
    2167                      .dwattr $C$DW$154, DW_AT_TI_begin_file("../MonoMtrServo.c")
TMS320C2000 Assembler PC v20.2.1 Sat Nov 14 13:32:33 2020

Copyright (c) 1996-2018 Texas Instruments Incorporated
MonoMtrServo.asm                                                     PAGE   45

    2168                      .dwattr $C$DW$154, DW_AT_TI_begin_line(0x3e3)
    2169                      .dwattr $C$DW$154, DW_AT_TI_begin_column(0x06)
    2170                      .dwattr $C$DW$154, DW_AT_TI_max_frame_size(-2)
    2171                      .dwpsn  file "../MonoMtrServo.c",line 997,column 1,is_stmt,address _B1,isa 0
    2172              
    2173                      .dwfde $C$DW$CIE, _B1
    2174              
    2175              ;***************************************************************
    2176              ;* FNAME: _B1                           FR SIZE:   0           *
    2177              ;*                                                             *
    2178              ;* FUNCTION ENVIRONMENT                                        *
    2179              ;*                                                             *
    2180              ;* FUNCTION PROPERTIES                                         *
    2181              ;*                            0 Parameter,  0 Auto,  0 SOE     *
    2182              ;***************************************************************
    2183              
    2184 00000143       _B1:
    2185                      .dwcfi  cfa_offset, -2
    2186                      .dwcfi  save_reg_to_mem, 26, 0
    2187                      .dwpsn  file "../MonoMtrServo.c",line 1001,column 2,is_stmt,isa 0
    2188 00000143 8F00'         MOVL      XAR4,#_B2             ; [CPU_ARAU] |1001| 
         00000144 0113 
    2189 00000145 761F-         MOVW      DP,#_B_Task_Ptr       ; [CPU_ARAU] 
         00000146 0000 
    2190 00000147 A80E-         MOVL      @_B_Task_Ptr,XAR4     ; [CPU_ALU] |1001| 
    2191              $C$DW$155       .dwtag  DW_TAG_TI_branch
    2192                      .dwattr $C$DW$155, DW_AT_low_pc(0x00)
    2193                      .dwattr $C$DW$155, DW_AT_TI_return
    2194              
    2195 00000148 0006          LRETR     ; [CPU_ALU] 
    2196                      ; return occurs ; [] 
    2197                      .dwattr $C$DW$154, DW_AT_TI_end_file("../MonoMtrServo.c")
    2198                      .dwattr $C$DW$154, DW_AT_TI_end_line(0x3eb)
    2199                      .dwattr $C$DW$154, DW_AT_TI_end_column(0x01)
    2200                      .dwendentry
    2201                      .dwendtag $C$DW$154
    2202              
    2203 00000149               .sect   ".text"
    2204                      .clink
    2205                      .global _A1
    2206              
    2207              $C$DW$156       .dwtag  DW_TAG_subprogram
    2208                      .dwattr $C$DW$156, DW_AT_name("A1")
    2209                      .dwattr $C$DW$156, DW_AT_low_pc(_A1)
    2210                      .dwattr $C$DW$156, DW_AT_high_pc(0x00)
    2211                      .dwattr $C$DW$156, DW_AT_TI_symbol_name("_A1")
    2212                      .dwattr $C$DW$156, DW_AT_external
    2213                      .dwattr $C$DW$156, DW_AT_TI_begin_file("../MonoMtrServo.c")
    2214                      .dwattr $C$DW$156, DW_AT_TI_begin_line(0x39e)
    2215                      .dwattr $C$DW$156, DW_AT_TI_begin_column(0x06)
    2216                      .dwattr $C$DW$156, DW_AT_TI_max_frame_size(-2)
    2217                      .dwpsn  file "../MonoMtrServo.c",line 928,column 1,is_stmt,address _A1,isa 0
    2218              
    2219                      .dwfde $C$DW$CIE, _A1
    2220              
TMS320C2000 Assembler PC v20.2.1 Sat Nov 14 13:32:33 2020

Copyright (c) 1996-2018 Texas Instruments Incorporated
MonoMtrServo.asm                                                     PAGE   46

    2221              ;***************************************************************
    2222              ;* FNAME: _A1                           FR SIZE:   0           *
    2223              ;*                                                             *
    2224              ;* FUNCTION ENVIRONMENT                                        *
    2225              ;*                                                             *
    2226              ;* FUNCTION PROPERTIES                                         *
    2227              ;*                            0 Parameter,  0 Auto,  0 SOE     *
    2228              ;***************************************************************
    2229              
    2230 00000149       _A1:
    2231                      .dwcfi  cfa_offset, -2
    2232                      .dwcfi  save_reg_to_mem, 26, 0
    2233                      .dwpsn  file "../MonoMtrServo.c",line 935,column 2,is_stmt,isa 0
    2234 00000149 0293          MOVB      ACC,#147              ; [CPU_ALU] |935| 
    2235 0000014a 761F-         MOVW      DP,#_motor1           ; [CPU_ARAU] 
         0000014b 0002 
    2236 0000014c 0700!         ADDL      ACC,@$BLOCKED(_motor1) ; [CPU_ALU] |935| 
    2237 0000014d 8AA9          MOVL      XAR4,ACC              ; [CPU_ALU] |935| 
    2238 0000014e 42C4          TBIT      *+XAR4[0],#2          ; [CPU_ALU] |935| 
    2239 0000014f 6C07          B         $C$L10,NTC            ; [CPU_ALU] |935| 
    2240                      ; branchcc occurs ; [] |935| 
    2241                      .dwpsn  file "../MonoMtrServo.c",line 937,column 6,is_stmt,isa 0
    2242 00000150 56BF!         MOVB      @$BLOCKED(_motor1)+43,#1,UNC ; [CPU_ALU] |937| 
         00000151 012B 
    2243                      .dwpsn  file "../MonoMtrServo.c",line 938,column 6,is_stmt,isa 0
    2244 00000152 9A48          MOVB      AL,#72                ; [CPU_ALU] |938| 
    2245 00000153 9B00          MOVB      AH,#0                 ; [CPU_ALU] |938| 
    2246              $C$DW$157       .dwtag  DW_TAG_TI_branch
    2247                      .dwattr $C$DW$157, DW_AT_low_pc(0x00)
    2248                      .dwattr $C$DW$157, DW_AT_name("_GPIO_WritePin")
    2249                      .dwattr $C$DW$157, DW_AT_TI_call
    2250              
    2251 00000154 7640!         LCR       #_GPIO_WritePin       ; [CPU_ALU] |938| 
         00000155 0000 
    2252                      ; call occurs [#_GPIO_WritePin] ; [] |938| 
    2253 00000156       $C$L10:    
    2254 00000156 761F-         MOVW      DP,#_motor1+44        ; [CPU_ARAU] 
         00000157 0002 
    2255                      .dwpsn  file "../MonoMtrServo.c",line 942,column 2,is_stmt,isa 0
    2256 00000158 922C!         MOV       AL,@$BLOCKED(_motor1)+44 ; [CPU_ALU] |942| 
    2257 00000159 611F          B         $C$L11,EQ             ; [CPU_ALU] |942| 
    2258                      ; branchcc occurs ; [] |942| 
    2259                      .dwpsn  file "../MonoMtrServo.c",line 944,column 3,is_stmt,isa 0
    2260 0000015a 9A48          MOVB      AL,#72                ; [CPU_ALU] |944| 
    2261 0000015b 9B01          MOVB      AH,#1                 ; [CPU_ALU] |944| 
    2262              $C$DW$158       .dwtag  DW_TAG_TI_branch
    2263                      .dwattr $C$DW$158, DW_AT_low_pc(0x00)
    2264                      .dwattr $C$DW$158, DW_AT_name("_GPIO_WritePin")
    2265                      .dwattr $C$DW$158, DW_AT_TI_call
    2266              
    2267 0000015c 7640!         LCR       #_GPIO_WritePin       ; [CPU_ALU] |944| 
         0000015d 0000 
    2268                      ; call occurs [#_GPIO_WritePin] ; [] |944| 
    2269                      .dwpsn  file "../MonoMtrServo.c",line 945,column 3,is_stmt,isa 0
    2270 0000015e 8F1E          MOVL      XAR4,#1999998         ; [CPU_ARAU] |945| 
TMS320C2000 Assembler PC v20.2.1 Sat Nov 14 13:32:33 2020

Copyright (c) 1996-2018 Texas Instruments Incorporated
MonoMtrServo.asm                                                     PAGE   47

         0000015f 847E 
    2271 00000160 A8A9          MOVL      ACC,XAR4              ; [CPU_ALU] |945| 
    2272              $C$DW$159       .dwtag  DW_TAG_TI_branch
    2273                      .dwattr $C$DW$159, DW_AT_low_pc(0x00)
    2274                      .dwattr $C$DW$159, DW_AT_name("_F28x_usDelay")
    2275                      .dwattr $C$DW$159, DW_AT_TI_call
    2276              
    2277 00000161 7640!         LCR       #_F28x_usDelay        ; [CPU_ALU] |945| 
         00000162 0000 
    2278                      ; call occurs [#_F28x_usDelay] ; [] |945| 
    2279 00000163 761F-         MOVW      DP,#_motor1+43        ; [CPU_ARAU] 
         00000164 0002 
    2280                      .dwpsn  file "../MonoMtrServo.c",line 947,column 3,is_stmt,isa 0
    2281 00000165 2B2B!         MOV       @$BLOCKED(_motor1)+43,#0 ; [CPU_ALU] |947| 
    2282                      .dwpsn  file "../MonoMtrServo.c",line 948,column 3,is_stmt,isa 0
    2283 00000166 2B2C!         MOV       @$BLOCKED(_motor1)+44,#0 ; [CPU_ALU] |948| 
    2284 00000167 7622   EALLOW
    2285                      .dwpsn  file "../MonoMtrServo.c",line 952,column 5,is_stmt,isa 0
    2286 00000168 0297          MOVB      ACC,#151              ; [CPU_ALU] |952| 
    2287 00000169 0700!         ADDL      ACC,@$BLOCKED(_motor1) ; [CPU_ALU] |952| 
    2288 0000016a 8AA9          MOVL      XAR4,ACC              ; [CPU_ALU] |952| 
    2289                      .dwpsn  file "../MonoMtrServo.c",line 953,column 5,is_stmt,isa 0
    2290 0000016b 0297          MOVB      ACC,#151              ; [CPU_ALU] |953| 
    2291                      .dwpsn  file "../MonoMtrServo.c",line 952,column 5,is_stmt,isa 0
    2292 0000016c 1AC4          OR        *+XAR4[0],#0x0004     ; [CPU_ALU] |952| 
         0000016d 0004 
    2293                      .dwpsn  file "../MonoMtrServo.c",line 953,column 5,is_stmt,isa 0
    2294 0000016e 0702!         ADDL      ACC,@$BLOCKED(_motor1)+2 ; [CPU_ALU] |953| 
    2295 0000016f 8AA9          MOVL      XAR4,ACC              ; [CPU_ALU] |953| 
    2296                      .dwpsn  file "../MonoMtrServo.c",line 954,column 5,is_stmt,isa 0
    2297 00000170 0297          MOVB      ACC,#151              ; [CPU_ALU] |954| 
    2298                      .dwpsn  file "../MonoMtrServo.c",line 953,column 5,is_stmt,isa 0
    2299 00000171 1AC4          OR        *+XAR4[0],#0x0004     ; [CPU_ALU] |953| 
         00000172 0004 
    2300                      .dwpsn  file "../MonoMtrServo.c",line 954,column 5,is_stmt,isa 0
    2301 00000173 0704!         ADDL      ACC,@$BLOCKED(_motor1)+4 ; [CPU_ALU] |954| 
    2302 00000174 8AA9          MOVL      XAR4,ACC              ; [CPU_ALU] |954| 
    2303 00000175 1AC4          OR        *+XAR4[0],#0x0004     ; [CPU_ALU] |954| 
         00000176 0004 
    2304 00000177 761A   EDIS
    2305 00000178       $C$L11:    
    2306                      .dwpsn  file "../MonoMtrServo.c",line 960,column 2,is_stmt,isa 0
    2307 00000178 8F00'         MOVL      XAR4,#_A2             ; [CPU_ARAU] |960| 
         00000179 011F 
    2308 0000017a 761F-         MOVW      DP,#_A_Task_Ptr       ; [CPU_ARAU] 
         0000017b 0000 
    2309 0000017c FF69          SPM       #0                    ; [CPU_ALU] 
    2310 0000017d A80C-         MOVL      @_A_Task_Ptr,XAR4     ; [CPU_ALU] |960| 
    2311              $C$DW$160       .dwtag  DW_TAG_TI_branch
    2312                      .dwattr $C$DW$160, DW_AT_low_pc(0x00)
    2313                      .dwattr $C$DW$160, DW_AT_TI_return
    2314              
    2315 0000017e 0006          LRETR     ; [CPU_ALU] 
    2316                      ; return occurs ; [] 
    2317                      .dwattr $C$DW$156, DW_AT_TI_end_file("../MonoMtrServo.c")
TMS320C2000 Assembler PC v20.2.1 Sat Nov 14 13:32:33 2020

Copyright (c) 1996-2018 Texas Instruments Incorporated
MonoMtrServo.asm                                                     PAGE   48

    2318                      .dwattr $C$DW$156, DW_AT_TI_end_line(0x3c2)
    2319                      .dwattr $C$DW$156, DW_AT_TI_end_column(0x01)
    2320                      .dwendentry
    2321                      .dwendtag $C$DW$156
    2322              
    2323 0000017f               .sect   ".text"
    2324                      .clink
    2325                      .global _A0
    2326              
    2327              $C$DW$161       .dwtag  DW_TAG_subprogram
    2328                      .dwattr $C$DW$161, DW_AT_name("A0")
    2329                      .dwattr $C$DW$161, DW_AT_low_pc(_A0)
    2330                      .dwattr $C$DW$161, DW_AT_high_pc(0x00)
    2331                      .dwattr $C$DW$161, DW_AT_TI_symbol_name("_A0")
    2332                      .dwattr $C$DW$161, DW_AT_external
    2333                      .dwattr $C$DW$161, DW_AT_TI_begin_file("../MonoMtrServo.c")
    2334                      .dwattr $C$DW$161, DW_AT_TI_begin_line(0x367)
    2335                      .dwattr $C$DW$161, DW_AT_TI_begin_column(0x06)
    2336                      .dwattr $C$DW$161, DW_AT_TI_max_frame_size(-2)
    2337                      .dwpsn  file "../MonoMtrServo.c",line 872,column 1,is_stmt,address _A0,isa 0
    2338              
    2339                      .dwfde $C$DW$CIE, _A0
    2340              
    2341              ;***************************************************************
    2342              ;* FNAME: _A0                           FR SIZE:   0           *
    2343              ;*                                                             *
    2344              ;* FUNCTION ENVIRONMENT                                        *
    2345              ;*                                                             *
    2346              ;* FUNCTION PROPERTIES                                         *
    2347              ;*                            0 Parameter,  0 Auto,  0 SOE     *
    2348              ;***************************************************************
    2349              
    2350 0000017f       _A0:
    2351                      .dwcfi  cfa_offset, -2
    2352                      .dwcfi  save_reg_to_mem, 26, 0
    2353 0000017f 761F!         MOVW      DP,#_CpuTimer0Regs+4  ; [CPU_ARAU] 
         00000180 0000 
    2354                      .dwpsn  file "../MonoMtrServo.c",line 874,column 2,is_stmt,isa 0
    2355 00000181 4F04!         TBIT      @$BLOCKED(_CpuTimer0Regs)+4,#15 ; [CPU_ALU] |874| 
    2356 00000182 6C0F          B         $C$L12,NTC            ; [CPU_ALU] |874| 
    2357                      ; branchcc occurs ; [] |874| 
    2358 00000183 761F-         MOVW      DP,#_A_Task_Ptr       ; [CPU_ARAU] 
         00000184 0000 
    2359                      .dwpsn  file "../MonoMtrServo.c",line 879,column 3,is_stmt,isa 0
    2360 00000185 C50C-         MOVL      XAR7,@_A_Task_Ptr     ; [CPU_ALU] |879| 
    2361 00000186 761F!         MOVW      DP,#_CpuTimer0Regs+4  ; [CPU_ARAU] 
         00000187 0000 
    2362                      .dwpsn  file "../MonoMtrServo.c",line 876,column 3,is_stmt,isa 0
    2363 00000188 1A04!         OR        @$BLOCKED(_CpuTimer0Regs)+4,#0x8000 ; [CPU_ALU] |876| 
         00000189 8000 
    2364                      .dwpsn  file "../MonoMtrServo.c",line 879,column 3,is_stmt,isa 0
    2365              $C$DW$162       .dwtag  DW_TAG_TI_branch
    2366                      .dwattr $C$DW$162, DW_AT_low_pc(0x00)
    2367                      .dwattr $C$DW$162, DW_AT_TI_call
    2368                      .dwattr $C$DW$162, DW_AT_TI_indirect
TMS320C2000 Assembler PC v20.2.1 Sat Nov 14 13:32:33 2020

Copyright (c) 1996-2018 Texas Instruments Incorporated
MonoMtrServo.asm                                                     PAGE   49

    2369              
    2370 0000018a 3E67          LCR       *XAR7                 ; [CPU_ALU] |879| 
    2371                      ; call occurs [XAR7] ; [] |879| 
    2372 0000018b 761F-         MOVW      DP,#_VTimer0          ; [CPU_ARAU] 
         0000018c 0000 
    2373                      .dwpsn  file "../MonoMtrServo.c",line 882,column 3,is_stmt,isa 0
    2374 0000018d 0A00!         INC       @$BLOCKED(_VTimer0)   ; [CPU_ALU] |882| 
    2375 0000018e 761F-         MOVW      DP,#_SerialCommsTimer ; [CPU_ARAU] 
         0000018f 0000 
    2376                      .dwpsn  file "../MonoMtrServo.c",line 883,column 3,is_stmt,isa 0
    2377 00000190 0A00-         INC       @_SerialCommsTimer    ; [CPU_ALU] |883| 
    2378 00000191       $C$L12:    
    2379                      .dwpsn  file "../MonoMtrServo.c",line 886,column 2,is_stmt,isa 0
    2380 00000191 8F00'         MOVL      XAR4,#_B0             ; [CPU_ARAU] |886| 
         00000192 0197 
    2381 00000193 761F-         MOVW      DP,#_Alpha_State_Ptr  ; [CPU_ARAU] 
         00000194 0000 
    2382 00000195 A80A-         MOVL      @_Alpha_State_Ptr,XAR4 ; [CPU_ALU] |886| 
    2383              $C$DW$163       .dwtag  DW_TAG_TI_branch
    2384                      .dwattr $C$DW$163, DW_AT_low_pc(0x00)
    2385                      .dwattr $C$DW$163, DW_AT_TI_return
    2386              
    2387 00000196 0006          LRETR     ; [CPU_ALU] 
    2388                      ; return occurs ; [] 
    2389                      .dwattr $C$DW$161, DW_AT_TI_end_file("../MonoMtrServo.c")
    2390                      .dwattr $C$DW$161, DW_AT_TI_end_line(0x377)
    2391                      .dwattr $C$DW$161, DW_AT_TI_end_column(0x01)
    2392                      .dwendentry
    2393                      .dwendtag $C$DW$161
    2394              
    2395 00000197               .sect   ".text"
    2396                      .clink
    2397                      .global _B0
    2398              
    2399              $C$DW$164       .dwtag  DW_TAG_subprogram
    2400                      .dwattr $C$DW$164, DW_AT_name("B0")
    2401                      .dwattr $C$DW$164, DW_AT_low_pc(_B0)
    2402                      .dwattr $C$DW$164, DW_AT_high_pc(0x00)
    2403                      .dwattr $C$DW$164, DW_AT_TI_symbol_name("_B0")
    2404                      .dwattr $C$DW$164, DW_AT_external
    2405                      .dwattr $C$DW$164, DW_AT_TI_begin_file("../MonoMtrServo.c")
    2406                      .dwattr $C$DW$164, DW_AT_TI_begin_line(0x379)
    2407                      .dwattr $C$DW$164, DW_AT_TI_begin_column(0x06)
    2408                      .dwattr $C$DW$164, DW_AT_TI_max_frame_size(-2)
    2409                      .dwpsn  file "../MonoMtrServo.c",line 890,column 1,is_stmt,address _B0,isa 0
    2410              
    2411                      .dwfde $C$DW$CIE, _B0
    2412              
    2413              ;***************************************************************
    2414              ;* FNAME: _B0                           FR SIZE:   0           *
    2415              ;*                                                             *
    2416              ;* FUNCTION ENVIRONMENT                                        *
    2417              ;*                                                             *
    2418              ;* FUNCTION PROPERTIES                                         *
    2419              ;*                            0 Parameter,  0 Auto,  0 SOE     *
TMS320C2000 Assembler PC v20.2.1 Sat Nov 14 13:32:33 2020

Copyright (c) 1996-2018 Texas Instruments Incorporated
MonoMtrServo.asm                                                     PAGE   50

    2420              ;***************************************************************
    2421              
    2422 00000197       _B0:
    2423                      .dwcfi  cfa_offset, -2
    2424                      .dwcfi  save_reg_to_mem, 26, 0
    2425 00000197 761F!         MOVW      DP,#_CpuTimer1Regs+4  ; [CPU_ARAU] 
         00000198 0000 
    2426                      .dwpsn  file "../MonoMtrServo.c",line 892,column 2,is_stmt,isa 0
    2427 00000199 4F04!         TBIT      @$BLOCKED(_CpuTimer1Regs)+4,#15 ; [CPU_ALU] |892| 
    2428 0000019a 6C0C          B         $C$L13,NTC            ; [CPU_ALU] |892| 
    2429                      ; branchcc occurs ; [] |892| 
    2430 0000019b 761F-         MOVW      DP,#_B_Task_Ptr       ; [CPU_ARAU] 
         0000019c 0000 
    2431                      .dwpsn  file "../MonoMtrServo.c",line 897,column 3,is_stmt,isa 0
    2432 0000019d C50E-         MOVL      XAR7,@_B_Task_Ptr     ; [CPU_ALU] |897| 
    2433 0000019e 761F!         MOVW      DP,#_CpuTimer1Regs+4  ; [CPU_ARAU] 
         0000019f 0000 
    2434                      .dwpsn  file "../MonoMtrServo.c",line 894,column 3,is_stmt,isa 0
    2435 000001a0 1A04!         OR        @$BLOCKED(_CpuTimer1Regs)+4,#0x8000 ; [CPU_ALU] |894| 
         000001a1 8000 
    2436                      .dwpsn  file "../MonoMtrServo.c",line 897,column 3,is_stmt,isa 0
    2437              $C$DW$165       .dwtag  DW_TAG_TI_branch
    2438                      .dwattr $C$DW$165, DW_AT_low_pc(0x00)
    2439                      .dwattr $C$DW$165, DW_AT_TI_call
    2440                      .dwattr $C$DW$165, DW_AT_TI_indirect
    2441              
    2442 000001a2 3E67          LCR       *XAR7                 ; [CPU_ALU] |897| 
    2443                      ; call occurs [XAR7] ; [] |897| 
    2444 000001a3 761F-         MOVW      DP,#_VTimer1          ; [CPU_ARAU] 
         000001a4 0000 
    2445                      .dwpsn  file "../MonoMtrServo.c",line 899,column 3,is_stmt,isa 0
    2446 000001a5 0A00!         INC       @$BLOCKED(_VTimer1)   ; [CPU_ALU] |899| 
    2447 000001a6       $C$L13:    
    2448                      .dwpsn  file "../MonoMtrServo.c",line 902,column 2,is_stmt,isa 0
    2449 000001a6 8F00'         MOVL      XAR4,#_C0             ; [CPU_ARAU] |902| 
         000001a7 01AC 
    2450 000001a8 761F-         MOVW      DP,#_Alpha_State_Ptr  ; [CPU_ARAU] 
         000001a9 0000 
    2451 000001aa A80A-         MOVL      @_Alpha_State_Ptr,XAR4 ; [CPU_ALU] |902| 
    2452              $C$DW$166       .dwtag  DW_TAG_TI_branch
    2453                      .dwattr $C$DW$166, DW_AT_low_pc(0x00)
    2454                      .dwattr $C$DW$166, DW_AT_TI_return
    2455              
    2456 000001ab 0006          LRETR     ; [CPU_ALU] 
    2457                      ; return occurs ; [] 
    2458                      .dwattr $C$DW$164, DW_AT_TI_end_file("../MonoMtrServo.c")
    2459                      .dwattr $C$DW$164, DW_AT_TI_end_line(0x387)
    2460                      .dwattr $C$DW$164, DW_AT_TI_end_column(0x01)
    2461                      .dwendentry
    2462                      .dwendtag $C$DW$164
    2463              
    2464 000001ac               .sect   ".text"
    2465                      .clink
    2466                      .global _C0
    2467              
TMS320C2000 Assembler PC v20.2.1 Sat Nov 14 13:32:33 2020

Copyright (c) 1996-2018 Texas Instruments Incorporated
MonoMtrServo.asm                                                     PAGE   51

    2468              $C$DW$167       .dwtag  DW_TAG_subprogram
    2469                      .dwattr $C$DW$167, DW_AT_name("C0")
    2470                      .dwattr $C$DW$167, DW_AT_low_pc(_C0)
    2471                      .dwattr $C$DW$167, DW_AT_high_pc(0x00)
    2472                      .dwattr $C$DW$167, DW_AT_TI_symbol_name("_C0")
    2473                      .dwattr $C$DW$167, DW_AT_external
    2474                      .dwattr $C$DW$167, DW_AT_TI_begin_file("../MonoMtrServo.c")
    2475                      .dwattr $C$DW$167, DW_AT_TI_begin_line(0x389)
    2476                      .dwattr $C$DW$167, DW_AT_TI_begin_column(0x06)
    2477                      .dwattr $C$DW$167, DW_AT_TI_max_frame_size(-2)
    2478                      .dwpsn  file "../MonoMtrServo.c",line 906,column 1,is_stmt,address _C0,isa 0
    2479              
    2480                      .dwfde $C$DW$CIE, _C0
    2481              
    2482              ;***************************************************************
    2483              ;* FNAME: _C0                           FR SIZE:   0           *
    2484              ;*                                                             *
    2485              ;* FUNCTION ENVIRONMENT                                        *
    2486              ;*                                                             *
    2487              ;* FUNCTION PROPERTIES                                         *
    2488              ;*                            0 Parameter,  0 Auto,  0 SOE     *
    2489              ;***************************************************************
    2490              
    2491 000001ac       _C0:
    2492                      .dwcfi  cfa_offset, -2
    2493                      .dwcfi  save_reg_to_mem, 26, 0
    2494 000001ac 761F!         MOVW      DP,#_CpuTimer2Regs+4  ; [CPU_ARAU] 
         000001ad 0000 
    2495                      .dwpsn  file "../MonoMtrServo.c",line 908,column 2,is_stmt,isa 0
    2496 000001ae 4F04!         TBIT      @$BLOCKED(_CpuTimer2Regs)+4,#15 ; [CPU_ALU] |908| 
    2497 000001af 6C0C          B         $C$L14,NTC            ; [CPU_ALU] |908| 
    2498                      ; branchcc occurs ; [] |908| 
    2499 000001b0 761F-         MOVW      DP,#_C_Task_Ptr       ; [CPU_ARAU] 
         000001b1 0000 
    2500                      .dwpsn  file "../MonoMtrServo.c",line 913,column 3,is_stmt,isa 0
    2501 000001b2 C510-         MOVL      XAR7,@_C_Task_Ptr     ; [CPU_ALU] |913| 
    2502 000001b3 761F!         MOVW      DP,#_CpuTimer2Regs+4  ; [CPU_ARAU] 
         000001b4 0000 
    2503                      .dwpsn  file "../MonoMtrServo.c",line 910,column 3,is_stmt,isa 0
    2504 000001b5 1A04!         OR        @$BLOCKED(_CpuTimer2Regs)+4,#0x8000 ; [CPU_ALU] |910| 
         000001b6 8000 
    2505                      .dwpsn  file "../MonoMtrServo.c",line 913,column 3,is_stmt,isa 0
    2506              $C$DW$168       .dwtag  DW_TAG_TI_branch
    2507                      .dwattr $C$DW$168, DW_AT_low_pc(0x00)
    2508                      .dwattr $C$DW$168, DW_AT_TI_call
    2509                      .dwattr $C$DW$168, DW_AT_TI_indirect
    2510              
    2511 000001b7 3E67          LCR       *XAR7                 ; [CPU_ALU] |913| 
    2512                      ; call occurs [XAR7] ; [] |913| 
    2513 000001b8 761F-         MOVW      DP,#_VTimer2          ; [CPU_ARAU] 
         000001b9 0000 
    2514                      .dwpsn  file "../MonoMtrServo.c",line 915,column 3,is_stmt,isa 0
    2515 000001ba 0A00!         INC       @$BLOCKED(_VTimer2)   ; [CPU_ALU] |915| 
    2516 000001bb       $C$L14:    
    2517                      .dwpsn  file "../MonoMtrServo.c",line 918,column 2,is_stmt,isa 0
TMS320C2000 Assembler PC v20.2.1 Sat Nov 14 13:32:33 2020

Copyright (c) 1996-2018 Texas Instruments Incorporated
MonoMtrServo.asm                                                     PAGE   52

    2518 000001bb 8F00'         MOVL      XAR4,#_A0             ; [CPU_ARAU] |918| 
         000001bc 017F 
    2519 000001bd 761F-         MOVW      DP,#_Alpha_State_Ptr  ; [CPU_ARAU] 
         000001be 0000 
    2520 000001bf A80A-         MOVL      @_Alpha_State_Ptr,XAR4 ; [CPU_ALU] |918| 
    2521              $C$DW$169       .dwtag  DW_TAG_TI_branch
    2522                      .dwattr $C$DW$169, DW_AT_low_pc(0x00)
    2523                      .dwattr $C$DW$169, DW_AT_TI_return
    2524              
    2525 000001c0 0006          LRETR     ; [CPU_ALU] 
    2526                      ; return occurs ; [] 
    2527                      .dwattr $C$DW$167, DW_AT_TI_end_file("../MonoMtrServo.c")
    2528                      .dwattr $C$DW$167, DW_AT_TI_end_line(0x397)
    2529                      .dwattr $C$DW$167, DW_AT_TI_end_column(0x01)
    2530                      .dwendentry
    2531                      .dwendtag $C$DW$167
    2532              
    2533 000001c1               .sect   ".text"
    2534                      .clink
    2535                      .global _main
    2536              
    2537              $C$DW$170       .dwtag  DW_TAG_subprogram
    2538                      .dwattr $C$DW$170, DW_AT_name("main")
    2539                      .dwattr $C$DW$170, DW_AT_low_pc(_main)
    2540                      .dwattr $C$DW$170, DW_AT_high_pc(0x00)
    2541                      .dwattr $C$DW$170, DW_AT_TI_symbol_name("_main")
    2542                      .dwattr $C$DW$170, DW_AT_external
    2543                      .dwattr $C$DW$170, DW_AT_TI_begin_file("../MonoMtrServo.c")
    2544                      .dwattr $C$DW$170, DW_AT_TI_begin_line(0x19e)
    2545                      .dwattr $C$DW$170, DW_AT_TI_begin_column(0x06)
    2546                      .dwattr $C$DW$170, DW_AT_TI_max_frame_size(-14)
    2547                      .dwpsn  file "../MonoMtrServo.c",line 415,column 1,is_stmt,address _main,isa 0
    2548              
    2549                      .dwfde $C$DW$CIE, _main
    2550              
    2551              ;***************************************************************
    2552              ;* FNAME: _main                         FR SIZE:  12           *
    2553              ;*                                                             *
    2554              ;* FUNCTION ENVIRONMENT                                        *
    2555              ;*                                                             *
    2556              ;* FUNCTION PROPERTIES                                         *
    2557              ;*                            0 Parameter,  0 Auto, 12 SOE     *
    2558              ;***************************************************************
    2559              
    2560 000001c1       _main:
    2561              ;* R1    assigned to $O$C1
    2562              ;* AR5   assigned to $O$C2
    2563              ;* AR1   assigned to $O$C3
    2564              ;* AR1   assigned to $O$C4
    2565              ;* AR4   assigned to $O$C5
    2566              ;* AR1   assigned to $O$C6
    2567                      .dwcfi  cfa_offset, -2
    2568                      .dwcfi  save_reg_to_mem, 26, 0
    2569 000001c1 B2BD          MOVL      *SP++,XAR1            ; [CPU_ALU] 
    2570                      .dwcfi  save_reg_to_mem, 7, 2
TMS320C2000 Assembler PC v20.2.1 Sat Nov 14 13:32:33 2020

Copyright (c) 1996-2018 Texas Instruments Incorporated
MonoMtrServo.asm                                                     PAGE   53

    2571                      .dwcfi  cfa_offset, -4
    2572 000001c2 AABD          MOVL      *SP++,XAR2            ; [CPU_ALU] 
    2573                      .dwcfi  save_reg_to_mem, 9, 4
    2574                      .dwcfi  cfa_offset, -6
    2575 000001c3 A2BD          MOVL      *SP++,XAR3            ; [CPU_ALU] 
    2576                      .dwcfi  save_reg_to_mem, 11, 6
    2577                      .dwcfi  cfa_offset, -8
    2578 000001c4 E203          MOV32     *SP++,R4H             ; [CPU_FPU] 
         000001c5 04BD 
    2579                      .dwcfi  save_reg_to_mem, 59, 8
    2580                      .dwcfi  cfa_offset, -10
    2581 000001c6 E203          MOV32     *SP++,R5H             ; [CPU_FPU] 
         000001c7 05BD 
    2582                      .dwcfi  save_reg_to_mem, 63, 10
    2583                      .dwcfi  cfa_offset, -12
    2584 000001c8 E203          MOV32     *SP++,R6H             ; [CPU_FPU] 
         000001c9 06BD 
    2585                      .dwcfi  save_reg_to_mem, 67, 12
    2586                      .dwcfi  cfa_offset, -14
    2587                      .dwpsn  file "../MonoMtrServo.c",line 420,column 2,is_stmt,isa 0
    2588              $C$DW$171       .dwtag  DW_TAG_TI_branch
    2589                      .dwattr $C$DW$171, DW_AT_low_pc(0x00)
    2590                      .dwattr $C$DW$171, DW_AT_name("_InitSysCtrl1")
    2591                      .dwattr $C$DW$171, DW_AT_TI_call
    2592              
    2593 000001ca 7640!         LCR       #_InitSysCtrl1        ; [CPU_ALU] |420| 
         000001cb 0000 
    2594                      ; call occurs [#_InitSysCtrl1] ; [] |420| 
    2595 000001cc 761F-         MOVW      DP,#_EnableFlag       ; [CPU_ARAU] 
         000001cd 0000 
    2596                      .dwpsn  file "../MonoMtrServo.c",line 423,column 9,is_stmt,isa 0
    2597 000001ce 9201-         MOV       AL,@_EnableFlag       ; [CPU_ALU] |423| 
    2598 000001cf 6005          B         $C$L16,NEQ            ; [CPU_ALU] |423| 
    2599                      ; branchcc occurs ; [] |423| 
    2600 000001d0       $C$L15:    
    2601 000001d0 9201-         MOV       AL,@_EnableFlag       ; [CPU_ALU] |423| 
    2602                      .dwpsn  file "../MonoMtrServo.c",line 425,column 4,is_stmt,isa 0
    2603 000001d1 0A02-         INC       @_BackTicker          ; [CPU_ALU] |425| 
    2604                      .dwpsn  file "../MonoMtrServo.c",line 423,column 9,is_stmt,isa 0
    2605 000001d2 5200          CMPB      AL,#0                 ; [CPU_ALU] |423| 
    2606 000001d3 61FD          B         $C$L15,EQ             ; [CPU_ALU] |423| 
    2607                      ; branchcc occurs ; [] |423| 
    2608 000001d4       $C$L16:    
    2609 000001d4 3B10   setc INTM
    2610 000001d5 FF69          SPM       #0                    ; [CPU_ALU] 
    2611                      .dwpsn  file "../MonoMtrServo.c",line 437,column 2,is_stmt,isa 0
    2612              $C$DW$172       .dwtag  DW_TAG_TI_branch
    2613                      .dwattr $C$DW$172, DW_AT_low_pc(0x00)
    2614                      .dwattr $C$DW$172, DW_AT_name("_InitPieCtrl")
    2615                      .dwattr $C$DW$172, DW_AT_TI_call
    2616              
    2617 000001d6 7640!         LCR       #_InitPieCtrl         ; [CPU_ALU] |437| 
         000001d7 0000 
    2618                      ; call occurs [#_InitPieCtrl] ; [] |437| 
    2619                      .dwpsn  file "../MonoMtrServo.c",line 440,column 2,is_stmt,isa 0
TMS320C2000 Assembler PC v20.2.1 Sat Nov 14 13:32:33 2020

Copyright (c) 1996-2018 Texas Instruments Incorporated
MonoMtrServo.asm                                                     PAGE   54

    2620 000001d8 7626          AND       IER,#0x0000           ; [CPU_ALU] |440| 
         000001d9 0000 
    2621                      .dwpsn  file "../MonoMtrServo.c",line 441,column 2,is_stmt,isa 0
    2622 000001da 762F          AND       IFR,#0x0000           ; [CPU_ALU] |441| 
         000001db 0000 
    2623                      .dwpsn  file "../MonoMtrServo.c",line 448,column 2,is_stmt,isa 0
    2624              $C$DW$173       .dwtag  DW_TAG_TI_branch
    2625                      .dwattr $C$DW$173, DW_AT_low_pc(0x00)
    2626                      .dwattr $C$DW$173, DW_AT_name("_InitPieVectTable")
    2627                      .dwattr $C$DW$173, DW_AT_TI_call
    2628              
    2629 000001dc 7640!         LCR       #_InitPieVectTable    ; [CPU_ALU] |448| 
         000001dd 0000 
    2630                      ; call occurs [#_InitPieVectTable] ; [] |448| 
    2631                      .dwpsn  file "../MonoMtrServo.c",line 451,column 2,is_stmt,isa 0
    2632 000001de 9A4E          MOVB      AL,#78                ; [CPU_ALU] |451| 
    2633 000001df D430          MOVB      XAR4,#48              ; [CPU_ALU] |451| 
    2634 000001e0 9B01          MOVB      AH,#1                 ; [CPU_ALU] |451| 
    2635              $C$DW$174       .dwtag  DW_TAG_TI_branch
    2636                      .dwattr $C$DW$174, DW_AT_low_pc(0x00)
    2637                      .dwattr $C$DW$174, DW_AT_name("_GPIO_SetupPinOptions")
    2638                      .dwattr $C$DW$174, DW_AT_TI_call
    2639              
    2640 000001e1 7640!         LCR       #_GPIO_SetupPinOptions ; [CPU_ALU] |451| 
         000001e2 0000 
    2641                      ; call occurs [#_GPIO_SetupPinOptions] ; [] |451| 
    2642                      .dwpsn  file "../MonoMtrServo.c",line 452,column 2,is_stmt,isa 0
    2643 000001e3 9A4E          MOVB      AL,#78                ; [CPU_ALU] |452| 
    2644 000001e4 D400          MOVB      XAR4,#0               ; [CPU_ALU] |452| 
    2645 000001e5 9B00          MOVB      AH,#0                 ; [CPU_ALU] |452| 
    2646              $C$DW$175       .dwtag  DW_TAG_TI_branch
    2647                      .dwattr $C$DW$175, DW_AT_low_pc(0x00)
    2648                      .dwattr $C$DW$175, DW_AT_name("_GPIO_SetupPinMux")
    2649                      .dwattr $C$DW$175, DW_AT_TI_call
    2650              
    2651 000001e6 7640!         LCR       #_GPIO_SetupPinMux    ; [CPU_ALU] |452| 
         000001e7 0000 
    2652                      ; call occurs [#_GPIO_SetupPinMux] ; [] |452| 
    2653                      .dwpsn  file "../MonoMtrServo.c",line 454,column 5,is_stmt,isa 0
    2654 000001e8 9A0D          MOVB      AL,#13                ; [CPU_ALU] |454| 
    2655 000001e9 D400          MOVB      XAR4,#0               ; [CPU_ALU] |454| 
    2656 000001ea 9B01          MOVB      AH,#1                 ; [CPU_ALU] |454| 
    2657              $C$DW$176       .dwtag  DW_TAG_TI_branch
    2658                      .dwattr $C$DW$176, DW_AT_low_pc(0x00)
    2659                      .dwattr $C$DW$176, DW_AT_name("_GPIO_SetupPinOptions")
    2660                      .dwattr $C$DW$176, DW_AT_TI_call
    2661              
    2662 000001eb 7640!         LCR       #_GPIO_SetupPinOptions ; [CPU_ALU] |454| 
         000001ec 0000 
    2663                      ; call occurs [#_GPIO_SetupPinOptions] ; [] |454| 
    2664                      .dwpsn  file "../MonoMtrServo.c",line 455,column 5,is_stmt,isa 0
    2665 000001ed 9A0D          MOVB      AL,#13                ; [CPU_ALU] |455| 
    2666 000001ee D400          MOVB      XAR4,#0               ; [CPU_ALU] |455| 
    2667 000001ef 9B00          MOVB      AH,#0                 ; [CPU_ALU] |455| 
    2668              $C$DW$177       .dwtag  DW_TAG_TI_branch
TMS320C2000 Assembler PC v20.2.1 Sat Nov 14 13:32:33 2020

Copyright (c) 1996-2018 Texas Instruments Incorporated
MonoMtrServo.asm                                                     PAGE   55

    2669                      .dwattr $C$DW$177, DW_AT_low_pc(0x00)
    2670                      .dwattr $C$DW$177, DW_AT_name("_GPIO_SetupPinMux")
    2671                      .dwattr $C$DW$177, DW_AT_TI_call
    2672              
    2673 000001f0 7640!         LCR       #_GPIO_SetupPinMux    ; [CPU_ALU] |455| 
         000001f1 0000 
    2674                      ; call occurs [#_GPIO_SetupPinMux] ; [] |455| 
    2675                      .dwpsn  file "../MonoMtrServo.c",line 480,column 2,is_stmt,isa 0
    2676 000001f2 8D40!         MOVL      XAR1,#_EPwm7Regs      ; [CPU_ARAU] |480| 
         000001f3 0000 
    2677                      .dwpsn  file "../MonoMtrServo.c",line 470,column 2,is_stmt,isa 0
    2678 000001f4 8D80'         MOVL      XAR2,#_A0             ; [CPU_ARAU] |470| 
         000001f5 017F 
    2679                      .dwpsn  file "../MonoMtrServo.c",line 467,column 2,is_stmt,isa 0
    2680 000001f6 8DC0          MOVL      XAR3,#30000           ; [CPU_ARAU] |467| 
         000001f7 7530 
    2681 000001f8 761F-         MOVW      DP,#_motor1           ; [CPU_ARAU] 
         000001f9 0002 
    2682                      .dwpsn  file "../MonoMtrServo.c",line 465,column 2,is_stmt,isa 0
    2683 000001fa 8F00          MOVL      XAR4,#10000           ; [CPU_ARAU] |465| 
         000001fb 2710 
    2684                      .dwpsn  file "../MonoMtrServo.c",line 481,column 2,is_stmt,isa 0
    2685 000001fc 7680!         MOVL      XAR6,#_EPwm8Regs      ; [CPU_ARAU] |481| 
         000001fd 0000 
    2686                      .dwpsn  file "../MonoMtrServo.c",line 480,column 2,is_stmt,isa 0
    2687 000001fe B200!         MOVL      @$BLOCKED(_motor1),XAR1 ; [CPU_ALU] |480| 
    2688                      .dwpsn  file "../MonoMtrServo.c",line 466,column 2,is_stmt,isa 0
    2689 000001ff 8F40          MOVL      XAR5,#20000           ; [CPU_ARAU] |466| 
         00000200 4E20 
    2690 00000201 761F!         MOVW      DP,#_CpuTimer0Regs+2  ; [CPU_ARAU] 
         00000202 0000 
    2691                      .dwpsn  file "../MonoMtrServo.c",line 471,column 2,is_stmt,isa 0
    2692 00000203 8D00'         MOVL      XAR0,#_A1             ; [CPU_ARAU] |471| 
         00000204 0149 
    2693                      .dwpsn  file "../MonoMtrServo.c",line 472,column 2,is_stmt,isa 0
    2694 00000205 76C0'         MOVL      XAR7,#_B1             ; [CPU_ARAU] |472| 
         00000206 0143 
    2695                      .dwpsn  file "../MonoMtrServo.c",line 465,column 2,is_stmt,isa 0
    2696 00000207 A802!         MOVL      @$BLOCKED(_CpuTimer0Regs)+2,XAR4 ; [CPU_ALU] |465| 
    2697 00000208 761F-         MOVW      DP,#_motor1+2         ; [CPU_ARAU] 
         00000209 0002 
    2698                      .dwpsn  file "../MonoMtrServo.c",line 482,column 2,is_stmt,isa 0
    2699 0000020a 8F00!         MOVL      XAR4,#_EPwm9Regs      ; [CPU_ARAU] |482| 
         0000020b 0000 
    2700                      .dwpsn  file "../MonoMtrServo.c",line 481,column 2,is_stmt,isa 0
    2701 0000020c C202!         MOVL      @$BLOCKED(_motor1)+2,XAR6 ; [CPU_ALU] |481| 
    2702 0000020d 761F!         MOVW      DP,#_CpuTimer1Regs+2  ; [CPU_ARAU] 
         0000020e 0000 
    2703                      .dwpsn  file "../MonoMtrServo.c",line 473,column 2,is_stmt,isa 0
    2704 0000020f 7680'         MOVL      XAR6,#_C1             ; [CPU_ARAU] |473| 
         00000210 0125 
    2705                      .dwpsn  file "../MonoMtrServo.c",line 466,column 2,is_stmt,isa 0
    2706 00000211 A002!         MOVL      @$BLOCKED(_CpuTimer1Regs)+2,XAR5 ; [CPU_ALU] |466| 
    2707 00000212 761F-         MOVW      DP,#_motor1+4         ; [CPU_ARAU] 
         00000213 0002 
TMS320C2000 Assembler PC v20.2.1 Sat Nov 14 13:32:33 2020

Copyright (c) 1996-2018 Texas Instruments Incorporated
MonoMtrServo.asm                                                     PAGE   56

    2708                      .dwpsn  file "../MonoMtrServo.c",line 483,column 2,is_stmt,isa 0
    2709 00000214 8F40!         MOVL      XAR5,#_EQep3Regs      ; [CPU_ARAU] |483| 
         00000215 0000 
    2710                      .dwpsn  file "../MonoMtrServo.c",line 482,column 2,is_stmt,isa 0
    2711 00000216 A804!         MOVL      @$BLOCKED(_motor1)+4,XAR4 ; [CPU_ALU] |482| 
    2712 00000217 761F-         MOVW      DP,#_Alpha_State_Ptr  ; [CPU_ARAU] 
         00000218 0000 
    2713                      .dwpsn  file "../MonoMtrServo.c",line 484,column 2,is_stmt,isa 0
    2714 00000219 8F00!         MOVL      XAR4,#_SpiaRegs       ; [CPU_ARAU] |484| 
         0000021a 0000 
    2715                      .dwpsn  file "../MonoMtrServo.c",line 470,column 2,is_stmt,isa 0
    2716 0000021b AA0A-         MOVL      @_Alpha_State_Ptr,XAR2 ; [CPU_ALU] |470| 
    2717                      .dwpsn  file "../MonoMtrServo.c",line 471,column 2,is_stmt,isa 0
    2718 0000021c 3A0C-         MOVL      @_A_Task_Ptr,XAR0     ; [CPU_ALU] |471| 
    2719                      .dwpsn  file "../MonoMtrServo.c",line 472,column 2,is_stmt,isa 0
    2720 0000021d C30E-         MOVL      @_B_Task_Ptr,XAR7     ; [CPU_ALU] |472| 
    2721                      .dwpsn  file "../MonoMtrServo.c",line 473,column 2,is_stmt,isa 0
    2722 0000021e C210-         MOVL      @_C_Task_Ptr,XAR6     ; [CPU_ALU] |473| 
    2723 0000021f 761F!         MOVW      DP,#_CpuTimer2Regs+2  ; [CPU_ARAU] 
         00000220 0000 
    2724                      .dwpsn  file "../MonoMtrServo.c",line 467,column 2,is_stmt,isa 0
    2725 00000221 A202!         MOVL      @$BLOCKED(_CpuTimer2Regs)+2,XAR3 ; [CPU_ALU] |467| 
    2726 00000222 761F-         MOVW      DP,#_motor1+6         ; [CPU_ARAU] 
         00000223 0002 
    2727                      .dwpsn  file "../MonoMtrServo.c",line 483,column 2,is_stmt,isa 0
    2728 00000224 A006!         MOVL      @$BLOCKED(_motor1)+6,XAR5 ; [CPU_ALU] |483| 
    2729                      .dwpsn  file "../MonoMtrServo.c",line 484,column 2,is_stmt,isa 0
    2730 00000225 A808!         MOVL      @$BLOCKED(_motor1)+8,XAR4 ; [CPU_ALU] |484| 
    2731                      .dwpsn  file "../MonoMtrServo.c",line 485,column 2,is_stmt,isa 0
    2732 00000226 56BF!         MOVB      @$BLOCKED(_motor1)+10,#4,UNC ; [CPU_ALU] |485| 
         00000227 040A 
    2733 00000228 7622   EALLOW
    2734 00000229 761F!         MOVW      DP,#_CpuSysRegs+35    ; [CPU_ARAU] 
         0000022a 0000 
    2735                      .dwpsn  file "../MonoMtrServo.c",line 501,column 2,is_stmt,isa 0
    2736 0000022b 28A9          MOV       AL,#10000             ; [CPU_ALU] |501| 
         0000022c 2710 
    2737 0000022d FF69          SPM       #0                    ; [CPU_ALU] 
    2738                      .dwpsn  file "../MonoMtrServo.c",line 494,column 2,is_stmt,isa 0
    2739 0000022e 1823!         AND       @$BLOCKED(_CpuSysRegs)+35,#0xfffb ; [CPU_ALU] |494| 
         0000022f FFFB 
    2740 00000230 761F-         MOVW      DP,#_motor1           ; [CPU_ARAU] 
         00000231 0002 
    2741                      .dwpsn  file "../MonoMtrServo.c",line 501,column 2,is_stmt,isa 0
    2742 00000232 8A00!         MOVL      XAR4,@$BLOCKED(_motor1) ; [CPU_ALU] |501| 
    2743              $C$DW$178       .dwtag  DW_TAG_TI_branch
    2744                      .dwattr $C$DW$178, DW_AT_low_pc(0x00)
    2745                      .dwattr $C$DW$178, DW_AT_name("_PWM_1ch_UpDwnCnt_CNF_noDB")
    2746                      .dwattr $C$DW$178, DW_AT_TI_call
    2747              
    2748 00000233 7640!         LCR       #_PWM_1ch_UpDwnCnt_CNF_noDB ; [CPU_ALU] |501| 
         00000234 0000 
    2749                      ; call occurs [#_PWM_1ch_UpDwnCnt_CNF_noDB] ; [] |501| 
    2750 00000235 761F-         MOVW      DP,#_motor1+2         ; [CPU_ARAU] 
         00000236 0002 
TMS320C2000 Assembler PC v20.2.1 Sat Nov 14 13:32:33 2020

Copyright (c) 1996-2018 Texas Instruments Incorporated
MonoMtrServo.asm                                                     PAGE   57

    2751                      .dwpsn  file "../MonoMtrServo.c",line 502,column 2,is_stmt,isa 0
    2752 00000237 28A9          MOV       AL,#10000             ; [CPU_ALU] |502| 
         00000238 2710 
    2753 00000239 8A02!         MOVL      XAR4,@$BLOCKED(_motor1)+2 ; [CPU_ALU] |502| 
    2754              $C$DW$179       .dwtag  DW_TAG_TI_branch
    2755                      .dwattr $C$DW$179, DW_AT_low_pc(0x00)
    2756                      .dwattr $C$DW$179, DW_AT_name("_PWM_1ch_UpDwnCnt_CNF_noDB")
    2757                      .dwattr $C$DW$179, DW_AT_TI_call
    2758              
    2759 0000023a 7640!         LCR       #_PWM_1ch_UpDwnCnt_CNF_noDB ; [CPU_ALU] |502| 
         0000023b 0000 
    2760                      ; call occurs [#_PWM_1ch_UpDwnCnt_CNF_noDB] ; [] |502| 
    2761 0000023c 761F-         MOVW      DP,#_motor1+4         ; [CPU_ARAU] 
         0000023d 0002 
    2762                      .dwpsn  file "../MonoMtrServo.c",line 503,column 2,is_stmt,isa 0
    2763 0000023e 28A9          MOV       AL,#10000             ; [CPU_ALU] |503| 
         0000023f 2710 
    2764 00000240 8A04!         MOVL      XAR4,@$BLOCKED(_motor1)+4 ; [CPU_ALU] |503| 
    2765              $C$DW$180       .dwtag  DW_TAG_TI_branch
    2766                      .dwattr $C$DW$180, DW_AT_low_pc(0x00)
    2767                      .dwattr $C$DW$180, DW_AT_name("_PWM_1ch_UpDwnCnt_CNF_noDB")
    2768                      .dwattr $C$DW$180, DW_AT_TI_call
    2769              
    2770 00000241 7640!         LCR       #_PWM_1ch_UpDwnCnt_CNF_noDB ; [CPU_ALU] |503| 
         00000242 0000 
    2771                      ; call occurs [#_PWM_1ch_UpDwnCnt_CNF_noDB] ; [] |503| 
    2772 00000243 761F-         MOVW      DP,#_motor1+2         ; [CPU_ARAU] 
         00000244 0002 
    2773                      .dwpsn  file "../MonoMtrServo.c",line 506,column 2,is_stmt,isa 0
    2774 00000245 8A02!         MOVL      XAR4,@$BLOCKED(_motor1)+2 ; [CPU_ALU] |506| 
    2775 00000246 18C4          AND       *+XAR4[0],#0xffcf     ; [CPU_ALU] |506| 
         00000247 FFCF 
    2776                      .dwpsn  file "../MonoMtrServo.c",line 507,column 2,is_stmt,isa 0
    2777 00000248 8302!         MOVL      XAR5,@$BLOCKED(_motor1)+2 ; [CPU_ALU] |507| 
    2778                      .dwpsn  file "../MonoMtrServo.c",line 508,column 2,is_stmt,isa 0
    2779 00000249 0261          MOVB      ACC,#97               ; [CPU_ALU] |508| 
    2780                      .dwpsn  file "../MonoMtrServo.c",line 507,column 2,is_stmt,isa 0
    2781 0000024a 1AC5          OR        *+XAR5[0],#0x0004     ; [CPU_ALU] |507| 
         0000024b 0004 
    2782                      .dwpsn  file "../MonoMtrServo.c",line 508,column 2,is_stmt,isa 0
    2783 0000024c 0702!         ADDL      ACC,@$BLOCKED(_motor1)+2 ; [CPU_ALU] |508| 
    2784 0000024d 8AA9          MOVL      XAR4,ACC              ; [CPU_ALU] |508| 
    2785 0000024e 56BF          MOVB      *+XAR4[0],#2,UNC      ; [CPU_ALU] |508| 
         0000024f 02C4 
    2786                      .dwpsn  file "../MonoMtrServo.c",line 509,column 2,is_stmt,isa 0
    2787 00000250 8A02!         MOVL      XAR4,@$BLOCKED(_motor1)+2 ; [CPU_ALU] |509| 
    2788 00000251 1AC4          OR        *+XAR4[0],#0x2000     ; [CPU_ALU] |509| 
         00000252 2000 
    2789                      .dwpsn  file "../MonoMtrServo.c",line 511,column 2,is_stmt,isa 0
    2790 00000253 8A04!         MOVL      XAR4,@$BLOCKED(_motor1)+4 ; [CPU_ALU] |511| 
    2791 00000254 18C4          AND       *+XAR4[0],#0xffcf     ; [CPU_ALU] |511| 
         00000255 FFCF 
    2792                      .dwpsn  file "../MonoMtrServo.c",line 512,column 2,is_stmt,isa 0
    2793 00000256 8304!         MOVL      XAR5,@$BLOCKED(_motor1)+4 ; [CPU_ALU] |512| 
    2794                      .dwpsn  file "../MonoMtrServo.c",line 513,column 2,is_stmt,isa 0
TMS320C2000 Assembler PC v20.2.1 Sat Nov 14 13:32:33 2020

Copyright (c) 1996-2018 Texas Instruments Incorporated
MonoMtrServo.asm                                                     PAGE   58

    2795 00000257 0261          MOVB      ACC,#97               ; [CPU_ALU] |513| 
    2796                      .dwpsn  file "../MonoMtrServo.c",line 512,column 2,is_stmt,isa 0
    2797 00000258 1AC5          OR        *+XAR5[0],#0x0004     ; [CPU_ALU] |512| 
         00000259 0004 
    2798                      .dwpsn  file "../MonoMtrServo.c",line 513,column 2,is_stmt,isa 0
    2799 0000025a 0704!         ADDL      ACC,@$BLOCKED(_motor1)+4 ; [CPU_ALU] |513| 
    2800 0000025b 8AA9          MOVL      XAR4,ACC              ; [CPU_ALU] |513| 
    2801 0000025c 56BF          MOVB      *+XAR4[0],#2,UNC      ; [CPU_ALU] |513| 
         0000025d 02C4 
    2802                      .dwpsn  file "../MonoMtrServo.c",line 514,column 2,is_stmt,isa 0
    2803 0000025e 8A04!         MOVL      XAR4,@$BLOCKED(_motor1)+4 ; [CPU_ALU] |514| 
    2804 0000025f 1AC4          OR        *+XAR4[0],#0x2000     ; [CPU_ALU] |514| 
         00000260 2000 
    2805                      .dwpsn  file "../MonoMtrServo.c",line 516,column 2,is_stmt,isa 0
    2806              $C$DW$181       .dwtag  DW_TAG_TI_branch
    2807                      .dwattr $C$DW$181, DW_AT_low_pc(0x00)
    2808                      .dwattr $C$DW$181, DW_AT_name("_InitMotor1EPwmGpio")
    2809                      .dwattr $C$DW$181, DW_AT_TI_call
    2810              
    2811 00000261 7640!         LCR       #_InitMotor1EPwmGpio  ; [CPU_ALU] |516| 
         00000262 0000 
    2812                      ; call occurs [#_InitMotor1EPwmGpio] ; [] |516| 
    2813                      .dwpsn  file "../MonoMtrServo.c",line 521,column 2,is_stmt,isa 0
    2814 00000263 D0A4          MOVB      XAR0,#164             ; [CPU_ALU] |521| 
    2815 00000264 CC91          AND       AL,*+XAR1[AR0],#0xf8ff ; [CPU_ALU] |521| 
         00000265 F8FF 
    2816 00000266 761F!         MOVW      DP,#_EPwm7Regs+164    ; [CPU_ARAU] 
         00000267 0002 
    2817 00000268 1AA9          OR        AL,#0x0200            ; [CPU_ALU] |521| 
         00000269 0200 
    2818                      .dwpsn  file "../MonoMtrServo.c",line 522,column 2,is_stmt,isa 0
    2819 0000026a D0A6          MOVB      XAR0,#166             ; [CPU_ALU] |522| 
    2820                      .dwpsn  file "../MonoMtrServo.c",line 521,column 2,is_stmt,isa 0
    2821 0000026b 9624!         MOV       @$BLOCKED(_EPwm7Regs)+164,AL ; [CPU_ALU] |521| 
    2822                      .dwpsn  file "../MonoMtrServo.c",line 522,column 2,is_stmt,isa 0
    2823 0000026c CC91          AND       AL,*+XAR1[AR0],#0xfdff ; [CPU_ALU] |522| 
         0000026d FDFF 
    2824 0000026e 1AA9          OR        AL,#0x0100            ; [CPU_ALU] |522| 
         0000026f 0100 
    2825 00000270 9626!         MOV       @$BLOCKED(_EPwm7Regs)+166,AL ; [CPU_ALU] |522| 
    2826                      .dwpsn  file "../MonoMtrServo.c",line 523,column 2,is_stmt,isa 0
    2827 00000271 1A24!         OR        @$BLOCKED(_EPwm7Regs)+164,#0x0800 ; [CPU_ALU] |523| 
         00000272 0800 
    2828                      .dwpsn  file "../MonoMtrServo.c",line 531,column 2,is_stmt,isa 0
    2829              $C$DW$182       .dwtag  DW_TAG_TI_branch
    2830                      .dwattr $C$DW$182, DW_AT_low_pc(0x00)
    2831                      .dwattr $C$DW$182, DW_AT_name("_ConfigureADC")
    2832                      .dwattr $C$DW$182, DW_AT_TI_call
    2833              
    2834 00000273 7640!         LCR       #_ConfigureADC        ; [CPU_ALU] |531| 
         00000274 0000 
    2835                      ; call occurs [#_ConfigureADC] ; [] |531| 
    2836 00000275 7622   EALLOW
    2837                      .dwpsn  file "../MonoMtrServo.c",line 553,column 2,is_stmt,isa 0
    2838 00000276 8F00!         MOVL      XAR4,#_AdcaRegs       ; [CPU_ARAU] |553| 
TMS320C2000 Assembler PC v20.2.1 Sat Nov 14 13:32:33 2020

Copyright (c) 1996-2018 Texas Instruments Incorporated
MonoMtrServo.asm                                                     PAGE   59

         00000277 0000 
    2839 00000278 761F!         MOVW      DP,#_AdcaRegs+16      ; [CPU_ARAU] 
         00000279 0000 
    2840                      .dwpsn  file "../MonoMtrServo.c",line 562,column 2,is_stmt,isa 0
    2841 0000027a 8D40!         MOVL      XAR1,#_AdcbRegs       ; [CPU_ARAU] |562| 
         0000027b 0000 
    2842                      .dwpsn  file "../MonoMtrServo.c",line 553,column 2,is_stmt,isa 0
    2843 0000027c 83A4          MOVL      XAR5,XAR4             ; [CPU_ALU] |553| 
    2844                      .dwpsn  file "../MonoMtrServo.c",line 555,column 2,is_stmt,isa 0
    2845 0000027d D011          MOVB      XAR0,#17              ; [CPU_ALU] |555| 
    2846                      .dwpsn  file "../MonoMtrServo.c",line 557,column 2,is_stmt,isa 0
    2847 0000027e C5A4          MOVL      XAR7,XAR4             ; [CPU_ALU] |557| 
    2848                      .dwpsn  file "../MonoMtrServo.c",line 558,column 2,is_stmt,isa 0
    2849 0000027f C4A4          MOVL      XAR6,XAR4             ; [CPU_ALU] |558| 
    2850                      .dwpsn  file "../MonoMtrServo.c",line 553,column 2,is_stmt,isa 0
    2851 00000280 DD10          ADDB      XAR5,#16              ; [CPU_ALU] |553| 
    2852 00000281 18C5          AND       *+XAR5[0],#32767      ; [CPU_ALU] |553| 
         00000282 7FFF 
    2853                      .dwpsn  file "../MonoMtrServo.c",line 557,column 2,is_stmt,isa 0
    2854 00000283 DF40          ADDB      XAR7,#64              ; [CPU_ALU] |557| 
    2855                      .dwpsn  file "../MonoMtrServo.c",line 553,column 2,is_stmt,isa 0
    2856 00000284 18CD          AND       *+XAR5[1],#65528      ; [CPU_ALU] |553| 
         00000285 FFF8 
    2857                      .dwpsn  file "../MonoMtrServo.c",line 554,column 2,is_stmt,isa 0
    2858 00000286 CC10!         AND       AL,@$BLOCKED(_AdcaRegs)+16,#0xfe00 ; [CPU_ALU] |554| 
         00000287 FE00 
    2859                      .dwpsn  file "../MonoMtrServo.c",line 562,column 2,is_stmt,isa 0
    2860 00000288 83A1          MOVL      XAR5,XAR1             ; [CPU_ALU] |562| 
    2861                      .dwpsn  file "../MonoMtrServo.c",line 558,column 2,is_stmt,isa 0
    2862 00000289 DE42          ADDB      XAR6,#66              ; [CPU_ALU] |558| 
    2863                      .dwpsn  file "../MonoMtrServo.c",line 554,column 2,is_stmt,isa 0
    2864 0000028a 501E          ORB       AL,#0x1e              ; [CPU_ALU] |554| 
    2865 0000028b 9610!         MOV       @$BLOCKED(_AdcaRegs)+16,AL ; [CPU_ALU] |554| 
    2866                      .dwpsn  file "../MonoMtrServo.c",line 562,column 2,is_stmt,isa 0
    2867 0000028c DD10          ADDB      XAR5,#16              ; [CPU_ALU] |562| 
    2868                      .dwpsn  file "../MonoMtrServo.c",line 555,column 2,is_stmt,isa 0
    2869 0000028d CC94          AND       AL,*+XAR4[AR0],#0xff1f ; [CPU_FPU] |555| 
         0000028e FF1F 
    2870 0000028f 1AA9          OR        AL,#0x0110            ; [CPU_ALU] |555| 
         00000290 0110 
    2871                      .dwpsn  file "../MonoMtrServo.c",line 564,column 2,is_stmt,isa 0
    2872 00000291 D011          MOVB      XAR0,#17              ; [CPU_FPU] |564| 
    2873                      .dwpsn  file "../MonoMtrServo.c",line 555,column 2,is_stmt,isa 0
    2874 00000292 9611!         MOV       @$BLOCKED(_AdcaRegs)+17,AL ; [CPU_FPU] |555| 
    2875 00000293 761F!         MOVW      DP,#_AdcbRegs+16      ; [CPU_ARAU] 
         00000294 0000 
    2876                      .dwpsn  file "../MonoMtrServo.c",line 557,column 2,is_stmt,isa 0
    2877 00000295 18C7          AND       *+XAR7[0],#0xfff0     ; [CPU_FPU] |557| 
         00000296 FFF0 
    2878                      .dwpsn  file "../MonoMtrServo.c",line 558,column 2,is_stmt,isa 0
    2879 00000297 18C6          AND       *+XAR6[0],#0xfc00     ; [CPU_FPU] |558| 
         00000298 FC00 
    2880                      .dwpsn  file "../MonoMtrServo.c",line 566,column 2,is_stmt,isa 0
    2881 00000299 C4A1          MOVL      XAR6,XAR1             ; [CPU_FPU] |566| 
    2882                      .dwpsn  file "../MonoMtrServo.c",line 562,column 2,is_stmt,isa 0
TMS320C2000 Assembler PC v20.2.1 Sat Nov 14 13:32:33 2020

Copyright (c) 1996-2018 Texas Instruments Incorporated
MonoMtrServo.asm                                                     PAGE   60

    2883 0000029a 18C5          AND       *+XAR5[0],#32767      ; [CPU_ALU] |562| 
         0000029b 7FFF 
    2884 0000029c 18CD          AND       *+XAR5[1],#65528      ; [CPU_ALU] |562| 
         0000029d FFF8 
    2885                      .dwpsn  file "../MonoMtrServo.c",line 567,column 2,is_stmt,isa 0
    2886 0000029e 83A1          MOVL      XAR5,XAR1             ; [CPU_ALU] |567| 
    2887                      .dwpsn  file "../MonoMtrServo.c",line 566,column 2,is_stmt,isa 0
    2888 0000029f DE40          ADDB      XAR6,#64              ; [CPU_ALU] |566| 
    2889                      .dwpsn  file "../MonoMtrServo.c",line 563,column 2,is_stmt,isa 0
    2890 000002a0 CC10!         AND       AL,@$BLOCKED(_AdcbRegs)+16,#0xfe00 ; [CPU_ALU] |563| 
         000002a1 FE00 
    2891 000002a2 501E          ORB       AL,#0x1e              ; [CPU_ALU] |563| 
    2892                      .dwpsn  file "../MonoMtrServo.c",line 567,column 2,is_stmt,isa 0
    2893 000002a3 DD42          ADDB      XAR5,#66              ; [CPU_ALU] |567| 
    2894                      .dwpsn  file "../MonoMtrServo.c",line 563,column 2,is_stmt,isa 0
    2895 000002a4 9610!         MOV       @$BLOCKED(_AdcbRegs)+16,AL ; [CPU_ALU] |563| 
    2896                      .dwpsn  file "../MonoMtrServo.c",line 564,column 2,is_stmt,isa 0
    2897 000002a5 CC91          AND       AL,*+XAR1[AR0],#0xff1f ; [CPU_FPU] |564| 
         000002a6 FF1F 
    2898 000002a7 1AA9          OR        AL,#0x0110            ; [CPU_ALU] |564| 
         000002a8 0110 
    2899                      .dwpsn  file "../MonoMtrServo.c",line 571,column 2,is_stmt,isa 0
    2900 000002a9 D014          MOVB      XAR0,#20              ; [CPU_FPU] |571| 
    2901                      .dwpsn  file "../MonoMtrServo.c",line 564,column 2,is_stmt,isa 0
    2902 000002aa 9611!         MOV       @$BLOCKED(_AdcbRegs)+17,AL ; [CPU_FPU] |564| 
    2903 000002ab 761F!         MOVW      DP,#_AdcaRegs+20      ; [CPU_ARAU] 
         000002ac 0000 
    2904                      .dwpsn  file "../MonoMtrServo.c",line 566,column 2,is_stmt,isa 0
    2905 000002ad 18C6          AND       *+XAR6[0],#0xfff0     ; [CPU_FPU] |566| 
         000002ae FFF0 
    2906                      .dwpsn  file "../MonoMtrServo.c",line 567,column 2,is_stmt,isa 0
    2907 000002af 18C5          AND       *+XAR5[0],#0xfc00     ; [CPU_ALU] |567| 
         000002b0 FC00 
    2908                      .dwpsn  file "../MonoMtrServo.c",line 571,column 2,is_stmt,isa 0
    2909 000002b1 0694          MOVL      ACC,*+XAR4[AR0]       ; [CPU_ALU] |571| 
    2910 000002b2 18A8          AND       AH,#65528             ; [CPU_ALU] |571| 
         000002b3 FFF8 
    2911 000002b4 1AA9          OR        AL,#32768             ; [CPU_ALU] |571| 
         000002b5 8000 
    2912                      .dwpsn  file "../MonoMtrServo.c",line 573,column 2,is_stmt,isa 0
    2913 000002b6 D015          MOVB      XAR0,#21              ; [CPU_ALU] |573| 
    2914                      .dwpsn  file "../MonoMtrServo.c",line 571,column 2,is_stmt,isa 0
    2915 000002b7 1E14!         MOVL      @$BLOCKED(_AdcaRegs)+20,ACC ; [CPU_ALU] |571| 
    2916                      .dwpsn  file "../MonoMtrServo.c",line 572,column 2,is_stmt,isa 0
    2917 000002b8 CC14!         AND       AL,@$BLOCKED(_AdcaRegs)+20,#0xfe00 ; [CPU_ALU] |572| 
         000002b9 FE00 
    2918 000002ba 501E          ORB       AL,#0x1e              ; [CPU_ALU] |572| 
    2919 000002bb 9614!         MOV       @$BLOCKED(_AdcaRegs)+20,AL ; [CPU_ALU] |572| 
    2920                      .dwpsn  file "../MonoMtrServo.c",line 573,column 2,is_stmt,isa 0
    2921 000002bc CC94          AND       AL,*+XAR4[AR0],#0xff1f ; [CPU_ALU] |573| 
         000002bd FF1F 
    2922 000002be 1AA9          OR        AL,#0x0110            ; [CPU_ALU] |573| 
         000002bf 0110 
    2923                      .dwpsn  file "../MonoMtrServo.c",line 575,column 2,is_stmt,isa 0
    2924 000002c0 D050          MOVB      XAR0,#80              ; [CPU_FPU] |575| 
TMS320C2000 Assembler PC v20.2.1 Sat Nov 14 13:32:33 2020

Copyright (c) 1996-2018 Texas Instruments Incorporated
MonoMtrServo.asm                                                     PAGE   61

    2925                      .dwpsn  file "../MonoMtrServo.c",line 573,column 2,is_stmt,isa 0
    2926 000002c1 9615!         MOV       @$BLOCKED(_AdcaRegs)+21,AL ; [CPU_ALU] |573| 
    2927 000002c2 761F!         MOVW      DP,#_AdcaRegs+80      ; [CPU_ARAU] 
         000002c3 0001 
    2928                      .dwpsn  file "../MonoMtrServo.c",line 575,column 2,is_stmt,isa 0
    2929 000002c4 CC94          AND       AL,*+XAR4[AR0],#0xfff0 ; [CPU_ALU] |575| 
         000002c5 FFF0 
    2930 000002c6 5002          ORB       AL,#0x02              ; [CPU_ALU] |575| 
    2931                      .dwpsn  file "../MonoMtrServo.c",line 580,column 2,is_stmt,isa 0
    2932 000002c7 D018          MOVB      XAR0,#24              ; [CPU_ALU] |580| 
    2933                      .dwpsn  file "../MonoMtrServo.c",line 576,column 2,is_stmt,isa 0
    2934 000002c8 DC52          ADDB      XAR4,#82              ; [CPU_ALU] |576| 
    2935                      .dwpsn  file "../MonoMtrServo.c",line 575,column 2,is_stmt,isa 0
    2936 000002c9 9610!         MOV       @$BLOCKED(_AdcaRegs)+80,AL ; [CPU_ALU] |575| 
    2937 000002ca 761F!         MOVW      DP,#_AdcbRegs+24      ; [CPU_ARAU] 
         000002cb 0000 
    2938                      .dwpsn  file "../MonoMtrServo.c",line 576,column 2,is_stmt,isa 0
    2939 000002cc 18C4          AND       *+XAR4[0],#0xfc00     ; [CPU_ALU] |576| 
         000002cd FC00 
    2940                      .dwpsn  file "../MonoMtrServo.c",line 612,column 2,is_stmt,isa 0
    2941 000002ce 8F00+         MOVL      XAR4,#_MotorControlISR ; [CPU_ARAU] |612| 
         000002cf 0000 
    2942                      .dwpsn  file "../MonoMtrServo.c",line 580,column 2,is_stmt,isa 0
    2943 000002d0 0691          MOVL      ACC,*+XAR1[AR0]       ; [CPU_ALU] |580| 
    2944 000002d1 18A8          AND       AH,#65528             ; [CPU_ALU] |580| 
         000002d2 FFF8 
    2945 000002d3 1AA9          OR        AL,#32768             ; [CPU_ALU] |580| 
         000002d4 8000 
    2946                      .dwpsn  file "../MonoMtrServo.c",line 582,column 2,is_stmt,isa 0
    2947 000002d5 D019          MOVB      XAR0,#25              ; [CPU_ALU] |582| 
    2948                      .dwpsn  file "../MonoMtrServo.c",line 580,column 2,is_stmt,isa 0
    2949 000002d6 1E18!         MOVL      @$BLOCKED(_AdcbRegs)+24,ACC ; [CPU_ALU] |580| 
    2950                      .dwpsn  file "../MonoMtrServo.c",line 581,column 2,is_stmt,isa 0
    2951 000002d7 CC18!         AND       AL,@$BLOCKED(_AdcbRegs)+24,#0xfe00 ; [CPU_ALU] |581| 
         000002d8 FE00 
    2952 000002d9 501E          ORB       AL,#0x1e              ; [CPU_ALU] |581| 
    2953 000002da 9618!         MOV       @$BLOCKED(_AdcbRegs)+24,AL ; [CPU_ALU] |581| 
    2954                      .dwpsn  file "../MonoMtrServo.c",line 582,column 2,is_stmt,isa 0
    2955 000002db CC91          AND       AL,*+XAR1[AR0],#0xff1f ; [CPU_ALU] |582| 
         000002dc FF1F 
    2956 000002dd 1AA9          OR        AL,#0x0110            ; [CPU_ALU] |582| 
         000002de 0110 
    2957                      .dwpsn  file "../MonoMtrServo.c",line 586,column 2,is_stmt,isa 0
    2958 000002df D016          MOVB      XAR0,#22              ; [CPU_ALU] |586| 
    2959                      .dwpsn  file "../MonoMtrServo.c",line 582,column 2,is_stmt,isa 0
    2960 000002e0 9619!         MOV       @$BLOCKED(_AdcbRegs)+25,AL ; [CPU_ALU] |582| 
    2961                      .dwpsn  file "../MonoMtrServo.c",line 586,column 2,is_stmt,isa 0
    2962 000002e1 0691          MOVL      ACC,*+XAR1[AR0]       ; [CPU_ALU] |586| 
    2963 000002e2 18A8          AND       AH,#65528             ; [CPU_ALU] |586| 
         000002e3 FFF8 
    2964 000002e4 18A9          AND       AL,#32767             ; [CPU_ALU] |586| 
         000002e5 7FFF 
    2965                      .dwpsn  file "../MonoMtrServo.c",line 588,column 2,is_stmt,isa 0
    2966 000002e6 D017          MOVB      XAR0,#23              ; [CPU_ALU] |588| 
    2967                      .dwpsn  file "../MonoMtrServo.c",line 586,column 2,is_stmt,isa 0
TMS320C2000 Assembler PC v20.2.1 Sat Nov 14 13:32:33 2020

Copyright (c) 1996-2018 Texas Instruments Incorporated
MonoMtrServo.asm                                                     PAGE   62

    2968 000002e7 5102          OR        AH,#2                 ; [CPU_ALU] |586| 
    2969 000002e8 1E16!         MOVL      @$BLOCKED(_AdcbRegs)+22,ACC ; [CPU_ALU] |586| 
    2970                      .dwpsn  file "../MonoMtrServo.c",line 587,column 2,is_stmt,isa 0
    2971 000002e9 CC16!         AND       AL,@$BLOCKED(_AdcbRegs)+22,#0xfe00 ; [CPU_ALU] |587| 
         000002ea FE00 
    2972 000002eb 501E          ORB       AL,#0x1e              ; [CPU_ALU] |587| 
    2973 000002ec 9616!         MOV       @$BLOCKED(_AdcbRegs)+22,AL ; [CPU_ALU] |587| 
    2974                      .dwpsn  file "../MonoMtrServo.c",line 588,column 2,is_stmt,isa 0
    2975 000002ed CC91          AND       AL,*+XAR1[AR0],#0xff1f ; [CPU_ALU] |588| 
         000002ee FF1F 
    2976 000002ef 1AA9          OR        AL,#0x0110            ; [CPU_ALU] |588| 
         000002f0 0110 
    2977                      .dwpsn  file "../MonoMtrServo.c",line 592,column 2,is_stmt,isa 0
    2978 000002f1 D014          MOVB      XAR0,#20              ; [CPU_ALU] |592| 
    2979                      .dwpsn  file "../MonoMtrServo.c",line 588,column 2,is_stmt,isa 0
    2980 000002f2 9617!         MOV       @$BLOCKED(_AdcbRegs)+23,AL ; [CPU_ALU] |588| 
    2981                      .dwpsn  file "../MonoMtrServo.c",line 592,column 2,is_stmt,isa 0
    2982 000002f3 0691          MOVL      ACC,*+XAR1[AR0]       ; [CPU_ALU] |592| 
    2983 000002f4 18A8          AND       AH,#65528             ; [CPU_ALU] |592| 
         000002f5 FFF8 
    2984 000002f6 18A9          AND       AL,#32767             ; [CPU_ALU] |592| 
         000002f7 7FFF 
    2985                      .dwpsn  file "../MonoMtrServo.c",line 594,column 2,is_stmt,isa 0
    2986 000002f8 D015          MOVB      XAR0,#21              ; [CPU_ALU] |594| 
    2987                      .dwpsn  file "../MonoMtrServo.c",line 592,column 2,is_stmt,isa 0
    2988 000002f9 5101          OR        AH,#1                 ; [CPU_ALU] |592| 
    2989 000002fa 1E14!         MOVL      @$BLOCKED(_AdcbRegs)+20,ACC ; [CPU_ALU] |592| 
    2990                      .dwpsn  file "../MonoMtrServo.c",line 593,column 2,is_stmt,isa 0
    2991 000002fb CC14!         AND       AL,@$BLOCKED(_AdcbRegs)+20,#0xfe00 ; [CPU_ALU] |593| 
         000002fc FE00 
    2992 000002fd 501E          ORB       AL,#0x1e              ; [CPU_ALU] |593| 
    2993 000002fe 9614!         MOV       @$BLOCKED(_AdcbRegs)+20,AL ; [CPU_ALU] |593| 
    2994                      .dwpsn  file "../MonoMtrServo.c",line 594,column 2,is_stmt,isa 0
    2995 000002ff CC91          AND       AL,*+XAR1[AR0],#0xff1f ; [CPU_ALU] |594| 
         00000300 FF1F 
    2996 00000301 1AA9          OR        AL,#0x0110            ; [CPU_ALU] |594| 
         00000302 0110 
    2997                      .dwpsn  file "../MonoMtrServo.c",line 598,column 2,is_stmt,isa 0
    2998 00000303 D01C          MOVB      XAR0,#28              ; [CPU_ALU] |598| 
    2999                      .dwpsn  file "../MonoMtrServo.c",line 594,column 2,is_stmt,isa 0
    3000 00000304 9615!         MOV       @$BLOCKED(_AdcbRegs)+21,AL ; [CPU_ALU] |594| 
    3001                      .dwpsn  file "../MonoMtrServo.c",line 598,column 2,is_stmt,isa 0
    3002 00000305 0691          MOVL      ACC,*+XAR1[AR0]       ; [CPU_ALU] |598| 
    3003 00000306 18A9          AND       AL,#32767             ; [CPU_ALU] |598| 
         00000307 7FFF 
    3004 00000308 5107          OR        AH,#7                 ; [CPU_ALU] |598| 
    3005                      .dwpsn  file "../MonoMtrServo.c",line 600,column 2,is_stmt,isa 0
    3006 00000309 D01D          MOVB      XAR0,#29              ; [CPU_ALU] |600| 
    3007                      .dwpsn  file "../MonoMtrServo.c",line 598,column 2,is_stmt,isa 0
    3008 0000030a 1E1C!         MOVL      @$BLOCKED(_AdcbRegs)+28,ACC ; [CPU_ALU] |598| 
    3009                      .dwpsn  file "../MonoMtrServo.c",line 599,column 2,is_stmt,isa 0
    3010 0000030b CC1C!         AND       AL,@$BLOCKED(_AdcbRegs)+28,#0xfe00 ; [CPU_ALU] |599| 
         0000030c FE00 
    3011 0000030d 501E          ORB       AL,#0x1e              ; [CPU_ALU] |599| 
    3012 0000030e 961C!         MOV       @$BLOCKED(_AdcbRegs)+28,AL ; [CPU_ALU] |599| 
TMS320C2000 Assembler PC v20.2.1 Sat Nov 14 13:32:33 2020

Copyright (c) 1996-2018 Texas Instruments Incorporated
MonoMtrServo.asm                                                     PAGE   63

    3013                      .dwpsn  file "../MonoMtrServo.c",line 600,column 2,is_stmt,isa 0
    3014 0000030f CC91          AND       AL,*+XAR1[AR0],#0xff1f ; [CPU_ALU] |600| 
         00000310 FF1F 
    3015 00000311 1AA9          OR        AL,#0x0110            ; [CPU_ALU] |600| 
         00000312 0110 
    3016 00000313 961D!         MOV       @$BLOCKED(_AdcbRegs)+29,AL ; [CPU_ALU] |600| 
    3017                      .dwpsn  file "../MonoMtrServo.c",line 608,column 2,is_stmt,isa 0
    3018 00000314 CCF9          AND       AL,*+XAR1[7],#0xfff0  ; [CPU_ALU] |608| 
         00000315 FFF0 
    3019 00000316 5006          ORB       AL,#0x06              ; [CPU_ALU] |608| 
    3020 00000317 9607!         MOV       @$BLOCKED(_AdcbRegs)+7,AL ; [CPU_ALU] |608| 
    3021                      .dwpsn  file "../MonoMtrServo.c",line 609,column 2,is_stmt,isa 0
    3022 00000318 1A07!         OR        @$BLOCKED(_AdcbRegs)+7,#0x0040 ; [CPU_ALU] |609| 
         00000319 0040 
    3023                      .dwpsn  file "../MonoMtrServo.c",line 610,column 2,is_stmt,isa 0
    3024 0000031a 1A07!         OR        @$BLOCKED(_AdcbRegs)+7,#0x0020 ; [CPU_ALU] |610| 
         0000031b 0020 
    3025 0000031c 761F!         MOVW      DP,#_PieVectTable+66  ; [CPU_ARAU] 
         0000031d 0001 
    3026                      .dwpsn  file "../MonoMtrServo.c",line 612,column 2,is_stmt,isa 0
    3027 0000031e A802!         MOVL      @$BLOCKED(_PieVectTable)+66,XAR4 ; [CPU_ALU] |612| 
    3028 0000031f 761F!         MOVW      DP,#_PieCtrlRegs+2    ; [CPU_ARAU] 
         00000320 0000 
    3029                      .dwpsn  file "../MonoMtrServo.c",line 613,column 2,is_stmt,isa 0
    3030 00000321 1A02!         OR        @$BLOCKED(_PieCtrlRegs)+2,#0x0002 ; [CPU_ALU] |613| 
         00000322 0002 
    3031                      .dwpsn  file "../MonoMtrServo.c",line 615,column 2,is_stmt,isa 0
    3032 00000323 7623          OR        IER,#0x0001           ; [CPU_ALU] |615| 
         00000324 0001 
    3033 00000325 761A   EDIS
    3034 00000326 FF69          SPM       #0                    ; [CPU_ALU] 
    3035                      .dwpsn  file "../MonoMtrServo.c",line 626,column 2,is_stmt,isa 0
    3036              $C$DW$183       .dwtag  DW_TAG_TI_branch
    3037                      .dwattr $C$DW$183, DW_AT_low_pc(0x00)
    3038                      .dwattr $C$DW$183, DW_AT_name("_InitMotor1EQepGpio")
    3039                      .dwattr $C$DW$183, DW_AT_TI_call
    3040              
    3041 00000327 7640!         LCR       #_InitMotor1EQepGpio  ; [CPU_ALU] |626| 
         00000328 0000 
    3042                      ; call occurs [#_InitMotor1EQepGpio] ; [] |626| 
    3043                      .dwpsn  file "../MonoMtrServo.c",line 633,column 2,is_stmt,isa 0
    3044              $C$DW$184       .dwtag  DW_TAG_TI_branch
    3045                      .dwattr $C$DW$184, DW_AT_low_pc(0x00)
    3046                      .dwattr $C$DW$184, DW_AT_name("_InitMotor1SpiGpio")
    3047                      .dwattr $C$DW$184, DW_AT_TI_call
    3048              
    3049 00000329 7640!         LCR       #_InitMotor1SpiGpio   ; [CPU_ALU] |633| 
         0000032a 0000 
    3050                      ; call occurs [#_InitMotor1SpiGpio] ; [] |633| 
    3051 0000032b 761F-         MOVW      DP,#_motor1+8         ; [CPU_ARAU] 
         0000032c 0002 
    3052                      .dwpsn  file "../MonoMtrServo.c",line 634,column 2,is_stmt,isa 0
    3053 0000032d 8A08!         MOVL      XAR4,@$BLOCKED(_motor1)+8 ; [CPU_ALU] |634| 
    3054              $C$DW$185       .dwtag  DW_TAG_TI_branch
    3055                      .dwattr $C$DW$185, DW_AT_low_pc(0x00)
TMS320C2000 Assembler PC v20.2.1 Sat Nov 14 13:32:33 2020

Copyright (c) 1996-2018 Texas Instruments Incorporated
MonoMtrServo.asm                                                     PAGE   64

    3056                      .dwattr $C$DW$185, DW_AT_name("_InitSpiRegs_DRV830x")
    3057                      .dwattr $C$DW$185, DW_AT_TI_call
    3058              
    3059 0000032e 7640!         LCR       #_InitSpiRegs_DRV830x ; [CPU_ALU] |634| 
         0000032f 0000 
    3060                      ; call occurs [#_InitSpiRegs_DRV830x] ; [] |634| 
    3061                      .dwpsn  file "../MonoMtrServo.c",line 638,column 3,is_stmt,isa 0
    3062 00000330 8D40-         MOVL      XAR1,#_motor1         ; [CPU_ARAU] |638| 
         00000331 0080 
    3063 00000332 8AA1          MOVL      XAR4,XAR1             ; [CPU_ALU] |638| 
    3064              $C$DW$186       .dwtag  DW_TAG_TI_branch
    3065                      .dwattr $C$DW$186, DW_AT_low_pc(0x00)
    3066                      .dwattr $C$DW$186, DW_AT_name("_InitDRV8305Regs")
    3067                      .dwattr $C$DW$186, DW_AT_TI_call
    3068              
    3069 00000333 7640!         LCR       #_InitDRV8305Regs     ; [CPU_ALU] |638| 
         00000334 0000 
    3070                      ; call occurs [#_InitDRV8305Regs] ; [] |638| 
    3071                      .dwpsn  file "../MonoMtrServo.c",line 646,column 2,is_stmt,isa 0
    3072              $C$DW$187       .dwtag  DW_TAG_TI_branch
    3073                      .dwattr $C$DW$187, DW_AT_low_pc(0x00)
    3074                      .dwattr $C$DW$187, DW_AT_name("_InitMotor1_DRV_Gpio")
    3075                      .dwattr $C$DW$187, DW_AT_TI_call
    3076              
    3077 00000335 7640!         LCR       #_InitMotor1_DRV_Gpio ; [CPU_ALU] |646| 
         00000336 0000 
    3078                      ; call occurs [#_InitMotor1_DRV_Gpio] ; [] |646| 
    3079                      .dwpsn  file "../MonoMtrServo.c",line 653,column 2,is_stmt,isa 0
    3080 00000337 9A48          MOVB      AL,#72                ; [CPU_ALU] |653| 
    3081 00000338 9B01          MOVB      AH,#1                 ; [CPU_ALU] |653| 
    3082              $C$DW$188       .dwtag  DW_TAG_TI_branch
    3083                      .dwattr $C$DW$188, DW_AT_low_pc(0x00)
    3084                      .dwattr $C$DW$188, DW_AT_name("_GPIO_WritePin")
    3085                      .dwattr $C$DW$188, DW_AT_TI_call
    3086              
    3087 00000339 7640!         LCR       #_GPIO_WritePin       ; [CPU_ALU] |653| 
         0000033a 0000 
    3088                      ; call occurs [#_GPIO_WritePin] ; [] |653| 
    3089                      .dwpsn  file "../MonoMtrServo.c",line 654,column 2,is_stmt,isa 0
    3090 0000033b 8F1E          MOVL      XAR4,#1999998         ; [CPU_ARAU] |654| 
         0000033c 847E 
    3091 0000033d A8A9          MOVL      ACC,XAR4              ; [CPU_ALU] |654| 
    3092              $C$DW$189       .dwtag  DW_TAG_TI_branch
    3093                      .dwattr $C$DW$189, DW_AT_low_pc(0x00)
    3094                      .dwattr $C$DW$189, DW_AT_name("_F28x_usDelay")
    3095                      .dwattr $C$DW$189, DW_AT_TI_call
    3096              
    3097 0000033e 7640!         LCR       #_F28x_usDelay        ; [CPU_ALU] |654| 
         0000033f 0000 
    3098                      ; call occurs [#_F28x_usDelay] ; [] |654| 
    3099                      .dwpsn  file "../MonoMtrServo.c",line 660,column 2,is_stmt,isa 0
    3100 00000340 8AA1          MOVL      XAR4,XAR1             ; [CPU_ALU] |660| 
    3101              $C$DW$190       .dwtag  DW_TAG_TI_branch
    3102                      .dwattr $C$DW$190, DW_AT_low_pc(0x00)
    3103                      .dwattr $C$DW$190, DW_AT_name("_InitDRV8305")
TMS320C2000 Assembler PC v20.2.1 Sat Nov 14 13:32:33 2020

Copyright (c) 1996-2018 Texas Instruments Incorporated
MonoMtrServo.asm                                                     PAGE   65

    3104                      .dwattr $C$DW$190, DW_AT_TI_call
    3105              
    3106 00000341 7640!         LCR       #_InitDRV8305         ; [CPU_ALU] |660| 
         00000342 0000 
    3107                      ; call occurs [#_InitDRV8305] ; [] |660| 
    3108 00000343       $C$L17:    
    3109 00000343 761F-         MOVW      DP,#_motor1+335       ; [CPU_ARAU] 
         00000344 0007 
    3110                      .dwpsn  file "../MonoMtrServo.c",line 661,column 2,is_stmt,isa 0
    3111 00000345 920F!         MOV       AL,@$BLOCKED(_motor1)+335 ; [CPU_ALU] |661| 
    3112 00000346 60FD          B         $C$L17,NEQ            ; [CPU_ALU] |661| 
    3113                      ; branchcc occurs ; [] |661| 
    3114 00000347 761F-         MOVW      DP,#_motor1+302       ; [CPU_ARAU] 
         00000348 0006 
    3115                      .dwpsn  file "../MonoMtrServo.c",line 671,column 5,is_stmt,isa 0
    3116 00000349 282E!         MOV       @$BLOCKED(_motor1)+302,#1000 ; [CPU_ALU] |671| 
         0000034a 03E8 
    3117                      .dwpsn  file "../MonoMtrServo.c",line 672,column 5,is_stmt,isa 0
    3118 0000034b E801          MOVIZ     R1H,#16000            ; [CPU_FPU] |672| 
         0000034c F401 
    3119 0000034d E2C4!         UI16TOF32 R0H,@$BLOCKED(_motor1)+302 ; [CPU_FPU] |672| 
         0000034e 002E 
    3120                      .dwpsn  file "../MonoMtrServo.c",line 689,column 2,is_stmt,isa 0
    3121 0000034f E801          MOVIZ     R6H,#14979            ; [CPU_FPU] |689| 
         00000350 D41E 
    3122                      .dwpsn  file "../MonoMtrServo.c",line 674,column 5,is_stmt,isa 0
    3123 00000351 BE00          MOVB      XAR6,#0               ; [CPU_ALU] |674| 
    3124 00000352 761F-         MOVW      DP,#_motor1+6         ; [CPU_ARAU] 
         00000353 0002 
    3125                      .dwpsn  file "../MonoMtrServo.c",line 675,column 5,is_stmt,isa 0
    3126 00000354 D014          MOVB      XAR0,#20              ; [CPU_ALU] |675| 
    3127 00000355 8306!         MOVL      XAR5,@$BLOCKED(_motor1)+6 ; [CPU_ALU] |675| 
    3128 00000356 8F09          MOVL      XAR4,#600000          ; [CPU_ARAU] |675| 
         00000357 27C0 
    3129 00000358 D116          MOVB      XAR1,#22              ; [CPU_ALU] |675| 
    3130                      .dwpsn  file "../MonoMtrServo.c",line 672,column 5,is_stmt,isa 0
    3131 00000359 E274          DIVF32    R0H,R1H,R0H           ; [CPU_FPU] |672| 
         0000035a 0008 
    3132 0000035b 761F-         MOVW      DP,#_motor1+300       ; [CPU_ARAU] 
         0000035c 0006 
    3133                      .dwpsn  file "../MonoMtrServo.c",line 688,column 2,is_stmt,isa 0
    3134 0000035d E801          MOVIZ     R2H,#16256            ; [CPU_FPU] |688| 
         0000035e FC02 
    3135                      .dwpsn  file "../MonoMtrServo.c",line 689,column 2,is_stmt,isa 0
    3136 0000035f E808          MOVXI     R6H,#4719             ; [CPU_FPU] |689| 
         00000360 937E 
    3137                      .dwpsn  file "../MonoMtrServo.c",line 691,column 2,is_stmt,isa 0
    3138 00000361 E805          MOVIZ     R4H,#49024            ; [CPU_FPU] |691| 
         00000362 FC04 
    3139                      .dwpsn  file "../MonoMtrServo.c",line 672,column 5,is_stmt,isa 0
    3140 00000363 E203!         MOV32     @$BLOCKED(_motor1)+300,R0H ; [CPU_FPU] |672| 
         00000364 002C 
    3141                      .dwpsn  file "../MonoMtrServo.c",line 673,column 5,is_stmt,isa 0
    3142 00000365 56BF!         MOVB      @$BLOCKED(_motor1)+303,#4,UNC ; [CPU_ALU] |673| 
         00000366 042F 
TMS320C2000 Assembler PC v20.2.1 Sat Nov 14 13:32:33 2020

Copyright (c) 1996-2018 Texas Instruments Incorporated
MonoMtrServo.asm                                                     PAGE   66

    3143                      .dwpsn  file "../MonoMtrServo.c",line 674,column 5,is_stmt,isa 0
    3144 00000367 C230!         MOVL      @$BLOCKED(_motor1)+304,XAR6 ; [CPU_ALU] |674| 
    3145                      .dwpsn  file "../MonoMtrServo.c",line 690,column 2,is_stmt,isa 0
    3146 00000368 E801          MOVIZ     R0H,#16256            ; [CPU_FPU] |690| 
         00000369 FC00 
    3147                      .dwpsn  file "../MonoMtrServo.c",line 675,column 5,is_stmt,isa 0
    3148 0000036a 2B95          MOV       *+XAR5[AR0],#0        ; [CPU_ALU] |675| 
    3149 0000036b D015          MOVB      XAR0,#21              ; [CPU_ALU] |675| 
    3150 0000036c 2895          MOV       *+XAR5[AR0],#33310    ; [CPU_ALU] |675| 
         0000036d 821E 
    3151 0000036e D017          MOVB      XAR0,#23              ; [CPU_ALU] |675| 
    3152 0000036f 2B95          MOV       *+XAR5[AR0],#0        ; [CPU_ALU] |675| 
    3153 00000370 D010          MOVB      XAR0,#16              ; [CPU_ALU] |675| 
    3154 00000371 A895          MOVL      *+XAR5[AR0],XAR4      ; [CPU_ALU] |675| 
    3155                      .dwpsn  file "../MonoMtrServo.c",line 676,column 5,is_stmt,isa 0
    3156 00000372 8AA5          MOVL      XAR4,XAR5             ; [CPU_ALU] |676| 
    3157                      .dwpsn  file "../MonoMtrServo.c",line 728,column 2,is_stmt,isa 0
    3158 00000373 E802          MOVIZ     R3H,#16384            ; [CPU_FPU] |728| 
         00000374 0003 
    3159                      .dwpsn  file "../MonoMtrServo.c",line 679,column 5,is_stmt,isa 0
    3160 00000375 E801          MOVIZ     R5H,#16256            ; [CPU_FPU] |679| 
         00000376 FC05 
    3161                      .dwpsn  file "../MonoMtrServo.c",line 675,column 5,is_stmt,isa 0
    3162 00000377 289D          MOV       *+XAR5[AR1],#32885    ; [CPU_ALU] |675| 
         00000378 8075 
    3163                      .dwpsn  file "../MonoMtrServo.c",line 676,column 5,is_stmt,isa 0
    3164 00000379 DC15          ADDB      XAR4,#21              ; [CPU_ALU] |676| 
    3165                      .dwpsn  file "../MonoMtrServo.c",line 675,column 5,is_stmt,isa 0
    3166 0000037a 5603!         MOV       ACC,@$BLOCKED(_motor1)+302 << #2 ; [CPU_ALU] |675| 
         0000037b 022E 
    3167 0000037c 0EA9          MOVU      ACC,AL                ; [CPU_ALU] |675| 
    3168 0000037d 761F-         MOVW      DP,#_motor1+96        ; [CPU_ARAU] 
         0000037e 0003 
    3169 0000037f 1EE5          MOVL      *+XAR5[4],ACC         ; [CPU_ALU] |675| 
    3170                      .dwpsn  file "../MonoMtrServo.c",line 676,column 5,is_stmt,isa 0
    3171 00000380 18C4          AND       *+XAR4[0],#0xfcff     ; [CPU_ALU] |676| 
         00000381 FCFF 
    3172                      .dwpsn  file "../MonoMtrServo.c",line 688,column 2,is_stmt,isa 0
    3173 00000382 E203!         MOV32     @$BLOCKED(_motor1)+96,R2H ; [CPU_FPU] |688| 
         00000383 0220 
    3174                      .dwpsn  file "../MonoMtrServo.c",line 680,column 5,is_stmt,isa 0
    3175 00000384 E802          MOVIZ     R2H,#16457            ; [CPU_FPU] |680| 
         00000385 024A 
    3176                      .dwpsn  file "../MonoMtrServo.c",line 689,column 2,is_stmt,isa 0
    3177 00000386 E203!         MOV32     @$BLOCKED(_motor1)+98,R6H ; [CPU_FPU] |689| 
         00000387 0622 
    3178                      .dwpsn  file "../MonoMtrServo.c",line 680,column 5,is_stmt,isa 0
    3179 00000388 E808          MOVXI     R2H,#4059             ; [CPU_FPU] |680| 
         00000389 7EDA 
    3180                      .dwpsn  file "../MonoMtrServo.c",line 729,column 2,is_stmt,isa 0
    3181 0000038a E801          MOVIZ     R6H,#15395            ; [CPU_FPU] |729| 
         0000038b E11E 
    3182 0000038c E80E          MOVXI     R6H,#55050            ; [CPU_FPU] |729| 
         0000038d B856 
    3183                      .dwpsn  file "../MonoMtrServo.c",line 690,column 2,is_stmt,isa 0
TMS320C2000 Assembler PC v20.2.1 Sat Nov 14 13:32:33 2020

Copyright (c) 1996-2018 Texas Instruments Incorporated
MonoMtrServo.asm                                                     PAGE   67

    3184 0000038e E203!         MOV32     @$BLOCKED(_motor1)+100,R0H ; [CPU_FPU] |690| 
         0000038f 0024 
    3185 00000390 761F-         MOVW      DP,#_motor1+50        ; [CPU_ARAU] 
         00000391 0002 
    3186                      .dwpsn  file "../MonoMtrServo.c",line 682,column 5,is_stmt,isa 0
    3187 00000392 8F00          MOVL      XAR4,#3000            ; [CPU_ARAU] |682| 
         00000393 0BB8 
    3188                      .dwpsn  file "../MonoMtrServo.c",line 730,column 2,is_stmt,isa 0
    3189 00000394 E590          ZERO      R0H                   ; [CPU_FPU] |730| 
    3190                      .dwpsn  file "../MonoMtrServo.c",line 680,column 5,is_stmt,isa 0
    3191 00000395 E2AF!         MOV32     R1H,@$BLOCKED(_motor1)+50 ; [CPU_FPU] |680| 
         00000396 0132 
    3192 00000397 761F-         MOVW      DP,#_motor1+102       ; [CPU_ARAU] 
         00000398 0003 
    3193              
    3194 00000399 E012!         ADDF32    R4H,R1H,R1H           ; [CPU_FPU] |680| 
         0000039a 6426 
    3195              ||      MOV32     @$BLOCKED(_motor1)+102,R4H ; [CPU_FPU] |691| 
    3196              
    3197                      .dwpsn  file "../MonoMtrServo.c",line 731,column 2,is_stmt,isa 0
    3198 0000039b E801          MOVIZ     R1H,#16256            ; [CPU_FPU] |731| 
         0000039c FC01 
    3199                      .dwpsn  file "../MonoMtrServo.c",line 680,column 5,is_stmt,isa 0
    3200              
    3201 0000039d E008!         MPYF32    R3H,R2H,R4H           ; [CPU_FPU] |680| 
         0000039e 9B3E 
    3202              ||      MOV32     @$BLOCKED(_motor1)+126,R3H ; [CPU_FPU] |728| 
    3203              
    3204 0000039f 761F-         MOVW      DP,#_motor1+128       ; [CPU_ARAU] 
         000003a0 0004 
    3205 000003a1 E850          MPYF32    R3H,R3H,#16544        ; [CPU_FPU] |680| 
         000003a2 281B 
    3206                      .dwpsn  file "../MonoMtrServo.c",line 729,column 2,is_stmt,isa 0
    3207 000003a3 E203!         MOV32     @$BLOCKED(_motor1)+128,R6H ; [CPU_FPU] |729| 
         000003a4 0600 
    3208 000003a5 761F-         MOVW      DP,#_motor1+50        ; [CPU_ARAU] 
         000003a6 0002 
    3209                      .dwpsn  file "../MonoMtrServo.c",line 732,column 2,is_stmt,isa 0
    3210 000003a7 E801          MOVIZ     R6H,#16243            ; [CPU_FPU] |732| 
         000003a8 FB9E 
