TMS320C2000 Assembler PC v20.2.1 Wed Nov 18 21:47:53 2020

Copyright (c) 1996-2018 Texas Instruments Incorporated
DmcProtection.asm                                                    PAGE    1

       1              ;***************************************************************
       2              ;* TMS320C2000 G3 C/C++ Codegen                               PC v20.2.1.LTS *
       3              ;* Date/Time created: Wed Nov 18 21:47:52 2020                 *
       4              ;***************************************************************
       5                      .compiler_opts --abi=coffabi --cla_support=cla0 --float_support=fpu32 --hll_source=on --mem_model:cod
       6                      .asg    XAR2, FP
       7              
       8              $C$DW$CU        .dwtag  DW_TAG_compile_unit
       9                      .dwattr $C$DW$CU, DW_AT_name("../sources/DmcProtection.c")
      10                      .dwattr $C$DW$CU, DW_AT_producer("TI TMS320C2000 G3 C/C++ Codegen PC v20.2.1.LTS Copyright (c) 1996-2
      11                      .dwattr $C$DW$CU, DW_AT_TI_version(0x01)
      12                      .dwattr $C$DW$CU, DW_AT_comp_dir("C:\Users\admin\Documents\GitHub\fault_tolerant_drives\Software\MPC_
      13              ;**************************************************************
      14              ;* CINIT RECORDS                                              *
      15              ;**************************************************************
      16 00000000               .sect   ".cinit"
      17                      .align  1
      18 00000000 FFFF          .field          -1,16
      19 00000001 0000-         .field          _clkPrescale+0,32
         00000002 0000 
      20 00000003 0014          .bits           0x14,16
      21                                      ; _clkPrescale @ 0
      22              
      23 00000004               .sect   ".cinit"
      24                      .align  1
      25 00000004 FFFF          .field          -1,16
      26 00000005 0001-         .field          _sampwin+0,32
         00000006 0000 
      27 00000007 001E          .bits           0x1e,16
      28                                      ; _sampwin @ 0
      29              
      30 00000008               .sect   ".cinit"
      31                      .align  1
      32 00000008 FFFF          .field          -1,16
      33 00000009 0002-         .field          _thresh+0,32
         0000000a 0000 
      34 0000000b 0012          .bits           0x12,16
      35                                      ; _thresh @ 0
      36              
      37 0000000c               .sect   ".cinit"
      38                      .align  1
      39 0000000c FFFF          .field          -1,16
      40 0000000d 0003-         .field          _OCP_curHi+0,32
         0000000e 0000 
      41 0000000f 0D11          .bits           0xd11,16
      42                                      ; _OCP_curHi @ 0
      43              
      44 00000010               .sect   ".cinit"
      45                      .align  1
      46 00000010 FFFF          .field          -1,16
      47 00000011 0004-         .field          _OCP_curLo+0,32
         00000012 0000 
      48 00000013 0488          .bits           0x488,16
      49                                      ; _OCP_curLo @ 0
      50              
TMS320C2000 Assembler PC v20.2.1 Wed Nov 18 21:47:53 2020

Copyright (c) 1996-2018 Texas Instruments Incorporated
DmcProtection.asm                                                    PAGE    2

      51 00000014               .sect   ".cinit"
      52                      .align  1
      53 00000014 FFFE          .field          -2,16
      54 00000015 0006-         .field          _curLimit+0,32
         00000016 0000 
      55 00000017 0000          .xfloat $strtod("0x1p+3")               ; _curLimit @ 0
         00000018 4100 
      56              
      57              
      58              $C$DW$1 .dwtag  DW_TAG_subprogram
      59                      .dwattr $C$DW$1, DW_AT_name("GPIO_WritePin")
      60                      .dwattr $C$DW$1, DW_AT_TI_symbol_name("_GPIO_WritePin")
      61                      .dwattr $C$DW$1, DW_AT_declaration
      62                      .dwattr $C$DW$1, DW_AT_external
      63              $C$DW$2 .dwtag  DW_TAG_formal_parameter
      64                      .dwattr $C$DW$2, DW_AT_type(*$C$DW$T$34)
      65              
      66              $C$DW$3 .dwtag  DW_TAG_formal_parameter
      67                      .dwattr $C$DW$3, DW_AT_type(*$C$DW$T$34)
      68              
      69                      .dwendtag $C$DW$1
      70              
      71              
      72              $C$DW$4 .dwtag  DW_TAG_subprogram
      73                      .dwattr $C$DW$4, DW_AT_name("F28x_usDelay")
      74                      .dwattr $C$DW$4, DW_AT_TI_symbol_name("_F28x_usDelay")
      75                      .dwattr $C$DW$4, DW_AT_declaration
      76                      .dwattr $C$DW$4, DW_AT_external
      77              $C$DW$5 .dwtag  DW_TAG_formal_parameter
      78                      .dwattr $C$DW$5, DW_AT_type(*$C$DW$T$12)
      79              
      80                      .dwendtag $C$DW$4
      81              
      82                      .global _clkPrescale
      83 00000000       _clkPrescale:   .usect  ".ebss",1,1,0
      84              $C$DW$6 .dwtag  DW_TAG_variable
      85                      .dwattr $C$DW$6, DW_AT_name("clkPrescale")
      86                      .dwattr $C$DW$6, DW_AT_TI_symbol_name("_clkPrescale")
      87                      .dwattr $C$DW$6, DW_AT_location[DW_OP_addr _clkPrescale]
      88                      .dwattr $C$DW$6, DW_AT_type(*$C$DW$T$34)
      89                      .dwattr $C$DW$6, DW_AT_external
      90              
      91                      .global _sampwin
      92 00000001       _sampwin:       .usect  ".ebss",1,1,0
      93              $C$DW$7 .dwtag  DW_TAG_variable
      94                      .dwattr $C$DW$7, DW_AT_name("sampwin")
      95                      .dwattr $C$DW$7, DW_AT_TI_symbol_name("_sampwin")
      96                      .dwattr $C$DW$7, DW_AT_location[DW_OP_addr _sampwin]
      97                      .dwattr $C$DW$7, DW_AT_type(*$C$DW$T$34)
      98                      .dwattr $C$DW$7, DW_AT_external
      99              
     100                      .global _thresh
     101 00000002       _thresh:        .usect  ".ebss",1,1,0
     102              $C$DW$8 .dwtag  DW_TAG_variable
     103                      .dwattr $C$DW$8, DW_AT_name("thresh")
TMS320C2000 Assembler PC v20.2.1 Wed Nov 18 21:47:53 2020

Copyright (c) 1996-2018 Texas Instruments Incorporated
DmcProtection.asm                                                    PAGE    3

     104                      .dwattr $C$DW$8, DW_AT_TI_symbol_name("_thresh")
     105                      .dwattr $C$DW$8, DW_AT_location[DW_OP_addr _thresh]
     106                      .dwattr $C$DW$8, DW_AT_type(*$C$DW$T$34)
     107                      .dwattr $C$DW$8, DW_AT_external
     108              
     109                      .global _OCP_curHi
     110 00000003       _OCP_curHi:     .usect  ".ebss",1,1,0
     111              $C$DW$9 .dwtag  DW_TAG_variable
     112                      .dwattr $C$DW$9, DW_AT_name("OCP_curHi")
     113                      .dwattr $C$DW$9, DW_AT_TI_symbol_name("_OCP_curHi")
     114                      .dwattr $C$DW$9, DW_AT_location[DW_OP_addr _OCP_curHi]
     115                      .dwattr $C$DW$9, DW_AT_type(*$C$DW$T$34)
     116                      .dwattr $C$DW$9, DW_AT_external
     117              
     118                      .global _OCP_curLo
     119 00000004       _OCP_curLo:     .usect  ".ebss",1,1,0
     120              $C$DW$10        .dwtag  DW_TAG_variable
     121                      .dwattr $C$DW$10, DW_AT_name("OCP_curLo")
     122                      .dwattr $C$DW$10, DW_AT_TI_symbol_name("_OCP_curLo")
     123                      .dwattr $C$DW$10, DW_AT_location[DW_OP_addr _OCP_curLo]
     124                      .dwattr $C$DW$10, DW_AT_type(*$C$DW$T$34)
     125                      .dwattr $C$DW$10, DW_AT_external
     126              
     127                      .global _curLimit
     128 00000006       _curLimit:      .usect  ".ebss",2,1,1
     129              $C$DW$11        .dwtag  DW_TAG_variable
     130                      .dwattr $C$DW$11, DW_AT_name("curLimit")
     131                      .dwattr $C$DW$11, DW_AT_TI_symbol_name("_curLimit")
     132                      .dwattr $C$DW$11, DW_AT_location[DW_OP_addr _curLimit]
     133                      .dwattr $C$DW$11, DW_AT_type(*$C$DW$T$16)
     134                      .dwattr $C$DW$11, DW_AT_external
     135              
     136              $C$DW$12        .dwtag  DW_TAG_variable
     137                      .dwattr $C$DW$12, DW_AT_name("EPwmXbarRegs")
     138                      .dwattr $C$DW$12, DW_AT_TI_symbol_name("_EPwmXbarRegs")
     139                      .dwattr $C$DW$12, DW_AT_type(*$C$DW$T$420)
     140                      .dwattr $C$DW$12, DW_AT_declaration
     141                      .dwattr $C$DW$12, DW_AT_external
     142              
     143              $C$DW$13        .dwtag  DW_TAG_variable
     144                      .dwattr $C$DW$13, DW_AT_name("motor1")
     145                      .dwattr $C$DW$13, DW_AT_TI_symbol_name("_motor1")
     146                      .dwattr $C$DW$13, DW_AT_type(*$C$DW$T$391)
     147                      .dwattr $C$DW$13, DW_AT_declaration
     148                      .dwattr $C$DW$13, DW_AT_external
     149              
     150              $C$DW$14        .dwtag  DW_TAG_variable
     151                      .dwattr $C$DW$14, DW_AT_name("motor2")
     152                      .dwattr $C$DW$14, DW_AT_TI_symbol_name("_motor2")
     153                      .dwattr $C$DW$14, DW_AT_type(*$C$DW$T$391)
     154                      .dwattr $C$DW$14, DW_AT_declaration
     155                      .dwattr $C$DW$14, DW_AT_external
     156              
     157                      .sblock ".ebss"
     158              ;       C:\ti\ccs1011\ccs\tools\compiler\ti-cgt-c2000_20.2.1.LTS\bin\opt2000.exe C:\\Users\\admin\\AppData\\L
TMS320C2000 Assembler PC v20.2.1 Wed Nov 18 21:47:53 2020

Copyright (c) 1996-2018 Texas Instruments Incorporated
DmcProtection.asm                                                    PAGE    4

     159              ;       C:\ti\ccs1011\ccs\tools\compiler\ti-cgt-c2000_20.2.1.LTS\bin\ac2000.exe -@C:\\Users\\admin\\AppData\\
     160 00000000               .sect   ".text"
     161                      .clink
     162                      .global _cmpssConfig
     163              
     164              $C$DW$15        .dwtag  DW_TAG_subprogram
     165                      .dwattr $C$DW$15, DW_AT_name("cmpssConfig")
     166                      .dwattr $C$DW$15, DW_AT_low_pc(_cmpssConfig)
     167                      .dwattr $C$DW$15, DW_AT_high_pc(0x00)
     168                      .dwattr $C$DW$15, DW_AT_TI_symbol_name("_cmpssConfig")
     169                      .dwattr $C$DW$15, DW_AT_external
     170                      .dwattr $C$DW$15, DW_AT_TI_begin_file("../sources/DmcProtection.c")
     171                      .dwattr $C$DW$15, DW_AT_TI_begin_line(0x83)
     172                      .dwattr $C$DW$15, DW_AT_TI_begin_column(0x06)
     173                      .dwattr $C$DW$15, DW_AT_TI_max_frame_size(-4)
     174                      .dwpsn  file "../sources/DmcProtection.c",line 132,column 1,is_stmt,address _cmpssConfig,isa 0
     175              
     176                      .dwfde $C$DW$CIE, _cmpssConfig
     177              $C$DW$16        .dwtag  DW_TAG_formal_parameter
     178                      .dwattr $C$DW$16, DW_AT_name("v")
     179                      .dwattr $C$DW$16, DW_AT_TI_symbol_name("_v")
     180                      .dwattr $C$DW$16, DW_AT_type(*$C$DW$T$68)
     181                      .dwattr $C$DW$16, DW_AT_location[DW_OP_reg12]
     182              
     183              $C$DW$17        .dwtag  DW_TAG_formal_parameter
     184                      .dwattr $C$DW$17, DW_AT_name("Hi")
     185                      .dwattr $C$DW$17, DW_AT_TI_symbol_name("_Hi")
     186                      .dwattr $C$DW$17, DW_AT_type(*$C$DW$T$453)
     187                      .dwattr $C$DW$17, DW_AT_location[DW_OP_reg0]
     188              
     189              $C$DW$18        .dwtag  DW_TAG_formal_parameter
     190                      .dwattr $C$DW$18, DW_AT_name("Lo")
     191                      .dwattr $C$DW$18, DW_AT_TI_symbol_name("_Lo")
     192                      .dwattr $C$DW$18, DW_AT_type(*$C$DW$T$453)
     193                      .dwattr $C$DW$18, DW_AT_location[DW_OP_reg1]
     194              
     195              
     196              ;***************************************************************
     197              ;* FNAME: _cmpssConfig                  FR SIZE:   2           *
     198              ;*                                                             *
     199              ;* FUNCTION ENVIRONMENT                                        *
     200              ;*                                                             *
     201              ;* FUNCTION PROPERTIES                                         *
     202              ;*                            0 Parameter,  0 Auto,  2 SOE     *
     203              ;***************************************************************
     204              
     205              _cmpssConfig:
     206              ;* AL    assigned to $O$C1
     207              ;* AR7   assigned to $O$C2
     208              ;* AR6   assigned to $O$C3
     209              ;* AR4   assigned to _v
     210              $C$DW$19        .dwtag  DW_TAG_variable
     211                      .dwattr $C$DW$19, DW_AT_name("v")
     212                      .dwattr $C$DW$19, DW_AT_TI_symbol_name("_v")
     213                      .dwattr $C$DW$19, DW_AT_type(*$C$DW$T$396)
TMS320C2000 Assembler PC v20.2.1 Wed Nov 18 21:47:53 2020

Copyright (c) 1996-2018 Texas Instruments Incorporated
DmcProtection.asm                                                    PAGE    5

     214                      .dwattr $C$DW$19, DW_AT_location[DW_OP_reg12]
     215              
     216              ;* AR7   assigned to _Hi
     217              $C$DW$20        .dwtag  DW_TAG_variable
     218                      .dwattr $C$DW$20, DW_AT_name("Hi")
     219                      .dwattr $C$DW$20, DW_AT_TI_symbol_name("_Hi")
     220                      .dwattr $C$DW$20, DW_AT_type(*$C$DW$T$460)
     221                      .dwattr $C$DW$20, DW_AT_location[DW_OP_reg18]
     222              
     223              ;* AR6   assigned to _Lo
     224              $C$DW$21        .dwtag  DW_TAG_variable
     225                      .dwattr $C$DW$21, DW_AT_name("Lo")
     226                      .dwattr $C$DW$21, DW_AT_TI_symbol_name("_Lo")
     227                      .dwattr $C$DW$21, DW_AT_type(*$C$DW$T$460)
     228                      .dwattr $C$DW$21, DW_AT_location[DW_OP_reg16]
     229              
     230                      .dwcfi  cfa_offset, -2
     231                      .dwcfi  save_reg_to_mem, 26, 0
     232 00000000 B2BD          MOVL      *SP++,XAR1            ; [CPU_ALU] 
     233                      .dwcfi  save_reg_to_mem, 7, 2
     234                      .dwcfi  cfa_offset, -4
     235 00000001 88A8          MOVZ      AR6,AH                ; [CPU_ALU] |132| 
     236 00000002 80A9          MOVZ      AR7,AL                ; [CPU_ALU] |132| 
     237 00000003 7622   EALLOW
     238                      .dwpsn  file "../sources/DmcProtection.c",line 135,column 5,is_stmt,isa 0
     239 00000004 1AC4          OR        *+XAR4[0],#0x8000     ; [CPU_ALU] |135| 
         00000005 8000 
     240                      .dwpsn  file "../sources/DmcProtection.c",line 136,column 5,is_stmt,isa 0
     241 00000006 18C4          AND       *+XAR4[0],#0xfeff     ; [CPU_ALU] |136| 
         00000007 FEFF 
     242                      .dwpsn  file "../sources/DmcProtection.c",line 137,column 5,is_stmt,isa 0
     243 00000008 18C4          AND       *+XAR4[0],#0xfffe     ; [CPU_ALU] |137| 
         00000009 FFFE 
     244                      .dwpsn  file "../sources/DmcProtection.c",line 138,column 5,is_stmt,isa 0
     245 0000000a 18C4          AND       *+XAR4[0],#0xfffd     ; [CPU_ALU] |138| 
         0000000b FFFD 
     246                      .dwpsn  file "../sources/DmcProtection.c",line 157,column 5,is_stmt,isa 0
     247 0000000c D012          MOVB      XAR0,#18              ; [CPU_ALU] |157| 
     248 0000000d D112          MOVB      XAR1,#18              ; [CPU_ALU] |157| 
     249 0000000e 761F-         MOVW      DP,#_clkPrescale      ; [CPU_ARAU] 
         0000000f 0000 
     250                      .dwpsn  file "../sources/DmcProtection.c",line 139,column 5,is_stmt,isa 0
     251 00000010 1AC4          OR        *+XAR4[0],#0x0200     ; [CPU_ALU] |139| 
         00000011 0200 
     252                      .dwpsn  file "../sources/DmcProtection.c",line 163,column 5,is_stmt,isa 0
     253 00000012 83A4          MOVL      XAR5,XAR4             ; [CPU_ALU] |163| 
     254                      .dwpsn  file "../sources/DmcProtection.c",line 140,column 5,is_stmt,isa 0
     255 00000013 18C4          AND       *+XAR4[0],#0xffbf     ; [CPU_ALU] |140| 
         00000014 FFBF 
     256                      .dwpsn  file "../sources/DmcProtection.c",line 141,column 5,is_stmt,isa 0
     257 00000015 18C4          AND       *+XAR4[0],#0xbfff     ; [CPU_ALU] |141| 
         00000016 BFFF 
     258                      .dwpsn  file "../sources/DmcProtection.c",line 142,column 5,is_stmt,isa 0
     259 00000017 CCC4          AND       AL,*+XAR4[0],#0xfffb  ; [CPU_ALU] |142| 
         00000018 FFFB 
TMS320C2000 Assembler PC v20.2.1 Wed Nov 18 21:47:53 2020

Copyright (c) 1996-2018 Texas Instruments Incorporated
DmcProtection.asm                                                    PAGE    6

     260 00000019 5008          ORB       AL,#0x08              ; [CPU_ALU] |142| 
     261 0000001a 96C4          MOV       *+XAR4[0],AL          ; [CPU_ALU] |142| 
     262                      .dwpsn  file "../sources/DmcProtection.c",line 143,column 5,is_stmt,isa 0
     263 0000001b CCC4          AND       AL,*+XAR4[0],#0xffef  ; [CPU_ALU] |143| 
         0000001c FFEF 
     264 0000001d 5020          ORB       AL,#0x20              ; [CPU_ALU] |143| 
     265 0000001e 96C4          MOV       *+XAR4[0],AL          ; [CPU_ALU] |143| 
     266                      .dwpsn  file "../sources/DmcProtection.c",line 144,column 5,is_stmt,isa 0
     267 0000001f CCC4          AND       AL,*+XAR4[0],#0xfbff  ; [CPU_ALU] |144| 
         00000020 FBFF 
     268 00000021 1AA9          OR        AL,#0x0800            ; [CPU_ALU] |144| 
         00000022 0800 
     269 00000023 96C4          MOV       *+XAR4[0],AL          ; [CPU_ALU] |144| 
     270                      .dwpsn  file "../sources/DmcProtection.c",line 145,column 5,is_stmt,isa 0
     271 00000024 CCC4          AND       AL,*+XAR4[0],#0xefff  ; [CPU_ALU] |145| 
         00000025 EFFF 
     272 00000026 1AA9          OR        AL,#0x2000            ; [CPU_ALU] |145| 
         00000027 2000 
     273 00000028 96C4          MOV       *+XAR4[0],AL          ; [CPU_ALU] |145| 
     274                      .dwpsn  file "../sources/DmcProtection.c",line 148,column 5,is_stmt,isa 0
     275 00000029 CCCC          AND       AL,*+XAR4[1],#0xfff8  ; [CPU_ALU] |148| 
         0000002a FFF8 
     276 0000002b 5002          ORB       AL,#0x02              ; [CPU_ALU] |148| 
     277 0000002c 96CC          MOV       *+XAR4[1],AL          ; [CPU_ALU] |148| 
     278                      .dwpsn  file "../sources/DmcProtection.c",line 156,column 5,is_stmt,isa 0
     279 0000002d CCA7          AND       AL,AR7,#0x0fff        ; [CPU_ALU] |156| 
         0000002e 0FFF 
     280                      .dwpsn  file "../sources/DmcProtection.c",line 151,column 5,is_stmt,isa 0
     281 0000002f 18E4          AND       *+XAR4[4],#0xffdf     ; [CPU_ALU] |151| 
         00000030 FFDF 
     282                      .dwpsn  file "../sources/DmcProtection.c",line 152,column 5,is_stmt,isa 0
     283 00000031 18E4          AND       *+XAR4[4],#0xff7f     ; [CPU_ALU] |152| 
         00000032 FF7F 
     284                      .dwpsn  file "../sources/DmcProtection.c",line 153,column 5,is_stmt,isa 0
     285 00000033 18E4          AND       *+XAR4[4],#0xfffe     ; [CPU_ALU] |153| 
         00000034 FFFE 
     286                      .dwpsn  file "../sources/DmcProtection.c",line 156,column 5,is_stmt,isa 0
     287 00000035 CDF4          AND       AH,*+XAR4[6],#0xf000  ; [CPU_ALU] |156| 
         00000036 F000 
     288 00000037 CAA8          OR        AL,AH                 ; [CPU_ALU] |156| 
     289 00000038 96F4          MOV       *+XAR4[6],AL          ; [CPU_ALU] |156| 
     290                      .dwpsn  file "../sources/DmcProtection.c",line 157,column 5,is_stmt,isa 0
     291 00000039 CCA6          AND       AL,AR6,#0x0fff        ; [CPU_ALU] |157| 
         0000003a 0FFF 
     292 0000003b CD94          AND       AH,*+XAR4[AR0],#0xf000 ; [CPU_ALU] |157| 
         0000003c F000 
     293 0000003d CAA8          OR        AL,AH                 ; [CPU_ALU] |157| 
     294                      .dwpsn  file "../sources/DmcProtection.c",line 160,column 5,is_stmt,isa 0
     295 0000003e D019          MOVB      XAR0,#25              ; [CPU_ALU] |160| 
     296                      .dwpsn  file "../sources/DmcProtection.c",line 157,column 5,is_stmt,isa 0
     297 0000003f 969C          MOV       *+XAR4[AR1],AL        ; [CPU_ALU] |157| 
     298                      .dwpsn  file "../sources/DmcProtection.c",line 160,column 5,is_stmt,isa 0
     299 00000040 CC00-         AND       AL,@_clkPrescale,#0x03ff ; [CPU_ALU] |160| 
         00000041 03FF 
     300 00000042 88A9          MOVZ      AR6,AL                ; [CPU_ALU] |160| 
TMS320C2000 Assembler PC v20.2.1 Wed Nov 18 21:47:53 2020

Copyright (c) 1996-2018 Texas Instruments Incorporated
DmcProtection.asm                                                    PAGE    7

     301                      .dwpsn  file "../sources/DmcProtection.c",line 162,column 5,is_stmt,isa 0
     302 00000043 D118          MOVB      XAR1,#24              ; [CPU_ALU] |162| 
     303                      .dwpsn  file "../sources/DmcProtection.c",line 160,column 5,is_stmt,isa 0
     304 00000044 CC94          AND       AL,*+XAR4[AR0],#0xfc00 ; [CPU_ALU] |160| 
         00000045 FC00 
     305 00000046 D019          MOVB      XAR0,#25              ; [CPU_ALU] |160| 
     306 00000047 CAA6          OR        AL,AR6                ; [CPU_ALU] |160| 
     307 00000048 9694          MOV       *+XAR4[AR0],AL        ; [CPU_ALU] |160| 
     308                      .dwpsn  file "../sources/DmcProtection.c",line 161,column 5,is_stmt,isa 0
     309 00000049 9201-         MOV       AL,@_sampwin          ; [CPU_ALU] |161| 
     310 0000004a D018          MOVB      XAR0,#24              ; [CPU_ALU] |161| 
     311 0000004b 901F          ANDB      AL,#0x1f              ; [CPU_ALU] |161| 
     312 0000004c 5603          MOV       ACC,AL << #4          ; [CPU_ALU] |161| 
         0000004d 04A9 
     313 0000004e 80A9          MOVZ      AR7,AL                ; [CPU_ALU] |161| 
     314                      .dwpsn  file "../sources/DmcProtection.c",line 163,column 5,is_stmt,isa 0
     315 0000004f DD18          ADDB      XAR5,#24              ; [CPU_ALU] |163| 
     316                      .dwpsn  file "../sources/DmcProtection.c",line 161,column 5,is_stmt,isa 0
     317 00000050 CD94          AND       AH,*+XAR4[AR0],#0xfe0f ; [CPU_FPU] |161| 
         00000051 FE0F 
     318 00000052 D018          MOVB      XAR0,#24              ; [CPU_FPU] |161| 
     319 00000053 CBA7          OR        AH,AR7                ; [CPU_ALU] |161| 
     320 00000054 9794          MOV       *+XAR4[AR0],AH        ; [CPU_FPU] |161| 
     321                      .dwpsn  file "../sources/DmcProtection.c",line 162,column 5,is_stmt,isa 0
     322 00000055 9302-         MOV       AH,@_thresh           ; [CPU_FPU] |162| 
     323 00000056 D018          MOVB      XAR0,#24              ; [CPU_FPU] |162| 
     324 00000057 911F          ANDB      AH,#0x1f              ; [CPU_ALU] |162| 
     325 00000058 5603          MOV       ACC,AH << #9          ; [CPU_FPU] |162| 
         00000059 09A8 
     326 0000005a CD94          AND       AH,*+XAR4[AR0],#0xc1ff ; [CPU_FPU] |162| 
         0000005b C1FF 
     327 0000005c CBA9          OR        AH,AL                 ; [CPU_ALU] |162| 
     328 0000005d 979C          MOV       *+XAR4[AR1],AH        ; [CPU_FPU] |162| 
     329                      .dwpsn  file "../sources/DmcProtection.c",line 163,column 5,is_stmt,isa 0
     330 0000005e 1AC5          OR        *+XAR5[0],#0x8000     ; [CPU_ALU] |163| 
         0000005f 8000 
     331                      .dwpsn  file "../sources/DmcProtection.c",line 169,column 5,is_stmt,isa 0
     332 00000060 83A4          MOVL      XAR5,XAR4             ; [CPU_ALU] |169| 
     333                      .dwpsn  file "../sources/DmcProtection.c",line 166,column 5,is_stmt,isa 0
     334 00000061 D017          MOVB      XAR0,#23              ; [CPU_ALU] |166| 
     335 00000062 D117          MOVB      XAR1,#23              ; [CPU_ALU] |166| 
     336                      .dwpsn  file "../sources/DmcProtection.c",line 169,column 5,is_stmt,isa 0
     337 00000063 DD16          ADDB      XAR5,#22              ; [CPU_ALU] |169| 
     338                      .dwpsn  file "../sources/DmcProtection.c",line 166,column 5,is_stmt,isa 0
     339 00000064 CD94          AND       AH,*+XAR4[AR0],#0xfc00 ; [CPU_ALU] |166| 
         00000065 FC00 
     340                      .dwpsn  file "../sources/DmcProtection.c",line 167,column 5,is_stmt,isa 0
     341 00000066 D016          MOVB      XAR0,#22              ; [CPU_ALU] |167| 
     342                      .dwpsn  file "../sources/DmcProtection.c",line 166,column 5,is_stmt,isa 0
     343 00000067 CBA6          OR        AH,AR6                ; [CPU_ALU] |166| 
     344 00000068 979C          MOV       *+XAR4[AR1],AH        ; [CPU_FPU] |166| 
     345                      .dwpsn  file "../sources/DmcProtection.c",line 167,column 5,is_stmt,isa 0
     346 00000069 D116          MOVB      XAR1,#22              ; [CPU_FPU] |167| 
     347 0000006a CD94          AND       AH,*+XAR4[AR0],#0xfe0f ; [CPU_FPU] |167| 
         0000006b FE0F 
TMS320C2000 Assembler PC v20.2.1 Wed Nov 18 21:47:53 2020

Copyright (c) 1996-2018 Texas Instruments Incorporated
DmcProtection.asm                                                    PAGE    8

     348                      .dwpsn  file "../sources/DmcProtection.c",line 168,column 5,is_stmt,isa 0
     349 0000006c D016          MOVB      XAR0,#22              ; [CPU_FPU] |168| 
     350                      .dwpsn  file "../sources/DmcProtection.c",line 167,column 5,is_stmt,isa 0
     351 0000006d CBA7          OR        AH,AR7                ; [CPU_ALU] |167| 
     352 0000006e 979C          MOV       *+XAR4[AR1],AH        ; [CPU_FPU] |167| 
     353                      .dwpsn  file "../sources/DmcProtection.c",line 168,column 5,is_stmt,isa 0
     354 0000006f CD94          AND       AH,*+XAR4[AR0],#0xc1ff ; [CPU_FPU] |168| 
         00000070 C1FF 
     355 00000071 D016          MOVB      XAR0,#22              ; [CPU_FPU] |168| 
     356 00000072 CBA9          OR        AH,AL                 ; [CPU_ALU] |168| 
     357 00000073 9794          MOV       *+XAR4[AR0],AH        ; [CPU_FPU] |168| 
     358                      .dwpsn  file "../sources/DmcProtection.c",line 169,column 5,is_stmt,isa 0
     359 00000074 1AC5          OR        *+XAR5[0],#0x8000     ; [CPU_ALU] |169| 
         00000075 8000 
     360                      .dwpsn  file "../sources/DmcProtection.c",line 172,column 5,is_stmt,isa 0
     361 00000076 1ADC          OR        *+XAR4[3],#0x0002     ; [CPU_ALU] |172| 
         00000077 0002 
     362                      .dwpsn  file "../sources/DmcProtection.c",line 173,column 5,is_stmt,isa 0
     363 00000078 1ADC          OR        *+XAR4[3],#0x0200     ; [CPU_ALU] |173| 
         00000079 0200 
     364 0000007a 761A   EDIS
     365 0000007b FF69          SPM       #0                    ; [CPU_ALU] 
     366 0000007c 8BBE          MOVL      XAR1,*--SP            ; [CPU_ALU] 
     367                      .dwcfi  cfa_offset, -2
     368                      .dwcfi  restore_reg, 7
     369              $C$DW$22        .dwtag  DW_TAG_TI_branch
     370                      .dwattr $C$DW$22, DW_AT_low_pc(0x00)
     371                      .dwattr $C$DW$22, DW_AT_TI_return
     372              
     373 0000007d 0006          LRETR     ; [CPU_ALU] 
     374                      ; return occurs ; [] 
     375                      .dwattr $C$DW$15, DW_AT_TI_end_file("../sources/DmcProtection.c")
     376                      .dwattr $C$DW$15, DW_AT_TI_end_line(0xb1)
     377                      .dwattr $C$DW$15, DW_AT_TI_end_column(0x01)
     378                      .dwendentry
     379                      .dwendtag $C$DW$15
     380              
     381 0000007e               .sect   ".text"
     382                      .clink
     383                      .global _PwmTripConfig
     384              
     385              $C$DW$23        .dwtag  DW_TAG_subprogram
     386                      .dwattr $C$DW$23, DW_AT_name("PwmTripConfig")
     387                      .dwattr $C$DW$23, DW_AT_low_pc(_PwmTripConfig)
     388                      .dwattr $C$DW$23, DW_AT_high_pc(0x00)
     389                      .dwattr $C$DW$23, DW_AT_TI_symbol_name("_PwmTripConfig")
     390                      .dwattr $C$DW$23, DW_AT_external
     391                      .dwattr $C$DW$23, DW_AT_TI_begin_file("../sources/DmcProtection.c")
     392                      .dwattr $C$DW$23, DW_AT_TI_begin_line(0x70)
     393                      .dwattr $C$DW$23, DW_AT_TI_begin_column(0x06)
     394                      .dwattr $C$DW$23, DW_AT_TI_max_frame_size(-4)
     395                      .dwpsn  file "../sources/DmcProtection.c",line 113,column 1,is_stmt,address _PwmTripConfig,isa 0
     396              
     397                      .dwfde $C$DW$CIE, _PwmTripConfig
     398              $C$DW$24        .dwtag  DW_TAG_formal_parameter
TMS320C2000 Assembler PC v20.2.1 Wed Nov 18 21:47:53 2020

Copyright (c) 1996-2018 Texas Instruments Incorporated
DmcProtection.asm                                                    PAGE    9

     399                      .dwattr $C$DW$24, DW_AT_name("PwmRegs")
     400                      .dwattr $C$DW$24, DW_AT_TI_symbol_name("_PwmRegs")
     401                      .dwattr $C$DW$24, DW_AT_type(*$C$DW$T$62)
     402                      .dwattr $C$DW$24, DW_AT_location[DW_OP_reg12]
     403              
     404              $C$DW$25        .dwtag  DW_TAG_formal_parameter
     405                      .dwattr $C$DW$25, DW_AT_name("TripNum")
     406                      .dwattr $C$DW$25, DW_AT_TI_symbol_name("_TripNum")
     407                      .dwattr $C$DW$25, DW_AT_type(*$C$DW$T$34)
     408                      .dwattr $C$DW$25, DW_AT_location[DW_OP_reg0]
     409              
     410              
     411              ;***************************************************************
     412              ;* FNAME: _PwmTripConfig                FR SIZE:   2           *
     413              ;*                                                             *
     414              ;* FUNCTION ENVIRONMENT                                        *
     415              ;*                                                             *
     416              ;* FUNCTION PROPERTIES                                         *
     417              ;*                            0 Parameter,  0 Auto,  2 SOE     *
     418              ;***************************************************************
     419              
     420              _PwmTripConfig:
     421              ;* AR4   assigned to _PwmRegs
     422              $C$DW$26        .dwtag  DW_TAG_variable
     423                      .dwattr $C$DW$26, DW_AT_name("PwmRegs")
     424                      .dwattr $C$DW$26, DW_AT_TI_symbol_name("_PwmRegs")
     425                      .dwattr $C$DW$26, DW_AT_type(*$C$DW$T$419)
     426                      .dwattr $C$DW$26, DW_AT_location[DW_OP_reg12]
     427              
     428                      .dwcfi  cfa_offset, -2
     429                      .dwcfi  save_reg_to_mem, 26, 0
     430 0000007e B2BD          MOVL      *SP++,XAR1            ; [CPU_ALU] 
     431                      .dwcfi  save_reg_to_mem, 7, 2
     432                      .dwcfi  cfa_offset, -4
     433 0000007f 7622   EALLOW
     434                      .dwpsn  file "../sources/DmcProtection.c",line 116,column 5,is_stmt,isa 0
     435 00000080 D0C0          MOVB      XAR0,#192             ; [CPU_ALU] |116| 
     436 00000081 900F          ANDB      AL,#15                ; [CPU_ALU] |116| 
     437 00000082 D1C0          MOVB      XAR1,#192             ; [CPU_ALU] |116| 
     438 00000083 CD94          AND       AH,*+XAR4[AR0],#0xfff0 ; [CPU_FPU] |116| 
         00000084 FFF0 
     439                      .dwpsn  file "../sources/DmcProtection.c",line 117,column 5,is_stmt,isa 0
     440 00000085 D082          MOVB      XAR0,#130             ; [CPU_FPU] |117| 
     441                      .dwpsn  file "../sources/DmcProtection.c",line 116,column 5,is_stmt,isa 0
     442 00000086 CAA8          OR        AL,AH                 ; [CPU_ALU] |116| 
     443 00000087 969C          MOV       *+XAR4[AR1],AL        ; [CPU_ALU] |116| 
     444                      .dwpsn  file "../sources/DmcProtection.c",line 117,column 5,is_stmt,isa 0
     445 00000088 CC94          AND       AL,*+XAR4[AR0],#0xfff8 ; [CPU_ALU] |117| 
         00000089 FFF8 
     446 0000008a D082          MOVB      XAR0,#130             ; [CPU_ALU] |117| 
     447 0000008b 5002          ORB       AL,#0x02              ; [CPU_ALU] |117| 
     448 0000008c 9694          MOV       *+XAR4[AR0],AL        ; [CPU_ALU] |117| 
     449                      .dwpsn  file "../sources/DmcProtection.c",line 118,column 5,is_stmt,isa 0
     450 0000008d A8A9          MOVL      ACC,XAR4              ; [CPU_ALU] |118| 
     451 0000008e 09C3          ADDB      ACC,#195              ; [CPU_ALU] |118| 
TMS320C2000 Assembler PC v20.2.1 Wed Nov 18 21:47:53 2020

Copyright (c) 1996-2018 Texas Instruments Incorporated
DmcProtection.asm                                                    PAGE   10

     452 0000008f 8BA9          MOVL      XAR1,ACC              ; [CPU_ALU] |118| 
     453                      .dwpsn  file "../sources/DmcProtection.c",line 119,column 5,is_stmt,isa 0
     454 00000090 A8A9          MOVL      ACC,XAR4              ; [CPU_ALU] |119| 
     455 00000091 09C3          ADDB      ACC,#195              ; [CPU_ALU] |119| 
     456 00000092 1EA7          MOVL      XAR7,ACC              ; [CPU_ALU] |119| 
     457                      .dwpsn  file "../sources/DmcProtection.c",line 118,column 5,is_stmt,isa 0
     458 00000093 18C1          AND       *+XAR1[0],#0xfffe     ; [CPU_ALU] |118| 
         00000094 FFFE 
     459                      .dwpsn  file "../sources/DmcProtection.c",line 120,column 5,is_stmt,isa 0
     460 00000095 A8A9          MOVL      ACC,XAR4              ; [CPU_ALU] |120| 
     461 00000096 0980          ADDB      ACC,#128              ; [CPU_ALU] |120| 
     462 00000097 1EA6          MOVL      XAR6,ACC              ; [CPU_ALU] |120| 
     463                      .dwpsn  file "../sources/DmcProtection.c",line 119,column 5,is_stmt,isa 0
     464 00000098 1AC7          OR        *+XAR7[0],#0x0002     ; [CPU_ALU] |119| 
         00000099 0002 
     465                      .dwpsn  file "../sources/DmcProtection.c",line 121,column 5,is_stmt,isa 0
     466 0000009a A8A9          MOVL      ACC,XAR4              ; [CPU_ALU] |121| 
     467 0000009b 0980          ADDB      ACC,#128              ; [CPU_ALU] |121| 
     468 0000009c 83A9          MOVL      XAR5,ACC              ; [CPU_ALU] |121| 
     469                      .dwpsn  file "../sources/DmcProtection.c",line 122,column 5,is_stmt,isa 0
     470 0000009d D084          MOVB      XAR0,#132             ; [CPU_ALU] |122| 
     471 0000009e D184          MOVB      XAR1,#132             ; [CPU_ALU] |122| 
     472                      .dwpsn  file "../sources/DmcProtection.c",line 120,column 5,is_stmt,isa 0
     473 0000009f 1AC6          OR        *+XAR6[0],#0x4000     ; [CPU_ALU] |120| 
         000000a0 4000 
     474                      .dwpsn  file "../sources/DmcProtection.c",line 121,column 5,is_stmt,isa 0
     475 000000a1 1AC5          OR        *+XAR5[0],#0x0020     ; [CPU_ALU] |121| 
         000000a2 0020 
     476                      .dwpsn  file "../sources/DmcProtection.c",line 122,column 5,is_stmt,isa 0
     477 000000a3 CC94          AND       AL,*+XAR4[AR0],#0xfffe ; [CPU_ALU] |122| 
         000000a4 FFFE 
     478 000000a5 5002          ORB       AL,#0x02              ; [CPU_ALU] |122| 
     479                      .dwpsn  file "../sources/DmcProtection.c",line 123,column 5,is_stmt,isa 0
     480 000000a6 D084          MOVB      XAR0,#132             ; [CPU_ALU] |123| 
     481                      .dwpsn  file "../sources/DmcProtection.c",line 122,column 5,is_stmt,isa 0
     482 000000a7 969C          MOV       *+XAR4[AR1],AL        ; [CPU_ALU] |122| 
     483                      .dwpsn  file "../sources/DmcProtection.c",line 123,column 5,is_stmt,isa 0
     484 000000a8 CC94          AND       AL,*+XAR4[AR0],#0xfffb ; [CPU_ALU] |123| 
         000000a9 FFFB 
     485 000000aa D084          MOVB      XAR0,#132             ; [CPU_ALU] |123| 
     486 000000ab 5008          ORB       AL,#0x08              ; [CPU_ALU] |123| 
     487 000000ac 9694          MOV       *+XAR4[AR0],AL        ; [CPU_ALU] |123| 
     488                      .dwpsn  file "../sources/DmcProtection.c",line 124,column 5,is_stmt,isa 0
     489 000000ad A8A9          MOVL      ACC,XAR4              ; [CPU_ALU] |124| 
     490 000000ae 0997          ADDB      ACC,#151              ; [CPU_ALU] |124| 
     491 000000af 83A9          MOVL      XAR5,ACC              ; [CPU_ALU] |124| 
     492                      .dwpsn  file "../sources/DmcProtection.c",line 125,column 5,is_stmt,isa 0
     493 000000b0 A8A9          MOVL      ACC,XAR4              ; [CPU_ALU] |125| 
     494 000000b1 0997          ADDB      ACC,#151              ; [CPU_ALU] |125| 
     495 000000b2 8AA9          MOVL      XAR4,ACC              ; [CPU_ALU] |125| 
     496                      .dwpsn  file "../sources/DmcProtection.c",line 124,column 5,is_stmt,isa 0
     497 000000b3 1AC5          OR        *+XAR5[0],#0x0008     ; [CPU_ALU] |124| 
         000000b4 0008 
     498                      .dwpsn  file "../sources/DmcProtection.c",line 125,column 5,is_stmt,isa 0
     499 000000b5 1AC4          OR        *+XAR4[0],#0x0004     ; [CPU_ALU] |125| 
TMS320C2000 Assembler PC v20.2.1 Wed Nov 18 21:47:53 2020

Copyright (c) 1996-2018 Texas Instruments Incorporated
DmcProtection.asm                                                    PAGE   11

         000000b6 0004 
     500 000000b7 761A   EDIS
     501 000000b8 FF69          SPM       #0                    ; [CPU_ALU] 
     502 000000b9 8BBE          MOVL      XAR1,*--SP            ; [CPU_ALU] 
     503                      .dwcfi  cfa_offset, -2
     504                      .dwcfi  restore_reg, 7
     505              $C$DW$27        .dwtag  DW_TAG_TI_branch
     506                      .dwattr $C$DW$27, DW_AT_low_pc(0x00)
     507                      .dwattr $C$DW$27, DW_AT_TI_return
     508              
     509 000000ba 0006          LRETR     ; [CPU_ALU] 
     510                      ; return occurs ; [] 
     511                      .dwattr $C$DW$23, DW_AT_TI_end_file("../sources/DmcProtection.c")
     512                      .dwattr $C$DW$23, DW_AT_TI_end_line(0x80)
     513                      .dwattr $C$DW$23, DW_AT_TI_end_column(0x01)
     514                      .dwendentry
     515                      .dwendtag $C$DW$23
     516              
     517 000000bb               .sect   ".text"
     518                      .clink
     519                      .global _ENABLE_INVERTER
     520              
     521              $C$DW$28        .dwtag  DW_TAG_subprogram
     522                      .dwattr $C$DW$28, DW_AT_name("ENABLE_INVERTER")
     523                      .dwattr $C$DW$28, DW_AT_low_pc(_ENABLE_INVERTER)
     524                      .dwattr $C$DW$28, DW_AT_high_pc(0x00)
     525                      .dwattr $C$DW$28, DW_AT_TI_symbol_name("_ENABLE_INVERTER")
     526                      .dwattr $C$DW$28, DW_AT_external
     527                      .dwattr $C$DW$28, DW_AT_TI_begin_file("../sources/DmcProtection.c")
     528                      .dwattr $C$DW$28, DW_AT_TI_begin_line(0x68)
     529                      .dwattr $C$DW$28, DW_AT_TI_begin_column(0x07)
     530                      .dwattr $C$DW$28, DW_AT_TI_max_frame_size(-2)
     531                      .dwpsn  file "../sources/DmcProtection.c",line 105,column 1,is_stmt,address _ENABLE_INVERTER,isa 0
     532              
     533                      .dwfde $C$DW$CIE, _ENABLE_INVERTER
     534              $C$DW$29        .dwtag  DW_TAG_formal_parameter
     535                      .dwattr $C$DW$29, DW_AT_name("m")
     536                      .dwattr $C$DW$29, DW_AT_TI_symbol_name("_m")
     537                      .dwattr $C$DW$29, DW_AT_type(*$C$DW$T$392)
     538                      .dwattr $C$DW$29, DW_AT_location[DW_OP_reg12]
     539              
     540              
     541              ;***************************************************************
     542              ;* FNAME: _ENABLE_INVERTER              FR SIZE:   0           *
     543              ;*                                                             *
     544              ;* FUNCTION ENVIRONMENT                                        *
     545              ;*                                                             *
     546              ;* FUNCTION PROPERTIES                                         *
     547              ;*                            0 Parameter,  0 Auto,  0 SOE     *
     548              ;***************************************************************
     549              
     550              _ENABLE_INVERTER:
     551              ;* AR4   assigned to _m
     552              $C$DW$30        .dwtag  DW_TAG_variable
     553                      .dwattr $C$DW$30, DW_AT_name("m")
TMS320C2000 Assembler PC v20.2.1 Wed Nov 18 21:47:53 2020

Copyright (c) 1996-2018 Texas Instruments Incorporated
DmcProtection.asm                                                    PAGE   12

     554                      .dwattr $C$DW$30, DW_AT_TI_symbol_name("_m")
     555                      .dwattr $C$DW$30, DW_AT_type(*$C$DW$T$393)
     556                      .dwattr $C$DW$30, DW_AT_location[DW_OP_reg12]
     557              
     558                      .dwcfi  cfa_offset, -2
     559                      .dwcfi  save_reg_to_mem, 26, 0
     560                      .dwpsn  file "../sources/DmcProtection.c",line 106,column 5,is_stmt,isa 0
     561 000000bb 8F40!         MOVL      XAR5,#_motor1         ; [CPU_ARAU] |106| 
         000000bc 0000 
     562 000000bd A0A9          MOVL      ACC,XAR5              ; [CPU_ALU] |106| 
     563 000000be 0FA4          CMPL      ACC,XAR4              ; [CPU_ALU] |106| 
     564 000000bf 6103          B         $C$L1,EQ              ; [CPU_ALU] |106| 
     565                      ; branchcc occurs ; [] |106| 
     566                      .dwpsn  file "../sources/DmcProtection.c",line 107,column 24,is_stmt,isa 0
     567 000000c0 9A1A          MOVB      AL,#26                ; [CPU_ALU] |107| 
     568 000000c1 6F02          B         $C$L2,UNC             ; [CPU_ALU] |107| 
     569                      ; branch occurs ; [] |107| 
     570 000000c2       $C$L1:    
     571                      .dwpsn  file "../sources/DmcProtection.c",line 106,column 24,is_stmt,isa 0
     572 000000c2 9A7C          MOVB      AL,#124               ; [CPU_ALU] |106| 
     573 000000c3       $C$L2:    
     574 000000c3 9B00          MOVB      AH,#0                 ; [CPU_ALU] |106| 
     575              $C$DW$31        .dwtag  DW_TAG_TI_branch
     576                      .dwattr $C$DW$31, DW_AT_low_pc(0x00)
     577                      .dwattr $C$DW$31, DW_AT_name("_GPIO_WritePin")
     578                      .dwattr $C$DW$31, DW_AT_TI_call
     579              
     580 000000c4 7640!         LCR       #_GPIO_WritePin       ; [CPU_ALU] |106| 
         000000c5 0000 
     581                      ; call occurs [#_GPIO_WritePin] ; [] |106| 
     582              $C$DW$32        .dwtag  DW_TAG_TI_branch
     583                      .dwattr $C$DW$32, DW_AT_low_pc(0x00)
     584                      .dwattr $C$DW$32, DW_AT_TI_return
     585              
     586 000000c6 0006          LRETR     ; [CPU_ALU] 
     587                      ; return occurs ; [] 
     588                      .dwattr $C$DW$28, DW_AT_TI_end_file("../sources/DmcProtection.c")
     589                      .dwattr $C$DW$28, DW_AT_TI_end_line(0x6d)
     590                      .dwattr $C$DW$28, DW_AT_TI_end_column(0x01)
     591                      .dwendentry
     592                      .dwendtag $C$DW$28
     593              
     594 000000c7               .sect   ".text"
     595                      .clink
     596                      .global _CMPSS_DIG_FILTER
     597              
     598              $C$DW$33        .dwtag  DW_TAG_subprogram
     599                      .dwattr $C$DW$33, DW_AT_name("CMPSS_DIG_FILTER")
     600                      .dwattr $C$DW$33, DW_AT_low_pc(_CMPSS_DIG_FILTER)
     601                      .dwattr $C$DW$33, DW_AT_high_pc(0x00)
     602                      .dwattr $C$DW$33, DW_AT_TI_symbol_name("_CMPSS_DIG_FILTER")
     603                      .dwattr $C$DW$33, DW_AT_external
     604                      .dwattr $C$DW$33, DW_AT_TI_begin_file("../sources/DmcProtection.c")
     605                      .dwattr $C$DW$33, DW_AT_TI_begin_line(0x141)
     606                      .dwattr $C$DW$33, DW_AT_TI_begin_column(0x06)
TMS320C2000 Assembler PC v20.2.1 Wed Nov 18 21:47:53 2020

Copyright (c) 1996-2018 Texas Instruments Incorporated
DmcProtection.asm                                                    PAGE   13

     607                      .dwattr $C$DW$33, DW_AT_TI_max_frame_size(-4)
     608                      .dwpsn  file "../sources/DmcProtection.c",line 322,column 1,is_stmt,address _CMPSS_DIG_FILTER,isa 0
     609              
     610                      .dwfde $C$DW$CIE, _CMPSS_DIG_FILTER
     611              $C$DW$34        .dwtag  DW_TAG_formal_parameter
     612                      .dwattr $C$DW$34, DW_AT_name("v")
     613                      .dwattr $C$DW$34, DW_AT_TI_symbol_name("_v")
     614                      .dwattr $C$DW$34, DW_AT_type(*$C$DW$T$68)
     615                      .dwattr $C$DW$34, DW_AT_location[DW_OP_reg12]
     616              
     617              $C$DW$35        .dwtag  DW_TAG_formal_parameter
     618                      .dwattr $C$DW$35, DW_AT_name("curHi")
     619                      .dwattr $C$DW$35, DW_AT_TI_symbol_name("_curHi")
     620                      .dwattr $C$DW$35, DW_AT_type(*$C$DW$T$34)
     621                      .dwattr $C$DW$35, DW_AT_location[DW_OP_reg0]
     622              
     623              $C$DW$36        .dwtag  DW_TAG_formal_parameter
     624                      .dwattr $C$DW$36, DW_AT_name("curLo")
     625                      .dwattr $C$DW$36, DW_AT_TI_symbol_name("_curLo")
     626                      .dwattr $C$DW$36, DW_AT_type(*$C$DW$T$34)
     627                      .dwattr $C$DW$36, DW_AT_location[DW_OP_reg1]
     628              
     629              
     630              ;***************************************************************
     631              ;* FNAME: _CMPSS_DIG_FILTER             FR SIZE:   2           *
     632              ;*                                                             *
     633              ;* FUNCTION ENVIRONMENT                                        *
     634              ;*                                                             *
     635              ;* FUNCTION PROPERTIES                                         *
     636              ;*                            0 Parameter,  0 Auto,  2 SOE     *
     637              ;***************************************************************
     638              
     639              _CMPSS_DIG_FILTER:
     640              ;* AL    assigned to $O$C1
     641              ;* AR7   assigned to $O$C2
     642              ;* AR6   assigned to $O$C3
     643              ;* AR4   assigned to _v
     644              $C$DW$37        .dwtag  DW_TAG_variable
     645                      .dwattr $C$DW$37, DW_AT_name("v")
     646                      .dwattr $C$DW$37, DW_AT_TI_symbol_name("_v")
     647                      .dwattr $C$DW$37, DW_AT_type(*$C$DW$T$396)
     648                      .dwattr $C$DW$37, DW_AT_location[DW_OP_reg12]
     649              
     650              ;* AL    assigned to _curHi
     651              $C$DW$38        .dwtag  DW_TAG_variable
     652                      .dwattr $C$DW$38, DW_AT_name("curHi")
     653                      .dwattr $C$DW$38, DW_AT_TI_symbol_name("_curHi")
     654                      .dwattr $C$DW$38, DW_AT_type(*$C$DW$T$461)
     655                      .dwattr $C$DW$38, DW_AT_location[DW_OP_reg0]
     656              
     657              ;* AR6   assigned to _curLo
     658              $C$DW$39        .dwtag  DW_TAG_variable
     659                      .dwattr $C$DW$39, DW_AT_name("curLo")
     660                      .dwattr $C$DW$39, DW_AT_TI_symbol_name("_curLo")
     661                      .dwattr $C$DW$39, DW_AT_type(*$C$DW$T$461)
TMS320C2000 Assembler PC v20.2.1 Wed Nov 18 21:47:53 2020

Copyright (c) 1996-2018 Texas Instruments Incorporated
DmcProtection.asm                                                    PAGE   14

     662                      .dwattr $C$DW$39, DW_AT_location[DW_OP_reg16]
     663              
     664                      .dwcfi  cfa_offset, -2
     665                      .dwcfi  save_reg_to_mem, 26, 0
     666 000000c7 B2BD          MOVL      *SP++,XAR1            ; [CPU_ALU] 
     667                      .dwcfi  save_reg_to_mem, 7, 2
     668                      .dwcfi  cfa_offset, -4
     669 000000c8 88A8          MOVZ      AR6,AH                ; [CPU_ALU] |322| 
     670                      .dwpsn  file "../sources/DmcProtection.c",line 324,column 5,is_stmt,isa 0
     671 000000c9 CCA9          AND       AL,AL,#0x0fff         ; [CPU_ALU] |324| 
         000000ca 0FFF 
     672 000000cb CDF4          AND       AH,*+XAR4[6],#0xf000  ; [CPU_ALU] |324| 
         000000cc F000 
     673                      .dwpsn  file "../sources/DmcProtection.c",line 325,column 5,is_stmt,isa 0
     674 000000cd D012          MOVB      XAR0,#18              ; [CPU_ALU] |325| 
     675 000000ce D112          MOVB      XAR1,#18              ; [CPU_ALU] |325| 
     676 000000cf 761F-         MOVW      DP,#_clkPrescale      ; [CPU_ARAU] 
         000000d0 0000 
     677                      .dwpsn  file "../sources/DmcProtection.c",line 324,column 5,is_stmt,isa 0
     678 000000d1 CAA8          OR        AL,AH                 ; [CPU_ALU] |324| 
     679 000000d2 96F4          MOV       *+XAR4[6],AL          ; [CPU_ALU] |324| 
     680                      .dwpsn  file "../sources/DmcProtection.c",line 325,column 5,is_stmt,isa 0
     681 000000d3 CCA6          AND       AL,AR6,#0x0fff        ; [CPU_ALU] |325| 
         000000d4 0FFF 
     682 000000d5 CD94          AND       AH,*+XAR4[AR0],#0xf000 ; [CPU_ALU] |325| 
         000000d6 F000 
     683 000000d7 CAA8          OR        AL,AH                 ; [CPU_ALU] |325| 
     684 000000d8 969C          MOV       *+XAR4[AR1],AL        ; [CPU_ALU] |325| 
     685                      .dwpsn  file "../sources/DmcProtection.c",line 328,column 5,is_stmt,isa 0
     686 000000d9 CC00-         AND       AL,@_clkPrescale,#0x03ff ; [CPU_ALU] |328| 
         000000da 03FF 
     687 000000db 88A9          MOVZ      AR6,AL                ; [CPU_ALU] |328| 
     688 000000dc D019          MOVB      XAR0,#25              ; [CPU_ALU] |328| 
     689 000000dd CC94          AND       AL,*+XAR4[AR0],#0xfc00 ; [CPU_ALU] |328| 
         000000de FC00 
     690 000000df D019          MOVB      XAR0,#25              ; [CPU_ALU] |328| 
     691 000000e0 CAA6          OR        AL,AR6                ; [CPU_ALU] |328| 
     692 000000e1 9694          MOV       *+XAR4[AR0],AL        ; [CPU_ALU] |328| 
     693                      .dwpsn  file "../sources/DmcProtection.c",line 329,column 5,is_stmt,isa 0
     694 000000e2 9201-         MOV       AL,@_sampwin          ; [CPU_ALU] |329| 
     695 000000e3 D018          MOVB      XAR0,#24              ; [CPU_ALU] |329| 
     696 000000e4 901F          ANDB      AL,#0x1f              ; [CPU_ALU] |329| 
     697 000000e5 5603          MOV       ACC,AL << #4          ; [CPU_ALU] |329| 
         000000e6 04A9 
     698 000000e7 80A9          MOVZ      AR7,AL                ; [CPU_ALU] |329| 
     699                      .dwpsn  file "../sources/DmcProtection.c",line 330,column 5,is_stmt,isa 0
     700 000000e8 D118          MOVB      XAR1,#24              ; [CPU_ALU] |330| 
     701                      .dwpsn  file "../sources/DmcProtection.c",line 329,column 5,is_stmt,isa 0
     702 000000e9 CD94          AND       AH,*+XAR4[AR0],#0xfe0f ; [CPU_ALU] |329| 
         000000ea FE0F 
     703 000000eb D018          MOVB      XAR0,#24              ; [CPU_ALU] |329| 
     704 000000ec CBA7          OR        AH,AR7                ; [CPU_ALU] |329| 
     705 000000ed 9794          MOV       *+XAR4[AR0],AH        ; [CPU_ALU] |329| 
     706                      .dwpsn  file "../sources/DmcProtection.c",line 330,column 5,is_stmt,isa 0
     707 000000ee 9302-         MOV       AH,@_thresh           ; [CPU_ALU] |330| 
TMS320C2000 Assembler PC v20.2.1 Wed Nov 18 21:47:53 2020

Copyright (c) 1996-2018 Texas Instruments Incorporated
DmcProtection.asm                                                    PAGE   15

     708 000000ef D018          MOVB      XAR0,#24              ; [CPU_ALU] |330| 
     709 000000f0 911F          ANDB      AH,#0x1f              ; [CPU_ALU] |330| 
     710 000000f1 5603          MOV       ACC,AH << #9          ; [CPU_ALU] |330| 
         000000f2 09A8 
     711 000000f3 CD94          AND       AH,*+XAR4[AR0],#0xc1ff ; [CPU_ALU] |330| 
         000000f4 C1FF 
     712                      .dwpsn  file "../sources/DmcProtection.c",line 333,column 5,is_stmt,isa 0
     713 000000f5 D017          MOVB      XAR0,#23              ; [CPU_ALU] |333| 
     714                      .dwpsn  file "../sources/DmcProtection.c",line 330,column 5,is_stmt,isa 0
     715 000000f6 CBA9          OR        AH,AL                 ; [CPU_ALU] |330| 
     716 000000f7 979C          MOV       *+XAR4[AR1],AH        ; [CPU_ALU] |330| 
     717                      .dwpsn  file "../sources/DmcProtection.c",line 333,column 5,is_stmt,isa 0
     718 000000f8 D117          MOVB      XAR1,#23              ; [CPU_ALU] |333| 
     719 000000f9 CD94          AND       AH,*+XAR4[AR0],#0xfc00 ; [CPU_ALU] |333| 
         000000fa FC00 
     720                      .dwpsn  file "../sources/DmcProtection.c",line 334,column 5,is_stmt,isa 0
     721 000000fb D016          MOVB      XAR0,#22              ; [CPU_ALU] |334| 
     722                      .dwpsn  file "../sources/DmcProtection.c",line 333,column 5,is_stmt,isa 0
     723 000000fc CBA6          OR        AH,AR6                ; [CPU_ALU] |333| 
     724 000000fd 979C          MOV       *+XAR4[AR1],AH        ; [CPU_ALU] |333| 
     725                      .dwpsn  file "../sources/DmcProtection.c",line 334,column 5,is_stmt,isa 0
     726 000000fe D116          MOVB      XAR1,#22              ; [CPU_ALU] |334| 
     727 000000ff CD94          AND       AH,*+XAR4[AR0],#0xfe0f ; [CPU_ALU] |334| 
         00000100 FE0F 
     728                      .dwpsn  file "../sources/DmcProtection.c",line 335,column 5,is_stmt,isa 0
     729 00000101 D016          MOVB      XAR0,#22              ; [CPU_ALU] |335| 
     730                      .dwpsn  file "../sources/DmcProtection.c",line 334,column 5,is_stmt,isa 0
     731 00000102 CBA7          OR        AH,AR7                ; [CPU_ALU] |334| 
     732 00000103 979C          MOV       *+XAR4[AR1],AH        ; [CPU_ALU] |334| 
     733                      .dwpsn  file "../sources/DmcProtection.c",line 335,column 5,is_stmt,isa 0
     734 00000104 CD94          AND       AH,*+XAR4[AR0],#0xc1ff ; [CPU_ALU] |335| 
         00000105 C1FF 
     735 00000106 D016          MOVB      XAR0,#22              ; [CPU_ALU] |335| 
     736 00000107 CBA9          OR        AH,AL                 ; [CPU_ALU] |335| 
     737 00000108 9794          MOV       *+XAR4[AR0],AH        ; [CPU_ALU] |335| 
     738 00000109 8BBE          MOVL      XAR1,*--SP            ; [CPU_ALU] 
     739                      .dwcfi  cfa_offset, -2
     740                      .dwcfi  restore_reg, 7
     741              $C$DW$40        .dwtag  DW_TAG_TI_branch
     742                      .dwattr $C$DW$40, DW_AT_low_pc(0x00)
     743                      .dwattr $C$DW$40, DW_AT_TI_return
     744              
     745 0000010a 0006          LRETR     ; [CPU_ALU] 
     746                      ; return occurs ; [] 
     747                      .dwattr $C$DW$33, DW_AT_TI_end_file("../sources/DmcProtection.c")
     748                      .dwattr $C$DW$33, DW_AT_TI_end_line(0x152)
     749                      .dwattr $C$DW$33, DW_AT_TI_end_column(0x01)
     750                      .dwendentry
     751                      .dwendtag $C$DW$33
     752              
     753 0000010b               .sect   ".text"
     754                      .clink
     755                      .global _DISABLE_INVERTER
     756              
     757              $C$DW$41        .dwtag  DW_TAG_subprogram
TMS320C2000 Assembler PC v20.2.1 Wed Nov 18 21:47:53 2020

Copyright (c) 1996-2018 Texas Instruments Incorporated
DmcProtection.asm                                                    PAGE   16

     758                      .dwattr $C$DW$41, DW_AT_name("DISABLE_INVERTER")
     759                      .dwattr $C$DW$41, DW_AT_low_pc(_DISABLE_INVERTER)
     760                      .dwattr $C$DW$41, DW_AT_high_pc(0x00)
     761                      .dwattr $C$DW$41, DW_AT_TI_symbol_name("_DISABLE_INVERTER")
     762                      .dwattr $C$DW$41, DW_AT_external
     763                      .dwattr $C$DW$41, DW_AT_TI_begin_file("../sources/DmcProtection.c")
     764                      .dwattr $C$DW$41, DW_AT_TI_begin_line(0x60)
     765                      .dwattr $C$DW$41, DW_AT_TI_begin_column(0x07)
     766                      .dwattr $C$DW$41, DW_AT_TI_max_frame_size(-2)
     767                      .dwpsn  file "../sources/DmcProtection.c",line 97,column 1,is_stmt,address _DISABLE_INVERTER,isa 0
     768              
     769                      .dwfde $C$DW$CIE, _DISABLE_INVERTER
     770              $C$DW$42        .dwtag  DW_TAG_formal_parameter
     771                      .dwattr $C$DW$42, DW_AT_name("m")
     772                      .dwattr $C$DW$42, DW_AT_TI_symbol_name("_m")
     773                      .dwattr $C$DW$42, DW_AT_type(*$C$DW$T$392)
     774                      .dwattr $C$DW$42, DW_AT_location[DW_OP_reg12]
     775              
     776              
     777              ;***************************************************************
     778              ;* FNAME: _DISABLE_INVERTER             FR SIZE:   0           *
     779              ;*                                                             *
     780              ;* FUNCTION ENVIRONMENT                                        *
     781              ;*                                                             *
     782              ;* FUNCTION PROPERTIES                                         *
     783              ;*                            0 Parameter,  0 Auto,  0 SOE     *
     784              ;***************************************************************
     785              
     786              _DISABLE_INVERTER:
     787              ;* AR4   assigned to _m
     788              $C$DW$43        .dwtag  DW_TAG_variable
     789                      .dwattr $C$DW$43, DW_AT_name("m")
     790                      .dwattr $C$DW$43, DW_AT_TI_symbol_name("_m")
     791                      .dwattr $C$DW$43, DW_AT_type(*$C$DW$T$393)
     792                      .dwattr $C$DW$43, DW_AT_location[DW_OP_reg12]
     793              
     794                      .dwcfi  cfa_offset, -2
     795                      .dwcfi  save_reg_to_mem, 26, 0
     796                      .dwpsn  file "../sources/DmcProtection.c",line 98,column 5,is_stmt,isa 0
     797 0000010b 8F40!         MOVL      XAR5,#_motor1         ; [CPU_ARAU] |98| 
         0000010c 0000 
     798 0000010d A0A9          MOVL      ACC,XAR5              ; [CPU_ALU] |98| 
     799 0000010e 0FA4          CMPL      ACC,XAR4              ; [CPU_ALU] |98| 
     800 0000010f 6103          B         $C$L3,EQ              ; [CPU_ALU] |98| 
     801                      ; branchcc occurs ; [] |98| 
     802                      .dwpsn  file "../sources/DmcProtection.c",line 99,column 24,is_stmt,isa 0
     803 00000110 9A1A          MOVB      AL,#26                ; [CPU_ALU] |99| 
     804 00000111 6F02          B         $C$L4,UNC             ; [CPU_ALU] |99| 
     805                      ; branch occurs ; [] |99| 
     806 00000112       $C$L3:    
     807                      .dwpsn  file "../sources/DmcProtection.c",line 98,column 24,is_stmt,isa 0
     808 00000112 9A7C          MOVB      AL,#124               ; [CPU_ALU] |98| 
     809 00000113       $C$L4:    
     810 00000113 9B01          MOVB      AH,#1                 ; [CPU_ALU] |98| 
     811              $C$DW$44        .dwtag  DW_TAG_TI_branch
TMS320C2000 Assembler PC v20.2.1 Wed Nov 18 21:47:53 2020

Copyright (c) 1996-2018 Texas Instruments Incorporated
DmcProtection.asm                                                    PAGE   17

     812                      .dwattr $C$DW$44, DW_AT_low_pc(0x00)
     813                      .dwattr $C$DW$44, DW_AT_name("_GPIO_WritePin")
     814                      .dwattr $C$DW$44, DW_AT_TI_call
     815              
     816 00000114 7640!         LCR       #_GPIO_WritePin       ; [CPU_ALU] |98| 
         00000115 0000 
     817                      ; call occurs [#_GPIO_WritePin] ; [] |98| 
     818              $C$DW$45        .dwtag  DW_TAG_TI_branch
     819                      .dwattr $C$DW$45, DW_AT_low_pc(0x00)
     820                      .dwattr $C$DW$45, DW_AT_TI_return
     821              
     822 00000116 0006          LRETR     ; [CPU_ALU] 
     823                      ; return occurs ; [] 
     824                      .dwattr $C$DW$41, DW_AT_TI_end_file("../sources/DmcProtection.c")
     825                      .dwattr $C$DW$41, DW_AT_TI_end_line(0x65)
     826                      .dwattr $C$DW$41, DW_AT_TI_end_column(0x01)
     827                      .dwendentry
     828                      .dwendtag $C$DW$41
     829              
     830 00000117               .sect   ".text"
     831                      .clink
     832                      .global _DMC_Protection
     833              
     834              $C$DW$46        .dwtag  DW_TAG_subprogram
     835                      .dwattr $C$DW$46, DW_AT_name("DMC_Protection")
     836                      .dwattr $C$DW$46, DW_AT_low_pc(_DMC_Protection)
     837                      .dwattr $C$DW$46, DW_AT_high_pc(0x00)
     838                      .dwattr $C$DW$46, DW_AT_TI_symbol_name("_DMC_Protection")
     839                      .dwattr $C$DW$46, DW_AT_external
     840                      .dwattr $C$DW$46, DW_AT_TI_begin_file("../sources/DmcProtection.c")
     841                      .dwattr $C$DW$46, DW_AT_TI_begin_line(0x155)
     842                      .dwattr $C$DW$46, DW_AT_TI_begin_column(0x06)
     843                      .dwattr $C$DW$46, DW_AT_TI_max_frame_size(-8)
     844                      .dwpsn  file "../sources/DmcProtection.c",line 342,column 1,is_stmt,address _DMC_Protection,isa 0
     845              
     846                      .dwfde $C$DW$CIE, _DMC_Protection
     847              $C$DW$47        .dwtag  DW_TAG_formal_parameter
     848                      .dwattr $C$DW$47, DW_AT_name("motor")
     849                      .dwattr $C$DW$47, DW_AT_TI_symbol_name("_motor")
     850                      .dwattr $C$DW$47, DW_AT_type(*$C$DW$T$392)
     851                      .dwattr $C$DW$47, DW_AT_location[DW_OP_reg12]
     852              
     853              
     854              ;***************************************************************
     855              ;* FNAME: _DMC_Protection               FR SIZE:   6           *
     856              ;*                                                             *
     857              ;* FUNCTION ENVIRONMENT                                        *
     858              ;*                                                             *
     859              ;* FUNCTION PROPERTIES                                         *
     860              ;*                            0 Parameter,  0 Auto,  6 SOE     *
     861              ;***************************************************************
     862              
     863              _DMC_Protection:
     864              ;* AR6   assigned to $O$C1
     865              ;* AL    assigned to $O$C2
TMS320C2000 Assembler PC v20.2.1 Wed Nov 18 21:47:53 2020

Copyright (c) 1996-2018 Texas Instruments Incorporated
DmcProtection.asm                                                    PAGE   18

     866              ;* AH    assigned to $O$C3
     867              ;* R4    assigned to $O$C4
     868              ;* AR5   assigned to $O$U29
     869              ;* AR4   assigned to $O$U33
     870              ;* AR2   assigned to _motor
     871              $C$DW$48        .dwtag  DW_TAG_variable
     872                      .dwattr $C$DW$48, DW_AT_name("motor")
     873                      .dwattr $C$DW$48, DW_AT_TI_symbol_name("_motor")
     874                      .dwattr $C$DW$48, DW_AT_type(*$C$DW$T$393)
     875                      .dwattr $C$DW$48, DW_AT_location[DW_OP_reg8]
     876              
     877                      .dwcfi  cfa_offset, -2
     878                      .dwcfi  save_reg_to_mem, 26, 0
     879 00000117 B2BD          MOVL      *SP++,XAR1            ; [CPU_ALU] 
     880                      .dwcfi  save_reg_to_mem, 7, 2
     881                      .dwcfi  cfa_offset, -4
     882 00000118 AABD          MOVL      *SP++,XAR2            ; [CPU_ALU] 
     883                      .dwcfi  save_reg_to_mem, 9, 4
     884                      .dwcfi  cfa_offset, -6
     885 00000119 86A4          MOVL      XAR2,XAR4             ; [CPU_ALU] |342| 
     886 0000011a E203          MOV32     *SP++,R4H             ; [CPU_FPU] 
         0000011b 04BD 
     887                      .dwcfi  save_reg_to_mem, 59, 6
     888                      .dwcfi  cfa_offset, -8
     889 0000011c 7622   EALLOW
     890 0000011d 761F-         MOVW      DP,#_curLimit         ; [CPU_ARAU] 
         0000011e 0000 
     891                      .dwpsn  file "../sources/DmcProtection.c",line 347,column 7,is_stmt,isa 0
     892 0000011f E801          MOVIZ     R0H,#16300            ; [CPU_FPU] |347| 
         00000120 FD60 
     893 00000121 E801          MOVIZ     R1H,#15767            ; [CPU_FPU] |347| 
         00000122 ECB9 
     894 00000123 E2AF-         MOV32     R2H,@_curLimit        ; [CPU_FPU] |347| 
         00000124 0206 
     895 00000125 E80E          MOVXI     R0H,#52429            ; [CPU_FPU] |347| 
         00000126 6668 
     896 00000127 E80D          MOVXI     R1H,#46118            ; [CPU_FPU] |347| 
         00000128 A131 
     897 00000129 E700          MPYF32    R3H,R0H,R2H           ; [CPU_FPU] |347| 
         0000012a 0083 
     898 0000012b E801          MOVIZ     R2H,#16339            ; [CPU_FPU] |347| 
         0000012c FE9A 
     899                      .dwpsn  file "../sources/DmcProtection.c",line 348,column 7,is_stmt,isa 0
     900 0000012d E801          MOVIZ     R0H,#16339            ; [CPU_FPU] |348| 
         0000012e FE98 
     901                      .dwpsn  file "../sources/DmcProtection.c",line 347,column 7,is_stmt,isa 0
     902 0000012f E700          MPYF32    R4H,R1H,R3H           ; [CPU_FPU] |347| 
         00000130 00CC 
     903 00000131 E809          MOVXI     R2H,#13107            ; [CPU_FPU] |347| 
         00000132 999A 
     904                      .dwpsn  file "../sources/DmcProtection.c",line 348,column 7,is_stmt,isa 0
     905 00000133 E809          MOVXI     R0H,#13107            ; [CPU_FPU] |348| 
         00000134 9998 
     906 00000135 E801          MOVIZ     R1H,#16042            ; [CPU_FPU] |348| 
         00000136 F551 
TMS320C2000 Assembler PC v20.2.1 Wed Nov 18 21:47:53 2020

Copyright (c) 1996-2018 Texas Instruments Incorporated
DmcProtection.asm                                                    PAGE   19

     907                      .dwpsn  file "../sources/DmcProtection.c",line 347,column 7,is_stmt,isa 0
     908 00000137 E801          MOVIZ     R3H,#16042            ; [CPU_FPU] |347| 
         00000138 F553 
     909 00000139 E710          ADDF32    R2H,R2H,R4H           ; [CPU_FPU] |347| 
         0000013a 0112 
     910                      .dwpsn  file "../sources/DmcProtection.c",line 348,column 7,is_stmt,isa 0
     911 0000013b E720          SUBF32    R0H,R0H,R4H           ; [CPU_FPU] |348| 
         0000013c 0100 
     912 0000013d E80D          MOVXI     R1H,#43691            ; [CPU_FPU] |348| 
         0000013e 5559 
     913                      .dwpsn  file "../sources/DmcProtection.c",line 347,column 7,is_stmt,isa 0
     914 0000013f E80D          MOVXI     R3H,#43691            ; [CPU_FPU] |347| 
         00000140 555B 
     915 00000141 E851          MPYF32    R2H,R2H,#17792        ; [CPU_FPU] |347| 
         00000142 6012 
     916                      .dwpsn  file "../sources/DmcProtection.c",line 348,column 7,is_stmt,isa 0
     917 00000143 E851          MPYF32    R0H,R0H,#17792        ; [CPU_FPU] |348| 
         00000144 6000 
     918                      .dwpsn  file "../sources/DmcProtection.c",line 347,column 7,is_stmt,isa 0
     919 00000145 E700          MPYF32    R2H,R3H,R2H           ; [CPU_FPU] |347| 
         00000146 009A 
     920                      .dwpsn  file "../sources/DmcProtection.c",line 348,column 7,is_stmt,isa 0
     921 00000147 E700          MPYF32    R0H,R1H,R0H           ; [CPU_FPU] |348| 
         00000148 0008 
     922                      .dwpsn  file "../sources/DmcProtection.c",line 347,column 7,is_stmt,isa 0
     923 00000149 E68E          F32TOUI16 R1H,R2H               ; [CPU_FPU] |347| 
         0000014a 0011 
     924                      .dwpsn  file "../sources/DmcProtection.c",line 348,column 7,is_stmt,isa 0
     925 0000014b E68E          F32TOUI16 R0H,R0H               ; [CPU_FPU] |348| 
         0000014c 0000 
     926                      .dwpsn  file "../sources/DmcProtection.c",line 350,column 7,is_stmt,isa 0
     927 0000014d D00A          MOVB      XAR0,#10              ; [CPU_ALU] |350| 
     928                      .dwpsn  file "../sources/DmcProtection.c",line 347,column 7,is_stmt,isa 0
     929 0000014e BFA9          MOV32     ACC,R1H               ; [CPU_FPU] |347| 
         0000014f 0F16 
     930                      .dwpsn  file "../sources/DmcProtection.c",line 348,column 7,is_stmt,isa 0
     931 00000150 BFA6          MOV32     XAR6,R0H              ; [CPU_FPU] |348| 
         00000151 0F12 
     932 00000152 FF69          SPM       #0                    ; [CPU_ALU] 
     933                      .dwpsn  file "../sources/DmcProtection.c",line 350,column 7,is_stmt,isa 0
     934 00000153 8A92          MOVL      XAR4,*+XAR2[AR0]      ; [CPU_ALU] |350| 
     935                      .dwpsn  file "../sources/DmcProtection.c",line 347,column 7,is_stmt,isa 0
     936 00000154 9603-         MOV       @_OCP_curHi,AL        ; [CPU_ALU] |347| 
     937                      .dwpsn  file "../sources/DmcProtection.c",line 348,column 7,is_stmt,isa 0
     938 00000155 93A6          MOV       AH,AR6                ; [CPU_ALU] |348| 
     939 00000156 7E04-         MOV       @_OCP_curLo,AR6       ; [CPU_ALU] |348| 
     940                      .dwpsn  file "../sources/DmcProtection.c",line 350,column 7,is_stmt,isa 0
     941              $C$DW$49        .dwtag  DW_TAG_TI_branch
     942                      .dwattr $C$DW$49, DW_AT_low_pc(0x00)
     943                      .dwattr $C$DW$49, DW_AT_name("_CMPSS_DIG_FILTER")
     944                      .dwattr $C$DW$49, DW_AT_TI_call
     945              
     946 00000157 7640'         LCR       #_CMPSS_DIG_FILTER    ; [CPU_ALU] |350| 
         00000158 00C7 
     947                      ; call occurs [#_CMPSS_DIG_FILTER] ; [] |350| 
TMS320C2000 Assembler PC v20.2.1 Wed Nov 18 21:47:53 2020

Copyright (c) 1996-2018 Texas Instruments Incorporated
DmcProtection.asm                                                    PAGE   20

     948                      .dwpsn  file "../sources/DmcProtection.c",line 351,column 7,is_stmt,isa 0
     949 00000159 D00C          MOVB      XAR0,#12              ; [CPU_ALU] |351| 
     950 0000015a 9203-         MOV       AL,@_OCP_curHi        ; [CPU_ALU] |351| 
     951 0000015b 9304-         MOV       AH,@_OCP_curLo        ; [CPU_ALU] |351| 
     952 0000015c 8A92          MOVL      XAR4,*+XAR2[AR0]      ; [CPU_ALU] |351| 
     953              $C$DW$50        .dwtag  DW_TAG_TI_branch
     954                      .dwattr $C$DW$50, DW_AT_low_pc(0x00)
     955                      .dwattr $C$DW$50, DW_AT_name("_CMPSS_DIG_FILTER")
     956                      .dwattr $C$DW$50, DW_AT_TI_call
     957              
     958 0000015d 7640'         LCR       #_CMPSS_DIG_FILTER    ; [CPU_ALU] |351| 
         0000015e 00C7 
     959                      ; call occurs [#_CMPSS_DIG_FILTER] ; [] |351| 
     960                      .dwpsn  file "../sources/DmcProtection.c",line 352,column 7,is_stmt,isa 0
     961 0000015f D00E          MOVB      XAR0,#14              ; [CPU_ALU] |352| 
     962 00000160 9203-         MOV       AL,@_OCP_curHi        ; [CPU_ALU] |352| 
     963 00000161 9304-         MOV       AH,@_OCP_curLo        ; [CPU_ALU] |352| 
     964 00000162 8A92          MOVL      XAR4,*+XAR2[AR0]      ; [CPU_ALU] |352| 
     965              $C$DW$51        .dwtag  DW_TAG_TI_branch
     966                      .dwattr $C$DW$51, DW_AT_low_pc(0x00)
     967                      .dwattr $C$DW$51, DW_AT_name("_CMPSS_DIG_FILTER")
     968                      .dwattr $C$DW$51, DW_AT_TI_call
     969              
     970 00000163 7640'         LCR       #_CMPSS_DIG_FILTER    ; [CPU_ALU] |352| 
         00000164 00C7 
     971                      ; call occurs [#_CMPSS_DIG_FILTER] ; [] |352| 
     972 00000165 761A   EDIS
     973                      .dwpsn  file "../sources/DmcProtection.c",line 356,column 5,is_stmt,isa 0
     974 00000166 C4C2          MOVL      XAR6,*+XAR2[0]        ; [CPU_ALU] |356| 
     975 00000167 D093          MOVB      XAR0,#147             ; [CPU_ALU] |356| 
     976 00000168 83D2          MOVL      XAR5,*+XAR2[2]        ; [CPU_ALU] |356| 
     977 00000169 8AE2          MOVL      XAR4,*+XAR2[4]        ; [CPU_ALU] |356| 
     978 0000016a 9396          MOV       AH,*+XAR6[AR0]        ; [CPU_ALU] |356| 
     979 0000016b D093          MOVB      XAR0,#147             ; [CPU_ALU] |356| 
     980 0000016c FFD1          LSR       AH,2                  ; [CPU_ALU] |356| 
     981 0000016d 9295          MOV       AL,*+XAR5[AR0]        ; [CPU_ALU] |356| 
     982 0000016e FFC1          LSR       AL,2                  ; [CPU_ALU] |356| 
     983 0000016f D093          MOVB      XAR0,#147             ; [CPU_FPU] |356| 
     984 00000170 CAA8          OR        AL,AH                 ; [CPU_ALU] |356| 
     985 00000171 9394          MOV       AH,*+XAR4[AR0]        ; [CPU_FPU] |356| 
     986 00000172 FFD1          LSR       AH,2                  ; [CPU_ALU] |356| 
     987 00000173 CBA9          OR        AH,AL                 ; [CPU_ALU] |356| 
     988 00000174 40A8          TBIT      AH,#0                 ; [CPU_ALU] |356| 
     989 00000175 6C2D          B         $C$L7,NTC             ; [CPU_ALU] |356| 
     990                      ; branchcc occurs ; [] |356| 
     991 00000176 7622   EALLOW
     992                      .dwpsn  file "../sources/DmcProtection.c",line 362,column 11,is_stmt,isa 0
     993 00000177 06A6          MOVL      ACC,XAR6              ; [CPU_ALU] |362| 
     994 00000178 099B          ADDB      ACC,#155              ; [CPU_ALU] |362| 
     995 00000179 1EA6          MOVL      XAR6,ACC              ; [CPU_ALU] |362| 
     996                      .dwpsn  file "../sources/DmcProtection.c",line 363,column 11,is_stmt,isa 0
     997 0000017a A0A9          MOVL      ACC,XAR5              ; [CPU_ALU] |363| 
     998 0000017b 099B          ADDB      ACC,#155              ; [CPU_ALU] |363| 
     999 0000017c 83A9          MOVL      XAR5,ACC              ; [CPU_ALU] |363| 
    1000                      .dwpsn  file "../sources/DmcProtection.c",line 364,column 11,is_stmt,isa 0
TMS320C2000 Assembler PC v20.2.1 Wed Nov 18 21:47:53 2020

Copyright (c) 1996-2018 Texas Instruments Incorporated
DmcProtection.asm                                                    PAGE   21

    1001 0000017d A8A9          MOVL      ACC,XAR4              ; [CPU_ALU] |364| 
    1002 0000017e 099B          ADDB      ACC,#155              ; [CPU_ALU] |364| 
    1003 0000017f 8AA9          MOVL      XAR4,ACC              ; [CPU_ALU] |364| 
    1004                      .dwpsn  file "../sources/DmcProtection.c",line 362,column 11,is_stmt,isa 0
    1005 00000180 18C6          AND       *+XAR6[0],#0xfffb     ; [CPU_ALU] |362| 
         00000181 FFFB 
    1006                      .dwpsn  file "../sources/DmcProtection.c",line 363,column 11,is_stmt,isa 0
    1007 00000182 18C5          AND       *+XAR5[0],#0xfffb     ; [CPU_ALU] |363| 
         00000183 FFFB 
    1008                      .dwpsn  file "../sources/DmcProtection.c",line 364,column 11,is_stmt,isa 0
    1009 00000184 18C4          AND       *+XAR4[0],#0xfffb     ; [CPU_ALU] |364| 
         00000185 FFFB 
    1010 00000186 761A   EDIS
    1011                      .dwpsn  file "../sources/DmcProtection.c",line 367,column 9,is_stmt,isa 0
    1012 00000187 8D00          MOVL      XAR0,#456             ; [CPU_ALU] |367| 
         00000188 01C8 
    1013                      .dwpsn  file "../sources/DmcProtection.c",line 98,column 5,is_stmt,isa 0
    1014 00000189 8F00!         MOVL      XAR4,#_motor1         ; [CPU_ARAU] |98| 
         0000018a 0000 
    1015                      .dwpsn  file "../sources/DmcProtection.c",line 367,column 9,is_stmt,isa 0
    1016 0000018b 56BF          MOVB      *+XAR2[AR0],#1,UNC    ; [CPU_ALU] |367| 
         0000018c 0192 
    1017                      .dwpsn  file "../sources/DmcProtection.c",line 98,column 5,is_stmt,isa 0
    1018 0000018d A8A9          MOVL      ACC,XAR4              ; [CPU_ALU] |98| 
    1019 0000018e 0FA2          CMPL      ACC,XAR2              ; [CPU_ALU] |98| 
    1020 0000018f 6103          B         $C$L5,EQ              ; [CPU_ALU] |98| 
    1021                      ; branchcc occurs ; [] |98| 
    1022                      .dwpsn  file "../sources/DmcProtection.c",line 99,column 24,is_stmt,isa 0
    1023 00000190 9A1A          MOVB      AL,#26                ; [CPU_ALU] |99| 
    1024 00000191 6F02          B         $C$L6,UNC             ; [CPU_ALU] |99| 
    1025                      ; branch occurs ; [] |99| 
    1026 00000192       $C$L5:    
    1027                      .dwpsn  file "../sources/DmcProtection.c",line 98,column 24,is_stmt,isa 0
    1028 00000192 9A7C          MOVB      AL,#124               ; [CPU_ALU] |98| 
    1029 00000193       $C$L6:    
    1030 00000193 9B01          MOVB      AH,#1                 ; [CPU_ALU] |98| 
    1031 00000194 FF69          SPM       #0                    ; [CPU_ALU] 
    1032              $C$DW$52        .dwtag  DW_TAG_TI_branch
    1033                      .dwattr $C$DW$52, DW_AT_low_pc(0x00)
    1034                      .dwattr $C$DW$52, DW_AT_name("_GPIO_WritePin")
    1035                      .dwattr $C$DW$52, DW_AT_TI_call
    1036              
    1037 00000195 7640!         LCR       #_GPIO_WritePin       ; [CPU_ALU] |98| 
         00000196 0000 
    1038                      ; call occurs [#_GPIO_WritePin] ; [] |98| 
    1039                      .dwpsn  file "../sources/DmcProtection.c",line 371,column 9,is_stmt,isa 0
    1040 00000197 D1CE          MOVB      XAR1,#206             ; [CPU_ALU] |371| 
    1041                      .dwpsn  file "../sources/DmcProtection.c",line 369,column 9,is_stmt,isa 0
    1042 00000198 8D00          MOVL      XAR0,#455             ; [CPU_ALU] |369| 
         00000199 01C7 
    1043                      .dwpsn  file "../sources/DmcProtection.c",line 371,column 9,is_stmt,isa 0
    1044 0000019a E590          ZERO      R0H                   ; [CPU_FPU] |371| 
    1045                      .dwpsn  file "../sources/DmcProtection.c",line 370,column 9,is_stmt,isa 0
    1046 0000019b E591          ZERO      R1H                   ; [CPU_FPU] |370| 
    1047                      .dwpsn  file "../sources/DmcProtection.c",line 369,column 9,is_stmt,isa 0
TMS320C2000 Assembler PC v20.2.1 Wed Nov 18 21:47:53 2020

Copyright (c) 1996-2018 Texas Instruments Incorporated
DmcProtection.asm                                                    PAGE   22

    1048 0000019c 2B92          MOV       *+XAR2[AR0],#0        ; [CPU_ALU] |369| 
    1049                      .dwpsn  file "../sources/DmcProtection.c",line 370,column 9,is_stmt,isa 0
    1050 0000019d D0AC          MOVB      XAR0,#172             ; [CPU_ALU] |370| 
    1051                      .dwpsn  file "../sources/DmcProtection.c",line 371,column 9,is_stmt,isa 0
    1052 0000019e E203          MOV32     *+XAR2[AR1],R0H       ; [CPU_FPU] |371| 
         0000019f 009A 
    1053                      .dwpsn  file "../sources/DmcProtection.c",line 370,column 9,is_stmt,isa 0
    1054 000001a0 E203          MOV32     *+XAR2[AR0],R1H       ; [CPU_FPU] |370| 
         000001a1 0192 
    1055 000001a2       $C$L7:    
    1056                      .dwpsn  file "../sources/DmcProtection.c",line 375,column 5,is_stmt,isa 0
    1057 000001a2 8D00          MOVL      XAR0,#457             ; [CPU_ALU] |375| 
         000001a3 01C9 
    1058 000001a4 9292          MOV       AL,*+XAR2[AR0]        ; [CPU_ALU] |375| 
    1059 000001a5 6141          B         $C$L10,EQ             ; [CPU_ALU] |375| 
    1060                      ; branchcc occurs ; [] |375| 
    1061                      .dwpsn  file "../sources/DmcProtection.c",line 106,column 5,is_stmt,isa 0
    1062 000001a6 8F00!         MOVL      XAR4,#_motor1         ; [CPU_ARAU] |106| 
         000001a7 0000 
    1063 000001a8 A8A9          MOVL      ACC,XAR4              ; [CPU_ALU] |106| 
    1064 000001a9 0FA2          CMPL      ACC,XAR2              ; [CPU_ALU] |106| 
    1065 000001aa 6103          B         $C$L8,EQ              ; [CPU_ALU] |106| 
    1066                      ; branchcc occurs ; [] |106| 
    1067                      .dwpsn  file "../sources/DmcProtection.c",line 107,column 24,is_stmt,isa 0
    1068 000001ab 9A1A          MOVB      AL,#26                ; [CPU_ALU] |107| 
    1069 000001ac 6F02          B         $C$L9,UNC             ; [CPU_ALU] |107| 
    1070                      ; branch occurs ; [] |107| 
    1071 000001ad       $C$L8:    
    1072                      .dwpsn  file "../sources/DmcProtection.c",line 106,column 24,is_stmt,isa 0
    1073 000001ad 9A7C          MOVB      AL,#124               ; [CPU_ALU] |106| 
    1074 000001ae       $C$L9:    
    1075 000001ae 9B00          MOVB      AH,#0                 ; [CPU_ALU] |106| 
    1076 000001af FF69          SPM       #0                    ; [CPU_ALU] 
    1077              $C$DW$53        .dwtag  DW_TAG_TI_branch
    1078                      .dwattr $C$DW$53, DW_AT_low_pc(0x00)
    1079                      .dwattr $C$DW$53, DW_AT_name("_GPIO_WritePin")
    1080                      .dwattr $C$DW$53, DW_AT_TI_call
    1081              
    1082 000001b0 7640!         LCR       #_GPIO_WritePin       ; [CPU_ALU] |106| 
         000001b1 0000 
    1083                      ; call occurs [#_GPIO_WritePin] ; [] |106| 
    1084                      .dwpsn  file "../sources/DmcProtection.c",line 378,column 9,is_stmt,isa 0
    1085 000001b2 8F1E          MOVL      XAR4,#1999998         ; [CPU_ARAU] |378| 
         000001b3 847E 
    1086 000001b4 A8A9          MOVL      ACC,XAR4              ; [CPU_ALU] |378| 
    1087              $C$DW$54        .dwtag  DW_TAG_TI_branch
    1088                      .dwattr $C$DW$54, DW_AT_low_pc(0x00)
    1089                      .dwattr $C$DW$54, DW_AT_name("_F28x_usDelay")
    1090                      .dwattr $C$DW$54, DW_AT_TI_call
    1091              
    1092 000001b5 7640!         LCR       #_F28x_usDelay        ; [CPU_ALU] |378| 
         000001b6 0000 
    1093                      ; call occurs [#_F28x_usDelay] ; [] |378| 
    1094                      .dwpsn  file "../sources/DmcProtection.c",line 380,column 9,is_stmt,isa 0
    1095 000001b7 8D40          MOVL      XAR1,#456             ; [CPU_ALU] |380| 
TMS320C2000 Assembler PC v20.2.1 Wed Nov 18 21:47:53 2020

Copyright (c) 1996-2018 Texas Instruments Incorporated
DmcProtection.asm                                                    PAGE   23

         000001b8 01C8 
    1096                      .dwpsn  file "../sources/DmcProtection.c",line 381,column 9,is_stmt,isa 0
    1097 000001b9 8D00          MOVL      XAR0,#457             ; [CPU_ALU] |381| 
         000001ba 01C9 
    1098                      .dwpsn  file "../sources/DmcProtection.c",line 380,column 9,is_stmt,isa 0
    1099 000001bb 2B9A          MOV       *+XAR2[AR1],#0        ; [CPU_ALU] |380| 
    1100                      .dwpsn  file "../sources/DmcProtection.c",line 381,column 9,is_stmt,isa 0
    1101 000001bc 2B92          MOV       *+XAR2[AR0],#0        ; [CPU_ALU] |381| 
    1102 000001bd 7622   EALLOW
    1103                      .dwpsn  file "../sources/DmcProtection.c",line 385,column 11,is_stmt,isa 0
    1104 000001be 0297          MOVB      ACC,#151              ; [CPU_ALU] |385| 
    1105 000001bf 07C2          ADDL      ACC,*+XAR2[0]         ; [CPU_ALU] |385| 
    1106 000001c0 8AA9          MOVL      XAR4,ACC              ; [CPU_ALU] |385| 
    1107                      .dwpsn  file "../sources/DmcProtection.c",line 386,column 11,is_stmt,isa 0
    1108 000001c1 0297          MOVB      ACC,#151              ; [CPU_ALU] |386| 
    1109                      .dwpsn  file "../sources/DmcProtection.c",line 385,column 11,is_stmt,isa 0
    1110 000001c2 1AC4          OR        *+XAR4[0],#0x0004     ; [CPU_ALU] |385| 
         000001c3 0004 
    1111                      .dwpsn  file "../sources/DmcProtection.c",line 386,column 11,is_stmt,isa 0
    1112 000001c4 07D2          ADDL      ACC,*+XAR2[2]         ; [CPU_ALU] |386| 
    1113 000001c5 8AA9          MOVL      XAR4,ACC              ; [CPU_ALU] |386| 
    1114                      .dwpsn  file "../sources/DmcProtection.c",line 387,column 11,is_stmt,isa 0
    1115 000001c6 0297          MOVB      ACC,#151              ; [CPU_ALU] |387| 
    1116                      .dwpsn  file "../sources/DmcProtection.c",line 386,column 11,is_stmt,isa 0
    1117 000001c7 1AC4          OR        *+XAR4[0],#0x0004     ; [CPU_ALU] |386| 
         000001c8 0004 
    1118                      .dwpsn  file "../sources/DmcProtection.c",line 387,column 11,is_stmt,isa 0
    1119 000001c9 07E2          ADDL      ACC,*+XAR2[4]         ; [CPU_ALU] |387| 
    1120 000001ca 8AA9          MOVL      XAR4,ACC              ; [CPU_ALU] |387| 
    1121                      .dwpsn  file "../sources/DmcProtection.c",line 390,column 11,is_stmt,isa 0
    1122 000001cb D00A          MOVB      XAR0,#10              ; [CPU_ALU] |390| 
    1123                      .dwpsn  file "../sources/DmcProtection.c",line 387,column 11,is_stmt,isa 0
    1124 000001cc 1AC4          OR        *+XAR4[0],#0x0004     ; [CPU_ALU] |387| 
         000001cd 0004 
    1125                      .dwpsn  file "../sources/DmcProtection.c",line 390,column 11,is_stmt,isa 0
    1126 000001ce 8A92          MOVL      XAR4,*+XAR2[AR0]      ; [CPU_ALU] |390| 
    1127                      .dwpsn  file "../sources/DmcProtection.c",line 391,column 11,is_stmt,isa 0
    1128 000001cf D00C          MOVB      XAR0,#12              ; [CPU_ALU] |391| 
    1129                      .dwpsn  file "../sources/DmcProtection.c",line 390,column 11,is_stmt,isa 0
    1130 000001d0 1ADC          OR        *+XAR4[3],#0x0002     ; [CPU_ALU] |390| 
         000001d1 0002 
    1131                      .dwpsn  file "../sources/DmcProtection.c",line 391,column 11,is_stmt,isa 0
    1132 000001d2 8A92          MOVL      XAR4,*+XAR2[AR0]      ; [CPU_ALU] |391| 
    1133                      .dwpsn  file "../sources/DmcProtection.c",line 392,column 11,is_stmt,isa 0
    1134 000001d3 D00E          MOVB      XAR0,#14              ; [CPU_ALU] |392| 
    1135                      .dwpsn  file "../sources/DmcProtection.c",line 391,column 11,is_stmt,isa 0
    1136 000001d4 1ADC          OR        *+XAR4[3],#0x0002     ; [CPU_ALU] |391| 
         000001d5 0002 
    1137                      .dwpsn  file "../sources/DmcProtection.c",line 392,column 11,is_stmt,isa 0
    1138 000001d6 8A92          MOVL      XAR4,*+XAR2[AR0]      ; [CPU_ALU] |392| 
    1139                      .dwpsn  file "../sources/DmcProtection.c",line 395,column 11,is_stmt,isa 0
    1140 000001d7 D00A          MOVB      XAR0,#10              ; [CPU_ALU] |395| 
    1141                      .dwpsn  file "../sources/DmcProtection.c",line 392,column 11,is_stmt,isa 0
    1142 000001d8 1ADC          OR        *+XAR4[3],#0x0002     ; [CPU_ALU] |392| 
         000001d9 0002 
TMS320C2000 Assembler PC v20.2.1 Wed Nov 18 21:47:53 2020

Copyright (c) 1996-2018 Texas Instruments Incorporated
DmcProtection.asm                                                    PAGE   24

    1143                      .dwpsn  file "../sources/DmcProtection.c",line 395,column 11,is_stmt,isa 0
    1144 000001da 8A92          MOVL      XAR4,*+XAR2[AR0]      ; [CPU_ALU] |395| 
    1145                      .dwpsn  file "../sources/DmcProtection.c",line 396,column 11,is_stmt,isa 0
    1146 000001db D00C          MOVB      XAR0,#12              ; [CPU_ALU] |396| 
    1147                      .dwpsn  file "../sources/DmcProtection.c",line 395,column 11,is_stmt,isa 0
    1148 000001dc 1ADC          OR        *+XAR4[3],#0x0200     ; [CPU_ALU] |395| 
         000001dd 0200 
    1149                      .dwpsn  file "../sources/DmcProtection.c",line 396,column 11,is_stmt,isa 0
    1150 000001de 8A92          MOVL      XAR4,*+XAR2[AR0]      ; [CPU_ALU] |396| 
    1151                      .dwpsn  file "../sources/DmcProtection.c",line 397,column 11,is_stmt,isa 0
    1152 000001df D00E          MOVB      XAR0,#14              ; [CPU_ALU] |397| 
    1153                      .dwpsn  file "../sources/DmcProtection.c",line 396,column 11,is_stmt,isa 0
    1154 000001e0 1ADC          OR        *+XAR4[3],#0x0200     ; [CPU_ALU] |396| 
         000001e1 0200 
    1155                      .dwpsn  file "../sources/DmcProtection.c",line 397,column 11,is_stmt,isa 0
    1156 000001e2 8A92          MOVL      XAR4,*+XAR2[AR0]      ; [CPU_ALU] |397| 
    1157 000001e3 1ADC          OR        *+XAR4[3],#0x0200     ; [CPU_ALU] |397| 
         000001e4 0200 
    1158 000001e5 761A   EDIS
    1159 000001e6       $C$L10:    
    1160 000001e6 E2AF          MOV32     R4H,*--SP             ; [CPU_FPU] 
         000001e7 04BE 
    1161                      .dwcfi  cfa_offset, -6
    1162                      .dwcfi  restore_reg, 59
    1163 000001e8 FF69          SPM       #0                    ; [CPU_ALU] 
    1164 000001e9 86BE          MOVL      XAR2,*--SP            ; [CPU_ALU] 
    1165                      .dwcfi  cfa_offset, -4
    1166                      .dwcfi  restore_reg, 9
    1167 000001ea 8BBE          MOVL      XAR1,*--SP            ; [CPU_ALU] 
    1168                      .dwcfi  cfa_offset, -2
    1169                      .dwcfi  restore_reg, 7
    1170              $C$DW$55        .dwtag  DW_TAG_TI_branch
    1171                      .dwattr $C$DW$55, DW_AT_low_pc(0x00)
    1172                      .dwattr $C$DW$55, DW_AT_TI_return
    1173              
    1174 000001eb 0006          LRETR     ; [CPU_ALU] 
    1175                      ; return occurs ; [] 
    1176                      .dwattr $C$DW$46, DW_AT_TI_end_file("../sources/DmcProtection.c")
    1177                      .dwattr $C$DW$46, DW_AT_TI_end_line(0x192)
    1178                      .dwattr $C$DW$46, DW_AT_TI_end_column(0x01)
    1179                      .dwendentry
    1180                      .dwendtag $C$DW$46
    1181              
    1182 000001ec               .sect   ".text"
    1183                      .clink
    1184                      .global _DMC2_Protection_Config
    1185              
    1186              $C$DW$56        .dwtag  DW_TAG_subprogram
    1187                      .dwattr $C$DW$56, DW_AT_name("DMC2_Protection_Config")
    1188                      .dwattr $C$DW$56, DW_AT_low_pc(_DMC2_Protection_Config)
    1189                      .dwattr $C$DW$56, DW_AT_high_pc(0x00)
    1190                      .dwattr $C$DW$56, DW_AT_TI_symbol_name("_DMC2_Protection_Config")
    1191                      .dwattr $C$DW$56, DW_AT_external
    1192                      .dwattr $C$DW$56, DW_AT_TI_begin_file("../sources/DmcProtection.c")
    1193                      .dwattr $C$DW$56, DW_AT_TI_begin_line(0xfa)
TMS320C2000 Assembler PC v20.2.1 Wed Nov 18 21:47:53 2020

Copyright (c) 1996-2018 Texas Instruments Incorporated
DmcProtection.asm                                                    PAGE   25

    1194                      .dwattr $C$DW$56, DW_AT_TI_begin_column(0x06)
    1195                      .dwattr $C$DW$56, DW_AT_TI_max_frame_size(-4)
    1196                      .dwpsn  file "../sources/DmcProtection.c",line 251,column 1,is_stmt,address _DMC2_Protection_Config,i
    1197              
    1198                      .dwfde $C$DW$CIE, _DMC2_Protection_Config
    1199              
    1200              ;***************************************************************
    1201              ;* FNAME: _DMC2_Protection_Config       FR SIZE:   2           *
    1202              ;*                                                             *
    1203              ;* FUNCTION ENVIRONMENT                                        *
    1204              ;*                                                             *
    1205              ;* FUNCTION PROPERTIES                                         *
    1206              ;*                            0 Parameter,  0 Auto,  2 SOE     *
    1207              ;***************************************************************
    1208              
    1209 000001ec       _DMC2_Protection_Config:
    1210              ;* AR4   assigned to $O$C1
    1211              ;* AL    assigned to $O$C2
    1212              ;* AH    assigned to $O$C3
    1213              ;* R4    assigned to $O$C4
    1214                      .dwcfi  cfa_offset, -2
    1215                      .dwcfi  save_reg_to_mem, 26, 0
    1216 000001ec E203          MOV32     *SP++,R4H             ; [CPU_FPU] 
         000001ed 04BD 
    1217                      .dwcfi  save_reg_to_mem, 59, 2
    1218                      .dwcfi  cfa_offset, -4
    1219 000001ee 7622   EALLOW
    1220                      .dwpsn  file "../sources/DmcProtection.c",line 256,column 5,is_stmt,isa 0
    1221 000001ef B600          MOVB      XAR7,#0               ; [CPU_ALU] |256| 
    1222                      .dwpsn  file "../sources/DmcProtection.c",line 257,column 5,is_stmt,isa 0
    1223 000001f0 BE00          MOVB      XAR6,#0               ; [CPU_ALU] |257| 
    1224 000001f1 761F!         MOVW      DP,#_EPwmXbarRegs+4   ; [CPU_ARAU] 
         000001f2 0000 
    1225                      .dwpsn  file "../sources/DmcProtection.c",line 258,column 5,is_stmt,isa 0
    1226 000001f3 0200          MOVB      ACC,#0                ; [CPU_ALU] |258| 
    1227                      .dwpsn  file "../sources/DmcProtection.c",line 256,column 5,is_stmt,isa 0
    1228 000001f4 C304!         MOVL      @$BLOCKED(_EPwmXbarRegs)+4,XAR7 ; [CPU_ALU] |256| 
    1229                      .dwpsn  file "../sources/DmcProtection.c",line 257,column 5,is_stmt,isa 0
    1230 000001f5 C206!         MOVL      @$BLOCKED(_EPwmXbarRegs)+6,XAR6 ; [CPU_ALU] |257| 
    1231                      .dwpsn  file "../sources/DmcProtection.c",line 258,column 5,is_stmt,isa 0
    1232 000001f6 1E22!         MOVL      @$BLOCKED(_EPwmXbarRegs)+34,ACC ; [CPU_ALU] |258| 
    1233 000001f7 761A   EDIS
    1234                      .dwpsn  file "../sources/DmcProtection.c",line 294,column 5,is_stmt,isa 0
    1235 000001f8 E801          MOVIZ     R0H,#16300            ; [CPU_FPU] |294| 
         000001f9 FD60 
    1236 000001fa E801          MOVIZ     R1H,#15767            ; [CPU_FPU] |294| 
         000001fb ECB9 
    1237 000001fc 761F-         MOVW      DP,#_curLimit         ; [CPU_ARAU] 
         000001fd 0000 
    1238 000001fe E2AF-         MOV32     R2H,@_curLimit        ; [CPU_FPU] |294| 
         000001ff 0206 
    1239 00000200 E80E          MOVXI     R0H,#52429            ; [CPU_FPU] |294| 
         00000201 6668 
    1240 00000202 E80D          MOVXI     R1H,#46118            ; [CPU_FPU] |294| 
         00000203 A131 
TMS320C2000 Assembler PC v20.2.1 Wed Nov 18 21:47:53 2020

Copyright (c) 1996-2018 Texas Instruments Incorporated
DmcProtection.asm                                                    PAGE   26

    1241 00000204 E700          MPYF32    R3H,R0H,R2H           ; [CPU_FPU] |294| 
         00000205 0083 
    1242                      .dwpsn  file "../sources/DmcProtection.c",line 295,column 5,is_stmt,isa 0
    1243 00000206 E801          MOVIZ     R0H,#16339            ; [CPU_FPU] |295| 
         00000207 FE98 
    1244                      .dwpsn  file "../sources/DmcProtection.c",line 294,column 5,is_stmt,isa 0
    1245 00000208 E801          MOVIZ     R2H,#16339            ; [CPU_FPU] |294| 
         00000209 FE9A 
    1246 0000020a E700          MPYF32    R4H,R1H,R3H           ; [CPU_FPU] |294| 
         0000020b 00CC 
    1247                      .dwpsn  file "../sources/DmcProtection.c",line 295,column 5,is_stmt,isa 0
    1248 0000020c E809          MOVXI     R0H,#13107            ; [CPU_FPU] |295| 
         0000020d 9998 
    1249                      .dwpsn  file "../sources/DmcProtection.c",line 294,column 5,is_stmt,isa 0
    1250 0000020e E809          MOVXI     R2H,#13107            ; [CPU_FPU] |294| 
         0000020f 999A 
    1251                      .dwpsn  file "../sources/DmcProtection.c",line 295,column 5,is_stmt,isa 0
    1252 00000210 E801          MOVIZ     R1H,#16042            ; [CPU_FPU] |295| 
         00000211 F551 
    1253                      .dwpsn  file "../sources/DmcProtection.c",line 294,column 5,is_stmt,isa 0
    1254 00000212 E801          MOVIZ     R3H,#16042            ; [CPU_FPU] |294| 
         00000213 F553 
    1255                      .dwpsn  file "../sources/DmcProtection.c",line 295,column 5,is_stmt,isa 0
    1256 00000214 E720          SUBF32    R0H,R0H,R4H           ; [CPU_FPU] |295| 
         00000215 0100 
    1257                      .dwpsn  file "../sources/DmcProtection.c",line 294,column 5,is_stmt,isa 0
    1258 00000216 E710          ADDF32    R2H,R2H,R4H           ; [CPU_FPU] |294| 
         00000217 0112 
    1259                      .dwpsn  file "../sources/DmcProtection.c",line 295,column 5,is_stmt,isa 0
    1260 00000218 E80D          MOVXI     R1H,#43691            ; [CPU_FPU] |295| 
         00000219 5559 
    1261                      .dwpsn  file "../sources/DmcProtection.c",line 294,column 5,is_stmt,isa 0
    1262 0000021a E80D          MOVXI     R3H,#43691            ; [CPU_FPU] |294| 
         0000021b 555B 
    1263                      .dwpsn  file "../sources/DmcProtection.c",line 295,column 5,is_stmt,isa 0
    1264 0000021c E851          MPYF32    R0H,R0H,#17792        ; [CPU_FPU] |295| 
         0000021d 6000 
    1265                      .dwpsn  file "../sources/DmcProtection.c",line 294,column 5,is_stmt,isa 0
    1266 0000021e E851          MPYF32    R2H,R2H,#17792        ; [CPU_FPU] |294| 
         0000021f 6012 
    1267                      .dwpsn  file "../sources/DmcProtection.c",line 295,column 5,is_stmt,isa 0
    1268 00000220 E700          MPYF32    R0H,R1H,R0H           ; [CPU_FPU] |295| 
         00000221 0008 
    1269                      .dwpsn  file "../sources/DmcProtection.c",line 294,column 5,is_stmt,isa 0
    1270 00000222 E700          MPYF32    R2H,R3H,R2H           ; [CPU_FPU] |294| 
         00000223 009A 
    1271                      .dwpsn  file "../sources/DmcProtection.c",line 295,column 5,is_stmt,isa 0
    1272 00000224 E68E          F32TOUI16 R0H,R0H               ; [CPU_FPU] |295| 
         00000225 0000 
    1273                      .dwpsn  file "../sources/DmcProtection.c",line 294,column 5,is_stmt,isa 0
    1274 00000226 E68E          F32TOUI16 R1H,R2H               ; [CPU_FPU] |294| 
         00000227 0011 
    1275 00000228 7700          NOP       ; [CPU_ALU] 
    1276                      .dwpsn  file "../sources/DmcProtection.c",line 295,column 5,is_stmt,isa 0
    1277 00000229 BFA6          MOV32     XAR6,R0H              ; [CPU_FPU] |295| 
TMS320C2000 Assembler PC v20.2.1 Wed Nov 18 21:47:53 2020

Copyright (c) 1996-2018 Texas Instruments Incorporated
DmcProtection.asm                                                    PAGE   27

         0000022a 0F12 
    1278                      .dwpsn  file "../sources/DmcProtection.c",line 294,column 5,is_stmt,isa 0
    1279 0000022b BFA9          MOV32     ACC,R1H               ; [CPU_FPU] |294| 
         0000022c 0F16 
    1280 0000022d FF69          SPM       #0                    ; [CPU_ALU] 
    1281 0000022e 9603-         MOV       @_OCP_curHi,AL        ; [CPU_ALU] |294| 
    1282                      .dwpsn  file "../sources/DmcProtection.c",line 295,column 5,is_stmt,isa 0
    1283 0000022f 7E04-         MOV       @_OCP_curLo,AR6       ; [CPU_ALU] |295| 
    1284 00000230 93A6          MOV       AH,AR6                ; [CPU_ALU] |295| 
    1285 00000231 761F!         MOVW      DP,#_motor2+10        ; [CPU_ARAU] 
         00000232 0000 
    1286                      .dwpsn  file "../sources/DmcProtection.c",line 296,column 5,is_stmt,isa 0
    1287 00000233 8A0A!         MOVL      XAR4,@$BLOCKED(_motor2)+10 ; [CPU_ALU] |296| 
    1288              $C$DW$57        .dwtag  DW_TAG_TI_branch
    1289                      .dwattr $C$DW$57, DW_AT_low_pc(0x00)
    1290                      .dwattr $C$DW$57, DW_AT_name("_cmpssConfig")
    1291                      .dwattr $C$DW$57, DW_AT_TI_call
    1292              
    1293 00000234 7640'         LCR       #_cmpssConfig         ; [CPU_ALU] |296| 
         00000235 0000 
    1294                      ; call occurs [#_cmpssConfig] ; [] |296| 
    1295                      .dwpsn  file "../sources/DmcProtection.c",line 297,column 5,is_stmt,isa 0
    1296 00000236 9203-         MOV       AL,@_OCP_curHi        ; [CPU_ALU] |297| 
    1297 00000237 9304-         MOV       AH,@_OCP_curLo        ; [CPU_ALU] |297| 
    1298 00000238 761F!         MOVW      DP,#_motor2+12        ; [CPU_ARAU] 
         00000239 0000 
    1299 0000023a 8A0C!         MOVL      XAR4,@$BLOCKED(_motor2)+12 ; [CPU_ALU] |297| 
    1300              $C$DW$58        .dwtag  DW_TAG_TI_branch
    1301                      .dwattr $C$DW$58, DW_AT_low_pc(0x00)
    1302                      .dwattr $C$DW$58, DW_AT_name("_cmpssConfig")
    1303                      .dwattr $C$DW$58, DW_AT_TI_call
    1304              
    1305 0000023b 7640'         LCR       #_cmpssConfig         ; [CPU_ALU] |297| 
         0000023c 0000 
    1306                      ; call occurs [#_cmpssConfig] ; [] |297| 
    1307                      .dwpsn  file "../sources/DmcProtection.c",line 298,column 5,is_stmt,isa 0
    1308 0000023d 9203-         MOV       AL,@_OCP_curHi        ; [CPU_ALU] |298| 
    1309 0000023e 9304-         MOV       AH,@_OCP_curLo        ; [CPU_ALU] |298| 
    1310 0000023f 761F!         MOVW      DP,#_motor2+14        ; [CPU_ARAU] 
         00000240 0000 
    1311 00000241 8A0E!         MOVL      XAR4,@$BLOCKED(_motor2)+14 ; [CPU_ALU] |298| 
    1312              $C$DW$59        .dwtag  DW_TAG_TI_branch
    1313                      .dwattr $C$DW$59, DW_AT_low_pc(0x00)
    1314                      .dwattr $C$DW$59, DW_AT_name("_cmpssConfig")
    1315                      .dwattr $C$DW$59, DW_AT_TI_call
    1316              
    1317 00000242 7640'         LCR       #_cmpssConfig         ; [CPU_ALU] |298| 
         00000243 0000 
    1318                      ; call occurs [#_cmpssConfig] ; [] |298| 
    1319 00000244 7622   EALLOW
    1320 00000245 761F!         MOVW      DP,#_EPwmXbarRegs+5   ; [CPU_ARAU] 
         00000246 0000 
    1321                      .dwpsn  file "../sources/DmcProtection.c",line 302,column 5,is_stmt,isa 0
    1322 00000247 8F00!         MOVL      XAR4,#_EPwmXbarRegs   ; [CPU_ARAU] |302| 
         00000248 0000 
TMS320C2000 Assembler PC v20.2.1 Wed Nov 18 21:47:53 2020

Copyright (c) 1996-2018 Texas Instruments Incorporated
DmcProtection.asm                                                    PAGE   28

    1323 00000249 CCEC          AND       AL,*+XAR4[5],#0xfffc  ; [CPU_ALU] |302| 
         0000024a FFFC 
    1324 0000024b 5001          ORB       AL,#0x01              ; [CPU_ALU] |302| 
    1325 0000024c 9605!         MOV       @$BLOCKED(_EPwmXbarRegs)+5,AL ; [CPU_ALU] |302| 
    1326                      .dwpsn  file "../sources/DmcProtection.c",line 303,column 5,is_stmt,isa 0
    1327 0000024d CCE4          AND       AL,*+XAR4[4],#0xffdf  ; [CPU_ALU] |303| 
         0000024e FFDF 
    1328 0000024f 5010          ORB       AL,#0x10              ; [CPU_ALU] |303| 
    1329                      .dwpsn  file "../sources/DmcProtection.c",line 307,column 5,is_stmt,isa 0
    1330 00000250 DC22          ADDB      XAR4,#34              ; [CPU_ALU] |307| 
    1331                      .dwpsn  file "../sources/DmcProtection.c",line 303,column 5,is_stmt,isa 0
    1332 00000251 9604!         MOV       @$BLOCKED(_EPwmXbarRegs)+4,AL ; [CPU_FPU] |303| 
    1333                      .dwpsn  file "../sources/DmcProtection.c",line 304,column 5,is_stmt,isa 0
    1334 00000252 CC04!         AND       AL,@$BLOCKED(_EPwmXbarRegs)+4,#0xffdf ; [CPU_FPU] |304| 
         00000253 FFDF 
    1335 00000254 5010          ORB       AL,#0x10              ; [CPU_ALU] |304| 
    1336 00000255 9604!         MOV       @$BLOCKED(_EPwmXbarRegs)+4,AL ; [CPU_FPU] |304| 
    1337                      .dwpsn  file "../sources/DmcProtection.c",line 307,column 5,is_stmt,isa 0
    1338 00000256 1AC4          OR        *+XAR4[0],#0x0100     ; [CPU_ALU] |307| 
         00000257 0100 
    1339                      .dwpsn  file "../sources/DmcProtection.c",line 308,column 5,is_stmt,isa 0
    1340 00000258 1A22!         OR        @$BLOCKED(_EPwmXbarRegs)+34,#0x0004 ; [CPU_ALU] |308| 
         00000259 0004 
    1341                      .dwpsn  file "../sources/DmcProtection.c",line 309,column 5,is_stmt,isa 0
    1342 0000025a 1A22!         OR        @$BLOCKED(_EPwmXbarRegs)+34,#0x0004 ; [CPU_ALU] |309| 
         0000025b 0004 
    1343 0000025c 761A   EDIS
    1344 0000025d FF69          SPM       #0                    ; [CPU_ALU] 
    1345                      .dwpsn  file "../sources/DmcProtection.c",line 312,column 5,is_stmt,isa 0
    1346 0000025e 9A04          MOVB      AL,#4                 ; [CPU_ALU] |312| 
    1347 0000025f 761F!         MOVW      DP,#_motor2           ; [CPU_ARAU] 
         00000260 0000 
    1348 00000261 8A00!         MOVL      XAR4,@$BLOCKED(_motor2) ; [CPU_ALU] |312| 
    1349              $C$DW$60        .dwtag  DW_TAG_TI_branch
    1350                      .dwattr $C$DW$60, DW_AT_low_pc(0x00)
    1351                      .dwattr $C$DW$60, DW_AT_name("_PwmTripConfig")
    1352                      .dwattr $C$DW$60, DW_AT_TI_call
    1353              
    1354 00000262 7640'         LCR       #_PwmTripConfig       ; [CPU_ALU] |312| 
         00000263 007E 
    1355                      ; call occurs [#_PwmTripConfig] ; [] |312| 
    1356                      .dwpsn  file "../sources/DmcProtection.c",line 313,column 5,is_stmt,isa 0
    1357 00000264 9A04          MOVB      AL,#4                 ; [CPU_ALU] |313| 
    1358 00000265 8A02!         MOVL      XAR4,@$BLOCKED(_motor2)+2 ; [CPU_ALU] |313| 
    1359              $C$DW$61        .dwtag  DW_TAG_TI_branch
    1360                      .dwattr $C$DW$61, DW_AT_low_pc(0x00)
    1361                      .dwattr $C$DW$61, DW_AT_name("_PwmTripConfig")
    1362                      .dwattr $C$DW$61, DW_AT_TI_call
    1363              
    1364 00000266 7640'         LCR       #_PwmTripConfig       ; [CPU_ALU] |313| 
         00000267 007E 
    1365                      ; call occurs [#_PwmTripConfig] ; [] |313| 
    1366                      .dwpsn  file "../sources/DmcProtection.c",line 314,column 5,is_stmt,isa 0
    1367 00000268 9A04          MOVB      AL,#4                 ; [CPU_ALU] |314| 
    1368 00000269 8A04!         MOVL      XAR4,@$BLOCKED(_motor2)+4 ; [CPU_ALU] |314| 
TMS320C2000 Assembler PC v20.2.1 Wed Nov 18 21:47:53 2020

Copyright (c) 1996-2018 Texas Instruments Incorporated
DmcProtection.asm                                                    PAGE   29

    1369              $C$DW$62        .dwtag  DW_TAG_TI_branch
    1370                      .dwattr $C$DW$62, DW_AT_low_pc(0x00)
    1371                      .dwattr $C$DW$62, DW_AT_name("_PwmTripConfig")
    1372                      .dwattr $C$DW$62, DW_AT_TI_call
    1373              
    1374 0000026a 7640'         LCR       #_PwmTripConfig       ; [CPU_ALU] |314| 
         0000026b 007E 
    1375                      ; call occurs [#_PwmTripConfig] ; [] |314| 
    1376 0000026c E2AF          MOV32     R4H,*--SP             ; [CPU_FPU] 
         0000026d 04BE 
    1377                      .dwcfi  cfa_offset, -2
    1378                      .dwcfi  restore_reg, 59
    1379              $C$DW$63        .dwtag  DW_TAG_TI_branch
    1380                      .dwattr $C$DW$63, DW_AT_low_pc(0x00)
    1381                      .dwattr $C$DW$63, DW_AT_TI_return
    1382              
    1383 0000026e 0006          LRETR     ; [CPU_ALU] 
    1384                      ; return occurs ; [] 
    1385                      .dwattr $C$DW$56, DW_AT_TI_end_file("../sources/DmcProtection.c")
    1386                      .dwattr $C$DW$56, DW_AT_TI_end_line(0x13d)
    1387                      .dwattr $C$DW$56, DW_AT_TI_end_column(0x01)
    1388                      .dwendentry
    1389                      .dwendtag $C$DW$56
    1390              
    1391 0000026f               .sect   ".text"
    1392                      .clink
    1393                      .global _DMC1_Protection_Config
    1394              
    1395              $C$DW$64        .dwtag  DW_TAG_subprogram
    1396                      .dwattr $C$DW$64, DW_AT_name("DMC1_Protection_Config")
    1397                      .dwattr $C$DW$64, DW_AT_low_pc(_DMC1_Protection_Config)
    1398                      .dwattr $C$DW$64, DW_AT_high_pc(0x00)
    1399                      .dwattr $C$DW$64, DW_AT_TI_symbol_name("_DMC1_Protection_Config")
    1400                      .dwattr $C$DW$64, DW_AT_external
    1401                      .dwattr $C$DW$64, DW_AT_TI_begin_file("../sources/DmcProtection.c")
    1402                      .dwattr $C$DW$64, DW_AT_TI_begin_line(0xb4)
    1403                      .dwattr $C$DW$64, DW_AT_TI_begin_column(0x06)
    1404                      .dwattr $C$DW$64, DW_AT_TI_max_frame_size(-4)
    1405                      .dwpsn  file "../sources/DmcProtection.c",line 181,column 1,is_stmt,address _DMC1_Protection_Config,i
    1406              
    1407                      .dwfde $C$DW$CIE, _DMC1_Protection_Config
    1408              
    1409              ;***************************************************************
    1410              ;* FNAME: _DMC1_Protection_Config       FR SIZE:   2           *
    1411              ;*                                                             *
    1412              ;* FUNCTION ENVIRONMENT                                        *
    1413              ;*                                                             *
    1414              ;* FUNCTION PROPERTIES                                         *
    1415              ;*                            0 Parameter,  0 Auto,  2 SOE     *
    1416              ;***************************************************************
    1417              
    1418 0000026f       _DMC1_Protection_Config:
    1419              ;* AR5   assigned to $O$C1
    1420              ;* AL    assigned to $O$C2
    1421              ;* AH    assigned to $O$C3
TMS320C2000 Assembler PC v20.2.1 Wed Nov 18 21:47:53 2020

Copyright (c) 1996-2018 Texas Instruments Incorporated
DmcProtection.asm                                                    PAGE   30

    1422              ;* R4    assigned to $O$C4
    1423                      .dwcfi  cfa_offset, -2
    1424                      .dwcfi  save_reg_to_mem, 26, 0
    1425 0000026f E203          MOV32     *SP++,R4H             ; [CPU_FPU] 
         00000270 04BD 
    1426                      .dwcfi  save_reg_to_mem, 59, 2
    1427                      .dwcfi  cfa_offset, -4
    1428 00000271 7622   EALLOW
    1429                      .dwpsn  file "../sources/DmcProtection.c",line 186,column 5,is_stmt,isa 0
    1430 00000272 B600          MOVB      XAR7,#0               ; [CPU_ALU] |186| 
    1431                      .dwpsn  file "../sources/DmcProtection.c",line 187,column 5,is_stmt,isa 0
    1432 00000273 BE00          MOVB      XAR6,#0               ; [CPU_ALU] |187| 
    1433 00000274 761F!         MOVW      DP,#_EPwmXbarRegs     ; [CPU_ARAU] 
         00000275 0000 
    1434                      .dwpsn  file "../sources/DmcProtection.c",line 188,column 5,is_stmt,isa 0
    1435 00000276 0200          MOVB      ACC,#0                ; [CPU_ALU] |188| 
    1436                      .dwpsn  file "../sources/DmcProtection.c",line 186,column 5,is_stmt,isa 0
    1437 00000277 C300!         MOVL      @$BLOCKED(_EPwmXbarRegs),XAR7 ; [CPU_ALU] |186| 
    1438                      .dwpsn  file "../sources/DmcProtection.c",line 187,column 5,is_stmt,isa 0
    1439 00000278 C202!         MOVL      @$BLOCKED(_EPwmXbarRegs)+2,XAR6 ; [CPU_ALU] |187| 
    1440                      .dwpsn  file "../sources/DmcProtection.c",line 188,column 5,is_stmt,isa 0
    1441 00000279 1E20!         MOVL      @$BLOCKED(_EPwmXbarRegs)+32,ACC ; [CPU_ALU] |188| 
    1442 0000027a 761A   EDIS
    1443                      .dwpsn  file "../sources/DmcProtection.c",line 224,column 5,is_stmt,isa 0
    1444 0000027b E801          MOVIZ     R0H,#16300            ; [CPU_FPU] |224| 
         0000027c FD60 
    1445 0000027d E801          MOVIZ     R1H,#15767            ; [CPU_FPU] |224| 
         0000027e ECB9 
    1446 0000027f 761F-         MOVW      DP,#_curLimit         ; [CPU_ARAU] 
         00000280 0000 
    1447 00000281 E2AF-         MOV32     R2H,@_curLimit        ; [CPU_FPU] |224| 
         00000282 0206 
    1448 00000283 E80E          MOVXI     R0H,#52429            ; [CPU_FPU] |224| 
         00000284 6668 
    1449 00000285 E80D          MOVXI     R1H,#46118            ; [CPU_FPU] |224| 
         00000286 A131 
    1450 00000287 E700          MPYF32    R3H,R0H,R2H           ; [CPU_FPU] |224| 
         00000288 0083 
    1451                      .dwpsn  file "../sources/DmcProtection.c",line 225,column 5,is_stmt,isa 0
    1452 00000289 E801          MOVIZ     R0H,#16339            ; [CPU_FPU] |225| 
         0000028a FE98 
    1453                      .dwpsn  file "../sources/DmcProtection.c",line 224,column 5,is_stmt,isa 0
    1454 0000028b E801          MOVIZ     R2H,#16339            ; [CPU_FPU] |224| 
         0000028c FE9A 
    1455 0000028d E700          MPYF32    R4H,R1H,R3H           ; [CPU_FPU] |224| 
         0000028e 00CC 
    1456                      .dwpsn  file "../sources/DmcProtection.c",line 225,column 5,is_stmt,isa 0
    1457 0000028f E809          MOVXI     R0H,#13107            ; [CPU_FPU] |225| 
         00000290 9998 
    1458                      .dwpsn  file "../sources/DmcProtection.c",line 224,column 5,is_stmt,isa 0
    1459 00000291 E809          MOVXI     R2H,#13107            ; [CPU_FPU] |224| 
         00000292 999A 
    1460                      .dwpsn  file "../sources/DmcProtection.c",line 225,column 5,is_stmt,isa 0
    1461 00000293 E801          MOVIZ     R1H,#16042            ; [CPU_FPU] |225| 
         00000294 F551 
TMS320C2000 Assembler PC v20.2.1 Wed Nov 18 21:47:53 2020

Copyright (c) 1996-2018 Texas Instruments Incorporated
DmcProtection.asm                                                    PAGE   31

    1462                      .dwpsn  file "../sources/DmcProtection.c",line 224,column 5,is_stmt,isa 0
    1463 00000295 E801          MOVIZ     R3H,#16042            ; [CPU_FPU] |224| 
         00000296 F553 
    1464                      .dwpsn  file "../sources/DmcProtection.c",line 225,column 5,is_stmt,isa 0
    1465 00000297 E720          SUBF32    R0H,R0H,R4H           ; [CPU_FPU] |225| 
         00000298 0100 
    1466                      .dwpsn  file "../sources/DmcProtection.c",line 224,column 5,is_stmt,isa 0
    1467 00000299 E710          ADDF32    R2H,R2H,R4H           ; [CPU_FPU] |224| 
         0000029a 0112 
    1468                      .dwpsn  file "../sources/DmcProtection.c",line 225,column 5,is_stmt,isa 0
    1469 0000029b E80D          MOVXI     R1H,#43691            ; [CPU_FPU] |225| 
         0000029c 5559 
    1470                      .dwpsn  file "../sources/DmcProtection.c",line 224,column 5,is_stmt,isa 0
    1471 0000029d E80D          MOVXI     R3H,#43691            ; [CPU_FPU] |224| 
         0000029e 555B 
    1472                      .dwpsn  file "../sources/DmcProtection.c",line 225,column 5,is_stmt,isa 0
    1473 0000029f E851          MPYF32    R0H,R0H,#17792        ; [CPU_FPU] |225| 
         000002a0 6000 
    1474                      .dwpsn  file "../sources/DmcProtection.c",line 224,column 5,is_stmt,isa 0
    1475 000002a1 E851          MPYF32    R2H,R2H,#17792        ; [CPU_FPU] |224| 
         000002a2 6012 
    1476                      .dwpsn  file "../sources/DmcProtection.c",line 225,column 5,is_stmt,isa 0
    1477 000002a3 E700          MPYF32    R0H,R1H,R0H           ; [CPU_FPU] |225| 
         000002a4 0008 
    1478                      .dwpsn  file "../sources/DmcProtection.c",line 224,column 5,is_stmt,isa 0
    1479 000002a5 E700          MPYF32    R2H,R3H,R2H           ; [CPU_FPU] |224| 
         000002a6 009A 
    1480                      .dwpsn  file "../sources/DmcProtection.c",line 225,column 5,is_stmt,isa 0
    1481 000002a7 E68E          F32TOUI16 R0H,R0H               ; [CPU_FPU] |225| 
         000002a8 0000 
    1482                      .dwpsn  file "../sources/DmcProtection.c",line 224,column 5,is_stmt,isa 0
    1483 000002a9 E68E          F32TOUI16 R1H,R2H               ; [CPU_FPU] |224| 
         000002aa 0011 
    1484 000002ab 7700          NOP       ; [CPU_ALU] 
    1485                      .dwpsn  file "../sources/DmcProtection.c",line 225,column 5,is_stmt,isa 0
    1486 000002ac BFA6          MOV32     XAR6,R0H              ; [CPU_FPU] |225| 
         000002ad 0F12 
    1487                      .dwpsn  file "../sources/DmcProtection.c",line 224,column 5,is_stmt,isa 0
    1488 000002ae BFA9          MOV32     ACC,R1H               ; [CPU_FPU] |224| 
         000002af 0F16 
    1489 000002b0 FF69          SPM       #0                    ; [CPU_ALU] 
    1490 000002b1 9603-         MOV       @_OCP_curHi,AL        ; [CPU_ALU] |224| 
    1491                      .dwpsn  file "../sources/DmcProtection.c",line 225,column 5,is_stmt,isa 0
    1492 000002b2 7E04-         MOV       @_OCP_curLo,AR6       ; [CPU_ALU] |225| 
    1493 000002b3 93A6          MOV       AH,AR6                ; [CPU_ALU] |225| 
    1494 000002b4 761F!         MOVW      DP,#_motor1+10        ; [CPU_ARAU] 
         000002b5 0000 
    1495                      .dwpsn  file "../sources/DmcProtection.c",line 226,column 5,is_stmt,isa 0
    1496 000002b6 8A0A!         MOVL      XAR4,@$BLOCKED(_motor1)+10 ; [CPU_ALU] |226| 
    1497              $C$DW$65        .dwtag  DW_TAG_TI_branch
    1498                      .dwattr $C$DW$65, DW_AT_low_pc(0x00)
    1499                      .dwattr $C$DW$65, DW_AT_name("_cmpssConfig")
    1500                      .dwattr $C$DW$65, DW_AT_TI_call
    1501              
    1502 000002b7 7640'         LCR       #_cmpssConfig         ; [CPU_ALU] |226| 
TMS320C2000 Assembler PC v20.2.1 Wed Nov 18 21:47:53 2020

Copyright (c) 1996-2018 Texas Instruments Incorporated
DmcProtection.asm                                                    PAGE   32

         000002b8 0000 
    1503                      ; call occurs [#_cmpssConfig] ; [] |226| 
    1504                      .dwpsn  file "../sources/DmcProtection.c",line 227,column 5,is_stmt,isa 0
    1505 000002b9 9203-         MOV       AL,@_OCP_curHi        ; [CPU_ALU] |227| 
    1506 000002ba 9304-         MOV       AH,@_OCP_curLo        ; [CPU_ALU] |227| 
    1507 000002bb 761F!         MOVW      DP,#_motor1+12        ; [CPU_ARAU] 
         000002bc 0000 
    1508 000002bd 8A0C!         MOVL      XAR4,@$BLOCKED(_motor1)+12 ; [CPU_ALU] |227| 
    1509              $C$DW$66        .dwtag  DW_TAG_TI_branch
    1510                      .dwattr $C$DW$66, DW_AT_low_pc(0x00)
    1511                      .dwattr $C$DW$66, DW_AT_name("_cmpssConfig")
    1512                      .dwattr $C$DW$66, DW_AT_TI_call
    1513              
    1514 000002be 7640'         LCR       #_cmpssConfig         ; [CPU_ALU] |227| 
         000002bf 0000 
    1515                      ; call occurs [#_cmpssConfig] ; [] |227| 
    1516                      .dwpsn  file "../sources/DmcProtection.c",line 228,column 5,is_stmt,isa 0
    1517 000002c0 9203-         MOV       AL,@_OCP_curHi        ; [CPU_ALU] |228| 
    1518 000002c1 9304-         MOV       AH,@_OCP_curLo        ; [CPU_ALU] |228| 
    1519 000002c2 761F!         MOVW      DP,#_motor1+14        ; [CPU_ARAU] 
         000002c3 0000 
    1520 000002c4 8A0E!         MOVL      XAR4,@$BLOCKED(_motor1)+14 ; [CPU_ALU] |228| 
    1521              $C$DW$67        .dwtag  DW_TAG_TI_branch
    1522                      .dwattr $C$DW$67, DW_AT_low_pc(0x00)
    1523                      .dwattr $C$DW$67, DW_AT_name("_cmpssConfig")
    1524                      .dwattr $C$DW$67, DW_AT_TI_call
    1525              
    1526 000002c5 7640'         LCR       #_cmpssConfig         ; [CPU_ALU] |228| 
         000002c6 0000 
    1527                      ; call occurs [#_cmpssConfig] ; [] |228| 
    1528 000002c7 7622   EALLOW
    1529                      .dwpsn  file "../sources/DmcProtection.c",line 232,column 5,is_stmt,isa 0
    1530 000002c8 8F40!         MOVL      XAR5,#_EPwmXbarRegs   ; [CPU_ARAU] |232| 
         000002c9 0000 
    1531 000002ca 761F!         MOVW      DP,#_EPwmXbarRegs+1   ; [CPU_ARAU] 
         000002cb 0000 
    1532 000002cc CCCD          AND       AL,*+XAR5[1],#0xffdf  ; [CPU_ALU] |232| 
         000002cd FFDF 
    1533                      .dwpsn  file "../sources/DmcProtection.c",line 237,column 5,is_stmt,isa 0
    1534 000002ce 8AA5          MOVL      XAR4,XAR5             ; [CPU_ALU] |237| 
    1535                      .dwpsn  file "../sources/DmcProtection.c",line 232,column 5,is_stmt,isa 0
    1536 000002cf 5010          ORB       AL,#0x10              ; [CPU_ALU] |232| 
    1537 000002d0 9601!         MOV       @$BLOCKED(_EPwmXbarRegs)+1,AL ; [CPU_ALU] |232| 
    1538                      .dwpsn  file "../sources/DmcProtection.c",line 233,column 5,is_stmt,isa 0
    1539 000002d1 CCC5          AND       AL,*+XAR5[0],#0xfdff  ; [CPU_ALU] |233| 
         000002d2 FDFF 
    1540                      .dwpsn  file "../sources/DmcProtection.c",line 237,column 5,is_stmt,isa 0
    1541 000002d3 DC20          ADDB      XAR4,#32              ; [CPU_ALU] |237| 
    1542                      .dwpsn  file "../sources/DmcProtection.c",line 233,column 5,is_stmt,isa 0
    1543 000002d4 1AA9          OR        AL,#0x0100            ; [CPU_ALU] |233| 
         000002d5 0100 
    1544 000002d6 96C5          MOV       *+XAR5[0],AL          ; [CPU_FPU] |233| 
    1545                      .dwpsn  file "../sources/DmcProtection.c",line 234,column 5,is_stmt,isa 0
    1546 000002d7 CCC5          AND       AL,*+XAR5[0],#0xfffc  ; [CPU_FPU] |234| 
         000002d8 FFFC 
TMS320C2000 Assembler PC v20.2.1 Wed Nov 18 21:47:53 2020

Copyright (c) 1996-2018 Texas Instruments Incorporated
DmcProtection.asm                                                    PAGE   33

    1547 000002d9 5001          ORB       AL,#0x01              ; [CPU_ALU] |234| 
    1548 000002da 96C5          MOV       *+XAR5[0],AL          ; [CPU_FPU] |234| 
    1549                      .dwpsn  file "../sources/DmcProtection.c",line 237,column 5,is_stmt,isa 0
    1550 000002db 1AC4          OR        *+XAR4[0],#0x0400     ; [CPU_ALU] |237| 
         000002dc 0400 
    1551                      .dwpsn  file "../sources/DmcProtection.c",line 238,column 5,is_stmt,isa 0
    1552 000002dd 1A20!         OR        @$BLOCKED(_EPwmXbarRegs)+32,#0x0010 ; [CPU_ALU] |238| 
         000002de 0010 
    1553                      .dwpsn  file "../sources/DmcProtection.c",line 239,column 5,is_stmt,isa 0
    1554 000002df 1A20!         OR        @$BLOCKED(_EPwmXbarRegs)+32,#0x0001 ; [CPU_ALU] |239| 
         000002e0 0001 
    1555 000002e1 761A   EDIS
    1556 000002e2 761F!         MOVW      DP,#_motor1           ; [CPU_ARAU] 
         000002e3 0000 
    1557 000002e4 FF69          SPM       #0                    ; [CPU_ALU] 
    1558                      .dwpsn  file "../sources/DmcProtection.c",line 242,column 5,is_stmt,isa 0
    1559 000002e5 9A03          MOVB      AL,#3                 ; [CPU_ALU] |242| 
    1560 000002e6 8A00!         MOVL      XAR4,@$BLOCKED(_motor1) ; [CPU_ALU] |242| 
    1561              $C$DW$68        .dwtag  DW_TAG_TI_branch
    1562                      .dwattr $C$DW$68, DW_AT_low_pc(0x00)
    1563                      .dwattr $C$DW$68, DW_AT_name("_PwmTripConfig")
    1564                      .dwattr $C$DW$68, DW_AT_TI_call
    1565              
    1566 000002e7 7640'         LCR       #_PwmTripConfig       ; [CPU_ALU] |242| 
         000002e8 007E 
    1567                      ; call occurs [#_PwmTripConfig] ; [] |242| 
    1568                      .dwpsn  file "../sources/DmcProtection.c",line 243,column 5,is_stmt,isa 0
    1569 000002e9 9A03          MOVB      AL,#3                 ; [CPU_ALU] |243| 
    1570 000002ea 8A02!         MOVL      XAR4,@$BLOCKED(_motor1)+2 ; [CPU_ALU] |243| 
    1571              $C$DW$69        .dwtag  DW_TAG_TI_branch
    1572                      .dwattr $C$DW$69, DW_AT_low_pc(0x00)
    1573                      .dwattr $C$DW$69, DW_AT_name("_PwmTripConfig")
    1574                      .dwattr $C$DW$69, DW_AT_TI_call
    1575              
    1576 000002eb 7640'         LCR       #_PwmTripConfig       ; [CPU_ALU] |243| 
         000002ec 007E 
    1577                      ; call occurs [#_PwmTripConfig] ; [] |243| 
    1578                      .dwpsn  file "../sources/DmcProtection.c",line 244,column 5,is_stmt,isa 0
    1579 000002ed 9A03          MOVB      AL,#3                 ; [CPU_ALU] |244| 
    1580 000002ee 8A04!         MOVL      XAR4,@$BLOCKED(_motor1)+4 ; [CPU_ALU] |244| 
    1581              $C$DW$70        .dwtag  DW_TAG_TI_branch
    1582                      .dwattr $C$DW$70, DW_AT_low_pc(0x00)
    1583                      .dwattr $C$DW$70, DW_AT_name("_PwmTripConfig")
    1584                      .dwattr $C$DW$70, DW_AT_TI_call
    1585              
    1586 000002ef 7640'         LCR       #_PwmTripConfig       ; [CPU_ALU] |244| 
         000002f0 007E 
    1587                      ; call occurs [#_PwmTripConfig] ; [] |244| 
    1588 000002f1 E2AF          MOV32     R4H,*--SP             ; [CPU_FPU] 
         000002f2 04BE 
    1589                      .dwcfi  cfa_offset, -2
    1590                      .dwcfi  restore_reg, 59
    1591              $C$DW$71        .dwtag  DW_TAG_TI_branch
    1592                      .dwattr $C$DW$71, DW_AT_low_pc(0x00)
    1593                      .dwattr $C$DW$71, DW_AT_TI_return
TMS320C2000 Assembler PC v20.2.1 Wed Nov 18 21:47:53 2020

Copyright (c) 1996-2018 Texas Instruments Incorporated
DmcProtection.asm                                                    PAGE   34

    1594              
    1595 000002f3 0006          LRETR     ; [CPU_ALU] 
    1596                      ; return occurs ; [] 
    1597                      .dwattr $C$DW$64, DW_AT_TI_end_file("../sources/DmcProtection.c")
    1598                      .dwattr $C$DW$64, DW_AT_TI_end_line(0xf7)
    1599                      .dwattr $C$DW$64, DW_AT_TI_end_column(0x01)
    1600                      .dwendentry
    1601                      .dwendtag $C$DW$64
    1602              
    1603              ;**************************************************************
    1604              ;* UNDEFINED EXTERNAL REFERENCES                              *
    1605              ;**************************************************************
    1606                      .global _GPIO_WritePin
    1607                      .global _F28x_usDelay
    1608                      .global _EPwmXbarRegs
    1609                      .global _motor1
    1610                      .global _motor2
    1611              
    1612              ;***************************************************************
    1613              ;* TYPE INFORMATION                                            *
    1614              ;***************************************************************
    1615              
    1616              $C$DW$T$20      .dwtag  DW_TAG_structure_type
    1617                      .dwattr $C$DW$T$20, DW_AT_byte_size(0x0a)
    1618              $C$DW$72        .dwtag  DW_TAG_member
    1619                      .dwattr $C$DW$72, DW_AT_type(*$C$DW$T$19)
    1620                      .dwattr $C$DW$72, DW_AT_name("As")
    1621                      .dwattr $C$DW$72, DW_AT_TI_symbol_name("_As")
    1622                      .dwattr $C$DW$72, DW_AT_data_member_location[DW_OP_plus_uconst 0x0]
    1623                      .dwattr $C$DW$72, DW_AT_accessibility(DW_ACCESS_public)
    1624              
    1625              $C$DW$73        .dwtag  DW_TAG_member
    1626                      .dwattr $C$DW$73, DW_AT_type(*$C$DW$T$19)
    1627                      .dwattr $C$DW$73, DW_AT_name("Bs")
    1628                      .dwattr $C$DW$73, DW_AT_TI_symbol_name("_Bs")
    1629                      .dwattr $C$DW$73, DW_AT_data_member_location[DW_OP_plus_uconst 0x2]
    1630                      .dwattr $C$DW$73, DW_AT_accessibility(DW_ACCESS_public)
    1631              
    1632              $C$DW$74        .dwtag  DW_TAG_member
    1633                      .dwattr $C$DW$74, DW_AT_type(*$C$DW$T$19)
    1634                      .dwattr $C$DW$74, DW_AT_name("Cs")
    1635                      .dwattr $C$DW$74, DW_AT_TI_symbol_name("_Cs")
    1636                      .dwattr $C$DW$74, DW_AT_data_member_location[DW_OP_plus_uconst 0x4]
    1637                      .dwattr $C$DW$74, DW_AT_accessibility(DW_ACCESS_public)
    1638              
    1639              $C$DW$75        .dwtag  DW_TAG_member
    1640                      .dwattr $C$DW$75, DW_AT_type(*$C$DW$T$19)
    1641                      .dwattr $C$DW$75, DW_AT_name("Alpha")
    1642                      .dwattr $C$DW$75, DW_AT_TI_symbol_name("_Alpha")
    1643                      .dwattr $C$DW$75, DW_AT_data_member_location[DW_OP_plus_uconst 0x6]
    1644                      .dwattr $C$DW$75, DW_AT_accessibility(DW_ACCESS_public)
    1645              
    1646              $C$DW$76        .dwtag  DW_TAG_member
    1647                      .dwattr $C$DW$76, DW_AT_type(*$C$DW$T$19)
    1648                      .dwattr $C$DW$76, DW_AT_name("Beta")
TMS320C2000 Assembler PC v20.2.1 Wed Nov 18 21:47:53 2020

Copyright (c) 1996-2018 Texas Instruments Incorporated
DmcProtection.asm                                                    PAGE   35

    1649                      .dwattr $C$DW$76, DW_AT_TI_symbol_name("_Beta")
    1650                      .dwattr $C$DW$76, DW_AT_data_member_location[DW_OP_plus_uconst 0x8]
    1651                      .dwattr $C$DW$76, DW_AT_accessibility(DW_ACCESS_public)
    1652              
    1653                      .dwendtag $C$DW$T$20
    1654              
    1655              $C$DW$T$77      .dwtag  DW_TAG_typedef
    1656                      .dwattr $C$DW$T$77, DW_AT_name("CLARKE")
    1657                      .dwattr $C$DW$T$77, DW_AT_type(*$C$DW$T$20)
    1658                      .dwattr $C$DW$T$77, DW_AT_language(DW_LANG_C)
    1659              
    1660              
    1661              $C$DW$T$21      .dwtag  DW_TAG_structure_type
    1662                      .dwattr $C$DW$T$21, DW_AT_byte_size(0x0e)
    1663              $C$DW$77        .dwtag  DW_TAG_member
    1664                      .dwattr $C$DW$77, DW_AT_type(*$C$DW$T$19)
    1665                      .dwattr $C$DW$77, DW_AT_name("Alpha")
    1666                      .dwattr $C$DW$77, DW_AT_TI_symbol_name("_Alpha")
    1667                      .dwattr $C$DW$77, DW_AT_data_member_location[DW_OP_plus_uconst 0x0]
    1668                      .dwattr $C$DW$77, DW_AT_accessibility(DW_ACCESS_public)
    1669              
    1670              $C$DW$78        .dwtag  DW_TAG_member
    1671                      .dwattr $C$DW$78, DW_AT_type(*$C$DW$T$19)
    1672                      .dwattr $C$DW$78, DW_AT_name("Beta")
    1673                      .dwattr $C$DW$78, DW_AT_TI_symbol_name("_Beta")
    1674                      .dwattr $C$DW$78, DW_AT_data_member_location[DW_OP_plus_uconst 0x2]
    1675                      .dwattr $C$DW$78, DW_AT_accessibility(DW_ACCESS_public)
    1676              
    1677              $C$DW$79        .dwtag  DW_TAG_member
    1678                      .dwattr $C$DW$79, DW_AT_type(*$C$DW$T$19)
    1679                      .dwattr $C$DW$79, DW_AT_name("Angle")
    1680                      .dwattr $C$DW$79, DW_AT_TI_symbol_name("_Angle")
    1681                      .dwattr $C$DW$79, DW_AT_data_member_location[DW_OP_plus_uconst 0x4]
    1682                      .dwattr $C$DW$79, DW_AT_accessibility(DW_ACCESS_public)
    1683              
    1684              $C$DW$80        .dwtag  DW_TAG_member
    1685                      .dwattr $C$DW$80, DW_AT_type(*$C$DW$T$19)
    1686                      .dwattr $C$DW$80, DW_AT_name("Ds")
    1687                      .dwattr $C$DW$80, DW_AT_TI_symbol_name("_Ds")
    1688                      .dwattr $C$DW$80, DW_AT_data_member_location[DW_OP_plus_uconst 0x6]
    1689                      .dwattr $C$DW$80, DW_AT_accessibility(DW_ACCESS_public)
    1690              
    1691              $C$DW$81        .dwtag  DW_TAG_member
    1692                      .dwattr $C$DW$81, DW_AT_type(*$C$DW$T$19)
    1693                      .dwattr $C$DW$81, DW_AT_name("Qs")
    1694                      .dwattr $C$DW$81, DW_AT_TI_symbol_name("_Qs")
    1695                      .dwattr $C$DW$81, DW_AT_data_member_location[DW_OP_plus_uconst 0x8]
    1696                      .dwattr $C$DW$81, DW_AT_accessibility(DW_ACCESS_public)
    1697              
    1698              $C$DW$82        .dwtag  DW_TAG_member
    1699                      .dwattr $C$DW$82, DW_AT_type(*$C$DW$T$19)
    1700                      .dwattr $C$DW$82, DW_AT_name("Sine")
    1701                      .dwattr $C$DW$82, DW_AT_TI_symbol_name("_Sine")
    1702                      .dwattr $C$DW$82, DW_AT_data_member_location[DW_OP_plus_uconst 0xa]
    1703                      .dwattr $C$DW$82, DW_AT_accessibility(DW_ACCESS_public)
TMS320C2000 Assembler PC v20.2.1 Wed Nov 18 21:47:53 2020

Copyright (c) 1996-2018 Texas Instruments Incorporated
DmcProtection.asm                                                    PAGE   36

    1704              
    1705              $C$DW$83        .dwtag  DW_TAG_member
    1706                      .dwattr $C$DW$83, DW_AT_type(*$C$DW$T$19)
    1707                      .dwattr $C$DW$83, DW_AT_name("Cosine")
    1708                      .dwattr $C$DW$83, DW_AT_TI_symbol_name("_Cosine")
    1709                      .dwattr $C$DW$83, DW_AT_data_member_location[DW_OP_plus_uconst 0xc]
    1710                      .dwattr $C$DW$83, DW_AT_accessibility(DW_ACCESS_public)
    1711              
    1712                      .dwendtag $C$DW$T$21
    1713              
    1714              $C$DW$T$78      .dwtag  DW_TAG_typedef
    1715                      .dwattr $C$DW$T$78, DW_AT_name("PARK")
    1716                      .dwattr $C$DW$T$78, DW_AT_type(*$C$DW$T$21)
    1717                      .dwattr $C$DW$T$78, DW_AT_language(DW_LANG_C)
    1718              
    1719              
    1720              $C$DW$T$22      .dwtag  DW_TAG_structure_type
    1721                      .dwattr $C$DW$T$22, DW_AT_byte_size(0x0e)
    1722              $C$DW$84        .dwtag  DW_TAG_member
    1723                      .dwattr $C$DW$84, DW_AT_type(*$C$DW$T$19)
    1724                      .dwattr $C$DW$84, DW_AT_name("Alpha")
    1725                      .dwattr $C$DW$84, DW_AT_TI_symbol_name("_Alpha")
    1726                      .dwattr $C$DW$84, DW_AT_data_member_location[DW_OP_plus_uconst 0x0]
    1727                      .dwattr $C$DW$84, DW_AT_accessibility(DW_ACCESS_public)
    1728              
    1729              $C$DW$85        .dwtag  DW_TAG_member
    1730                      .dwattr $C$DW$85, DW_AT_type(*$C$DW$T$19)
    1731                      .dwattr $C$DW$85, DW_AT_name("Beta")
    1732                      .dwattr $C$DW$85, DW_AT_TI_symbol_name("_Beta")
    1733                      .dwattr $C$DW$85, DW_AT_data_member_location[DW_OP_plus_uconst 0x2]
    1734                      .dwattr $C$DW$85, DW_AT_accessibility(DW_ACCESS_public)
    1735              
    1736              $C$DW$86        .dwtag  DW_TAG_member
    1737                      .dwattr $C$DW$86, DW_AT_type(*$C$DW$T$19)
    1738                      .dwattr $C$DW$86, DW_AT_name("Angle")
    1739                      .dwattr $C$DW$86, DW_AT_TI_symbol_name("_Angle")
    1740                      .dwattr $C$DW$86, DW_AT_data_member_location[DW_OP_plus_uconst 0x4]
    1741                      .dwattr $C$DW$86, DW_AT_accessibility(DW_ACCESS_public)
    1742              
    1743              $C$DW$87        .dwtag  DW_TAG_member
    1744                      .dwattr $C$DW$87, DW_AT_type(*$C$DW$T$19)
    1745                      .dwattr $C$DW$87, DW_AT_name("Ds")
    1746                      .dwattr $C$DW$87, DW_AT_TI_symbol_name("_Ds")
    1747                      .dwattr $C$DW$87, DW_AT_data_member_location[DW_OP_plus_uconst 0x6]
    1748                      .dwattr $C$DW$87, DW_AT_accessibility(DW_ACCESS_public)
    1749              
    1750              $C$DW$88        .dwtag  DW_TAG_member
    1751                      .dwattr $C$DW$88, DW_AT_type(*$C$DW$T$19)
    1752                      .dwattr $C$DW$88, DW_AT_name("Qs")
    1753                      .dwattr $C$DW$88, DW_AT_TI_symbol_name("_Qs")
    1754                      .dwattr $C$DW$88, DW_AT_data_member_location[DW_OP_plus_uconst 0x8]
    1755                      .dwattr $C$DW$88, DW_AT_accessibility(DW_ACCESS_public)
    1756              
    1757              $C$DW$89        .dwtag  DW_TAG_member
    1758                      .dwattr $C$DW$89, DW_AT_type(*$C$DW$T$19)
TMS320C2000 Assembler PC v20.2.1 Wed Nov 18 21:47:53 2020

Copyright (c) 1996-2018 Texas Instruments Incorporated
DmcProtection.asm                                                    PAGE   37

    1759                      .dwattr $C$DW$89, DW_AT_name("Sine")
    1760                      .dwattr $C$DW$89, DW_AT_TI_symbol_name("_Sine")
    1761                      .dwattr $C$DW$89, DW_AT_data_member_location[DW_OP_plus_uconst 0xa]
    1762                      .dwattr $C$DW$89, DW_AT_accessibility(DW_ACCESS_public)
    1763              
    1764              $C$DW$90        .dwtag  DW_TAG_member
    1765                      .dwattr $C$DW$90, DW_AT_type(*$C$DW$T$19)
    1766                      .dwattr $C$DW$90, DW_AT_name("Cosine")
    1767                      .dwattr $C$DW$90, DW_AT_TI_symbol_name("_Cosine")
    1768                      .dwattr $C$DW$90, DW_AT_data_member_location[DW_OP_plus_uconst 0xc]
    1769                      .dwattr $C$DW$90, DW_AT_accessibility(DW_ACCESS_public)
    1770              
    1771                      .dwendtag $C$DW$T$22
    1772              
    1773              $C$DW$T$79      .dwtag  DW_TAG_typedef
    1774                      .dwattr $C$DW$T$79, DW_AT_name("IPARK")
    1775                      .dwattr $C$DW$T$79, DW_AT_type(*$C$DW$T$22)
    1776                      .dwattr $C$DW$T$79, DW_AT_language(DW_LANG_C)
    1777              
    1778              
    1779              $C$DW$T$23      .dwtag  DW_TAG_structure_type
    1780                      .dwattr $C$DW$T$23, DW_AT_byte_size(0x20)
    1781              $C$DW$91        .dwtag  DW_TAG_member
    1782                      .dwattr $C$DW$91, DW_AT_type(*$C$DW$T$19)
    1783                      .dwattr $C$DW$91, DW_AT_name("Ref")
    1784                      .dwattr $C$DW$91, DW_AT_TI_symbol_name("_Ref")
    1785                      .dwattr $C$DW$91, DW_AT_data_member_location[DW_OP_plus_uconst 0x0]
    1786                      .dwattr $C$DW$91, DW_AT_accessibility(DW_ACCESS_public)
    1787              
    1788              $C$DW$92        .dwtag  DW_TAG_member
    1789                      .dwattr $C$DW$92, DW_AT_type(*$C$DW$T$19)
    1790                      .dwattr $C$DW$92, DW_AT_name("Fdb")
    1791                      .dwattr $C$DW$92, DW_AT_TI_symbol_name("_Fdb")
    1792                      .dwattr $C$DW$92, DW_AT_data_member_location[DW_OP_plus_uconst 0x2]
    1793                      .dwattr $C$DW$92, DW_AT_accessibility(DW_ACCESS_public)
    1794              
    1795              $C$DW$93        .dwtag  DW_TAG_member
    1796                      .dwattr $C$DW$93, DW_AT_type(*$C$DW$T$19)
    1797                      .dwattr $C$DW$93, DW_AT_name("Err")
    1798                      .dwattr $C$DW$93, DW_AT_TI_symbol_name("_Err")
    1799                      .dwattr $C$DW$93, DW_AT_data_member_location[DW_OP_plus_uconst 0x4]
    1800                      .dwattr $C$DW$93, DW_AT_accessibility(DW_ACCESS_public)
    1801              
    1802              $C$DW$94        .dwtag  DW_TAG_member
    1803                      .dwattr $C$DW$94, DW_AT_type(*$C$DW$T$19)
    1804                      .dwattr $C$DW$94, DW_AT_name("Kp")
    1805                      .dwattr $C$DW$94, DW_AT_TI_symbol_name("_Kp")
    1806                      .dwattr $C$DW$94, DW_AT_data_member_location[DW_OP_plus_uconst 0x6]
    1807                      .dwattr $C$DW$94, DW_AT_accessibility(DW_ACCESS_public)
    1808              
    1809              $C$DW$95        .dwtag  DW_TAG_member
    1810                      .dwattr $C$DW$95, DW_AT_type(*$C$DW$T$19)
    1811                      .dwattr $C$DW$95, DW_AT_name("Up")
    1812                      .dwattr $C$DW$95, DW_AT_TI_symbol_name("_Up")
    1813                      .dwattr $C$DW$95, DW_AT_data_member_location[DW_OP_plus_uconst 0x8]
TMS320C2000 Assembler PC v20.2.1 Wed Nov 18 21:47:53 2020

Copyright (c) 1996-2018 Texas Instruments Incorporated
DmcProtection.asm                                                    PAGE   38

    1814                      .dwattr $C$DW$95, DW_AT_accessibility(DW_ACCESS_public)
    1815              
    1816              $C$DW$96        .dwtag  DW_TAG_member
    1817                      .dwattr $C$DW$96, DW_AT_type(*$C$DW$T$19)
    1818                      .dwattr $C$DW$96, DW_AT_name("Ui")
    1819                      .dwattr $C$DW$96, DW_AT_TI_symbol_name("_Ui")
    1820                      .dwattr $C$DW$96, DW_AT_data_member_location[DW_OP_plus_uconst 0xa]
    1821                      .dwattr $C$DW$96, DW_AT_accessibility(DW_ACCESS_public)
    1822              
    1823              $C$DW$97        .dwtag  DW_TAG_member
    1824                      .dwattr $C$DW$97, DW_AT_type(*$C$DW$T$19)
    1825                      .dwattr $C$DW$97, DW_AT_name("Ud")
    1826                      .dwattr $C$DW$97, DW_AT_TI_symbol_name("_Ud")
    1827                      .dwattr $C$DW$97, DW_AT_data_member_location[DW_OP_plus_uconst 0xc]
    1828                      .dwattr $C$DW$97, DW_AT_accessibility(DW_ACCESS_public)
    1829              
    1830              $C$DW$98        .dwtag  DW_TAG_member
    1831                      .dwattr $C$DW$98, DW_AT_type(*$C$DW$T$19)
    1832                      .dwattr $C$DW$98, DW_AT_name("OutPreSat")
    1833                      .dwattr $C$DW$98, DW_AT_TI_symbol_name("_OutPreSat")
    1834                      .dwattr $C$DW$98, DW_AT_data_member_location[DW_OP_plus_uconst 0xe]
    1835                      .dwattr $C$DW$98, DW_AT_accessibility(DW_ACCESS_public)
    1836              
    1837              $C$DW$99        .dwtag  DW_TAG_member
    1838                      .dwattr $C$DW$99, DW_AT_type(*$C$DW$T$19)
    1839                      .dwattr $C$DW$99, DW_AT_name("OutMax")
    1840                      .dwattr $C$DW$99, DW_AT_TI_symbol_name("_OutMax")
    1841                      .dwattr $C$DW$99, DW_AT_data_member_location[DW_OP_plus_uconst 0x10]
    1842                      .dwattr $C$DW$99, DW_AT_accessibility(DW_ACCESS_public)
    1843              
    1844              $C$DW$100       .dwtag  DW_TAG_member
    1845                      .dwattr $C$DW$100, DW_AT_type(*$C$DW$T$19)
    1846                      .dwattr $C$DW$100, DW_AT_name("OutMin")
    1847                      .dwattr $C$DW$100, DW_AT_TI_symbol_name("_OutMin")
    1848                      .dwattr $C$DW$100, DW_AT_data_member_location[DW_OP_plus_uconst 0x12]
    1849                      .dwattr $C$DW$100, DW_AT_accessibility(DW_ACCESS_public)
    1850              
    1851              $C$DW$101       .dwtag  DW_TAG_member
    1852                      .dwattr $C$DW$101, DW_AT_type(*$C$DW$T$19)
    1853                      .dwattr $C$DW$101, DW_AT_name("Out")
    1854                      .dwattr $C$DW$101, DW_AT_TI_symbol_name("_Out")
    1855                      .dwattr $C$DW$101, DW_AT_data_member_location[DW_OP_plus_uconst 0x14]
    1856                      .dwattr $C$DW$101, DW_AT_accessibility(DW_ACCESS_public)
    1857              
    1858              $C$DW$102       .dwtag  DW_TAG_member
    1859                      .dwattr $C$DW$102, DW_AT_type(*$C$DW$T$19)
    1860                      .dwattr $C$DW$102, DW_AT_name("SatErr")
    1861                      .dwattr $C$DW$102, DW_AT_TI_symbol_name("_SatErr")
    1862                      .dwattr $C$DW$102, DW_AT_data_member_location[DW_OP_plus_uconst 0x16]
    1863                      .dwattr $C$DW$102, DW_AT_accessibility(DW_ACCESS_public)
    1864              
    1865              $C$DW$103       .dwtag  DW_TAG_member
    1866                      .dwattr $C$DW$103, DW_AT_type(*$C$DW$T$19)
    1867                      .dwattr $C$DW$103, DW_AT_name("Ki")
    1868                      .dwattr $C$DW$103, DW_AT_TI_symbol_name("_Ki")
TMS320C2000 Assembler PC v20.2.1 Wed Nov 18 21:47:53 2020

Copyright (c) 1996-2018 Texas Instruments Incorporated
DmcProtection.asm                                                    PAGE   39

    1869                      .dwattr $C$DW$103, DW_AT_data_member_location[DW_OP_plus_uconst 0x18]
    1870                      .dwattr $C$DW$103, DW_AT_accessibility(DW_ACCESS_public)
    1871              
    1872              $C$DW$104       .dwtag  DW_TAG_member
    1873                      .dwattr $C$DW$104, DW_AT_type(*$C$DW$T$19)
    1874                      .dwattr $C$DW$104, DW_AT_name("Kc")
    1875                      .dwattr $C$DW$104, DW_AT_TI_symbol_name("_Kc")
    1876                      .dwattr $C$DW$104, DW_AT_data_member_location[DW_OP_plus_uconst 0x1a]
    1877                      .dwattr $C$DW$104, DW_AT_accessibility(DW_ACCESS_public)
    1878              
    1879              $C$DW$105       .dwtag  DW_TAG_member
    1880                      .dwattr $C$DW$105, DW_AT_type(*$C$DW$T$19)
    1881                      .dwattr $C$DW$105, DW_AT_name("Kd")
    1882                      .dwattr $C$DW$105, DW_AT_TI_symbol_name("_Kd")
    1883                      .dwattr $C$DW$105, DW_AT_data_member_location[DW_OP_plus_uconst 0x1c]
    1884                      .dwattr $C$DW$105, DW_AT_accessibility(DW_ACCESS_public)
    1885              
    1886              $C$DW$106       .dwtag  DW_TAG_member
    1887                      .dwattr $C$DW$106, DW_AT_type(*$C$DW$T$19)
    1888                      .dwattr $C$DW$106, DW_AT_name("Up1")
    1889                      .dwattr $C$DW$106, DW_AT_TI_symbol_name("_Up1")
    1890                      .dwattr $C$DW$106, DW_AT_data_member_location[DW_OP_plus_uconst 0x1e]
    1891                      .dwattr $C$DW$106, DW_AT_accessibility(DW_ACCESS_public)
    1892              
    1893                      .dwendtag $C$DW$T$23
    1894              
    1895              $C$DW$T$80      .dwtag  DW_TAG_typedef
    1896                      .dwattr $C$DW$T$80, DW_AT_name("PIDREG3")
    1897                      .dwattr $C$DW$T$80, DW_AT_type(*$C$DW$T$23)
    1898                      .dwattr $C$DW$T$80, DW_AT_language(DW_LANG_C)
    1899              
    1900              
    1901              $C$DW$T$24      .dwtag  DW_TAG_structure_type
    1902                      .dwattr $C$DW$T$24, DW_AT_byte_size(0x18)
    1903              $C$DW$107       .dwtag  DW_TAG_member
    1904                      .dwattr $C$DW$107, DW_AT_type(*$C$DW$T$19)
    1905                      .dwattr $C$DW$107, DW_AT_name("Ref")
    1906                      .dwattr $C$DW$107, DW_AT_TI_symbol_name("_Ref")
    1907                      .dwattr $C$DW$107, DW_AT_data_member_location[DW_OP_plus_uconst 0x0]
    1908                      .dwattr $C$DW$107, DW_AT_accessibility(DW_ACCESS_public)
    1909              
    1910              $C$DW$108       .dwtag  DW_TAG_member
    1911                      .dwattr $C$DW$108, DW_AT_type(*$C$DW$T$19)
    1912                      .dwattr $C$DW$108, DW_AT_name("Fbk")
    1913                      .dwattr $C$DW$108, DW_AT_TI_symbol_name("_Fbk")
    1914                      .dwattr $C$DW$108, DW_AT_data_member_location[DW_OP_plus_uconst 0x2]
    1915                      .dwattr $C$DW$108, DW_AT_accessibility(DW_ACCESS_public)
    1916              
    1917              $C$DW$109       .dwtag  DW_TAG_member
    1918                      .dwattr $C$DW$109, DW_AT_type(*$C$DW$T$19)
    1919                      .dwattr $C$DW$109, DW_AT_name("Out")
    1920                      .dwattr $C$DW$109, DW_AT_TI_symbol_name("_Out")
    1921                      .dwattr $C$DW$109, DW_AT_data_member_location[DW_OP_plus_uconst 0x4]
    1922                      .dwattr $C$DW$109, DW_AT_accessibility(DW_ACCESS_public)
    1923              
TMS320C2000 Assembler PC v20.2.1 Wed Nov 18 21:47:53 2020

Copyright (c) 1996-2018 Texas Instruments Incorporated
DmcProtection.asm                                                    PAGE   40

    1924              $C$DW$110       .dwtag  DW_TAG_member
    1925                      .dwattr $C$DW$110, DW_AT_type(*$C$DW$T$19)
    1926                      .dwattr $C$DW$110, DW_AT_name("Kp")
    1927                      .dwattr $C$DW$110, DW_AT_TI_symbol_name("_Kp")
    1928                      .dwattr $C$DW$110, DW_AT_data_member_location[DW_OP_plus_uconst 0x6]
    1929                      .dwattr $C$DW$110, DW_AT_accessibility(DW_ACCESS_public)
    1930              
    1931              $C$DW$111       .dwtag  DW_TAG_member
    1932                      .dwattr $C$DW$111, DW_AT_type(*$C$DW$T$19)
    1933                      .dwattr $C$DW$111, DW_AT_name("Ki")
    1934                      .dwattr $C$DW$111, DW_AT_TI_symbol_name("_Ki")
    1935                      .dwattr $C$DW$111, DW_AT_data_member_location[DW_OP_plus_uconst 0x8]
    1936                      .dwattr $C$DW$111, DW_AT_accessibility(DW_ACCESS_public)
    1937              
    1938              $C$DW$112       .dwtag  DW_TAG_member
    1939                      .dwattr $C$DW$112, DW_AT_type(*$C$DW$T$19)
    1940                      .dwattr $C$DW$112, DW_AT_name("Umax")
    1941                      .dwattr $C$DW$112, DW_AT_TI_symbol_name("_Umax")
    1942                      .dwattr $C$DW$112, DW_AT_data_member_location[DW_OP_plus_uconst 0xa]
    1943                      .dwattr $C$DW$112, DW_AT_accessibility(DW_ACCESS_public)
    1944              
    1945              $C$DW$113       .dwtag  DW_TAG_member
    1946                      .dwattr $C$DW$113, DW_AT_type(*$C$DW$T$19)
    1947                      .dwattr $C$DW$113, DW_AT_name("Umin")
    1948                      .dwattr $C$DW$113, DW_AT_TI_symbol_name("_Umin")
    1949                      .dwattr $C$DW$113, DW_AT_data_member_location[DW_OP_plus_uconst 0xc]
    1950                      .dwattr $C$DW$113, DW_AT_accessibility(DW_ACCESS_public)
    1951              
    1952              $C$DW$114       .dwtag  DW_TAG_member
    1953                      .dwattr $C$DW$114, DW_AT_type(*$C$DW$T$19)
    1954                      .dwattr $C$DW$114, DW_AT_name("up")
    1955                      .dwattr $C$DW$114, DW_AT_TI_symbol_name("_up")
    1956                      .dwattr $C$DW$114, DW_AT_data_member_location[DW_OP_plus_uconst 0xe]
    1957                      .dwattr $C$DW$114, DW_AT_accessibility(DW_ACCESS_public)
    1958              
    1959              $C$DW$115       .dwtag  DW_TAG_member
    1960                      .dwattr $C$DW$115, DW_AT_type(*$C$DW$T$19)
    1961                      .dwattr $C$DW$115, DW_AT_name("ui")
    1962                      .dwattr $C$DW$115, DW_AT_TI_symbol_name("_ui")
    1963                      .dwattr $C$DW$115, DW_AT_data_member_location[DW_OP_plus_uconst 0x10]
    1964                      .dwattr $C$DW$115, DW_AT_accessibility(DW_ACCESS_public)
    1965              
    1966              $C$DW$116       .dwtag  DW_TAG_member
    1967                      .dwattr $C$DW$116, DW_AT_type(*$C$DW$T$19)
    1968                      .dwattr $C$DW$116, DW_AT_name("v1")
    1969                      .dwattr $C$DW$116, DW_AT_TI_symbol_name("_v1")
    1970                      .dwattr $C$DW$116, DW_AT_data_member_location[DW_OP_plus_uconst 0x12]
    1971                      .dwattr $C$DW$116, DW_AT_accessibility(DW_ACCESS_public)
    1972              
    1973              $C$DW$117       .dwtag  DW_TAG_member
    1974                      .dwattr $C$DW$117, DW_AT_type(*$C$DW$T$19)
    1975                      .dwattr $C$DW$117, DW_AT_name("i1")
    1976                      .dwattr $C$DW$117, DW_AT_TI_symbol_name("_i1")
    1977                      .dwattr $C$DW$117, DW_AT_data_member_location[DW_OP_plus_uconst 0x14]
    1978                      .dwattr $C$DW$117, DW_AT_accessibility(DW_ACCESS_public)
TMS320C2000 Assembler PC v20.2.1 Wed Nov 18 21:47:53 2020

Copyright (c) 1996-2018 Texas Instruments Incorporated
DmcProtection.asm                                                    PAGE   41

    1979              
    1980              $C$DW$118       .dwtag  DW_TAG_member
    1981                      .dwattr $C$DW$118, DW_AT_type(*$C$DW$T$19)
    1982                      .dwattr $C$DW$118, DW_AT_name("w1")
    1983                      .dwattr $C$DW$118, DW_AT_TI_symbol_name("_w1")
    1984                      .dwattr $C$DW$118, DW_AT_data_member_location[DW_OP_plus_uconst 0x16]
    1985                      .dwattr $C$DW$118, DW_AT_accessibility(DW_ACCESS_public)
    1986              
    1987                      .dwendtag $C$DW$T$24
    1988              
    1989              $C$DW$T$81      .dwtag  DW_TAG_typedef
    1990                      .dwattr $C$DW$T$81, DW_AT_name("PI_CONTROLLER")
    1991                      .dwattr $C$DW$T$81, DW_AT_type(*$C$DW$T$24)
    1992                      .dwattr $C$DW$T$81, DW_AT_language(DW_LANG_C)
    1993              
    1994              
    1995              $C$DW$T$25      .dwtag  DW_TAG_structure_type
    1996                      .dwattr $C$DW$T$25, DW_AT_byte_size(0x0a)
    1997              $C$DW$119       .dwtag  DW_TAG_member
    1998                      .dwattr $C$DW$119, DW_AT_type(*$C$DW$T$19)
    1999                      .dwattr $C$DW$119, DW_AT_name("Ref")
    2000                      .dwattr $C$DW$119, DW_AT_TI_symbol_name("_Ref")
    2001                      .dwattr $C$DW$119, DW_AT_data_member_location[DW_OP_plus_uconst 0x0]
    2002                      .dwattr $C$DW$119, DW_AT_accessibility(DW_ACCESS_public)
    2003              
    2004              $C$DW$120       .dwtag  DW_TAG_member
    2005                      .dwattr $C$DW$120, DW_AT_type(*$C$DW$T$19)
    2006                      .dwattr $C$DW$120, DW_AT_name("Fbk")
    2007                      .dwattr $C$DW$120, DW_AT_TI_symbol_name("_Fbk")
    2008                      .dwattr $C$DW$120, DW_AT_data_member_location[DW_OP_plus_uconst 0x2]
    2009                      .dwattr $C$DW$120, DW_AT_accessibility(DW_ACCESS_public)
    2010              
    2011              $C$DW$121       .dwtag  DW_TAG_member
    2012                      .dwattr $C$DW$121, DW_AT_type(*$C$DW$T$19)
    2013                      .dwattr $C$DW$121, DW_AT_name("Out")
    2014                      .dwattr $C$DW$121, DW_AT_TI_symbol_name("_Out")
    2015                      .dwattr $C$DW$121, DW_AT_data_member_location[DW_OP_plus_uconst 0x4]
    2016                      .dwattr $C$DW$121, DW_AT_accessibility(DW_ACCESS_public)
    2017              
    2018              $C$DW$122       .dwtag  DW_TAG_member
    2019                      .dwattr $C$DW$122, DW_AT_type(*$C$DW$T$19)
    2020                      .dwattr $C$DW$122, DW_AT_name("c1")
    2021                      .dwattr $C$DW$122, DW_AT_TI_symbol_name("_c1")
    2022                      .dwattr $C$DW$122, DW_AT_data_member_location[DW_OP_plus_uconst 0x6]
    2023                      .dwattr $C$DW$122, DW_AT_accessibility(DW_ACCESS_public)
    2024              
    2025              $C$DW$123       .dwtag  DW_TAG_member
    2026                      .dwattr $C$DW$123, DW_AT_type(*$C$DW$T$19)
    2027                      .dwattr $C$DW$123, DW_AT_name("c2")
    2028                      .dwattr $C$DW$123, DW_AT_TI_symbol_name("_c2")
    2029                      .dwattr $C$DW$123, DW_AT_data_member_location[DW_OP_plus_uconst 0x8]
    2030                      .dwattr $C$DW$123, DW_AT_accessibility(DW_ACCESS_public)
    2031              
    2032                      .dwendtag $C$DW$T$25
    2033              
TMS320C2000 Assembler PC v20.2.1 Wed Nov 18 21:47:53 2020

Copyright (c) 1996-2018 Texas Instruments Incorporated
DmcProtection.asm                                                    PAGE   42

    2034              $C$DW$T$28      .dwtag  DW_TAG_typedef
    2035                      .dwattr $C$DW$T$28, DW_AT_name("PID_TERMINALS")
    2036                      .dwattr $C$DW$T$28, DW_AT_type(*$C$DW$T$25)
    2037                      .dwattr $C$DW$T$28, DW_AT_language(DW_LANG_C)
    2038              
    2039              
    2040              $C$DW$T$26      .dwtag  DW_TAG_structure_type
    2041                      .dwattr $C$DW$T$26, DW_AT_byte_size(0x0e)
    2042              $C$DW$124       .dwtag  DW_TAG_member
    2043                      .dwattr $C$DW$124, DW_AT_type(*$C$DW$T$19)
    2044                      .dwattr $C$DW$124, DW_AT_name("Kr")
    2045                      .dwattr $C$DW$124, DW_AT_TI_symbol_name("_Kr")
    2046                      .dwattr $C$DW$124, DW_AT_data_member_location[DW_OP_plus_uconst 0x0]
    2047                      .dwattr $C$DW$124, DW_AT_accessibility(DW_ACCESS_public)
    2048              
    2049              $C$DW$125       .dwtag  DW_TAG_member
    2050                      .dwattr $C$DW$125, DW_AT_type(*$C$DW$T$19)
    2051                      .dwattr $C$DW$125, DW_AT_name("Kp")
    2052                      .dwattr $C$DW$125, DW_AT_TI_symbol_name("_Kp")
    2053                      .dwattr $C$DW$125, DW_AT_data_member_location[DW_OP_plus_uconst 0x2]
    2054                      .dwattr $C$DW$125, DW_AT_accessibility(DW_ACCESS_public)
    2055              
    2056              $C$DW$126       .dwtag  DW_TAG_member
    2057                      .dwattr $C$DW$126, DW_AT_type(*$C$DW$T$19)
    2058                      .dwattr $C$DW$126, DW_AT_name("Ki")
    2059                      .dwattr $C$DW$126, DW_AT_TI_symbol_name("_Ki")
    2060                      .dwattr $C$DW$126, DW_AT_data_member_location[DW_OP_plus_uconst 0x4]
    2061                      .dwattr $C$DW$126, DW_AT_accessibility(DW_ACCESS_public)
    2062              
    2063              $C$DW$127       .dwtag  DW_TAG_member
    2064                      .dwattr $C$DW$127, DW_AT_type(*$C$DW$T$19)
    2065                      .dwattr $C$DW$127, DW_AT_name("Kd")
    2066                      .dwattr $C$DW$127, DW_AT_TI_symbol_name("_Kd")
    2067                      .dwattr $C$DW$127, DW_AT_data_member_location[DW_OP_plus_uconst 0x6]
    2068                      .dwattr $C$DW$127, DW_AT_accessibility(DW_ACCESS_public)
    2069              
    2070              $C$DW$128       .dwtag  DW_TAG_member
    2071                      .dwattr $C$DW$128, DW_AT_type(*$C$DW$T$19)
    2072                      .dwattr $C$DW$128, DW_AT_name("Km")
    2073                      .dwattr $C$DW$128, DW_AT_TI_symbol_name("_Km")
    2074                      .dwattr $C$DW$128, DW_AT_data_member_location[DW_OP_plus_uconst 0x8]
    2075                      .dwattr $C$DW$128, DW_AT_accessibility(DW_ACCESS_public)
    2076              
    2077              $C$DW$129       .dwtag  DW_TAG_member
    2078                      .dwattr $C$DW$129, DW_AT_type(*$C$DW$T$19)
    2079                      .dwattr $C$DW$129, DW_AT_name("Umax")
    2080                      .dwattr $C$DW$129, DW_AT_TI_symbol_name("_Umax")
    2081                      .dwattr $C$DW$129, DW_AT_data_member_location[DW_OP_plus_uconst 0xa]
    2082                      .dwattr $C$DW$129, DW_AT_accessibility(DW_ACCESS_public)
    2083              
    2084              $C$DW$130       .dwtag  DW_TAG_member
    2085                      .dwattr $C$DW$130, DW_AT_type(*$C$DW$T$19)
    2086                      .dwattr $C$DW$130, DW_AT_name("Umin")
    2087                      .dwattr $C$DW$130, DW_AT_TI_symbol_name("_Umin")
    2088                      .dwattr $C$DW$130, DW_AT_data_member_location[DW_OP_plus_uconst 0xc]
TMS320C2000 Assembler PC v20.2.1 Wed Nov 18 21:47:53 2020

Copyright (c) 1996-2018 Texas Instruments Incorporated
DmcProtection.asm                                                    PAGE   43

    2089                      .dwattr $C$DW$130, DW_AT_accessibility(DW_ACCESS_public)
    2090              
    2091                      .dwendtag $C$DW$T$26
    2092              
    2093              $C$DW$T$29      .dwtag  DW_TAG_typedef
    2094                      .dwattr $C$DW$T$29, DW_AT_name("PID_PARAMETERS")
    2095                      .dwattr $C$DW$T$29, DW_AT_type(*$C$DW$T$26)
    2096                      .dwattr $C$DW$T$29, DW_AT_language(DW_LANG_C)
    2097              
    2098              
    2099              $C$DW$T$27      .dwtag  DW_TAG_structure_type
    2100                      .dwattr $C$DW$T$27, DW_AT_byte_size(0x10)
    2101              $C$DW$131       .dwtag  DW_TAG_member
    2102                      .dwattr $C$DW$131, DW_AT_type(*$C$DW$T$19)
    2103                      .dwattr $C$DW$131, DW_AT_name("up")
    2104                      .dwattr $C$DW$131, DW_AT_TI_symbol_name("_up")
    2105                      .dwattr $C$DW$131, DW_AT_data_member_location[DW_OP_plus_uconst 0x0]
    2106                      .dwattr $C$DW$131, DW_AT_accessibility(DW_ACCESS_public)
    2107              
    2108              $C$DW$132       .dwtag  DW_TAG_member
    2109                      .dwattr $C$DW$132, DW_AT_type(*$C$DW$T$19)
    2110                      .dwattr $C$DW$132, DW_AT_name("ui")
    2111                      .dwattr $C$DW$132, DW_AT_TI_symbol_name("_ui")
    2112                      .dwattr $C$DW$132, DW_AT_data_member_location[DW_OP_plus_uconst 0x2]
    2113                      .dwattr $C$DW$132, DW_AT_accessibility(DW_ACCESS_public)
    2114              
    2115              $C$DW$133       .dwtag  DW_TAG_member
    2116                      .dwattr $C$DW$133, DW_AT_type(*$C$DW$T$19)
    2117                      .dwattr $C$DW$133, DW_AT_name("ud")
    2118                      .dwattr $C$DW$133, DW_AT_TI_symbol_name("_ud")
    2119                      .dwattr $C$DW$133, DW_AT_data_member_location[DW_OP_plus_uconst 0x4]
    2120                      .dwattr $C$DW$133, DW_AT_accessibility(DW_ACCESS_public)
    2121              
    2122              $C$DW$134       .dwtag  DW_TAG_member
    2123                      .dwattr $C$DW$134, DW_AT_type(*$C$DW$T$19)
    2124                      .dwattr $C$DW$134, DW_AT_name("v1")
    2125                      .dwattr $C$DW$134, DW_AT_TI_symbol_name("_v1")
    2126                      .dwattr $C$DW$134, DW_AT_data_member_location[DW_OP_plus_uconst 0x6]
    2127                      .dwattr $C$DW$134, DW_AT_accessibility(DW_ACCESS_public)
    2128              
    2129              $C$DW$135       .dwtag  DW_TAG_member
    2130                      .dwattr $C$DW$135, DW_AT_type(*$C$DW$T$19)
    2131                      .dwattr $C$DW$135, DW_AT_name("i1")
    2132                      .dwattr $C$DW$135, DW_AT_TI_symbol_name("_i1")
    2133                      .dwattr $C$DW$135, DW_AT_data_member_location[DW_OP_plus_uconst 0x8]
    2134                      .dwattr $C$DW$135, DW_AT_accessibility(DW_ACCESS_public)
    2135              
    2136              $C$DW$136       .dwtag  DW_TAG_member
    2137                      .dwattr $C$DW$136, DW_AT_type(*$C$DW$T$19)
    2138                      .dwattr $C$DW$136, DW_AT_name("d1")
    2139                      .dwattr $C$DW$136, DW_AT_TI_symbol_name("_d1")
    2140                      .dwattr $C$DW$136, DW_AT_data_member_location[DW_OP_plus_uconst 0xa]
    2141                      .dwattr $C$DW$136, DW_AT_accessibility(DW_ACCESS_public)
    2142              
    2143              $C$DW$137       .dwtag  DW_TAG_member
TMS320C2000 Assembler PC v20.2.1 Wed Nov 18 21:47:53 2020

Copyright (c) 1996-2018 Texas Instruments Incorporated
DmcProtection.asm                                                    PAGE   44

    2144                      .dwattr $C$DW$137, DW_AT_type(*$C$DW$T$19)
    2145                      .dwattr $C$DW$137, DW_AT_name("d2")
    2146                      .dwattr $C$DW$137, DW_AT_TI_symbol_name("_d2")
    2147                      .dwattr $C$DW$137, DW_AT_data_member_location[DW_OP_plus_uconst 0xc]
    2148                      .dwattr $C$DW$137, DW_AT_accessibility(DW_ACCESS_public)
    2149              
    2150              $C$DW$138       .dwtag  DW_TAG_member
    2151                      .dwattr $C$DW$138, DW_AT_type(*$C$DW$T$19)
    2152                      .dwattr $C$DW$138, DW_AT_name("w1")
    2153                      .dwattr $C$DW$138, DW_AT_TI_symbol_name("_w1")
    2154                      .dwattr $C$DW$138, DW_AT_data_member_location[DW_OP_plus_uconst 0xe]
    2155                      .dwattr $C$DW$138, DW_AT_accessibility(DW_ACCESS_public)
    2156              
    2157                      .dwendtag $C$DW$T$27
    2158              
    2159              $C$DW$T$30      .dwtag  DW_TAG_typedef
    2160                      .dwattr $C$DW$T$30, DW_AT_name("PID_DATA")
    2161                      .dwattr $C$DW$T$30, DW_AT_type(*$C$DW$T$27)
    2162                      .dwattr $C$DW$T$30, DW_AT_language(DW_LANG_C)
    2163              
    2164              
    2165              $C$DW$T$31      .dwtag  DW_TAG_structure_type
    2166                      .dwattr $C$DW$T$31, DW_AT_byte_size(0x28)
    2167              $C$DW$139       .dwtag  DW_TAG_member
    2168                      .dwattr $C$DW$139, DW_AT_type(*$C$DW$T$28)
    2169                      .dwattr $C$DW$139, DW_AT_name("term")
    2170                      .dwattr $C$DW$139, DW_AT_TI_symbol_name("_term")
    2171                      .dwattr $C$DW$139, DW_AT_data_member_location[DW_OP_plus_uconst 0x0]
    2172                      .dwattr $C$DW$139, DW_AT_accessibility(DW_ACCESS_public)
    2173              
    2174              $C$DW$140       .dwtag  DW_TAG_member
    2175                      .dwattr $C$DW$140, DW_AT_type(*$C$DW$T$29)
    2176                      .dwattr $C$DW$140, DW_AT_name("param")
    2177                      .dwattr $C$DW$140, DW_AT_TI_symbol_name("_param")
    2178                      .dwattr $C$DW$140, DW_AT_data_member_location[DW_OP_plus_uconst 0xa]
    2179                      .dwattr $C$DW$140, DW_AT_accessibility(DW_ACCESS_public)
    2180              
    2181              $C$DW$141       .dwtag  DW_TAG_member
    2182                      .dwattr $C$DW$141, DW_AT_type(*$C$DW$T$30)
    2183                      .dwattr $C$DW$141, DW_AT_name("data")
    2184                      .dwattr $C$DW$141, DW_AT_TI_symbol_name("_data")
    2185                      .dwattr $C$DW$141, DW_AT_data_member_location[DW_OP_plus_uconst 0x18]
    2186                      .dwattr $C$DW$141, DW_AT_accessibility(DW_ACCESS_public)
    2187              
    2188                      .dwendtag $C$DW$T$31
    2189              
    2190              $C$DW$T$82      .dwtag  DW_TAG_typedef
    2191                      .dwattr $C$DW$T$82, DW_AT_name("PID_CONTROLLER")
    2192                      .dwattr $C$DW$T$82, DW_AT_type(*$C$DW$T$31)
    2193                      .dwattr $C$DW$T$82, DW_AT_language(DW_LANG_C)
    2194              
    2195              
    2196              $C$DW$T$33      .dwtag  DW_TAG_structure_type
    2197                      .dwattr $C$DW$T$33, DW_AT_byte_size(0x22)
    2198              $C$DW$142       .dwtag  DW_TAG_member
TMS320C2000 Assembler PC v20.2.1 Wed Nov 18 21:47:53 2020

Copyright (c) 1996-2018 Texas Instruments Incorporated
DmcProtection.asm                                                    PAGE   45

    2199                      .dwattr $C$DW$142, DW_AT_type(*$C$DW$T$32)
    2200                      .dwattr $C$DW$142, DW_AT_name("Ref")
    2201                      .dwattr $C$DW$142, DW_AT_TI_symbol_name("_Ref")
    2202                      .dwattr $C$DW$142, DW_AT_data_member_location[DW_OP_plus_uconst 0x0]
    2203                      .dwattr $C$DW$142, DW_AT_accessibility(DW_ACCESS_public)
    2204              
    2205              $C$DW$143       .dwtag  DW_TAG_member
    2206                      .dwattr $C$DW$143, DW_AT_type(*$C$DW$T$32)
    2207                      .dwattr $C$DW$143, DW_AT_name("Fbk")
    2208                      .dwattr $C$DW$143, DW_AT_TI_symbol_name("_Fbk")
    2209                      .dwattr $C$DW$143, DW_AT_data_member_location[DW_OP_plus_uconst 0x2]
    2210                      .dwattr $C$DW$143, DW_AT_accessibility(DW_ACCESS_public)
    2211              
    2212              $C$DW$144       .dwtag  DW_TAG_member
    2213                      .dwattr $C$DW$144, DW_AT_type(*$C$DW$T$32)
    2214                      .dwattr $C$DW$144, DW_AT_name("Err")
    2215                      .dwattr $C$DW$144, DW_AT_TI_symbol_name("_Err")
    2216                      .dwattr $C$DW$144, DW_AT_data_member_location[DW_OP_plus_uconst 0x4]
    2217                      .dwattr $C$DW$144, DW_AT_accessibility(DW_ACCESS_public)
    2218              
    2219              $C$DW$145       .dwtag  DW_TAG_member
    2220                      .dwattr $C$DW$145, DW_AT_type(*$C$DW$T$32)
    2221                      .dwattr $C$DW$145, DW_AT_name("xErr")
    2222                      .dwattr $C$DW$145, DW_AT_TI_symbol_name("_xErr")
    2223                      .dwattr $C$DW$145, DW_AT_data_member_location[DW_OP_plus_uconst 0x6]
    2224                      .dwattr $C$DW$145, DW_AT_accessibility(DW_ACCESS_public)
    2225              
    2226              $C$DW$146       .dwtag  DW_TAG_member
    2227                      .dwattr $C$DW$146, DW_AT_type(*$C$DW$T$32)
    2228                      .dwattr $C$DW$146, DW_AT_name("Out")
    2229                      .dwattr $C$DW$146, DW_AT_TI_symbol_name("_Out")
    2230                      .dwattr $C$DW$146, DW_AT_data_member_location[DW_OP_plus_uconst 0x8]
    2231                      .dwattr $C$DW$146, DW_AT_accessibility(DW_ACCESS_public)
    2232              
    2233              $C$DW$147       .dwtag  DW_TAG_member
    2234                      .dwattr $C$DW$147, DW_AT_type(*$C$DW$T$32)
    2235                      .dwattr $C$DW$147, DW_AT_name("CarryOver")
    2236                      .dwattr $C$DW$147, DW_AT_TI_symbol_name("_CarryOver")
    2237                      .dwattr $C$DW$147, DW_AT_data_member_location[DW_OP_plus_uconst 0xa]
    2238                      .dwattr $C$DW$147, DW_AT_accessibility(DW_ACCESS_public)
    2239              
    2240              $C$DW$148       .dwtag  DW_TAG_member
    2241                      .dwattr $C$DW$148, DW_AT_type(*$C$DW$T$32)
    2242                      .dwattr $C$DW$148, DW_AT_name("Kp")
    2243                      .dwattr $C$DW$148, DW_AT_TI_symbol_name("_Kp")
    2244                      .dwattr $C$DW$148, DW_AT_data_member_location[DW_OP_plus_uconst 0xc]
    2245                      .dwattr $C$DW$148, DW_AT_accessibility(DW_ACCESS_public)
    2246              
    2247              $C$DW$149       .dwtag  DW_TAG_member
    2248                      .dwattr $C$DW$149, DW_AT_type(*$C$DW$T$32)
    2249                      .dwattr $C$DW$149, DW_AT_name("Ki")
    2250                      .dwattr $C$DW$149, DW_AT_TI_symbol_name("_Ki")
    2251                      .dwattr $C$DW$149, DW_AT_data_member_location[DW_OP_plus_uconst 0xe]
    2252                      .dwattr $C$DW$149, DW_AT_accessibility(DW_ACCESS_public)
    2253              
TMS320C2000 Assembler PC v20.2.1 Wed Nov 18 21:47:53 2020

Copyright (c) 1996-2018 Texas Instruments Incorporated
DmcProtection.asm                                                    PAGE   46

    2254              $C$DW$150       .dwtag  DW_TAG_member
    2255                      .dwattr $C$DW$150, DW_AT_type(*$C$DW$T$32)
    2256                      .dwattr $C$DW$150, DW_AT_name("Kerr")
    2257                      .dwattr $C$DW$150, DW_AT_TI_symbol_name("_Kerr")
    2258                      .dwattr $C$DW$150, DW_AT_data_member_location[DW_OP_plus_uconst 0x10]
    2259                      .dwattr $C$DW$150, DW_AT_accessibility(DW_ACCESS_public)
    2260              
    2261              $C$DW$151       .dwtag  DW_TAG_member
    2262                      .dwattr $C$DW$151, DW_AT_type(*$C$DW$T$32)
    2263                      .dwattr $C$DW$151, DW_AT_name("Kxerr")
    2264                      .dwattr $C$DW$151, DW_AT_TI_symbol_name("_Kxerr")
    2265                      .dwattr $C$DW$151, DW_AT_data_member_location[DW_OP_plus_uconst 0x12]
    2266                      .dwattr $C$DW$151, DW_AT_accessibility(DW_ACCESS_public)
    2267              
    2268              $C$DW$152       .dwtag  DW_TAG_member
    2269                      .dwattr $C$DW$152, DW_AT_type(*$C$DW$T$32)
    2270                      .dwattr $C$DW$152, DW_AT_name("KerrOld")
    2271                      .dwattr $C$DW$152, DW_AT_TI_symbol_name("_KerrOld")
    2272                      .dwattr $C$DW$152, DW_AT_data_member_location[DW_OP_plus_uconst 0x14]
    2273                      .dwattr $C$DW$152, DW_AT_accessibility(DW_ACCESS_public)
    2274              
    2275              $C$DW$153       .dwtag  DW_TAG_member
    2276                      .dwattr $C$DW$153, DW_AT_type(*$C$DW$T$32)
    2277                      .dwattr $C$DW$153, DW_AT_name("cosWTs")
    2278                      .dwattr $C$DW$153, DW_AT_TI_symbol_name("_cosWTs")
    2279                      .dwattr $C$DW$153, DW_AT_data_member_location[DW_OP_plus_uconst 0x16]
    2280                      .dwattr $C$DW$153, DW_AT_accessibility(DW_ACCESS_public)
    2281              
    2282              $C$DW$154       .dwtag  DW_TAG_member
    2283                      .dwattr $C$DW$154, DW_AT_type(*$C$DW$T$32)
    2284                      .dwattr $C$DW$154, DW_AT_name("sinWTs")
    2285                      .dwattr $C$DW$154, DW_AT_TI_symbol_name("_sinWTs")
    2286                      .dwattr $C$DW$154, DW_AT_data_member_location[DW_OP_plus_uconst 0x18]
    2287                      .dwattr $C$DW$154, DW_AT_accessibility(DW_ACCESS_public)
    2288              
    2289              $C$DW$155       .dwtag  DW_TAG_member
    2290                      .dwattr $C$DW$155, DW_AT_type(*$C$DW$T$32)
    2291                      .dwattr $C$DW$155, DW_AT_name("expVal")
    2292                      .dwattr $C$DW$155, DW_AT_TI_symbol_name("_expVal")
    2293                      .dwattr $C$DW$155, DW_AT_data_member_location[DW_OP_plus_uconst 0x1a]
    2294                      .dwattr $C$DW$155, DW_AT_accessibility(DW_ACCESS_public)
    2295              
    2296              $C$DW$156       .dwtag  DW_TAG_member
    2297                      .dwattr $C$DW$156, DW_AT_type(*$C$DW$T$32)
    2298                      .dwattr $C$DW$156, DW_AT_name("kDirect")
    2299                      .dwattr $C$DW$156, DW_AT_TI_symbol_name("_kDirect")
    2300                      .dwattr $C$DW$156, DW_AT_data_member_location[DW_OP_plus_uconst 0x1c]
    2301                      .dwattr $C$DW$156, DW_AT_accessibility(DW_ACCESS_public)
    2302              
    2303              $C$DW$157       .dwtag  DW_TAG_member
    2304                      .dwattr $C$DW$157, DW_AT_type(*$C$DW$T$32)
    2305                      .dwattr $C$DW$157, DW_AT_name("Umax")
    2306                      .dwattr $C$DW$157, DW_AT_TI_symbol_name("_Umax")
    2307                      .dwattr $C$DW$157, DW_AT_data_member_location[DW_OP_plus_uconst 0x1e]
    2308                      .dwattr $C$DW$157, DW_AT_accessibility(DW_ACCESS_public)
TMS320C2000 Assembler PC v20.2.1 Wed Nov 18 21:47:53 2020

Copyright (c) 1996-2018 Texas Instruments Incorporated
DmcProtection.asm                                                    PAGE   47

    2309              
    2310              $C$DW$158       .dwtag  DW_TAG_member
    2311                      .dwattr $C$DW$158, DW_AT_type(*$C$DW$T$32)
    2312                      .dwattr $C$DW$158, DW_AT_name("Umin")
    2313                      .dwattr $C$DW$158, DW_AT_TI_symbol_name("_Umin")
    2314                      .dwattr $C$DW$158, DW_AT_data_member_location[DW_OP_plus_uconst 0x20]
    2315                      .dwattr $C$DW$158, DW_AT_accessibility(DW_ACCESS_public)
    2316              
    2317                      .dwendtag $C$DW$T$33
    2318              
    2319              $C$DW$T$83      .dwtag  DW_TAG_typedef
    2320                      .dwattr $C$DW$T$83, DW_AT_name("CURRENT_CONTROLLER")
    2321                      .dwattr $C$DW$T$83, DW_AT_type(*$C$DW$T$33)
    2322                      .dwattr $C$DW$T$83, DW_AT_language(DW_LANG_C)
    2323              
    2324              
    2325              $C$DW$T$35      .dwtag  DW_TAG_structure_type
    2326                      .dwattr $C$DW$T$35, DW_AT_byte_size(0x12)
    2327              $C$DW$159       .dwtag  DW_TAG_member
    2328                      .dwattr $C$DW$159, DW_AT_type(*$C$DW$T$19)
    2329                      .dwattr $C$DW$159, DW_AT_name("Ualpha")
    2330                      .dwattr $C$DW$159, DW_AT_TI_symbol_name("_Ualpha")
    2331                      .dwattr $C$DW$159, DW_AT_data_member_location[DW_OP_plus_uconst 0x0]
    2332                      .dwattr $C$DW$159, DW_AT_accessibility(DW_ACCESS_public)
    2333              
    2334              $C$DW$160       .dwtag  DW_TAG_member
    2335                      .dwattr $C$DW$160, DW_AT_type(*$C$DW$T$19)
    2336                      .dwattr $C$DW$160, DW_AT_name("Ubeta")
    2337                      .dwattr $C$DW$160, DW_AT_TI_symbol_name("_Ubeta")
    2338                      .dwattr $C$DW$160, DW_AT_data_member_location[DW_OP_plus_uconst 0x2]
    2339                      .dwattr $C$DW$160, DW_AT_accessibility(DW_ACCESS_public)
    2340              
    2341              $C$DW$161       .dwtag  DW_TAG_member
    2342                      .dwattr $C$DW$161, DW_AT_type(*$C$DW$T$19)
    2343                      .dwattr $C$DW$161, DW_AT_name("Ta")
    2344                      .dwattr $C$DW$161, DW_AT_TI_symbol_name("_Ta")
    2345                      .dwattr $C$DW$161, DW_AT_data_member_location[DW_OP_plus_uconst 0x4]
    2346                      .dwattr $C$DW$161, DW_AT_accessibility(DW_ACCESS_public)
    2347              
    2348              $C$DW$162       .dwtag  DW_TAG_member
    2349                      .dwattr $C$DW$162, DW_AT_type(*$C$DW$T$19)
    2350                      .dwattr $C$DW$162, DW_AT_name("Tb")
    2351                      .dwattr $C$DW$162, DW_AT_TI_symbol_name("_Tb")
    2352                      .dwattr $C$DW$162, DW_AT_data_member_location[DW_OP_plus_uconst 0x6]
    2353                      .dwattr $C$DW$162, DW_AT_accessibility(DW_ACCESS_public)
    2354              
    2355              $C$DW$163       .dwtag  DW_TAG_member
    2356                      .dwattr $C$DW$163, DW_AT_type(*$C$DW$T$19)
    2357                      .dwattr $C$DW$163, DW_AT_name("Tc")
    2358                      .dwattr $C$DW$163, DW_AT_TI_symbol_name("_Tc")
    2359                      .dwattr $C$DW$163, DW_AT_data_member_location[DW_OP_plus_uconst 0x8]
    2360                      .dwattr $C$DW$163, DW_AT_accessibility(DW_ACCESS_public)
    2361              
    2362              $C$DW$164       .dwtag  DW_TAG_member
    2363                      .dwattr $C$DW$164, DW_AT_type(*$C$DW$T$19)
TMS320C2000 Assembler PC v20.2.1 Wed Nov 18 21:47:53 2020

Copyright (c) 1996-2018 Texas Instruments Incorporated
DmcProtection.asm                                                    PAGE   48

    2364                      .dwattr $C$DW$164, DW_AT_name("tmp1")
    2365                      .dwattr $C$DW$164, DW_AT_TI_symbol_name("_tmp1")
    2366                      .dwattr $C$DW$164, DW_AT_data_member_location[DW_OP_plus_uconst 0xa]
    2367                      .dwattr $C$DW$164, DW_AT_accessibility(DW_ACCESS_public)
    2368              
    2369              $C$DW$165       .dwtag  DW_TAG_member
    2370                      .dwattr $C$DW$165, DW_AT_type(*$C$DW$T$19)
    2371                      .dwattr $C$DW$165, DW_AT_name("tmp2")
    2372                      .dwattr $C$DW$165, DW_AT_TI_symbol_name("_tmp2")
    2373                      .dwattr $C$DW$165, DW_AT_data_member_location[DW_OP_plus_uconst 0xc]
    2374                      .dwattr $C$DW$165, DW_AT_accessibility(DW_ACCESS_public)
    2375              
    2376              $C$DW$166       .dwtag  DW_TAG_member
    2377                      .dwattr $C$DW$166, DW_AT_type(*$C$DW$T$19)
    2378                      .dwattr $C$DW$166, DW_AT_name("tmp3")
    2379                      .dwattr $C$DW$166, DW_AT_TI_symbol_name("_tmp3")
    2380                      .dwattr $C$DW$166, DW_AT_data_member_location[DW_OP_plus_uconst 0xe]
    2381                      .dwattr $C$DW$166, DW_AT_accessibility(DW_ACCESS_public)
    2382              
    2383              $C$DW$167       .dwtag  DW_TAG_member
    2384                      .dwattr $C$DW$167, DW_AT_type(*$C$DW$T$34)
    2385                      .dwattr $C$DW$167, DW_AT_name("VecSector")
    2386                      .dwattr $C$DW$167, DW_AT_TI_symbol_name("_VecSector")
    2387                      .dwattr $C$DW$167, DW_AT_data_member_location[DW_OP_plus_uconst 0x10]
    2388                      .dwattr $C$DW$167, DW_AT_accessibility(DW_ACCESS_public)
    2389              
    2390                      .dwendtag $C$DW$T$35
    2391              
    2392              $C$DW$T$85      .dwtag  DW_TAG_typedef
    2393                      .dwattr $C$DW$T$85, DW_AT_name("SVGEN")
    2394                      .dwattr $C$DW$T$85, DW_AT_type(*$C$DW$T$35)
    2395                      .dwattr $C$DW$T$85, DW_AT_language(DW_LANG_C)
    2396              
    2397              
    2398              $C$DW$T$37      .dwtag  DW_TAG_structure_type
    2399                      .dwattr $C$DW$T$37, DW_AT_byte_size(0x10)
    2400              $C$DW$168       .dwtag  DW_TAG_member
    2401                      .dwattr $C$DW$168, DW_AT_type(*$C$DW$T$19)
    2402                      .dwattr $C$DW$168, DW_AT_name("TargetValue")
    2403                      .dwattr $C$DW$168, DW_AT_TI_symbol_name("_TargetValue")
    2404                      .dwattr $C$DW$168, DW_AT_data_member_location[DW_OP_plus_uconst 0x0]
    2405                      .dwattr $C$DW$168, DW_AT_accessibility(DW_ACCESS_public)
    2406              
    2407              $C$DW$169       .dwtag  DW_TAG_member
    2408                      .dwattr $C$DW$169, DW_AT_type(*$C$DW$T$36)
    2409                      .dwattr $C$DW$169, DW_AT_name("RampDelayMax")
    2410                      .dwattr $C$DW$169, DW_AT_TI_symbol_name("_RampDelayMax")
    2411                      .dwattr $C$DW$169, DW_AT_data_member_location[DW_OP_plus_uconst 0x2]
    2412                      .dwattr $C$DW$169, DW_AT_accessibility(DW_ACCESS_public)
    2413              
    2414              $C$DW$170       .dwtag  DW_TAG_member
    2415                      .dwattr $C$DW$170, DW_AT_type(*$C$DW$T$19)
    2416                      .dwattr $C$DW$170, DW_AT_name("RampLowLimit")
    2417                      .dwattr $C$DW$170, DW_AT_TI_symbol_name("_RampLowLimit")
    2418                      .dwattr $C$DW$170, DW_AT_data_member_location[DW_OP_plus_uconst 0x4]
TMS320C2000 Assembler PC v20.2.1 Wed Nov 18 21:47:53 2020

Copyright (c) 1996-2018 Texas Instruments Incorporated
DmcProtection.asm                                                    PAGE   49

    2419                      .dwattr $C$DW$170, DW_AT_accessibility(DW_ACCESS_public)
    2420              
    2421              $C$DW$171       .dwtag  DW_TAG_member
    2422                      .dwattr $C$DW$171, DW_AT_type(*$C$DW$T$19)
    2423                      .dwattr $C$DW$171, DW_AT_name("RampHighLimit")
    2424                      .dwattr $C$DW$171, DW_AT_TI_symbol_name("_RampHighLimit")
    2425                      .dwattr $C$DW$171, DW_AT_data_member_location[DW_OP_plus_uconst 0x6]
    2426                      .dwattr $C$DW$171, DW_AT_accessibility(DW_ACCESS_public)
    2427              
    2428              $C$DW$172       .dwtag  DW_TAG_member
    2429                      .dwattr $C$DW$172, DW_AT_type(*$C$DW$T$36)
    2430                      .dwattr $C$DW$172, DW_AT_name("RampDelayCount")
    2431                      .dwattr $C$DW$172, DW_AT_TI_symbol_name("_RampDelayCount")
    2432                      .dwattr $C$DW$172, DW_AT_data_member_location[DW_OP_plus_uconst 0x8]
    2433                      .dwattr $C$DW$172, DW_AT_accessibility(DW_ACCESS_public)
    2434              
    2435              $C$DW$173       .dwtag  DW_TAG_member
    2436                      .dwattr $C$DW$173, DW_AT_type(*$C$DW$T$19)
    2437                      .dwattr $C$DW$173, DW_AT_name("SetpointValue")
    2438                      .dwattr $C$DW$173, DW_AT_TI_symbol_name("_SetpointValue")
    2439                      .dwattr $C$DW$173, DW_AT_data_member_location[DW_OP_plus_uconst 0xa]
    2440                      .dwattr $C$DW$173, DW_AT_accessibility(DW_ACCESS_public)
    2441              
    2442              $C$DW$174       .dwtag  DW_TAG_member
    2443                      .dwattr $C$DW$174, DW_AT_type(*$C$DW$T$36)
    2444                      .dwattr $C$DW$174, DW_AT_name("EqualFlag")
    2445                      .dwattr $C$DW$174, DW_AT_TI_symbol_name("_EqualFlag")
    2446                      .dwattr $C$DW$174, DW_AT_data_member_location[DW_OP_plus_uconst 0xc]
    2447                      .dwattr $C$DW$174, DW_AT_accessibility(DW_ACCESS_public)
    2448              
    2449              $C$DW$175       .dwtag  DW_TAG_member
    2450                      .dwattr $C$DW$175, DW_AT_type(*$C$DW$T$19)
    2451                      .dwattr $C$DW$175, DW_AT_name("Tmp")
    2452                      .dwattr $C$DW$175, DW_AT_TI_symbol_name("_Tmp")
    2453                      .dwattr $C$DW$175, DW_AT_data_member_location[DW_OP_plus_uconst 0xe]
    2454                      .dwattr $C$DW$175, DW_AT_accessibility(DW_ACCESS_public)
    2455              
    2456                      .dwendtag $C$DW$T$37
    2457              
    2458              $C$DW$T$86      .dwtag  DW_TAG_typedef
    2459                      .dwattr $C$DW$T$86, DW_AT_name("RMPCNTL")
    2460                      .dwattr $C$DW$T$86, DW_AT_type(*$C$DW$T$37)
    2461                      .dwattr $C$DW$T$86, DW_AT_language(DW_LANG_C)
    2462              
    2463              
    2464              $C$DW$T$38      .dwtag  DW_TAG_structure_type
    2465                      .dwattr $C$DW$T$38, DW_AT_byte_size(0x0c)
    2466              $C$DW$176       .dwtag  DW_TAG_member
    2467                      .dwattr $C$DW$176, DW_AT_type(*$C$DW$T$19)
    2468                      .dwattr $C$DW$176, DW_AT_name("Freq")
    2469                      .dwattr $C$DW$176, DW_AT_TI_symbol_name("_Freq")
    2470                      .dwattr $C$DW$176, DW_AT_data_member_location[DW_OP_plus_uconst 0x0]
    2471                      .dwattr $C$DW$176, DW_AT_accessibility(DW_ACCESS_public)
    2472              
    2473              $C$DW$177       .dwtag  DW_TAG_member
TMS320C2000 Assembler PC v20.2.1 Wed Nov 18 21:47:53 2020

Copyright (c) 1996-2018 Texas Instruments Incorporated
DmcProtection.asm                                                    PAGE   50

    2474                      .dwattr $C$DW$177, DW_AT_type(*$C$DW$T$19)
    2475                      .dwattr $C$DW$177, DW_AT_name("StepAngleMax")
    2476                      .dwattr $C$DW$177, DW_AT_TI_symbol_name("_StepAngleMax")
    2477                      .dwattr $C$DW$177, DW_AT_data_member_location[DW_OP_plus_uconst 0x2]
    2478                      .dwattr $C$DW$177, DW_AT_accessibility(DW_ACCESS_public)
    2479              
    2480              $C$DW$178       .dwtag  DW_TAG_member
    2481                      .dwattr $C$DW$178, DW_AT_type(*$C$DW$T$19)
    2482                      .dwattr $C$DW$178, DW_AT_name("Angle")
    2483                      .dwattr $C$DW$178, DW_AT_TI_symbol_name("_Angle")
    2484                      .dwattr $C$DW$178, DW_AT_data_member_location[DW_OP_plus_uconst 0x4]
    2485                      .dwattr $C$DW$178, DW_AT_accessibility(DW_ACCESS_public)
    2486              
    2487              $C$DW$179       .dwtag  DW_TAG_member
    2488                      .dwattr $C$DW$179, DW_AT_type(*$C$DW$T$19)
    2489                      .dwattr $C$DW$179, DW_AT_name("Gain")
    2490                      .dwattr $C$DW$179, DW_AT_TI_symbol_name("_Gain")
    2491                      .dwattr $C$DW$179, DW_AT_data_member_location[DW_OP_plus_uconst 0x6]
    2492                      .dwattr $C$DW$179, DW_AT_accessibility(DW_ACCESS_public)
    2493              
    2494              $C$DW$180       .dwtag  DW_TAG_member
    2495                      .dwattr $C$DW$180, DW_AT_type(*$C$DW$T$19)
    2496                      .dwattr $C$DW$180, DW_AT_name("Out")
    2497                      .dwattr $C$DW$180, DW_AT_TI_symbol_name("_Out")
    2498                      .dwattr $C$DW$180, DW_AT_data_member_location[DW_OP_plus_uconst 0x8]
    2499                      .dwattr $C$DW$180, DW_AT_accessibility(DW_ACCESS_public)
    2500              
    2501              $C$DW$181       .dwtag  DW_TAG_member
    2502                      .dwattr $C$DW$181, DW_AT_type(*$C$DW$T$19)
    2503                      .dwattr $C$DW$181, DW_AT_name("Offset")
    2504                      .dwattr $C$DW$181, DW_AT_TI_symbol_name("_Offset")
    2505                      .dwattr $C$DW$181, DW_AT_data_member_location[DW_OP_plus_uconst 0xa]
    2506                      .dwattr $C$DW$181, DW_AT_accessibility(DW_ACCESS_public)
    2507              
    2508                      .dwendtag $C$DW$T$38
    2509              
    2510              $C$DW$T$87      .dwtag  DW_TAG_typedef
    2511                      .dwattr $C$DW$T$87, DW_AT_name("RAMPGEN")
    2512                      .dwattr $C$DW$T$87, DW_AT_type(*$C$DW$T$38)
    2513                      .dwattr $C$DW$T$87, DW_AT_language(DW_LANG_C)
    2514              
    2515              
    2516              $C$DW$T$39      .dwtag  DW_TAG_structure_type
    2517                      .dwattr $C$DW$T$39, DW_AT_byte_size(0x16)
    2518              $C$DW$182       .dwtag  DW_TAG_member
    2519                      .dwattr $C$DW$182, DW_AT_type(*$C$DW$T$19)
    2520                      .dwattr $C$DW$182, DW_AT_name("DcBusVolt")
    2521                      .dwattr $C$DW$182, DW_AT_TI_symbol_name("_DcBusVolt")
    2522                      .dwattr $C$DW$182, DW_AT_data_member_location[DW_OP_plus_uconst 0x0]
    2523                      .dwattr $C$DW$182, DW_AT_accessibility(DW_ACCESS_public)
    2524              
    2525              $C$DW$183       .dwtag  DW_TAG_member
    2526                      .dwattr $C$DW$183, DW_AT_type(*$C$DW$T$19)
    2527                      .dwattr $C$DW$183, DW_AT_name("MfuncV1")
    2528                      .dwattr $C$DW$183, DW_AT_TI_symbol_name("_MfuncV1")
TMS320C2000 Assembler PC v20.2.1 Wed Nov 18 21:47:53 2020

Copyright (c) 1996-2018 Texas Instruments Incorporated
DmcProtection.asm                                                    PAGE   51

    2529                      .dwattr $C$DW$183, DW_AT_data_member_location[DW_OP_plus_uconst 0x2]
    2530                      .dwattr $C$DW$183, DW_AT_accessibility(DW_ACCESS_public)
    2531              
    2532              $C$DW$184       .dwtag  DW_TAG_member
    2533                      .dwattr $C$DW$184, DW_AT_type(*$C$DW$T$19)
    2534                      .dwattr $C$DW$184, DW_AT_name("MfuncV2")
    2535                      .dwattr $C$DW$184, DW_AT_TI_symbol_name("_MfuncV2")
    2536                      .dwattr $C$DW$184, DW_AT_data_member_location[DW_OP_plus_uconst 0x4]
    2537                      .dwattr $C$DW$184, DW_AT_accessibility(DW_ACCESS_public)
    2538              
    2539              $C$DW$185       .dwtag  DW_TAG_member
    2540                      .dwattr $C$DW$185, DW_AT_type(*$C$DW$T$19)
    2541                      .dwattr $C$DW$185, DW_AT_name("MfuncV3")
    2542                      .dwattr $C$DW$185, DW_AT_TI_symbol_name("_MfuncV3")
    2543                      .dwattr $C$DW$185, DW_AT_data_member_location[DW_OP_plus_uconst 0x6]
    2544                      .dwattr $C$DW$185, DW_AT_accessibility(DW_ACCESS_public)
    2545              
    2546              $C$DW$186       .dwtag  DW_TAG_member
    2547                      .dwattr $C$DW$186, DW_AT_type(*$C$DW$T$34)
    2548                      .dwattr $C$DW$186, DW_AT_name("OutOfPhase")
    2549                      .dwattr $C$DW$186, DW_AT_TI_symbol_name("_OutOfPhase")
    2550                      .dwattr $C$DW$186, DW_AT_data_member_location[DW_OP_plus_uconst 0x8]
    2551                      .dwattr $C$DW$186, DW_AT_accessibility(DW_ACCESS_public)
    2552              
    2553              $C$DW$187       .dwtag  DW_TAG_member
    2554                      .dwattr $C$DW$187, DW_AT_type(*$C$DW$T$19)
    2555                      .dwattr $C$DW$187, DW_AT_name("VphaseA")
    2556                      .dwattr $C$DW$187, DW_AT_TI_symbol_name("_VphaseA")
    2557                      .dwattr $C$DW$187, DW_AT_data_member_location[DW_OP_plus_uconst 0xa]
    2558                      .dwattr $C$DW$187, DW_AT_accessibility(DW_ACCESS_public)
    2559              
    2560              $C$DW$188       .dwtag  DW_TAG_member
    2561                      .dwattr $C$DW$188, DW_AT_type(*$C$DW$T$19)
    2562                      .dwattr $C$DW$188, DW_AT_name("VphaseB")
    2563                      .dwattr $C$DW$188, DW_AT_TI_symbol_name("_VphaseB")
    2564                      .dwattr $C$DW$188, DW_AT_data_member_location[DW_OP_plus_uconst 0xc]
    2565                      .dwattr $C$DW$188, DW_AT_accessibility(DW_ACCESS_public)
    2566              
    2567              $C$DW$189       .dwtag  DW_TAG_member
    2568                      .dwattr $C$DW$189, DW_AT_type(*$C$DW$T$19)
    2569                      .dwattr $C$DW$189, DW_AT_name("VphaseC")
    2570                      .dwattr $C$DW$189, DW_AT_TI_symbol_name("_VphaseC")
    2571                      .dwattr $C$DW$189, DW_AT_data_member_location[DW_OP_plus_uconst 0xe]
    2572                      .dwattr $C$DW$189, DW_AT_accessibility(DW_ACCESS_public)
    2573              
    2574              $C$DW$190       .dwtag  DW_TAG_member
    2575                      .dwattr $C$DW$190, DW_AT_type(*$C$DW$T$19)
    2576                      .dwattr $C$DW$190, DW_AT_name("Valpha")
    2577                      .dwattr $C$DW$190, DW_AT_TI_symbol_name("_Valpha")
    2578                      .dwattr $C$DW$190, DW_AT_data_member_location[DW_OP_plus_uconst 0x10]
    2579                      .dwattr $C$DW$190, DW_AT_accessibility(DW_ACCESS_public)
    2580              
    2581              $C$DW$191       .dwtag  DW_TAG_member
    2582                      .dwattr $C$DW$191, DW_AT_type(*$C$DW$T$19)
    2583                      .dwattr $C$DW$191, DW_AT_name("Vbeta")
TMS320C2000 Assembler PC v20.2.1 Wed Nov 18 21:47:53 2020

Copyright (c) 1996-2018 Texas Instruments Incorporated
DmcProtection.asm                                                    PAGE   52

    2584                      .dwattr $C$DW$191, DW_AT_TI_symbol_name("_Vbeta")
    2585                      .dwattr $C$DW$191, DW_AT_data_member_location[DW_OP_plus_uconst 0x12]
    2586                      .dwattr $C$DW$191, DW_AT_accessibility(DW_ACCESS_public)
    2587              
    2588              $C$DW$192       .dwtag  DW_TAG_member
    2589                      .dwattr $C$DW$192, DW_AT_type(*$C$DW$T$19)
    2590                      .dwattr $C$DW$192, DW_AT_name("temp")
    2591                      .dwattr $C$DW$192, DW_AT_TI_symbol_name("_temp")
    2592                      .dwattr $C$DW$192, DW_AT_data_member_location[DW_OP_plus_uconst 0x14]
    2593                      .dwattr $C$DW$192, DW_AT_accessibility(DW_ACCESS_public)
    2594              
    2595                      .dwendtag $C$DW$T$39
    2596              
    2597              $C$DW$T$88      .dwtag  DW_TAG_typedef
    2598                      .dwattr $C$DW$T$88, DW_AT_name("PHASEVOLTAGE")
    2599                      .dwattr $C$DW$T$88, DW_AT_type(*$C$DW$T$39)
    2600                      .dwattr $C$DW$T$88, DW_AT_language(DW_LANG_C)
    2601              
    2602              
    2603              $C$DW$T$42      .dwtag  DW_TAG_structure_type
    2604                      .dwattr $C$DW$T$42, DW_AT_byte_size(0x14)
    2605              $C$DW$193       .dwtag  DW_TAG_member
    2606                      .dwattr $C$DW$193, DW_AT_type(*$C$DW$T$19)
    2607                      .dwattr $C$DW$193, DW_AT_name("ElecTheta")
    2608                      .dwattr $C$DW$193, DW_AT_TI_symbol_name("_ElecTheta")
    2609                      .dwattr $C$DW$193, DW_AT_data_member_location[DW_OP_plus_uconst 0x0]
    2610                      .dwattr $C$DW$193, DW_AT_accessibility(DW_ACCESS_public)
    2611              
    2612              $C$DW$194       .dwtag  DW_TAG_member
    2613                      .dwattr $C$DW$194, DW_AT_type(*$C$DW$T$36)
    2614                      .dwattr $C$DW$194, DW_AT_name("DirectionQep")
    2615                      .dwattr $C$DW$194, DW_AT_TI_symbol_name("_DirectionQep")
    2616                      .dwattr $C$DW$194, DW_AT_data_member_location[DW_OP_plus_uconst 0x2]
    2617                      .dwattr $C$DW$194, DW_AT_accessibility(DW_ACCESS_public)
    2618              
    2619              $C$DW$195       .dwtag  DW_TAG_member
    2620                      .dwattr $C$DW$195, DW_AT_type(*$C$DW$T$19)
    2621                      .dwattr $C$DW$195, DW_AT_name("OldElecTheta")
    2622                      .dwattr $C$DW$195, DW_AT_TI_symbol_name("_OldElecTheta")
    2623                      .dwattr $C$DW$195, DW_AT_data_member_location[DW_OP_plus_uconst 0x4]
    2624                      .dwattr $C$DW$195, DW_AT_accessibility(DW_ACCESS_public)
    2625              
    2626              $C$DW$196       .dwtag  DW_TAG_member
    2627                      .dwattr $C$DW$196, DW_AT_type(*$C$DW$T$19)
    2628                      .dwattr $C$DW$196, DW_AT_name("Speed")
    2629                      .dwattr $C$DW$196, DW_AT_TI_symbol_name("_Speed")
    2630                      .dwattr $C$DW$196, DW_AT_data_member_location[DW_OP_plus_uconst 0x6]
    2631                      .dwattr $C$DW$196, DW_AT_accessibility(DW_ACCESS_public)
    2632              
    2633              $C$DW$197       .dwtag  DW_TAG_member
    2634                      .dwattr $C$DW$197, DW_AT_type(*$C$DW$T$36)
    2635                      .dwattr $C$DW$197, DW_AT_name("BaseRpm")
    2636                      .dwattr $C$DW$197, DW_AT_TI_symbol_name("_BaseRpm")
    2637                      .dwattr $C$DW$197, DW_AT_data_member_location[DW_OP_plus_uconst 0x8]
    2638                      .dwattr $C$DW$197, DW_AT_accessibility(DW_ACCESS_public)
TMS320C2000 Assembler PC v20.2.1 Wed Nov 18 21:47:53 2020

Copyright (c) 1996-2018 Texas Instruments Incorporated
DmcProtection.asm                                                    PAGE   53

    2639              
    2640              $C$DW$198       .dwtag  DW_TAG_member
    2641                      .dwattr $C$DW$198, DW_AT_type(*$C$DW$T$40)
    2642                      .dwattr $C$DW$198, DW_AT_name("K1")
    2643                      .dwattr $C$DW$198, DW_AT_TI_symbol_name("_K1")
    2644                      .dwattr $C$DW$198, DW_AT_data_member_location[DW_OP_plus_uconst 0xa]
    2645                      .dwattr $C$DW$198, DW_AT_accessibility(DW_ACCESS_public)
    2646              
    2647              $C$DW$199       .dwtag  DW_TAG_member
    2648                      .dwattr $C$DW$199, DW_AT_type(*$C$DW$T$19)
    2649                      .dwattr $C$DW$199, DW_AT_name("K2")
    2650                      .dwattr $C$DW$199, DW_AT_TI_symbol_name("_K2")
    2651                      .dwattr $C$DW$199, DW_AT_data_member_location[DW_OP_plus_uconst 0xc]
    2652                      .dwattr $C$DW$199, DW_AT_accessibility(DW_ACCESS_public)
    2653              
    2654              $C$DW$200       .dwtag  DW_TAG_member
    2655                      .dwattr $C$DW$200, DW_AT_type(*$C$DW$T$19)
    2656                      .dwattr $C$DW$200, DW_AT_name("K3")
    2657                      .dwattr $C$DW$200, DW_AT_TI_symbol_name("_K3")
    2658                      .dwattr $C$DW$200, DW_AT_data_member_location[DW_OP_plus_uconst 0xe]
    2659                      .dwattr $C$DW$200, DW_AT_accessibility(DW_ACCESS_public)
    2660              
    2661              $C$DW$201       .dwtag  DW_TAG_member
    2662                      .dwattr $C$DW$201, DW_AT_type(*$C$DW$T$41)
    2663                      .dwattr $C$DW$201, DW_AT_name("SpeedRpm")
    2664                      .dwattr $C$DW$201, DW_AT_TI_symbol_name("_SpeedRpm")
    2665                      .dwattr $C$DW$201, DW_AT_data_member_location[DW_OP_plus_uconst 0x10]
    2666                      .dwattr $C$DW$201, DW_AT_accessibility(DW_ACCESS_public)
    2667              
    2668              $C$DW$202       .dwtag  DW_TAG_member
    2669                      .dwattr $C$DW$202, DW_AT_type(*$C$DW$T$19)
    2670                      .dwattr $C$DW$202, DW_AT_name("Tmp")
    2671                      .dwattr $C$DW$202, DW_AT_TI_symbol_name("_Tmp")
    2672                      .dwattr $C$DW$202, DW_AT_data_member_location[DW_OP_plus_uconst 0x12]
    2673                      .dwattr $C$DW$202, DW_AT_accessibility(DW_ACCESS_public)
    2674              
    2675                      .dwendtag $C$DW$T$42
    2676              
    2677              $C$DW$T$89      .dwtag  DW_TAG_typedef
    2678                      .dwattr $C$DW$T$89, DW_AT_name("SPEED_MEAS_QEP")
    2679                      .dwattr $C$DW$T$89, DW_AT_type(*$C$DW$T$42)
    2680                      .dwattr $C$DW$T$89, DW_AT_language(DW_LANG_C)
    2681              
    2682              
    2683              $C$DW$T$43      .dwtag  DW_TAG_structure_type
    2684                      .dwattr $C$DW$T$43, DW_AT_byte_size(0x12)
    2685              $C$DW$203       .dwtag  DW_TAG_member
    2686                      .dwattr $C$DW$203, DW_AT_type(*$C$DW$T$32)
    2687                      .dwattr $C$DW$203, DW_AT_name("ElecTheta")
    2688                      .dwattr $C$DW$203, DW_AT_TI_symbol_name("_ElecTheta")
    2689                      .dwattr $C$DW$203, DW_AT_data_member_location[DW_OP_plus_uconst 0x0]
    2690                      .dwattr $C$DW$203, DW_AT_accessibility(DW_ACCESS_public)
    2691              
    2692              $C$DW$204       .dwtag  DW_TAG_member
    2693                      .dwattr $C$DW$204, DW_AT_type(*$C$DW$T$32)
TMS320C2000 Assembler PC v20.2.1 Wed Nov 18 21:47:53 2020

Copyright (c) 1996-2018 Texas Instruments Incorporated
DmcProtection.asm                                                    PAGE   54

    2694                      .dwattr $C$DW$204, DW_AT_name("MechTheta")
    2695                      .dwattr $C$DW$204, DW_AT_TI_symbol_name("_MechTheta")
    2696                      .dwattr $C$DW$204, DW_AT_data_member_location[DW_OP_plus_uconst 0x2]
    2697                      .dwattr $C$DW$204, DW_AT_accessibility(DW_ACCESS_public)
    2698              
    2699              $C$DW$205       .dwtag  DW_TAG_member
    2700                      .dwattr $C$DW$205, DW_AT_type(*$C$DW$T$34)
    2701                      .dwattr $C$DW$205, DW_AT_name("DirectionQep")
    2702                      .dwattr $C$DW$205, DW_AT_TI_symbol_name("_DirectionQep")
    2703                      .dwattr $C$DW$205, DW_AT_data_member_location[DW_OP_plus_uconst 0x4]
    2704                      .dwattr $C$DW$205, DW_AT_accessibility(DW_ACCESS_public)
    2705              
    2706              $C$DW$206       .dwtag  DW_TAG_member
    2707                      .dwattr $C$DW$206, DW_AT_type(*$C$DW$T$34)
    2708                      .dwattr $C$DW$206, DW_AT_name("QepPeriod")
    2709                      .dwattr $C$DW$206, DW_AT_TI_symbol_name("_QepPeriod")
    2710                      .dwattr $C$DW$206, DW_AT_data_member_location[DW_OP_plus_uconst 0x5]
    2711                      .dwattr $C$DW$206, DW_AT_accessibility(DW_ACCESS_public)
    2712              
    2713              $C$DW$207       .dwtag  DW_TAG_member
    2714                      .dwattr $C$DW$207, DW_AT_type(*$C$DW$T$36)
    2715                      .dwattr $C$DW$207, DW_AT_name("QepCountIndex")
    2716                      .dwattr $C$DW$207, DW_AT_TI_symbol_name("_QepCountIndex")
    2717                      .dwattr $C$DW$207, DW_AT_data_member_location[DW_OP_plus_uconst 0x6]
    2718                      .dwattr $C$DW$207, DW_AT_accessibility(DW_ACCESS_public)
    2719              
    2720              $C$DW$208       .dwtag  DW_TAG_member
    2721                      .dwattr $C$DW$208, DW_AT_type(*$C$DW$T$41)
    2722                      .dwattr $C$DW$208, DW_AT_name("RawTheta")
    2723                      .dwattr $C$DW$208, DW_AT_TI_symbol_name("_RawTheta")
    2724                      .dwattr $C$DW$208, DW_AT_data_member_location[DW_OP_plus_uconst 0x8]
    2725                      .dwattr $C$DW$208, DW_AT_accessibility(DW_ACCESS_public)
    2726              
    2727              $C$DW$209       .dwtag  DW_TAG_member
    2728                      .dwattr $C$DW$209, DW_AT_type(*$C$DW$T$32)
    2729                      .dwattr $C$DW$209, DW_AT_name("MechScaler")
    2730                      .dwattr $C$DW$209, DW_AT_TI_symbol_name("_MechScaler")
    2731                      .dwattr $C$DW$209, DW_AT_data_member_location[DW_OP_plus_uconst 0xa]
    2732                      .dwattr $C$DW$209, DW_AT_accessibility(DW_ACCESS_public)
    2733              
    2734              $C$DW$210       .dwtag  DW_TAG_member
    2735                      .dwattr $C$DW$210, DW_AT_type(*$C$DW$T$34)
    2736                      .dwattr $C$DW$210, DW_AT_name("LineEncoder")
    2737                      .dwattr $C$DW$210, DW_AT_TI_symbol_name("_LineEncoder")
    2738                      .dwattr $C$DW$210, DW_AT_data_member_location[DW_OP_plus_uconst 0xc]
    2739                      .dwattr $C$DW$210, DW_AT_accessibility(DW_ACCESS_public)
    2740              
    2741              $C$DW$211       .dwtag  DW_TAG_member
    2742                      .dwattr $C$DW$211, DW_AT_type(*$C$DW$T$34)
    2743                      .dwattr $C$DW$211, DW_AT_name("PolePairs")
    2744                      .dwattr $C$DW$211, DW_AT_TI_symbol_name("_PolePairs")
    2745                      .dwattr $C$DW$211, DW_AT_data_member_location[DW_OP_plus_uconst 0xd]
    2746                      .dwattr $C$DW$211, DW_AT_accessibility(DW_ACCESS_public)
    2747              
    2748              $C$DW$212       .dwtag  DW_TAG_member
TMS320C2000 Assembler PC v20.2.1 Wed Nov 18 21:47:53 2020

Copyright (c) 1996-2018 Texas Instruments Incorporated
DmcProtection.asm                                                    PAGE   55

    2749                      .dwattr $C$DW$212, DW_AT_type(*$C$DW$T$41)
    2750                      .dwattr $C$DW$212, DW_AT_name("CalibratedAngle")
    2751                      .dwattr $C$DW$212, DW_AT_TI_symbol_name("_CalibratedAngle")
    2752                      .dwattr $C$DW$212, DW_AT_data_member_location[DW_OP_plus_uconst 0xe]
    2753                      .dwattr $C$DW$212, DW_AT_accessibility(DW_ACCESS_public)
    2754              
    2755              $C$DW$213       .dwtag  DW_TAG_member
    2756                      .dwattr $C$DW$213, DW_AT_type(*$C$DW$T$34)
    2757                      .dwattr $C$DW$213, DW_AT_name("IndexSyncFlag")
    2758                      .dwattr $C$DW$213, DW_AT_TI_symbol_name("_IndexSyncFlag")
    2759                      .dwattr $C$DW$213, DW_AT_data_member_location[DW_OP_plus_uconst 0x10]
    2760                      .dwattr $C$DW$213, DW_AT_accessibility(DW_ACCESS_public)
    2761              
    2762                      .dwendtag $C$DW$T$43
    2763              
    2764              $C$DW$T$90      .dwtag  DW_TAG_typedef
    2765                      .dwattr $C$DW$T$90, DW_AT_name("QEP")
    2766                      .dwattr $C$DW$T$90, DW_AT_type(*$C$DW$T$43)
    2767                      .dwattr $C$DW$T$90, DW_AT_language(DW_LANG_C)
    2768              
    2769              
    2770              $C$DW$T$48      .dwtag  DW_TAG_structure_type
    2771                      .dwattr $C$DW$T$48, DW_AT_byte_size(0x07)
    2772              $C$DW$214       .dwtag  DW_TAG_member
    2773                      .dwattr $C$DW$214, DW_AT_type(*$C$DW$T$44)
    2774                      .dwattr $C$DW$214, DW_AT_name("stat_reg1")
    2775                      .dwattr $C$DW$214, DW_AT_TI_symbol_name("_stat_reg1")
    2776                      .dwattr $C$DW$214, DW_AT_data_member_location[DW_OP_plus_uconst 0x0]
    2777                      .dwattr $C$DW$214, DW_AT_accessibility(DW_ACCESS_public)
    2778              
    2779              $C$DW$215       .dwtag  DW_TAG_member
    2780                      .dwattr $C$DW$215, DW_AT_type(*$C$DW$T$45)
    2781                      .dwattr $C$DW$215, DW_AT_name("stat_reg2")
    2782                      .dwattr $C$DW$215, DW_AT_TI_symbol_name("_stat_reg2")
    2783                      .dwattr $C$DW$215, DW_AT_data_member_location[DW_OP_plus_uconst 0x1]
    2784                      .dwattr $C$DW$215, DW_AT_accessibility(DW_ACCESS_public)
    2785              
    2786              $C$DW$216       .dwtag  DW_TAG_member
    2787                      .dwattr $C$DW$216, DW_AT_type(*$C$DW$T$46)
    2788                      .dwattr $C$DW$216, DW_AT_name("cntrl_reg1")
    2789                      .dwattr $C$DW$216, DW_AT_TI_symbol_name("_cntrl_reg1")
    2790                      .dwattr $C$DW$216, DW_AT_data_member_location[DW_OP_plus_uconst 0x2]
    2791                      .dwattr $C$DW$216, DW_AT_accessibility(DW_ACCESS_public)
    2792              
    2793              $C$DW$217       .dwtag  DW_TAG_member
    2794                      .dwattr $C$DW$217, DW_AT_type(*$C$DW$T$47)
    2795                      .dwattr $C$DW$217, DW_AT_name("cntrl_reg2")
    2796                      .dwattr $C$DW$217, DW_AT_TI_symbol_name("_cntrl_reg2")
    2797                      .dwattr $C$DW$217, DW_AT_data_member_location[DW_OP_plus_uconst 0x3]
    2798                      .dwattr $C$DW$217, DW_AT_accessibility(DW_ACCESS_public)
    2799              
    2800              $C$DW$218       .dwtag  DW_TAG_member
    2801                      .dwattr $C$DW$218, DW_AT_type(*$C$DW$T$34)
    2802                      .dwattr $C$DW$218, DW_AT_name("readCntrl1")
    2803                      .dwattr $C$DW$218, DW_AT_TI_symbol_name("_readCntrl1")
TMS320C2000 Assembler PC v20.2.1 Wed Nov 18 21:47:53 2020

Copyright (c) 1996-2018 Texas Instruments Incorporated
DmcProtection.asm                                                    PAGE   56

    2804                      .dwattr $C$DW$218, DW_AT_data_member_location[DW_OP_plus_uconst 0x4]
    2805                      .dwattr $C$DW$218, DW_AT_accessibility(DW_ACCESS_public)
    2806              
    2807              $C$DW$219       .dwtag  DW_TAG_member
    2808                      .dwattr $C$DW$219, DW_AT_type(*$C$DW$T$34)
    2809                      .dwattr $C$DW$219, DW_AT_name("readCntrl2")
    2810                      .dwattr $C$DW$219, DW_AT_TI_symbol_name("_readCntrl2")
    2811                      .dwattr $C$DW$219, DW_AT_data_member_location[DW_OP_plus_uconst 0x5]
    2812                      .dwattr $C$DW$219, DW_AT_accessibility(DW_ACCESS_public)
    2813              
    2814              $C$DW$220       .dwtag  DW_TAG_member
    2815                      .dwattr $C$DW$220, DW_AT_type(*$C$DW$T$34)
    2816                      .dwattr $C$DW$220, DW_AT_name("DRV_fault")
    2817                      .dwattr $C$DW$220, DW_AT_TI_symbol_name("_DRV_fault")
    2818                      .dwattr $C$DW$220, DW_AT_data_member_location[DW_OP_plus_uconst 0x6]
    2819                      .dwattr $C$DW$220, DW_AT_accessibility(DW_ACCESS_public)
    2820              
    2821                      .dwendtag $C$DW$T$48
    2822              
    2823              $C$DW$T$91      .dwtag  DW_TAG_typedef
    2824                      .dwattr $C$DW$T$91, DW_AT_name("DRV8301_Vars")
    2825                      .dwattr $C$DW$T$91, DW_AT_type(*$C$DW$T$48)
    2826                      .dwattr $C$DW$T$91, DW_AT_language(DW_LANG_C)
    2827              
    2828              
    2829              $C$DW$T$60      .dwtag  DW_TAG_structure_type
    2830                      .dwattr $C$DW$T$60, DW_AT_byte_size(0x15)
    2831              $C$DW$221       .dwtag  DW_TAG_member
    2832                      .dwattr $C$DW$221, DW_AT_type(*$C$DW$T$34)
    2833                      .dwattr $C$DW$221, DW_AT_name("Rsvd0")
    2834                      .dwattr $C$DW$221, DW_AT_TI_symbol_name("_Rsvd0")
    2835                      .dwattr $C$DW$221, DW_AT_data_member_location[DW_OP_plus_uconst 0x0]
    2836                      .dwattr $C$DW$221, DW_AT_accessibility(DW_ACCESS_public)
    2837              
    2838              $C$DW$222       .dwtag  DW_TAG_member
    2839                      .dwattr $C$DW$222, DW_AT_type(*$C$DW$T$49)
    2840                      .dwattr $C$DW$222, DW_AT_name("status1_wwd")
    2841                      .dwattr $C$DW$222, DW_AT_TI_symbol_name("_status1_wwd")
    2842                      .dwattr $C$DW$222, DW_AT_data_member_location[DW_OP_plus_uconst 0x1]
    2843                      .dwattr $C$DW$222, DW_AT_accessibility(DW_ACCESS_public)
    2844              
    2845              $C$DW$223       .dwtag  DW_TAG_member
    2846                      .dwattr $C$DW$223, DW_AT_type(*$C$DW$T$50)
    2847                      .dwattr $C$DW$223, DW_AT_name("status2_ov_vds")
    2848                      .dwattr $C$DW$223, DW_AT_TI_symbol_name("_status2_ov_vds")
    2849                      .dwattr $C$DW$223, DW_AT_data_member_location[DW_OP_plus_uconst 0x2]
    2850                      .dwattr $C$DW$223, DW_AT_accessibility(DW_ACCESS_public)
    2851              
    2852              $C$DW$224       .dwtag  DW_TAG_member
    2853                      .dwattr $C$DW$224, DW_AT_type(*$C$DW$T$51)
    2854                      .dwattr $C$DW$224, DW_AT_name("status3_IC")
    2855                      .dwattr $C$DW$224, DW_AT_TI_symbol_name("_status3_IC")
    2856                      .dwattr $C$DW$224, DW_AT_data_member_location[DW_OP_plus_uconst 0x3]
    2857                      .dwattr $C$DW$224, DW_AT_accessibility(DW_ACCESS_public)
    2858              
TMS320C2000 Assembler PC v20.2.1 Wed Nov 18 21:47:53 2020

Copyright (c) 1996-2018 Texas Instruments Incorporated
DmcProtection.asm                                                    PAGE   57

    2859              $C$DW$225       .dwtag  DW_TAG_member
    2860                      .dwattr $C$DW$225, DW_AT_type(*$C$DW$T$52)
    2861                      .dwattr $C$DW$225, DW_AT_name("status4_gd_Vgs")
    2862                      .dwattr $C$DW$225, DW_AT_TI_symbol_name("_status4_gd_Vgs")
    2863                      .dwattr $C$DW$225, DW_AT_data_member_location[DW_OP_plus_uconst 0x4]
    2864                      .dwattr $C$DW$225, DW_AT_accessibility(DW_ACCESS_public)
    2865              
    2866              $C$DW$226       .dwtag  DW_TAG_member
    2867                      .dwattr $C$DW$226, DW_AT_type(*$C$DW$T$53)
    2868                      .dwattr $C$DW$226, DW_AT_name("cntrl5_hs_gd")
    2869                      .dwattr $C$DW$226, DW_AT_TI_symbol_name("_cntrl5_hs_gd")
    2870                      .dwattr $C$DW$226, DW_AT_data_member_location[DW_OP_plus_uconst 0x5]
    2871                      .dwattr $C$DW$226, DW_AT_accessibility(DW_ACCESS_public)
    2872              
    2873              $C$DW$227       .dwtag  DW_TAG_member
    2874                      .dwattr $C$DW$227, DW_AT_type(*$C$DW$T$54)
    2875                      .dwattr $C$DW$227, DW_AT_name("cntrl6_ls_gd")
    2876                      .dwattr $C$DW$227, DW_AT_TI_symbol_name("_cntrl6_ls_gd")
    2877                      .dwattr $C$DW$227, DW_AT_data_member_location[DW_OP_plus_uconst 0x6]
    2878                      .dwattr $C$DW$227, DW_AT_accessibility(DW_ACCESS_public)
    2879              
    2880              $C$DW$228       .dwtag  DW_TAG_member
    2881                      .dwattr $C$DW$228, DW_AT_type(*$C$DW$T$55)
    2882                      .dwattr $C$DW$228, DW_AT_name("cntrl7_gd")
    2883                      .dwattr $C$DW$228, DW_AT_TI_symbol_name("_cntrl7_gd")
    2884                      .dwattr $C$DW$228, DW_AT_data_member_location[DW_OP_plus_uconst 0x7]
    2885                      .dwattr $C$DW$228, DW_AT_accessibility(DW_ACCESS_public)
    2886              
    2887              $C$DW$229       .dwtag  DW_TAG_member
    2888                      .dwattr $C$DW$229, DW_AT_type(*$C$DW$T$34)
    2889                      .dwattr $C$DW$229, DW_AT_name("Rsvd8")
    2890                      .dwattr $C$DW$229, DW_AT_TI_symbol_name("_Rsvd8")
    2891                      .dwattr $C$DW$229, DW_AT_data_member_location[DW_OP_plus_uconst 0x8]
    2892                      .dwattr $C$DW$229, DW_AT_accessibility(DW_ACCESS_public)
    2893              
    2894              $C$DW$230       .dwtag  DW_TAG_member
    2895                      .dwattr $C$DW$230, DW_AT_type(*$C$DW$T$56)
    2896                      .dwattr $C$DW$230, DW_AT_name("cntrl9_IC_ops")
    2897                      .dwattr $C$DW$230, DW_AT_TI_symbol_name("_cntrl9_IC_ops")
    2898                      .dwattr $C$DW$230, DW_AT_data_member_location[DW_OP_plus_uconst 0x9]
    2899                      .dwattr $C$DW$230, DW_AT_accessibility(DW_ACCESS_public)
    2900              
    2901              $C$DW$231       .dwtag  DW_TAG_member
    2902                      .dwattr $C$DW$231, DW_AT_type(*$C$DW$T$57)
    2903                      .dwattr $C$DW$231, DW_AT_name("cntrlA_shunt_amp")
    2904                      .dwattr $C$DW$231, DW_AT_TI_symbol_name("_cntrlA_shunt_amp")
    2905                      .dwattr $C$DW$231, DW_AT_data_member_location[DW_OP_plus_uconst 0xa]
    2906                      .dwattr $C$DW$231, DW_AT_accessibility(DW_ACCESS_public)
    2907              
    2908              $C$DW$232       .dwtag  DW_TAG_member
    2909                      .dwattr $C$DW$232, DW_AT_type(*$C$DW$T$58)
    2910                      .dwattr $C$DW$232, DW_AT_name("cntrlB_Vreg")
    2911                      .dwattr $C$DW$232, DW_AT_TI_symbol_name("_cntrlB_Vreg")
    2912                      .dwattr $C$DW$232, DW_AT_data_member_location[DW_OP_plus_uconst 0xb]
    2913                      .dwattr $C$DW$232, DW_AT_accessibility(DW_ACCESS_public)
TMS320C2000 Assembler PC v20.2.1 Wed Nov 18 21:47:53 2020

Copyright (c) 1996-2018 Texas Instruments Incorporated
DmcProtection.asm                                                    PAGE   58

    2914              
    2915              $C$DW$233       .dwtag  DW_TAG_member
    2916                      .dwattr $C$DW$233, DW_AT_type(*$C$DW$T$59)
    2917                      .dwattr $C$DW$233, DW_AT_name("cntrlC_Vds_SNS")
    2918                      .dwattr $C$DW$233, DW_AT_TI_symbol_name("_cntrlC_Vds_SNS")
    2919                      .dwattr $C$DW$233, DW_AT_data_member_location[DW_OP_plus_uconst 0xc]
    2920                      .dwattr $C$DW$233, DW_AT_accessibility(DW_ACCESS_public)
    2921              
    2922              $C$DW$234       .dwtag  DW_TAG_member
    2923                      .dwattr $C$DW$234, DW_AT_type(*$C$DW$T$34)
    2924                      .dwattr $C$DW$234, DW_AT_name("readCntrl5")
    2925                      .dwattr $C$DW$234, DW_AT_TI_symbol_name("_readCntrl5")
    2926                      .dwattr $C$DW$234, DW_AT_data_member_location[DW_OP_plus_uconst 0xd]
    2927                      .dwattr $C$DW$234, DW_AT_accessibility(DW_ACCESS_public)
    2928              
    2929              $C$DW$235       .dwtag  DW_TAG_member
    2930                      .dwattr $C$DW$235, DW_AT_type(*$C$DW$T$34)
    2931                      .dwattr $C$DW$235, DW_AT_name("readCntrl6")
    2932                      .dwattr $C$DW$235, DW_AT_TI_symbol_name("_readCntrl6")
    2933                      .dwattr $C$DW$235, DW_AT_data_member_location[DW_OP_plus_uconst 0xe]
    2934                      .dwattr $C$DW$235, DW_AT_accessibility(DW_ACCESS_public)
    2935              
    2936              $C$DW$236       .dwtag  DW_TAG_member
    2937                      .dwattr $C$DW$236, DW_AT_type(*$C$DW$T$34)
    2938                      .dwattr $C$DW$236, DW_AT_name("readCntrl7")
    2939                      .dwattr $C$DW$236, DW_AT_TI_symbol_name("_readCntrl7")
    2940                      .dwattr $C$DW$236, DW_AT_data_member_location[DW_OP_plus_uconst 0xf]
    2941                      .dwattr $C$DW$236, DW_AT_accessibility(DW_ACCESS_public)
    2942              
    2943              $C$DW$237       .dwtag  DW_TAG_member
    2944                      .dwattr $C$DW$237, DW_AT_type(*$C$DW$T$34)
    2945                      .dwattr $C$DW$237, DW_AT_name("readCntrl9")
    2946                      .dwattr $C$DW$237, DW_AT_TI_symbol_name("_readCntrl9")
    2947                      .dwattr $C$DW$237, DW_AT_data_member_location[DW_OP_plus_uconst 0x10]
    2948                      .dwattr $C$DW$237, DW_AT_accessibility(DW_ACCESS_public)
    2949              
    2950              $C$DW$238       .dwtag  DW_TAG_member
    2951                      .dwattr $C$DW$238, DW_AT_type(*$C$DW$T$34)
    2952                      .dwattr $C$DW$238, DW_AT_name("readCntrlA")
    2953                      .dwattr $C$DW$238, DW_AT_TI_symbol_name("_readCntrlA")
    2954                      .dwattr $C$DW$238, DW_AT_data_member_location[DW_OP_plus_uconst 0x11]
    2955                      .dwattr $C$DW$238, DW_AT_accessibility(DW_ACCESS_public)
    2956              
    2957              $C$DW$239       .dwtag  DW_TAG_member
    2958                      .dwattr $C$DW$239, DW_AT_type(*$C$DW$T$34)
    2959                      .dwattr $C$DW$239, DW_AT_name("readCntrlB")
    2960                      .dwattr $C$DW$239, DW_AT_TI_symbol_name("_readCntrlB")
    2961                      .dwattr $C$DW$239, DW_AT_data_member_location[DW_OP_plus_uconst 0x12]
    2962                      .dwattr $C$DW$239, DW_AT_accessibility(DW_ACCESS_public)
    2963              
    2964              $C$DW$240       .dwtag  DW_TAG_member
    2965                      .dwattr $C$DW$240, DW_AT_type(*$C$DW$T$34)
    2966                      .dwattr $C$DW$240, DW_AT_name("readCntrlC")
    2967                      .dwattr $C$DW$240, DW_AT_TI_symbol_name("_readCntrlC")
    2968                      .dwattr $C$DW$240, DW_AT_data_member_location[DW_OP_plus_uconst 0x13]
TMS320C2000 Assembler PC v20.2.1 Wed Nov 18 21:47:53 2020

Copyright (c) 1996-2018 Texas Instruments Incorporated
DmcProtection.asm                                                    PAGE   59

    2969                      .dwattr $C$DW$240, DW_AT_accessibility(DW_ACCESS_public)
    2970              
    2971              $C$DW$241       .dwtag  DW_TAG_member
    2972                      .dwattr $C$DW$241, DW_AT_type(*$C$DW$T$34)
    2973                      .dwattr $C$DW$241, DW_AT_name("DRV_fault")
    2974                      .dwattr $C$DW$241, DW_AT_TI_symbol_name("_DRV_fault")
    2975                      .dwattr $C$DW$241, DW_AT_data_member_location[DW_OP_plus_uconst 0x14]
    2976                      .dwattr $C$DW$241, DW_AT_accessibility(DW_ACCESS_public)
    2977              
    2978                      .dwendtag $C$DW$T$60
    2979              
    2980              $C$DW$T$92      .dwtag  DW_TAG_typedef
    2981                      .dwattr $C$DW$T$92, DW_AT_name("DRV8305_Vars")
    2982                      .dwattr $C$DW$T$92, DW_AT_type(*$C$DW$T$60)
    2983                      .dwattr $C$DW$T$92, DW_AT_language(DW_LANG_C)
    2984              
    2985              
    2986              $C$DW$T$97      .dwtag  DW_TAG_structure_type
    2987                      .dwattr $C$DW$T$97, DW_AT_byte_size(0x1ce)
    2988              $C$DW$242       .dwtag  DW_TAG_member
    2989                      .dwattr $C$DW$242, DW_AT_type(*$C$DW$T$62)
    2990                      .dwattr $C$DW$242, DW_AT_name("PwmARegs")
    2991                      .dwattr $C$DW$242, DW_AT_TI_symbol_name("_PwmARegs")
    2992                      .dwattr $C$DW$242, DW_AT_data_member_location[DW_OP_plus_uconst 0x0]
    2993                      .dwattr $C$DW$242, DW_AT_accessibility(DW_ACCESS_public)
    2994              
    2995              $C$DW$243       .dwtag  DW_TAG_member
    2996                      .dwattr $C$DW$243, DW_AT_type(*$C$DW$T$62)
    2997                      .dwattr $C$DW$243, DW_AT_name("PwmBRegs")
    2998                      .dwattr $C$DW$243, DW_AT_TI_symbol_name("_PwmBRegs")
    2999                      .dwattr $C$DW$243, DW_AT_data_member_location[DW_OP_plus_uconst 0x2]
    3000                      .dwattr $C$DW$243, DW_AT_accessibility(DW_ACCESS_public)
    3001              
    3002              $C$DW$244       .dwtag  DW_TAG_member
    3003                      .dwattr $C$DW$244, DW_AT_type(*$C$DW$T$62)
    3004                      .dwattr $C$DW$244, DW_AT_name("PwmCRegs")
    3005                      .dwattr $C$DW$244, DW_AT_TI_symbol_name("_PwmCRegs")
    3006                      .dwattr $C$DW$244, DW_AT_data_member_location[DW_OP_plus_uconst 0x4]
    3007                      .dwattr $C$DW$244, DW_AT_accessibility(DW_ACCESS_public)
    3008              
    3009              $C$DW$245       .dwtag  DW_TAG_member
    3010                      .dwattr $C$DW$245, DW_AT_type(*$C$DW$T$64)
    3011                      .dwattr $C$DW$245, DW_AT_name("QepRegs")
    3012                      .dwattr $C$DW$245, DW_AT_TI_symbol_name("_QepRegs")
    3013                      .dwattr $C$DW$245, DW_AT_data_member_location[DW_OP_plus_uconst 0x6]
    3014                      .dwattr $C$DW$245, DW_AT_accessibility(DW_ACCESS_public)
    3015              
    3016              $C$DW$246       .dwtag  DW_TAG_member
    3017                      .dwattr $C$DW$246, DW_AT_type(*$C$DW$T$66)
    3018                      .dwattr $C$DW$246, DW_AT_name("SpiRegs")
    3019                      .dwattr $C$DW$246, DW_AT_TI_symbol_name("_SpiRegs")
    3020                      .dwattr $C$DW$246, DW_AT_data_member_location[DW_OP_plus_uconst 0x8]
    3021                      .dwattr $C$DW$246, DW_AT_accessibility(DW_ACCESS_public)
    3022              
    3023              $C$DW$247       .dwtag  DW_TAG_member
TMS320C2000 Assembler PC v20.2.1 Wed Nov 18 21:47:53 2020

Copyright (c) 1996-2018 Texas Instruments Incorporated
DmcProtection.asm                                                    PAGE   60

    3024                      .dwattr $C$DW$247, DW_AT_type(*$C$DW$T$68)
    3025                      .dwattr $C$DW$247, DW_AT_name("CmpssARegs")
    3026                      .dwattr $C$DW$247, DW_AT_TI_symbol_name("_CmpssARegs")
    3027                      .dwattr $C$DW$247, DW_AT_data_member_location[DW_OP_plus_uconst 0xa]
    3028                      .dwattr $C$DW$247, DW_AT_accessibility(DW_ACCESS_public)
    3029              
    3030              $C$DW$248       .dwtag  DW_TAG_member
    3031                      .dwattr $C$DW$248, DW_AT_type(*$C$DW$T$68)
    3032                      .dwattr $C$DW$248, DW_AT_name("CmpssBRegs")
    3033                      .dwattr $C$DW$248, DW_AT_TI_symbol_name("_CmpssBRegs")
    3034                      .dwattr $C$DW$248, DW_AT_data_member_location[DW_OP_plus_uconst 0xc]
    3035                      .dwattr $C$DW$248, DW_AT_accessibility(DW_ACCESS_public)
    3036              
    3037              $C$DW$249       .dwtag  DW_TAG_member
    3038                      .dwattr $C$DW$249, DW_AT_type(*$C$DW$T$68)
    3039                      .dwattr $C$DW$249, DW_AT_name("CmpssCRegs")
    3040                      .dwattr $C$DW$249, DW_AT_TI_symbol_name("_CmpssCRegs")
    3041                      .dwattr $C$DW$249, DW_AT_data_member_location[DW_OP_plus_uconst 0xe]
    3042                      .dwattr $C$DW$249, DW_AT_accessibility(DW_ACCESS_public)
    3043              
    3044              $C$DW$250       .dwtag  DW_TAG_member
    3045                      .dwattr $C$DW$250, DW_AT_type(*$C$DW$T$72)
    3046                      .dwattr $C$DW$250, DW_AT_name("CurA_PPBRESULT")
    3047                      .dwattr $C$DW$250, DW_AT_TI_symbol_name("_CurA_PPBRESULT")
    3048                      .dwattr $C$DW$250, DW_AT_data_member_location[DW_OP_plus_uconst 0x10]
    3049                      .dwattr $C$DW$250, DW_AT_accessibility(DW_ACCESS_public)
    3050              
    3051              $C$DW$251       .dwtag  DW_TAG_member
    3052                      .dwattr $C$DW$251, DW_AT_type(*$C$DW$T$72)
    3053                      .dwattr $C$DW$251, DW_AT_name("CurB_PPBRESULT")
    3054                      .dwattr $C$DW$251, DW_AT_TI_symbol_name("_CurB_PPBRESULT")
    3055                      .dwattr $C$DW$251, DW_AT_data_member_location[DW_OP_plus_uconst 0x12]
    3056                      .dwattr $C$DW$251, DW_AT_accessibility(DW_ACCESS_public)
    3057              
    3058              $C$DW$252       .dwtag  DW_TAG_member
    3059                      .dwattr $C$DW$252, DW_AT_type(*$C$DW$T$72)
    3060                      .dwattr $C$DW$252, DW_AT_name("CurC_PPBRESULT")
    3061                      .dwattr $C$DW$252, DW_AT_TI_symbol_name("_CurC_PPBRESULT")
    3062                      .dwattr $C$DW$252, DW_AT_data_member_location[DW_OP_plus_uconst 0x14]
    3063                      .dwattr $C$DW$252, DW_AT_accessibility(DW_ACCESS_public)
    3064              
    3065              $C$DW$253       .dwtag  DW_TAG_member
    3066                      .dwattr $C$DW$253, DW_AT_type(*$C$DW$T$76)
    3067                      .dwattr $C$DW$253, DW_AT_name("Vdc_AdcResult")
    3068                      .dwattr $C$DW$253, DW_AT_TI_symbol_name("_Vdc_AdcResult")
    3069                      .dwattr $C$DW$253, DW_AT_data_member_location[DW_OP_plus_uconst 0x16]
    3070                      .dwattr $C$DW$253, DW_AT_accessibility(DW_ACCESS_public)
    3071              
    3072              $C$DW$254       .dwtag  DW_TAG_member
    3073                      .dwattr $C$DW$254, DW_AT_type(*$C$DW$T$72)
    3074                      .dwattr $C$DW$254, DW_AT_name("pwmCompA")
    3075                      .dwattr $C$DW$254, DW_AT_TI_symbol_name("_pwmCompA")
    3076                      .dwattr $C$DW$254, DW_AT_data_member_location[DW_OP_plus_uconst 0x18]
    3077                      .dwattr $C$DW$254, DW_AT_accessibility(DW_ACCESS_public)
    3078              
TMS320C2000 Assembler PC v20.2.1 Wed Nov 18 21:47:53 2020

Copyright (c) 1996-2018 Texas Instruments Incorporated
DmcProtection.asm                                                    PAGE   61

    3079              $C$DW$255       .dwtag  DW_TAG_member
    3080                      .dwattr $C$DW$255, DW_AT_type(*$C$DW$T$72)
    3081                      .dwattr $C$DW$255, DW_AT_name("pwmCompB")
    3082                      .dwattr $C$DW$255, DW_AT_TI_symbol_name("_pwmCompB")
    3083                      .dwattr $C$DW$255, DW_AT_data_member_location[DW_OP_plus_uconst 0x1a]
    3084                      .dwattr $C$DW$255, DW_AT_accessibility(DW_ACCESS_public)
    3085              
    3086              $C$DW$256       .dwtag  DW_TAG_member
    3087                      .dwattr $C$DW$256, DW_AT_type(*$C$DW$T$72)
    3088                      .dwattr $C$DW$256, DW_AT_name("pwmCompC")
    3089                      .dwattr $C$DW$256, DW_AT_TI_symbol_name("_pwmCompC")
    3090                      .dwattr $C$DW$256, DW_AT_data_member_location[DW_OP_plus_uconst 0x1c]
    3091                      .dwattr $C$DW$256, DW_AT_accessibility(DW_ACCESS_public)
    3092              
    3093              $C$DW$257       .dwtag  DW_TAG_member
    3094                      .dwattr $C$DW$257, DW_AT_type(*$C$DW$T$77)
    3095                      .dwattr $C$DW$257, DW_AT_name("clarke")
    3096                      .dwattr $C$DW$257, DW_AT_TI_symbol_name("_clarke")
    3097                      .dwattr $C$DW$257, DW_AT_data_member_location[DW_OP_plus_uconst 0x1e]
    3098                      .dwattr $C$DW$257, DW_AT_accessibility(DW_ACCESS_public)
    3099              
    3100              $C$DW$258       .dwtag  DW_TAG_member
    3101                      .dwattr $C$DW$258, DW_AT_type(*$C$DW$T$78)
    3102                      .dwattr $C$DW$258, DW_AT_name("park")
    3103                      .dwattr $C$DW$258, DW_AT_TI_symbol_name("_park")
    3104                      .dwattr $C$DW$258, DW_AT_data_member_location[DW_OP_plus_uconst 0x28]
    3105                      .dwattr $C$DW$258, DW_AT_accessibility(DW_ACCESS_public)
    3106              
    3107              $C$DW$259       .dwtag  DW_TAG_member
    3108                      .dwattr $C$DW$259, DW_AT_type(*$C$DW$T$79)
    3109                      .dwattr $C$DW$259, DW_AT_name("ipark")
    3110                      .dwattr $C$DW$259, DW_AT_TI_symbol_name("_ipark")
    3111                      .dwattr $C$DW$259, DW_AT_data_member_location[DW_OP_plus_uconst 0x36]
    3112                      .dwattr $C$DW$259, DW_AT_accessibility(DW_ACCESS_public)
    3113              
    3114              $C$DW$260       .dwtag  DW_TAG_member
    3115                      .dwattr $C$DW$260, DW_AT_type(*$C$DW$T$80)
    3116                      .dwattr $C$DW$260, DW_AT_name("pid_pos")
    3117                      .dwattr $C$DW$260, DW_AT_TI_symbol_name("_pid_pos")
    3118                      .dwattr $C$DW$260, DW_AT_data_member_location[DW_OP_plus_uconst 0x44]
    3119                      .dwattr $C$DW$260, DW_AT_accessibility(DW_ACCESS_public)
    3120              
    3121              $C$DW$261       .dwtag  DW_TAG_member
    3122                      .dwattr $C$DW$261, DW_AT_type(*$C$DW$T$81)
    3123                      .dwattr $C$DW$261, DW_AT_name("pi_pos")
    3124                      .dwattr $C$DW$261, DW_AT_TI_symbol_name("_pi_pos")
    3125                      .dwattr $C$DW$261, DW_AT_data_member_location[DW_OP_plus_uconst 0x64]
    3126                      .dwattr $C$DW$261, DW_AT_accessibility(DW_ACCESS_public)
    3127              
    3128              $C$DW$262       .dwtag  DW_TAG_member
    3129                      .dwattr $C$DW$262, DW_AT_type(*$C$DW$T$82)
    3130                      .dwattr $C$DW$262, DW_AT_name("pid_spd")
    3131                      .dwattr $C$DW$262, DW_AT_TI_symbol_name("_pid_spd")
    3132                      .dwattr $C$DW$262, DW_AT_data_member_location[DW_OP_plus_uconst 0x7c]
    3133                      .dwattr $C$DW$262, DW_AT_accessibility(DW_ACCESS_public)
TMS320C2000 Assembler PC v20.2.1 Wed Nov 18 21:47:53 2020

Copyright (c) 1996-2018 Texas Instruments Incorporated
DmcProtection.asm                                                    PAGE   62

    3134              
    3135              $C$DW$263       .dwtag  DW_TAG_member
    3136                      .dwattr $C$DW$263, DW_AT_type(*$C$DW$T$83)
    3137                      .dwattr $C$DW$263, DW_AT_name("cntlr_id")
    3138                      .dwattr $C$DW$263, DW_AT_TI_symbol_name("_cntlr_id")
    3139                      .dwattr $C$DW$263, DW_AT_data_member_location[DW_OP_plus_uconst 0xa4]
    3140                      .dwattr $C$DW$263, DW_AT_accessibility(DW_ACCESS_public)
    3141              
    3142              $C$DW$264       .dwtag  DW_TAG_member
    3143                      .dwattr $C$DW$264, DW_AT_type(*$C$DW$T$83)
    3144                      .dwattr $C$DW$264, DW_AT_name("cntlr_iq")
    3145                      .dwattr $C$DW$264, DW_AT_TI_symbol_name("_cntlr_iq")
    3146                      .dwattr $C$DW$264, DW_AT_data_member_location[DW_OP_plus_uconst 0xc6]
    3147                      .dwattr $C$DW$264, DW_AT_accessibility(DW_ACCESS_public)
    3148              
    3149              $C$DW$265       .dwtag  DW_TAG_member
    3150                      .dwattr $C$DW$265, DW_AT_type(*$C$DW$T$84)
    3151                      .dwattr $C$DW$265, DW_AT_name("FCL_Pars")
    3152                      .dwattr $C$DW$265, DW_AT_TI_symbol_name("_FCL_Pars")
    3153                      .dwattr $C$DW$265, DW_AT_data_member_location[DW_OP_plus_uconst 0xe8]
    3154                      .dwattr $C$DW$265, DW_AT_accessibility(DW_ACCESS_public)
    3155              
    3156              $C$DW$266       .dwtag  DW_TAG_member
    3157                      .dwattr $C$DW$266, DW_AT_type(*$C$DW$T$85)
    3158                      .dwattr $C$DW$266, DW_AT_name("svgen")
    3159                      .dwattr $C$DW$266, DW_AT_TI_symbol_name("_svgen")
    3160                      .dwattr $C$DW$266, DW_AT_data_member_location[DW_OP_plus_uconst 0x10a]
    3161                      .dwattr $C$DW$266, DW_AT_accessibility(DW_ACCESS_public)
    3162              
    3163              $C$DW$267       .dwtag  DW_TAG_member
    3164                      .dwattr $C$DW$267, DW_AT_type(*$C$DW$T$86)
    3165                      .dwattr $C$DW$267, DW_AT_name("rc")
    3166                      .dwattr $C$DW$267, DW_AT_TI_symbol_name("_rc")
    3167                      .dwattr $C$DW$267, DW_AT_data_member_location[DW_OP_plus_uconst 0x11c]
    3168                      .dwattr $C$DW$267, DW_AT_accessibility(DW_ACCESS_public)
    3169              
    3170              $C$DW$268       .dwtag  DW_TAG_member
    3171                      .dwattr $C$DW$268, DW_AT_type(*$C$DW$T$87)
    3172                      .dwattr $C$DW$268, DW_AT_name("rg")
    3173                      .dwattr $C$DW$268, DW_AT_TI_symbol_name("_rg")
    3174                      .dwattr $C$DW$268, DW_AT_data_member_location[DW_OP_plus_uconst 0x12c]
    3175                      .dwattr $C$DW$268, DW_AT_accessibility(DW_ACCESS_public)
    3176              
    3177              $C$DW$269       .dwtag  DW_TAG_member
    3178                      .dwattr $C$DW$269, DW_AT_type(*$C$DW$T$88)
    3179                      .dwattr $C$DW$269, DW_AT_name("volt")
    3180                      .dwattr $C$DW$269, DW_AT_TI_symbol_name("_volt")
    3181                      .dwattr $C$DW$269, DW_AT_data_member_location[DW_OP_plus_uconst 0x138]
    3182                      .dwattr $C$DW$269, DW_AT_accessibility(DW_ACCESS_public)
    3183              
    3184              $C$DW$270       .dwtag  DW_TAG_member
    3185                      .dwattr $C$DW$270, DW_AT_type(*$C$DW$T$89)
    3186                      .dwattr $C$DW$270, DW_AT_name("speed")
    3187                      .dwattr $C$DW$270, DW_AT_TI_symbol_name("_speed")
    3188                      .dwattr $C$DW$270, DW_AT_data_member_location[DW_OP_plus_uconst 0x14e]
TMS320C2000 Assembler PC v20.2.1 Wed Nov 18 21:47:53 2020

Copyright (c) 1996-2018 Texas Instruments Incorporated
DmcProtection.asm                                                    PAGE   63

    3189                      .dwattr $C$DW$270, DW_AT_accessibility(DW_ACCESS_public)
    3190              
    3191              $C$DW$271       .dwtag  DW_TAG_member
    3192                      .dwattr $C$DW$271, DW_AT_type(*$C$DW$T$90)
    3193                      .dwattr $C$DW$271, DW_AT_name("qep")
    3194                      .dwattr $C$DW$271, DW_AT_TI_symbol_name("_qep")
    3195                      .dwattr $C$DW$271, DW_AT_data_member_location[DW_OP_plus_uconst 0x162]
    3196                      .dwattr $C$DW$271, DW_AT_accessibility(DW_ACCESS_public)
    3197              
    3198              $C$DW$272       .dwtag  DW_TAG_member
    3199                      .dwattr $C$DW$272, DW_AT_type(*$C$DW$T$91)
    3200                      .dwattr $C$DW$272, DW_AT_name("drv8301")
    3201                      .dwattr $C$DW$272, DW_AT_TI_symbol_name("_drv8301")
    3202                      .dwattr $C$DW$272, DW_AT_data_member_location[DW_OP_plus_uconst 0x174]
    3203                      .dwattr $C$DW$272, DW_AT_accessibility(DW_ACCESS_public)
    3204              
    3205              $C$DW$273       .dwtag  DW_TAG_member
    3206                      .dwattr $C$DW$273, DW_AT_type(*$C$DW$T$92)
    3207                      .dwattr $C$DW$273, DW_AT_name("drv8305")
    3208                      .dwattr $C$DW$273, DW_AT_TI_symbol_name("_drv8305")
    3209                      .dwattr $C$DW$273, DW_AT_data_member_location[DW_OP_plus_uconst 0x17b]
    3210                      .dwattr $C$DW$273, DW_AT_accessibility(DW_ACCESS_public)
    3211              
    3212              $C$DW$274       .dwtag  DW_TAG_member
    3213                      .dwattr $C$DW$274, DW_AT_type(*$C$DW$T$32)
    3214                      .dwattr $C$DW$274, DW_AT_name("currentAs")
    3215                      .dwattr $C$DW$274, DW_AT_TI_symbol_name("_currentAs")
    3216                      .dwattr $C$DW$274, DW_AT_data_member_location[DW_OP_plus_uconst 0x190]
    3217                      .dwattr $C$DW$274, DW_AT_accessibility(DW_ACCESS_public)
    3218              
    3219              $C$DW$275       .dwtag  DW_TAG_member
    3220                      .dwattr $C$DW$275, DW_AT_type(*$C$DW$T$32)
    3221                      .dwattr $C$DW$275, DW_AT_name("currentBs")
    3222                      .dwattr $C$DW$275, DW_AT_TI_symbol_name("_currentBs")
    3223                      .dwattr $C$DW$275, DW_AT_data_member_location[DW_OP_plus_uconst 0x192]
    3224                      .dwattr $C$DW$275, DW_AT_accessibility(DW_ACCESS_public)
    3225              
    3226              $C$DW$276       .dwtag  DW_TAG_member
    3227                      .dwattr $C$DW$276, DW_AT_type(*$C$DW$T$32)
    3228                      .dwattr $C$DW$276, DW_AT_name("currentCs")
    3229                      .dwattr $C$DW$276, DW_AT_TI_symbol_name("_currentCs")
    3230                      .dwattr $C$DW$276, DW_AT_data_member_location[DW_OP_plus_uconst 0x194]
    3231                      .dwattr $C$DW$276, DW_AT_accessibility(DW_ACCESS_public)
    3232              
    3233              $C$DW$277       .dwtag  DW_TAG_member
    3234                      .dwattr $C$DW$277, DW_AT_type(*$C$DW$T$32)
    3235                      .dwattr $C$DW$277, DW_AT_name("currentSenseScale")
    3236                      .dwattr $C$DW$277, DW_AT_TI_symbol_name("_currentSenseScale")
    3237                      .dwattr $C$DW$277, DW_AT_data_member_location[DW_OP_plus_uconst 0x196]
    3238                      .dwattr $C$DW$277, DW_AT_accessibility(DW_ACCESS_public)
    3239              
    3240              $C$DW$278       .dwtag  DW_TAG_member
    3241                      .dwattr $C$DW$278, DW_AT_type(*$C$DW$T$32)
