TMS320C2000 Assembler PC v20.2.1 Wed Nov 18 21:47:52 2020

Copyright (c) 1996-2018 Texas Instruments Incorporated
DRV830x_SPI.asm                                                      PAGE    1

       1              ;***************************************************************
       2              ;* TMS320C2000 G3 C/C++ Codegen                               PC v20.2.1.LTS *
       3              ;* Date/Time created: Wed Nov 18 21:47:52 2020                 *
       4              ;***************************************************************
       5                      .compiler_opts --abi=coffabi --cla_support=cla0 --float_support=fpu32 --hll_source=on --mem_model:cod
       6                      .asg    XAR2, FP
       7              
       8              $C$DW$CU        .dwtag  DW_TAG_compile_unit
       9                      .dwattr $C$DW$CU, DW_AT_name("../sources/DRV830x_SPI.c")
      10                      .dwattr $C$DW$CU, DW_AT_producer("TI TMS320C2000 G3 C/C++ Codegen PC v20.2.1.LTS Copyright (c) 1996-2
      11                      .dwattr $C$DW$CU, DW_AT_TI_version(0x01)
      12                      .dwattr $C$DW$CU, DW_AT_comp_dir("C:\Users\admin\Documents\GitHub\fault_tolerant_drives\Software\MPC_
      13              
      14              $C$DW$1 .dwtag  DW_TAG_subprogram
      15                      .dwattr $C$DW$1, DW_AT_name("F28x_usDelay")
      16                      .dwattr $C$DW$1, DW_AT_TI_symbol_name("_F28x_usDelay")
      17                      .dwattr $C$DW$1, DW_AT_declaration
      18                      .dwattr $C$DW$1, DW_AT_external
      19              $C$DW$2 .dwtag  DW_TAG_formal_parameter
      20                      .dwattr $C$DW$2, DW_AT_type(*$C$DW$T$12)
      21              
      22                      .dwendtag $C$DW$1
      23              
      24              ;       C:\ti\ccs1011\ccs\tools\compiler\ti-cgt-c2000_20.2.1.LTS\bin\opt2000.exe C:\\Users\\admin\\AppData\\L
      25              ;       C:\ti\ccs1011\ccs\tools\compiler\ti-cgt-c2000_20.2.1.LTS\bin\ac2000.exe -@C:\\Users\\admin\\AppData\\
      26 00000000               .sect   ".text"
      27                      .clink
      28                      .global _SPI_Driver
      29              
      30              $C$DW$3 .dwtag  DW_TAG_subprogram
      31                      .dwattr $C$DW$3, DW_AT_name("SPI_Driver")
      32                      .dwattr $C$DW$3, DW_AT_low_pc(_SPI_Driver)
      33                      .dwattr $C$DW$3, DW_AT_high_pc(0x00)
      34                      .dwattr $C$DW$3, DW_AT_TI_symbol_name("_SPI_Driver")
      35                      .dwattr $C$DW$3, DW_AT_external
      36                      .dwattr $C$DW$3, DW_AT_type(*$C$DW$T$34)
      37                      .dwattr $C$DW$3, DW_AT_TI_begin_file("../sources/DRV830x_SPI.c")
      38                      .dwattr $C$DW$3, DW_AT_TI_begin_line(0x19)
      39                      .dwattr $C$DW$3, DW_AT_TI_begin_column(0x08)
      40                      .dwattr $C$DW$3, DW_AT_TI_max_frame_size(-2)
      41                      .dwpsn  file "../sources/DRV830x_SPI.c",line 26,column 1,is_stmt,address _SPI_Driver,isa 0
      42              
      43                      .dwfde $C$DW$CIE, _SPI_Driver
      44              $C$DW$4 .dwtag  DW_TAG_formal_parameter
      45                      .dwattr $C$DW$4, DW_AT_name("s")
      46                      .dwattr $C$DW$4, DW_AT_TI_symbol_name("_s")
      47                      .dwattr $C$DW$4, DW_AT_type(*$C$DW$T$66)
      48                      .dwattr $C$DW$4, DW_AT_location[DW_OP_reg12]
      49              
      50              $C$DW$5 .dwtag  DW_TAG_formal_parameter
      51                      .dwattr $C$DW$5, DW_AT_name("data")
      52                      .dwattr $C$DW$5, DW_AT_TI_symbol_name("_data")
      53                      .dwattr $C$DW$5, DW_AT_type(*$C$DW$T$34)
      54                      .dwattr $C$DW$5, DW_AT_location[DW_OP_reg0]
      55              
TMS320C2000 Assembler PC v20.2.1 Wed Nov 18 21:47:52 2020

Copyright (c) 1996-2018 Texas Instruments Incorporated
DRV830x_SPI.asm                                                      PAGE    2

      56              
      57              ;***************************************************************
      58              ;* FNAME: _SPI_Driver                   FR SIZE:   0           *
      59              ;*                                                             *
      60              ;* FUNCTION ENVIRONMENT                                        *
      61              ;*                                                             *
      62              ;* FUNCTION PROPERTIES                                         *
      63              ;*                            0 Parameter,  0 Auto,  0 SOE     *
      64              ;***************************************************************
      65              
      66              _SPI_Driver:
      67              ;* AL    assigned to _data
      68              $C$DW$6 .dwtag  DW_TAG_variable
      69                      .dwattr $C$DW$6, DW_AT_name("data")
      70                      .dwattr $C$DW$6, DW_AT_TI_symbol_name("_data")
      71                      .dwattr $C$DW$6, DW_AT_type(*$C$DW$T$34)
      72                      .dwattr $C$DW$6, DW_AT_location[DW_OP_reg0]
      73              
      74              ;* AL    assigned to _data
      75              $C$DW$7 .dwtag  DW_TAG_variable
      76                      .dwattr $C$DW$7, DW_AT_name("data")
      77                      .dwattr $C$DW$7, DW_AT_TI_symbol_name("_data")
      78                      .dwattr $C$DW$7, DW_AT_type(*$C$DW$T$350)
      79                      .dwattr $C$DW$7, DW_AT_location[DW_OP_reg0]
      80              
      81              ;* AR4   assigned to _s
      82              $C$DW$8 .dwtag  DW_TAG_variable
      83                      .dwattr $C$DW$8, DW_AT_name("s")
      84                      .dwattr $C$DW$8, DW_AT_TI_symbol_name("_s")
      85                      .dwattr $C$DW$8, DW_AT_type(*$C$DW$T$346)
      86                      .dwattr $C$DW$8, DW_AT_location[DW_OP_reg12]
      87              
      88                      .dwcfi  cfa_offset, -2
      89                      .dwcfi  save_reg_to_mem, 26, 0
      90                      .dwpsn  file "../sources/DRV830x_SPI.c",line 27,column 2,is_stmt,isa 0
      91 00000000 D008          MOVB      XAR0,#8               ; [CPU_ALU] |27| 
      92 00000001 9694          MOV       *+XAR4[AR0],AL        ; [CPU_ALU] |27| 
      93 00000002       $C$L1:    
      94                      .dwpsn  file "../sources/DRV830x_SPI.c",line 28,column 8,is_stmt,isa 0
      95 00000002 46D4          TBIT      *+XAR4[2],#6          ; [CPU_ALU] |28| 
      96 00000003 6CFF          B         $C$L1,NTC             ; [CPU_ALU] |28| 
      97                      ; branchcc occurs ; [] |28| 
      98                      .dwpsn  file "../sources/DRV830x_SPI.c",line 29,column 2,is_stmt,isa 0
      99 00000004 92FC          MOV       AL,*+XAR4[7]          ; [CPU_ALU] |29| 
     100              $C$DW$9 .dwtag  DW_TAG_TI_branch
     101                      .dwattr $C$DW$9, DW_AT_low_pc(0x00)
     102                      .dwattr $C$DW$9, DW_AT_TI_return
     103              
     104 00000005 0006          LRETR     ; [CPU_ALU] 
     105                      ; return occurs ; [] 
     106                      .dwattr $C$DW$3, DW_AT_TI_end_file("../sources/DRV830x_SPI.c")
     107                      .dwattr $C$DW$3, DW_AT_TI_end_line(0x20)
     108                      .dwattr $C$DW$3, DW_AT_TI_end_column(0x01)
     109                      .dwendentry
     110                      .dwendtag $C$DW$3
TMS320C2000 Assembler PC v20.2.1 Wed Nov 18 21:47:52 2020

Copyright (c) 1996-2018 Texas Instruments Incorporated
DRV830x_SPI.asm                                                      PAGE    3

     111              
     112 00000006               .sect   ".text"
     113                      .clink
     114                      .global _DRV8305_SPI_Write
     115              
     116              $C$DW$10        .dwtag  DW_TAG_subprogram
     117                      .dwattr $C$DW$10, DW_AT_name("DRV8305_SPI_Write")
     118                      .dwattr $C$DW$10, DW_AT_low_pc(_DRV8305_SPI_Write)
     119                      .dwattr $C$DW$10, DW_AT_high_pc(0x00)
     120                      .dwattr $C$DW$10, DW_AT_TI_symbol_name("_DRV8305_SPI_Write")
     121                      .dwattr $C$DW$10, DW_AT_external
     122                      .dwattr $C$DW$10, DW_AT_type(*$C$DW$T$34)
     123                      .dwattr $C$DW$10, DW_AT_TI_begin_file("../sources/DRV830x_SPI.c")
     124                      .dwattr $C$DW$10, DW_AT_TI_begin_line(0x55)
     125                      .dwattr $C$DW$10, DW_AT_TI_begin_column(0x08)
     126                      .dwattr $C$DW$10, DW_AT_TI_max_frame_size(-6)
     127                      .dwpsn  file "../sources/DRV830x_SPI.c",line 86,column 1,is_stmt,address _DRV8305_SPI_Write,isa 0
     128              
     129                      .dwfde $C$DW$CIE, _DRV8305_SPI_Write
     130              $C$DW$11        .dwtag  DW_TAG_formal_parameter
     131                      .dwattr $C$DW$11, DW_AT_name("motor")
     132                      .dwattr $C$DW$11, DW_AT_TI_symbol_name("_motor")
     133                      .dwattr $C$DW$11, DW_AT_type(*$C$DW$T$341)
     134                      .dwattr $C$DW$11, DW_AT_location[DW_OP_reg12]
     135              
     136              $C$DW$12        .dwtag  DW_TAG_formal_parameter
     137                      .dwattr $C$DW$12, DW_AT_name("address")
     138                      .dwattr $C$DW$12, DW_AT_TI_symbol_name("_address")
     139                      .dwattr $C$DW$12, DW_AT_type(*$C$DW$T$34)
     140                      .dwattr $C$DW$12, DW_AT_location[DW_OP_reg0]
     141              
     142              
     143              ;***************************************************************
     144              ;* FNAME: _DRV8305_SPI_Write            FR SIZE:   4           *
     145              ;*                                                             *
     146              ;* FUNCTION ENVIRONMENT                                        *
     147              ;*                                                             *
     148              ;* FUNCTION PROPERTIES                                         *
     149              ;*                            0 Parameter,  1 Auto,  2 SOE     *
     150              ;***************************************************************
     151              
     152              _DRV8305_SPI_Write:
     153              $C$DW$13        .dwtag  DW_TAG_variable
     154                      .dwattr $C$DW$13, DW_AT_name("w")
     155                      .dwattr $C$DW$13, DW_AT_TI_symbol_name("_w")
     156                      .dwattr $C$DW$13, DW_AT_type(*$C$DW$T$213)
     157                      .dwattr $C$DW$13, DW_AT_location[DW_OP_breg20 -1]
     158              
     159              ;* AR4   assigned to _motor
     160              $C$DW$14        .dwtag  DW_TAG_variable
     161                      .dwattr $C$DW$14, DW_AT_name("motor")
     162                      .dwattr $C$DW$14, DW_AT_TI_symbol_name("_motor")
     163                      .dwattr $C$DW$14, DW_AT_type(*$C$DW$T$342)
     164                      .dwattr $C$DW$14, DW_AT_location[DW_OP_reg12]
     165              
TMS320C2000 Assembler PC v20.2.1 Wed Nov 18 21:47:52 2020

Copyright (c) 1996-2018 Texas Instruments Incorporated
DRV830x_SPI.asm                                                      PAGE    4

     166              ;* AR6   assigned to _address
     167              $C$DW$15        .dwtag  DW_TAG_variable
     168                      .dwattr $C$DW$15, DW_AT_name("address")
     169                      .dwattr $C$DW$15, DW_AT_TI_symbol_name("_address")
     170                      .dwattr $C$DW$15, DW_AT_type(*$C$DW$T$350)
     171                      .dwattr $C$DW$15, DW_AT_location[DW_OP_reg16]
     172              
     173              ;* AR4   assigned to _s
     174              $C$DW$16        .dwtag  DW_TAG_variable
     175                      .dwattr $C$DW$16, DW_AT_name("s")
     176                      .dwattr $C$DW$16, DW_AT_TI_symbol_name("_s")
     177                      .dwattr $C$DW$16, DW_AT_type(*$C$DW$T$66)
     178                      .dwattr $C$DW$16, DW_AT_location[DW_OP_reg12]
     179              
     180              ;* AL    assigned to _data
     181              $C$DW$17        .dwtag  DW_TAG_variable
     182                      .dwattr $C$DW$17, DW_AT_name("data")
     183                      .dwattr $C$DW$17, DW_AT_TI_symbol_name("_data")
     184                      .dwattr $C$DW$17, DW_AT_type(*$C$DW$T$34)
     185                      .dwattr $C$DW$17, DW_AT_location[DW_OP_reg0]
     186              
     187                      .dwcfi  cfa_offset, -2
     188                      .dwcfi  save_reg_to_mem, 26, 0
     189 00000006 B2BD          MOVL      *SP++,XAR1            ; [CPU_ALU] 
     190                      .dwcfi  save_reg_to_mem, 7, 2
     191                      .dwcfi  cfa_offset, -4
     192 00000007 FE02          ADDB      SP,#2                 ; [CPU_ARAU] 
     193                      .dwcfi  cfa_offset, -6
     194 00000008 88A9          MOVZ      AR6,AL                ; [CPU_ALU] |86| 
     195                      .dwpsn  file "../sources/DRV830x_SPI.c",line 27,column 2,is_stmt,isa 0
     196 00000009 A8A9          MOVL      ACC,XAR4              ; [CPU_ALU] |27| 
     197                      .dwpsn  file "../sources/DRV830x_SPI.c",line 26,column 1,is_stmt,isa 0
     198 0000000a D108          MOVB      XAR1,#8               ; [CPU_ALU] |26| 
     199                      .dwpsn  file "../sources/DRV830x_SPI.c",line 27,column 2,is_stmt,isa 0
     200 0000000b 8D00          MOVL      XAR0,#379             ; [CPU_ALU] |27| 
         0000000c 017B 
     201 0000000d 0DA6          ADDU      ACC,AR6               ; [CPU_ALU] |27| 
     202 0000000e 83A9          MOVL      XAR5,ACC              ; [CPU_ALU] |27| 
     203                      .dwpsn  file "../sources/DRV830x_SPI.c",line 26,column 1,is_stmt,isa 0
     204 0000000f 8A9C          MOVL      XAR4,*+XAR4[AR1]      ; [CPU_ALU] |26| 
     205                      .dwpsn  file "../sources/DRV830x_SPI.c",line 27,column 2,is_stmt,isa 0
     206 00000010 CCA6          AND       AL,AR6,#0x000f        ; [CPU_ALU] |27| 
         00000011 000F 
     207 00000012 FF8A          LSL       AL,11                 ; [CPU_ALU] |27| 
     208 00000013 CD95          AND       AH,*+XAR5[AR0],#0x07ff ; [CPU_FPU] |27| 
         00000014 07FF 
     209 00000015 D008          MOVB      XAR0,#8               ; [CPU_FPU] |27| 
     210 00000016 CBA9          OR        AH,AL                 ; [CPU_ALU] |27| 
     211 00000017 9794          MOV       *+XAR4[AR0],AH        ; [CPU_ALU] |27| 
     212 00000018       $C$L2:    
     213                      .dwpsn  file "../sources/DRV830x_SPI.c",line 28,column 8,is_stmt,isa 0
     214 00000018 46D4          TBIT      *+XAR4[2],#6          ; [CPU_ALU] |28| 
     215 00000019 6CFF          B         $C$L2,NTC             ; [CPU_ALU] |28| 
     216                      ; branchcc occurs ; [] |28| 
     217                      .dwpsn  file "../sources/DRV830x_SPI.c",line 29,column 2,is_stmt,isa 0
TMS320C2000 Assembler PC v20.2.1 Wed Nov 18 21:47:52 2020

Copyright (c) 1996-2018 Texas Instruments Incorporated
DRV830x_SPI.asm                                                      PAGE    5

     218 0000001a 92FC          MOV       AL,*+XAR4[7]          ; [CPU_ALU] |29| 
     219 0000001b FE82          SUBB      SP,#2                 ; [CPU_ARAU] 
     220                      .dwcfi  cfa_offset, -4
     221 0000001c 8BBE          MOVL      XAR1,*--SP            ; [CPU_ALU] 
     222                      .dwcfi  cfa_offset, -2
     223                      .dwcfi  restore_reg, 7
     224              $C$DW$18        .dwtag  DW_TAG_TI_branch
     225                      .dwattr $C$DW$18, DW_AT_low_pc(0x00)
     226                      .dwattr $C$DW$18, DW_AT_TI_return
     227              
     228 0000001d 0006          LRETR     ; [CPU_ALU] 
     229                      ; return occurs ; [] 
     230                      .dwattr $C$DW$10, DW_AT_TI_end_file("../sources/DRV830x_SPI.c")
     231                      .dwattr $C$DW$10, DW_AT_TI_end_line(0x61)
     232                      .dwattr $C$DW$10, DW_AT_TI_end_column(0x01)
     233                      .dwendentry
     234                      .dwendtag $C$DW$10
     235              
     236 0000001e               .sect   ".text"
     237                      .clink
     238                      .global _DRV8305_SPI_Read
     239              
     240              $C$DW$19        .dwtag  DW_TAG_subprogram
     241                      .dwattr $C$DW$19, DW_AT_name("DRV8305_SPI_Read")
     242                      .dwattr $C$DW$19, DW_AT_low_pc(_DRV8305_SPI_Read)
     243                      .dwattr $C$DW$19, DW_AT_high_pc(0x00)
     244                      .dwattr $C$DW$19, DW_AT_TI_symbol_name("_DRV8305_SPI_Read")
     245                      .dwattr $C$DW$19, DW_AT_external
     246                      .dwattr $C$DW$19, DW_AT_type(*$C$DW$T$34)
     247                      .dwattr $C$DW$19, DW_AT_TI_begin_file("../sources/DRV830x_SPI.c")
     248                      .dwattr $C$DW$19, DW_AT_TI_begin_line(0x47)
     249                      .dwattr $C$DW$19, DW_AT_TI_begin_column(0x08)
     250                      .dwattr $C$DW$19, DW_AT_TI_max_frame_size(-4)
     251                      .dwpsn  file "../sources/DRV830x_SPI.c",line 72,column 1,is_stmt,address _DRV8305_SPI_Read,isa 0
     252              
     253                      .dwfde $C$DW$CIE, _DRV8305_SPI_Read
     254              $C$DW$20        .dwtag  DW_TAG_formal_parameter
     255                      .dwattr $C$DW$20, DW_AT_name("motor")
     256                      .dwattr $C$DW$20, DW_AT_TI_symbol_name("_motor")
     257                      .dwattr $C$DW$20, DW_AT_type(*$C$DW$T$341)
     258                      .dwattr $C$DW$20, DW_AT_location[DW_OP_reg12]
     259              
     260              $C$DW$21        .dwtag  DW_TAG_formal_parameter
     261                      .dwattr $C$DW$21, DW_AT_name("address")
     262                      .dwattr $C$DW$21, DW_AT_TI_symbol_name("_address")
     263                      .dwattr $C$DW$21, DW_AT_type(*$C$DW$T$34)
     264                      .dwattr $C$DW$21, DW_AT_location[DW_OP_reg0]
     265              
     266              
     267              ;***************************************************************
     268              ;* FNAME: _DRV8305_SPI_Read             FR SIZE:   2           *
     269              ;*                                                             *
     270              ;* FUNCTION ENVIRONMENT                                        *
     271              ;*                                                             *
     272              ;* FUNCTION PROPERTIES                                         *
TMS320C2000 Assembler PC v20.2.1 Wed Nov 18 21:47:52 2020

Copyright (c) 1996-2018 Texas Instruments Incorporated
DRV830x_SPI.asm                                                      PAGE    6

     273              ;*                            0 Parameter,  0 Auto,  2 SOE     *
     274              ;***************************************************************
     275              
     276              _DRV8305_SPI_Read:
     277              ;* AR4   assigned to _motor
     278              $C$DW$22        .dwtag  DW_TAG_variable
     279                      .dwattr $C$DW$22, DW_AT_name("motor")
     280                      .dwattr $C$DW$22, DW_AT_TI_symbol_name("_motor")
     281                      .dwattr $C$DW$22, DW_AT_type(*$C$DW$T$342)
     282                      .dwattr $C$DW$22, DW_AT_location[DW_OP_reg12]
     283              
     284              ;* AL    assigned to _address
     285              $C$DW$23        .dwtag  DW_TAG_variable
     286                      .dwattr $C$DW$23, DW_AT_name("address")
     287                      .dwattr $C$DW$23, DW_AT_TI_symbol_name("_address")
     288                      .dwattr $C$DW$23, DW_AT_type(*$C$DW$T$350)
     289                      .dwattr $C$DW$23, DW_AT_location[DW_OP_reg0]
     290              
     291              ;* AR4   assigned to _s
     292              $C$DW$24        .dwtag  DW_TAG_variable
     293                      .dwattr $C$DW$24, DW_AT_name("s")
     294                      .dwattr $C$DW$24, DW_AT_TI_symbol_name("_s")
     295                      .dwattr $C$DW$24, DW_AT_type(*$C$DW$T$66)
     296                      .dwattr $C$DW$24, DW_AT_location[DW_OP_reg12]
     297              
     298              ;* AL    assigned to _data
     299              $C$DW$25        .dwtag  DW_TAG_variable
     300                      .dwattr $C$DW$25, DW_AT_name("data")
     301                      .dwattr $C$DW$25, DW_AT_TI_symbol_name("_data")
     302                      .dwattr $C$DW$25, DW_AT_type(*$C$DW$T$34)
     303                      .dwattr $C$DW$25, DW_AT_location[DW_OP_reg0]
     304              
     305                      .dwcfi  cfa_offset, -2
     306                      .dwcfi  save_reg_to_mem, 26, 0
     307 0000001e B2BD          MOVL      *SP++,XAR1            ; [CPU_ALU] 
     308                      .dwcfi  save_reg_to_mem, 7, 2
     309                      .dwcfi  cfa_offset, -4
     310                      .dwpsn  file "../sources/DRV830x_SPI.c",line 26,column 1,is_stmt,isa 0
     311 0000001f D108          MOVB      XAR1,#8               ; [CPU_ALU] |26| 
     312 00000020 8A9C          MOVL      XAR4,*+XAR4[AR1]      ; [CPU_ALU] |26| 
     313                      .dwpsn  file "../sources/DRV830x_SPI.c",line 27,column 2,is_stmt,isa 0
     314 00000021 5603          MOV       ACC,AL << #11         ; [CPU_ALU] |27| 
         00000022 0BA9 
     315 00000023 D008          MOVB      XAR0,#8               ; [CPU_ALU] |27| 
     316 00000024 1AA9          OR        AL,#0x8000            ; [CPU_ALU] |27| 
         00000025 8000 
     317 00000026 9694          MOV       *+XAR4[AR0],AL        ; [CPU_ALU] |27| 
     318 00000027       $C$L3:    
     319                      .dwpsn  file "../sources/DRV830x_SPI.c",line 28,column 8,is_stmt,isa 0
     320 00000027 46D4          TBIT      *+XAR4[2],#6          ; [CPU_ALU] |28| 
     321 00000028 6CFF          B         $C$L3,NTC             ; [CPU_ALU] |28| 
     322                      ; branchcc occurs ; [] |28| 
     323                      .dwpsn  file "../sources/DRV830x_SPI.c",line 29,column 2,is_stmt,isa 0
     324 00000029 92FC          MOV       AL,*+XAR4[7]          ; [CPU_ALU] |29| 
     325 0000002a 8BBE          MOVL      XAR1,*--SP            ; [CPU_ALU] 
TMS320C2000 Assembler PC v20.2.1 Wed Nov 18 21:47:52 2020

Copyright (c) 1996-2018 Texas Instruments Incorporated
DRV830x_SPI.asm                                                      PAGE    7

     326                      .dwcfi  cfa_offset, -2
     327                      .dwcfi  restore_reg, 7
     328              $C$DW$26        .dwtag  DW_TAG_TI_branch
     329                      .dwattr $C$DW$26, DW_AT_low_pc(0x00)
     330                      .dwattr $C$DW$26, DW_AT_TI_return
     331              
     332 0000002b 0006          LRETR     ; [CPU_ALU] 
     333                      ; return occurs ; [] 
     334                      .dwattr $C$DW$19, DW_AT_TI_end_file("../sources/DRV830x_SPI.c")
     335                      .dwattr $C$DW$19, DW_AT_TI_end_line(0x50)
     336                      .dwattr $C$DW$19, DW_AT_TI_end_column(0x01)
     337                      .dwendentry
     338                      .dwendtag $C$DW$19
     339              
     340 0000002c               .sect   ".text"
     341                      .clink
     342                      .global _DRV8301_SPI_Write
     343              
     344              $C$DW$27        .dwtag  DW_TAG_subprogram
     345                      .dwattr $C$DW$27, DW_AT_name("DRV8301_SPI_Write")
     346                      .dwattr $C$DW$27, DW_AT_low_pc(_DRV8301_SPI_Write)
     347                      .dwattr $C$DW$27, DW_AT_high_pc(0x00)
     348                      .dwattr $C$DW$27, DW_AT_TI_symbol_name("_DRV8301_SPI_Write")
     349                      .dwattr $C$DW$27, DW_AT_external
     350                      .dwattr $C$DW$27, DW_AT_type(*$C$DW$T$34)
     351                      .dwattr $C$DW$27, DW_AT_TI_begin_file("../sources/DRV830x_SPI.c")
     352                      .dwattr $C$DW$27, DW_AT_TI_begin_line(0x77)
     353                      .dwattr $C$DW$27, DW_AT_TI_begin_column(0x08)
     354                      .dwattr $C$DW$27, DW_AT_TI_max_frame_size(-6)
     355                      .dwpsn  file "../sources/DRV830x_SPI.c",line 120,column 1,is_stmt,address _DRV8301_SPI_Write,isa 0
     356              
     357                      .dwfde $C$DW$CIE, _DRV8301_SPI_Write
     358              $C$DW$28        .dwtag  DW_TAG_formal_parameter
     359                      .dwattr $C$DW$28, DW_AT_name("motor")
     360                      .dwattr $C$DW$28, DW_AT_TI_symbol_name("_motor")
     361                      .dwattr $C$DW$28, DW_AT_type(*$C$DW$T$341)
     362                      .dwattr $C$DW$28, DW_AT_location[DW_OP_reg12]
     363              
     364              $C$DW$29        .dwtag  DW_TAG_formal_parameter
     365                      .dwattr $C$DW$29, DW_AT_name("address")
     366                      .dwattr $C$DW$29, DW_AT_TI_symbol_name("_address")
     367                      .dwattr $C$DW$29, DW_AT_type(*$C$DW$T$34)
     368                      .dwattr $C$DW$29, DW_AT_location[DW_OP_reg0]
     369              
     370              
     371              ;***************************************************************
     372              ;* FNAME: _DRV8301_SPI_Write            FR SIZE:   4           *
     373              ;*                                                             *
     374              ;* FUNCTION ENVIRONMENT                                        *
     375              ;*                                                             *
     376              ;* FUNCTION PROPERTIES                                         *
     377              ;*                            0 Parameter,  1 Auto,  2 SOE     *
     378              ;***************************************************************
     379              
     380              _DRV8301_SPI_Write:
TMS320C2000 Assembler PC v20.2.1 Wed Nov 18 21:47:52 2020

Copyright (c) 1996-2018 Texas Instruments Incorporated
DRV830x_SPI.asm                                                      PAGE    8

     381              $C$DW$30        .dwtag  DW_TAG_variable
     382                      .dwattr $C$DW$30, DW_AT_name("w")
     383                      .dwattr $C$DW$30, DW_AT_TI_symbol_name("_w")
     384                      .dwattr $C$DW$30, DW_AT_type(*$C$DW$T$213)
     385                      .dwattr $C$DW$30, DW_AT_location[DW_OP_breg20 -1]
     386              
     387              ;* AR4   assigned to _motor
     388              $C$DW$31        .dwtag  DW_TAG_variable
     389                      .dwattr $C$DW$31, DW_AT_name("motor")
     390                      .dwattr $C$DW$31, DW_AT_TI_symbol_name("_motor")
     391                      .dwattr $C$DW$31, DW_AT_type(*$C$DW$T$342)
     392                      .dwattr $C$DW$31, DW_AT_location[DW_OP_reg12]
     393              
     394              ;* AR6   assigned to _address
     395              $C$DW$32        .dwtag  DW_TAG_variable
     396                      .dwattr $C$DW$32, DW_AT_name("address")
     397                      .dwattr $C$DW$32, DW_AT_TI_symbol_name("_address")
     398                      .dwattr $C$DW$32, DW_AT_type(*$C$DW$T$350)
     399                      .dwattr $C$DW$32, DW_AT_location[DW_OP_reg16]
     400              
     401              ;* AR4   assigned to _s
     402              $C$DW$33        .dwtag  DW_TAG_variable
     403                      .dwattr $C$DW$33, DW_AT_name("s")
     404                      .dwattr $C$DW$33, DW_AT_TI_symbol_name("_s")
     405                      .dwattr $C$DW$33, DW_AT_type(*$C$DW$T$66)
     406                      .dwattr $C$DW$33, DW_AT_location[DW_OP_reg12]
     407              
     408              ;* AL    assigned to _data
     409              $C$DW$34        .dwtag  DW_TAG_variable
     410                      .dwattr $C$DW$34, DW_AT_name("data")
     411                      .dwattr $C$DW$34, DW_AT_TI_symbol_name("_data")
     412                      .dwattr $C$DW$34, DW_AT_type(*$C$DW$T$34)
     413                      .dwattr $C$DW$34, DW_AT_location[DW_OP_reg0]
     414              
     415                      .dwcfi  cfa_offset, -2
     416                      .dwcfi  save_reg_to_mem, 26, 0
     417 0000002c B2BD          MOVL      *SP++,XAR1            ; [CPU_ALU] 
     418                      .dwcfi  save_reg_to_mem, 7, 2
     419                      .dwcfi  cfa_offset, -4
     420 0000002d FE02          ADDB      SP,#2                 ; [CPU_ARAU] 
     421                      .dwcfi  cfa_offset, -6
     422 0000002e 88A9          MOVZ      AR6,AL                ; [CPU_ALU] |120| 
     423                      .dwpsn  file "../sources/DRV830x_SPI.c",line 27,column 2,is_stmt,isa 0
     424 0000002f A8A9          MOVL      ACC,XAR4              ; [CPU_ALU] |27| 
     425                      .dwpsn  file "../sources/DRV830x_SPI.c",line 26,column 1,is_stmt,isa 0
     426 00000030 D108          MOVB      XAR1,#8               ; [CPU_ALU] |26| 
     427                      .dwpsn  file "../sources/DRV830x_SPI.c",line 27,column 2,is_stmt,isa 0
     428 00000031 8D00          MOVL      XAR0,#372             ; [CPU_ALU] |27| 
         00000032 0174 
     429 00000033 0DA6          ADDU      ACC,AR6               ; [CPU_ALU] |27| 
     430 00000034 83A9          MOVL      XAR5,ACC              ; [CPU_ALU] |27| 
     431                      .dwpsn  file "../sources/DRV830x_SPI.c",line 26,column 1,is_stmt,isa 0
     432 00000035 8A9C          MOVL      XAR4,*+XAR4[AR1]      ; [CPU_ALU] |26| 
     433                      .dwpsn  file "../sources/DRV830x_SPI.c",line 27,column 2,is_stmt,isa 0
     434 00000036 CCA6          AND       AL,AR6,#0x000f        ; [CPU_ALU] |27| 
TMS320C2000 Assembler PC v20.2.1 Wed Nov 18 21:47:52 2020

Copyright (c) 1996-2018 Texas Instruments Incorporated
DRV830x_SPI.asm                                                      PAGE    9

         00000037 000F 
     435 00000038 FF8A          LSL       AL,11                 ; [CPU_ALU] |27| 
     436 00000039 CD95          AND       AH,*+XAR5[AR0],#0x07ff ; [CPU_FPU] |27| 
         0000003a 07FF 
     437 0000003b D008          MOVB      XAR0,#8               ; [CPU_FPU] |27| 
     438 0000003c CBA9          OR        AH,AL                 ; [CPU_ALU] |27| 
     439 0000003d 9794          MOV       *+XAR4[AR0],AH        ; [CPU_ALU] |27| 
     440 0000003e       $C$L4:    
     441                      .dwpsn  file "../sources/DRV830x_SPI.c",line 28,column 8,is_stmt,isa 0
     442 0000003e 46D4          TBIT      *+XAR4[2],#6          ; [CPU_ALU] |28| 
     443 0000003f 6CFF          B         $C$L4,NTC             ; [CPU_ALU] |28| 
     444                      ; branchcc occurs ; [] |28| 
     445                      .dwpsn  file "../sources/DRV830x_SPI.c",line 29,column 2,is_stmt,isa 0
     446 00000040 92FC          MOV       AL,*+XAR4[7]          ; [CPU_ALU] |29| 
     447 00000041 FE82          SUBB      SP,#2                 ; [CPU_ARAU] 
     448                      .dwcfi  cfa_offset, -4
     449 00000042 8BBE          MOVL      XAR1,*--SP            ; [CPU_ALU] 
     450                      .dwcfi  cfa_offset, -2
     451                      .dwcfi  restore_reg, 7
     452              $C$DW$35        .dwtag  DW_TAG_TI_branch
     453                      .dwattr $C$DW$35, DW_AT_low_pc(0x00)
     454                      .dwattr $C$DW$35, DW_AT_TI_return
     455              
     456 00000043 0006          LRETR     ; [CPU_ALU] 
     457                      ; return occurs ; [] 
     458                      .dwattr $C$DW$27, DW_AT_TI_end_file("../sources/DRV830x_SPI.c")
     459                      .dwattr $C$DW$27, DW_AT_TI_end_line(0x83)
     460                      .dwattr $C$DW$27, DW_AT_TI_end_column(0x01)
     461                      .dwendentry
     462                      .dwendtag $C$DW$27
     463              
     464 00000044               .sect   ".text"
     465                      .clink
     466                      .global _DRV8301_SPI_Read
     467              
     468              $C$DW$36        .dwtag  DW_TAG_subprogram
     469                      .dwattr $C$DW$36, DW_AT_name("DRV8301_SPI_Read")
     470                      .dwattr $C$DW$36, DW_AT_low_pc(_DRV8301_SPI_Read)
     471                      .dwattr $C$DW$36, DW_AT_high_pc(0x00)
     472                      .dwattr $C$DW$36, DW_AT_TI_symbol_name("_DRV8301_SPI_Read")
     473                      .dwattr $C$DW$36, DW_AT_external
     474                      .dwattr $C$DW$36, DW_AT_type(*$C$DW$T$34)
     475                      .dwattr $C$DW$36, DW_AT_TI_begin_file("../sources/DRV830x_SPI.c")
     476                      .dwattr $C$DW$36, DW_AT_TI_begin_line(0x66)
     477                      .dwattr $C$DW$36, DW_AT_TI_begin_column(0x08)
     478                      .dwattr $C$DW$36, DW_AT_TI_max_frame_size(-8)
     479                      .dwpsn  file "../sources/DRV830x_SPI.c",line 103,column 1,is_stmt,address _DRV8301_SPI_Read,isa 0
     480              
     481                      .dwfde $C$DW$CIE, _DRV8301_SPI_Read
     482              $C$DW$37        .dwtag  DW_TAG_formal_parameter
     483                      .dwattr $C$DW$37, DW_AT_name("motor")
     484                      .dwattr $C$DW$37, DW_AT_TI_symbol_name("_motor")
     485                      .dwattr $C$DW$37, DW_AT_type(*$C$DW$T$341)
     486                      .dwattr $C$DW$37, DW_AT_location[DW_OP_reg12]
     487              
TMS320C2000 Assembler PC v20.2.1 Wed Nov 18 21:47:52 2020

Copyright (c) 1996-2018 Texas Instruments Incorporated
DRV830x_SPI.asm                                                      PAGE   10

     488              $C$DW$38        .dwtag  DW_TAG_formal_parameter
     489                      .dwattr $C$DW$38, DW_AT_name("address")
     490                      .dwattr $C$DW$38, DW_AT_TI_symbol_name("_address")
     491                      .dwattr $C$DW$38, DW_AT_type(*$C$DW$T$34)
     492                      .dwattr $C$DW$38, DW_AT_location[DW_OP_reg0]
     493              
     494              
     495              ;***************************************************************
     496              ;* FNAME: _DRV8301_SPI_Read             FR SIZE:   6           *
     497              ;*                                                             *
     498              ;* FUNCTION ENVIRONMENT                                        *
     499              ;*                                                             *
     500              ;* FUNCTION PROPERTIES                                         *
     501              ;*                            0 Parameter,  1 Auto,  4 SOE     *
     502              ;***************************************************************
     503              
     504              _DRV8301_SPI_Read:
     505              $C$DW$39        .dwtag  DW_TAG_variable
     506                      .dwattr $C$DW$39, DW_AT_name("dummy")
     507                      .dwattr $C$DW$39, DW_AT_TI_symbol_name("_dummy")
     508                      .dwattr $C$DW$39, DW_AT_type(*$C$DW$T$349)
     509                      .dwattr $C$DW$39, DW_AT_location[DW_OP_breg20 -1]
     510              
     511              ;* AR2   assigned to _motor
     512              $C$DW$40        .dwtag  DW_TAG_variable
     513                      .dwattr $C$DW$40, DW_AT_name("motor")
     514                      .dwattr $C$DW$40, DW_AT_TI_symbol_name("_motor")
     515                      .dwattr $C$DW$40, DW_AT_type(*$C$DW$T$342)
     516                      .dwattr $C$DW$40, DW_AT_location[DW_OP_reg8]
     517              
     518              ;* AL    assigned to _address
     519              $C$DW$41        .dwtag  DW_TAG_variable
     520                      .dwattr $C$DW$41, DW_AT_name("address")
     521                      .dwattr $C$DW$41, DW_AT_TI_symbol_name("_address")
     522                      .dwattr $C$DW$41, DW_AT_type(*$C$DW$T$350)
     523                      .dwattr $C$DW$41, DW_AT_location[DW_OP_reg0]
     524              
     525              ;* AR4   assigned to _s
     526              $C$DW$42        .dwtag  DW_TAG_variable
     527                      .dwattr $C$DW$42, DW_AT_name("s")
     528                      .dwattr $C$DW$42, DW_AT_TI_symbol_name("_s")
     529                      .dwattr $C$DW$42, DW_AT_type(*$C$DW$T$66)
     530                      .dwattr $C$DW$42, DW_AT_location[DW_OP_reg12]
     531              
     532              ;* AL    assigned to _data
     533              $C$DW$43        .dwtag  DW_TAG_variable
     534                      .dwattr $C$DW$43, DW_AT_name("data")
     535                      .dwattr $C$DW$43, DW_AT_TI_symbol_name("_data")
     536                      .dwattr $C$DW$43, DW_AT_type(*$C$DW$T$34)
     537                      .dwattr $C$DW$43, DW_AT_location[DW_OP_reg0]
     538              
     539              ;* AR4   assigned to _s
     540              $C$DW$44        .dwtag  DW_TAG_variable
     541                      .dwattr $C$DW$44, DW_AT_name("s")
     542                      .dwattr $C$DW$44, DW_AT_TI_symbol_name("_s")
TMS320C2000 Assembler PC v20.2.1 Wed Nov 18 21:47:52 2020

Copyright (c) 1996-2018 Texas Instruments Incorporated
DRV830x_SPI.asm                                                      PAGE   11

     543                      .dwattr $C$DW$44, DW_AT_type(*$C$DW$T$66)
     544                      .dwattr $C$DW$44, DW_AT_location[DW_OP_reg12]
     545              
     546              ;* AL    assigned to _data
     547              $C$DW$45        .dwtag  DW_TAG_variable
     548                      .dwattr $C$DW$45, DW_AT_name("data")
     549                      .dwattr $C$DW$45, DW_AT_TI_symbol_name("_data")
     550                      .dwattr $C$DW$45, DW_AT_type(*$C$DW$T$34)
     551                      .dwattr $C$DW$45, DW_AT_location[DW_OP_reg0]
     552              
     553                      .dwcfi  cfa_offset, -2
     554                      .dwcfi  save_reg_to_mem, 26, 0
     555 00000044 B2BD          MOVL      *SP++,XAR1            ; [CPU_ALU] 
     556                      .dwcfi  save_reg_to_mem, 7, 2
     557                      .dwcfi  cfa_offset, -4
     558 00000045 AABD          MOVL      *SP++,XAR2            ; [CPU_ALU] 
     559                      .dwcfi  save_reg_to_mem, 9, 4
     560                      .dwcfi  cfa_offset, -6
     561 00000046 FE02          ADDB      SP,#2                 ; [CPU_ARAU] 
     562                      .dwcfi  cfa_offset, -8
     563 00000047 86A4          MOVL      XAR2,XAR4             ; [CPU_ALU] |103| 
     564                      .dwpsn  file "../sources/DRV830x_SPI.c",line 26,column 1,is_stmt,isa 0
     565 00000048 D108          MOVB      XAR1,#8               ; [CPU_ALU] |26| 
     566 00000049 8A9A          MOVL      XAR4,*+XAR2[AR1]      ; [CPU_ALU] |26| 
     567                      .dwpsn  file "../sources/DRV830x_SPI.c",line 27,column 2,is_stmt,isa 0
     568 0000004a 5603          MOV       ACC,AL << #11         ; [CPU_ALU] |27| 
         0000004b 0BA9 
     569 0000004c D008          MOVB      XAR0,#8               ; [CPU_ALU] |27| 
     570 0000004d 1AA9          OR        AL,#0x8000            ; [CPU_ALU] |27| 
         0000004e 8000 
     571 0000004f 9694          MOV       *+XAR4[AR0],AL        ; [CPU_ALU] |27| 
     572 00000050       $C$L5:    
     573                      .dwpsn  file "../sources/DRV830x_SPI.c",line 28,column 8,is_stmt,isa 0
     574 00000050 46D4          TBIT      *+XAR4[2],#6          ; [CPU_ALU] |28| 
     575 00000051 6CFF          B         $C$L5,NTC             ; [CPU_ALU] |28| 
     576                      ; branchcc occurs ; [] |28| 
     577                      .dwpsn  file "../sources/DRV830x_SPI.c",line 29,column 2,is_stmt,isa 0
     578 00000052 92FC          MOV       AL,*+XAR4[7]          ; [CPU_ALU] |29| 
     579                      .dwpsn  file "../sources/DRV830x_SPI.c",line 111,column 2,is_stmt,isa 0
     580 00000053 9641          MOV       *-SP[1],AL            ; [CPU_ALU] |111| 
     581                      .dwpsn  file "../sources/DRV830x_SPI.c",line 112,column 2,is_stmt,isa 0
     582 00000054 0226          MOVB      ACC,#38               ; [CPU_ALU] |112| 
     583              $C$DW$46        .dwtag  DW_TAG_TI_branch
     584                      .dwattr $C$DW$46, DW_AT_low_pc(0x00)
     585                      .dwattr $C$DW$46, DW_AT_name("_F28x_usDelay")
     586                      .dwattr $C$DW$46, DW_AT_TI_call
     587              
     588 00000055 7640!         LCR       #_F28x_usDelay        ; [CPU_ALU] |112| 
         00000056 0000 
     589                      ; call occurs [#_F28x_usDelay] ; [] |112| 
     590                      .dwpsn  file "../sources/DRV830x_SPI.c",line 26,column 1,is_stmt,isa 0
     591 00000057 D108          MOVB      XAR1,#8               ; [CPU_ALU] |26| 
     592 00000058 8A9A          MOVL      XAR4,*+XAR2[AR1]      ; [CPU_ALU] |26| 
     593                      .dwpsn  file "../sources/DRV830x_SPI.c",line 27,column 2,is_stmt,isa 0
     594 00000059 D008          MOVB      XAR0,#8               ; [CPU_ALU] |27| 
TMS320C2000 Assembler PC v20.2.1 Wed Nov 18 21:47:52 2020

Copyright (c) 1996-2018 Texas Instruments Incorporated
DRV830x_SPI.asm                                                      PAGE   12

     595 0000005a 2B94          MOV       *+XAR4[AR0],#0        ; [CPU_ALU] |27| 
     596 0000005b       $C$L6:    
     597                      .dwpsn  file "../sources/DRV830x_SPI.c",line 28,column 8,is_stmt,isa 0
     598 0000005b 46D4          TBIT      *+XAR4[2],#6          ; [CPU_ALU] |28| 
     599 0000005c 6CFF          B         $C$L6,NTC             ; [CPU_ALU] |28| 
     600                      ; branchcc occurs ; [] |28| 
     601                      .dwpsn  file "../sources/DRV830x_SPI.c",line 29,column 2,is_stmt,isa 0
     602 0000005d 92FC          MOV       AL,*+XAR4[7]          ; [CPU_ALU] |29| 
     603 0000005e FE82          SUBB      SP,#2                 ; [CPU_ARAU] 
     604                      .dwcfi  cfa_offset, -6
     605 0000005f 86BE          MOVL      XAR2,*--SP            ; [CPU_ALU] 
     606                      .dwcfi  cfa_offset, -4
     607                      .dwcfi  restore_reg, 9
     608 00000060 8BBE          MOVL      XAR1,*--SP            ; [CPU_ALU] 
     609                      .dwcfi  cfa_offset, -2
     610                      .dwcfi  restore_reg, 7
     611              $C$DW$47        .dwtag  DW_TAG_TI_branch
     612                      .dwattr $C$DW$47, DW_AT_low_pc(0x00)
     613                      .dwattr $C$DW$47, DW_AT_TI_return
     614              
     615 00000061 0006          LRETR     ; [CPU_ALU] 
     616                      ; return occurs ; [] 
     617                      .dwattr $C$DW$36, DW_AT_TI_end_file("../sources/DRV830x_SPI.c")
     618                      .dwattr $C$DW$36, DW_AT_TI_end_line(0x72)
     619                      .dwattr $C$DW$36, DW_AT_TI_end_column(0x01)
     620                      .dwendentry
     621                      .dwendtag $C$DW$36
     622              
     623              ;**************************************************************
     624              ;* UNDEFINED EXTERNAL REFERENCES                              *
     625              ;**************************************************************
     626                      .global _F28x_usDelay
     627              
     628              ;***************************************************************
     629              ;* TYPE INFORMATION                                            *
     630              ;***************************************************************
     631              
     632              $C$DW$T$20      .dwtag  DW_TAG_structure_type
     633                      .dwattr $C$DW$T$20, DW_AT_byte_size(0x0a)
     634              $C$DW$48        .dwtag  DW_TAG_member
     635                      .dwattr $C$DW$48, DW_AT_type(*$C$DW$T$19)
     636                      .dwattr $C$DW$48, DW_AT_name("As")
     637                      .dwattr $C$DW$48, DW_AT_TI_symbol_name("_As")
     638                      .dwattr $C$DW$48, DW_AT_data_member_location[DW_OP_plus_uconst 0x0]
     639                      .dwattr $C$DW$48, DW_AT_accessibility(DW_ACCESS_public)
     640              
     641              $C$DW$49        .dwtag  DW_TAG_member
     642                      .dwattr $C$DW$49, DW_AT_type(*$C$DW$T$19)
     643                      .dwattr $C$DW$49, DW_AT_name("Bs")
     644                      .dwattr $C$DW$49, DW_AT_TI_symbol_name("_Bs")
     645                      .dwattr $C$DW$49, DW_AT_data_member_location[DW_OP_plus_uconst 0x2]
     646                      .dwattr $C$DW$49, DW_AT_accessibility(DW_ACCESS_public)
     647              
     648              $C$DW$50        .dwtag  DW_TAG_member
     649                      .dwattr $C$DW$50, DW_AT_type(*$C$DW$T$19)
TMS320C2000 Assembler PC v20.2.1 Wed Nov 18 21:47:52 2020

Copyright (c) 1996-2018 Texas Instruments Incorporated
DRV830x_SPI.asm                                                      PAGE   13

     650                      .dwattr $C$DW$50, DW_AT_name("Cs")
     651                      .dwattr $C$DW$50, DW_AT_TI_symbol_name("_Cs")
     652                      .dwattr $C$DW$50, DW_AT_data_member_location[DW_OP_plus_uconst 0x4]
     653                      .dwattr $C$DW$50, DW_AT_accessibility(DW_ACCESS_public)
     654              
     655              $C$DW$51        .dwtag  DW_TAG_member
     656                      .dwattr $C$DW$51, DW_AT_type(*$C$DW$T$19)
     657                      .dwattr $C$DW$51, DW_AT_name("Alpha")
     658                      .dwattr $C$DW$51, DW_AT_TI_symbol_name("_Alpha")
     659                      .dwattr $C$DW$51, DW_AT_data_member_location[DW_OP_plus_uconst 0x6]
     660                      .dwattr $C$DW$51, DW_AT_accessibility(DW_ACCESS_public)
     661              
     662              $C$DW$52        .dwtag  DW_TAG_member
     663                      .dwattr $C$DW$52, DW_AT_type(*$C$DW$T$19)
     664                      .dwattr $C$DW$52, DW_AT_name("Beta")
     665                      .dwattr $C$DW$52, DW_AT_TI_symbol_name("_Beta")
     666                      .dwattr $C$DW$52, DW_AT_data_member_location[DW_OP_plus_uconst 0x8]
     667                      .dwattr $C$DW$52, DW_AT_accessibility(DW_ACCESS_public)
     668              
     669                      .dwendtag $C$DW$T$20
     670              
     671              $C$DW$T$77      .dwtag  DW_TAG_typedef
     672                      .dwattr $C$DW$T$77, DW_AT_name("CLARKE")
     673                      .dwattr $C$DW$T$77, DW_AT_type(*$C$DW$T$20)
     674                      .dwattr $C$DW$T$77, DW_AT_language(DW_LANG_C)
     675              
     676              
     677              $C$DW$T$21      .dwtag  DW_TAG_structure_type
     678                      .dwattr $C$DW$T$21, DW_AT_byte_size(0x0e)
     679              $C$DW$53        .dwtag  DW_TAG_member
     680                      .dwattr $C$DW$53, DW_AT_type(*$C$DW$T$19)
     681                      .dwattr $C$DW$53, DW_AT_name("Alpha")
     682                      .dwattr $C$DW$53, DW_AT_TI_symbol_name("_Alpha")
     683                      .dwattr $C$DW$53, DW_AT_data_member_location[DW_OP_plus_uconst 0x0]
     684                      .dwattr $C$DW$53, DW_AT_accessibility(DW_ACCESS_public)
     685              
     686              $C$DW$54        .dwtag  DW_TAG_member
     687                      .dwattr $C$DW$54, DW_AT_type(*$C$DW$T$19)
     688                      .dwattr $C$DW$54, DW_AT_name("Beta")
     689                      .dwattr $C$DW$54, DW_AT_TI_symbol_name("_Beta")
     690                      .dwattr $C$DW$54, DW_AT_data_member_location[DW_OP_plus_uconst 0x2]
     691                      .dwattr $C$DW$54, DW_AT_accessibility(DW_ACCESS_public)
     692              
     693              $C$DW$55        .dwtag  DW_TAG_member
     694                      .dwattr $C$DW$55, DW_AT_type(*$C$DW$T$19)
     695                      .dwattr $C$DW$55, DW_AT_name("Angle")
     696                      .dwattr $C$DW$55, DW_AT_TI_symbol_name("_Angle")
     697                      .dwattr $C$DW$55, DW_AT_data_member_location[DW_OP_plus_uconst 0x4]
     698                      .dwattr $C$DW$55, DW_AT_accessibility(DW_ACCESS_public)
     699              
     700              $C$DW$56        .dwtag  DW_TAG_member
     701                      .dwattr $C$DW$56, DW_AT_type(*$C$DW$T$19)
     702                      .dwattr $C$DW$56, DW_AT_name("Ds")
     703                      .dwattr $C$DW$56, DW_AT_TI_symbol_name("_Ds")
     704                      .dwattr $C$DW$56, DW_AT_data_member_location[DW_OP_plus_uconst 0x6]
TMS320C2000 Assembler PC v20.2.1 Wed Nov 18 21:47:52 2020

Copyright (c) 1996-2018 Texas Instruments Incorporated
DRV830x_SPI.asm                                                      PAGE   14

     705                      .dwattr $C$DW$56, DW_AT_accessibility(DW_ACCESS_public)
     706              
     707              $C$DW$57        .dwtag  DW_TAG_member
     708                      .dwattr $C$DW$57, DW_AT_type(*$C$DW$T$19)
     709                      .dwattr $C$DW$57, DW_AT_name("Qs")
     710                      .dwattr $C$DW$57, DW_AT_TI_symbol_name("_Qs")
     711                      .dwattr $C$DW$57, DW_AT_data_member_location[DW_OP_plus_uconst 0x8]
     712                      .dwattr $C$DW$57, DW_AT_accessibility(DW_ACCESS_public)
     713              
     714              $C$DW$58        .dwtag  DW_TAG_member
     715                      .dwattr $C$DW$58, DW_AT_type(*$C$DW$T$19)
     716                      .dwattr $C$DW$58, DW_AT_name("Sine")
     717                      .dwattr $C$DW$58, DW_AT_TI_symbol_name("_Sine")
     718                      .dwattr $C$DW$58, DW_AT_data_member_location[DW_OP_plus_uconst 0xa]
     719                      .dwattr $C$DW$58, DW_AT_accessibility(DW_ACCESS_public)
     720              
     721              $C$DW$59        .dwtag  DW_TAG_member
     722                      .dwattr $C$DW$59, DW_AT_type(*$C$DW$T$19)
     723                      .dwattr $C$DW$59, DW_AT_name("Cosine")
     724                      .dwattr $C$DW$59, DW_AT_TI_symbol_name("_Cosine")
     725                      .dwattr $C$DW$59, DW_AT_data_member_location[DW_OP_plus_uconst 0xc]
     726                      .dwattr $C$DW$59, DW_AT_accessibility(DW_ACCESS_public)
     727              
     728                      .dwendtag $C$DW$T$21
     729              
     730              $C$DW$T$78      .dwtag  DW_TAG_typedef
     731                      .dwattr $C$DW$T$78, DW_AT_name("PARK")
     732                      .dwattr $C$DW$T$78, DW_AT_type(*$C$DW$T$21)
     733                      .dwattr $C$DW$T$78, DW_AT_language(DW_LANG_C)
     734              
     735              
     736              $C$DW$T$22      .dwtag  DW_TAG_structure_type
     737                      .dwattr $C$DW$T$22, DW_AT_byte_size(0x0e)
     738              $C$DW$60        .dwtag  DW_TAG_member
     739                      .dwattr $C$DW$60, DW_AT_type(*$C$DW$T$19)
     740                      .dwattr $C$DW$60, DW_AT_name("Alpha")
     741                      .dwattr $C$DW$60, DW_AT_TI_symbol_name("_Alpha")
     742                      .dwattr $C$DW$60, DW_AT_data_member_location[DW_OP_plus_uconst 0x0]
     743                      .dwattr $C$DW$60, DW_AT_accessibility(DW_ACCESS_public)
     744              
     745              $C$DW$61        .dwtag  DW_TAG_member
     746                      .dwattr $C$DW$61, DW_AT_type(*$C$DW$T$19)
     747                      .dwattr $C$DW$61, DW_AT_name("Beta")
     748                      .dwattr $C$DW$61, DW_AT_TI_symbol_name("_Beta")
     749                      .dwattr $C$DW$61, DW_AT_data_member_location[DW_OP_plus_uconst 0x2]
     750                      .dwattr $C$DW$61, DW_AT_accessibility(DW_ACCESS_public)
     751              
     752              $C$DW$62        .dwtag  DW_TAG_member
     753                      .dwattr $C$DW$62, DW_AT_type(*$C$DW$T$19)
     754                      .dwattr $C$DW$62, DW_AT_name("Angle")
     755                      .dwattr $C$DW$62, DW_AT_TI_symbol_name("_Angle")
     756                      .dwattr $C$DW$62, DW_AT_data_member_location[DW_OP_plus_uconst 0x4]
     757                      .dwattr $C$DW$62, DW_AT_accessibility(DW_ACCESS_public)
     758              
     759              $C$DW$63        .dwtag  DW_TAG_member
TMS320C2000 Assembler PC v20.2.1 Wed Nov 18 21:47:52 2020

Copyright (c) 1996-2018 Texas Instruments Incorporated
DRV830x_SPI.asm                                                      PAGE   15

     760                      .dwattr $C$DW$63, DW_AT_type(*$C$DW$T$19)
     761                      .dwattr $C$DW$63, DW_AT_name("Ds")
     762                      .dwattr $C$DW$63, DW_AT_TI_symbol_name("_Ds")
     763                      .dwattr $C$DW$63, DW_AT_data_member_location[DW_OP_plus_uconst 0x6]
     764                      .dwattr $C$DW$63, DW_AT_accessibility(DW_ACCESS_public)
     765              
     766              $C$DW$64        .dwtag  DW_TAG_member
     767                      .dwattr $C$DW$64, DW_AT_type(*$C$DW$T$19)
     768                      .dwattr $C$DW$64, DW_AT_name("Qs")
     769                      .dwattr $C$DW$64, DW_AT_TI_symbol_name("_Qs")
     770                      .dwattr $C$DW$64, DW_AT_data_member_location[DW_OP_plus_uconst 0x8]
     771                      .dwattr $C$DW$64, DW_AT_accessibility(DW_ACCESS_public)
     772              
     773              $C$DW$65        .dwtag  DW_TAG_member
     774                      .dwattr $C$DW$65, DW_AT_type(*$C$DW$T$19)
     775                      .dwattr $C$DW$65, DW_AT_name("Sine")
     776                      .dwattr $C$DW$65, DW_AT_TI_symbol_name("_Sine")
     777                      .dwattr $C$DW$65, DW_AT_data_member_location[DW_OP_plus_uconst 0xa]
     778                      .dwattr $C$DW$65, DW_AT_accessibility(DW_ACCESS_public)
     779              
     780              $C$DW$66        .dwtag  DW_TAG_member
     781                      .dwattr $C$DW$66, DW_AT_type(*$C$DW$T$19)
     782                      .dwattr $C$DW$66, DW_AT_name("Cosine")
     783                      .dwattr $C$DW$66, DW_AT_TI_symbol_name("_Cosine")
     784                      .dwattr $C$DW$66, DW_AT_data_member_location[DW_OP_plus_uconst 0xc]
     785                      .dwattr $C$DW$66, DW_AT_accessibility(DW_ACCESS_public)
     786              
     787                      .dwendtag $C$DW$T$22
     788              
     789              $C$DW$T$79      .dwtag  DW_TAG_typedef
     790                      .dwattr $C$DW$T$79, DW_AT_name("IPARK")
     791                      .dwattr $C$DW$T$79, DW_AT_type(*$C$DW$T$22)
     792                      .dwattr $C$DW$T$79, DW_AT_language(DW_LANG_C)
     793              
     794              
     795              $C$DW$T$23      .dwtag  DW_TAG_structure_type
     796                      .dwattr $C$DW$T$23, DW_AT_byte_size(0x20)
     797              $C$DW$67        .dwtag  DW_TAG_member
     798                      .dwattr $C$DW$67, DW_AT_type(*$C$DW$T$19)
     799                      .dwattr $C$DW$67, DW_AT_name("Ref")
     800                      .dwattr $C$DW$67, DW_AT_TI_symbol_name("_Ref")
     801                      .dwattr $C$DW$67, DW_AT_data_member_location[DW_OP_plus_uconst 0x0]
     802                      .dwattr $C$DW$67, DW_AT_accessibility(DW_ACCESS_public)
     803              
     804              $C$DW$68        .dwtag  DW_TAG_member
     805                      .dwattr $C$DW$68, DW_AT_type(*$C$DW$T$19)
     806                      .dwattr $C$DW$68, DW_AT_name("Fdb")
     807                      .dwattr $C$DW$68, DW_AT_TI_symbol_name("_Fdb")
     808                      .dwattr $C$DW$68, DW_AT_data_member_location[DW_OP_plus_uconst 0x2]
     809                      .dwattr $C$DW$68, DW_AT_accessibility(DW_ACCESS_public)
     810              
     811              $C$DW$69        .dwtag  DW_TAG_member
     812                      .dwattr $C$DW$69, DW_AT_type(*$C$DW$T$19)
     813                      .dwattr $C$DW$69, DW_AT_name("Err")
     814                      .dwattr $C$DW$69, DW_AT_TI_symbol_name("_Err")
TMS320C2000 Assembler PC v20.2.1 Wed Nov 18 21:47:52 2020

Copyright (c) 1996-2018 Texas Instruments Incorporated
DRV830x_SPI.asm                                                      PAGE   16

     815                      .dwattr $C$DW$69, DW_AT_data_member_location[DW_OP_plus_uconst 0x4]
     816                      .dwattr $C$DW$69, DW_AT_accessibility(DW_ACCESS_public)
     817              
     818              $C$DW$70        .dwtag  DW_TAG_member
     819                      .dwattr $C$DW$70, DW_AT_type(*$C$DW$T$19)
     820                      .dwattr $C$DW$70, DW_AT_name("Kp")
     821                      .dwattr $C$DW$70, DW_AT_TI_symbol_name("_Kp")
     822                      .dwattr $C$DW$70, DW_AT_data_member_location[DW_OP_plus_uconst 0x6]
     823                      .dwattr $C$DW$70, DW_AT_accessibility(DW_ACCESS_public)
     824              
     825              $C$DW$71        .dwtag  DW_TAG_member
     826                      .dwattr $C$DW$71, DW_AT_type(*$C$DW$T$19)
     827                      .dwattr $C$DW$71, DW_AT_name("Up")
     828                      .dwattr $C$DW$71, DW_AT_TI_symbol_name("_Up")
     829                      .dwattr $C$DW$71, DW_AT_data_member_location[DW_OP_plus_uconst 0x8]
     830                      .dwattr $C$DW$71, DW_AT_accessibility(DW_ACCESS_public)
     831              
     832              $C$DW$72        .dwtag  DW_TAG_member
     833                      .dwattr $C$DW$72, DW_AT_type(*$C$DW$T$19)
     834                      .dwattr $C$DW$72, DW_AT_name("Ui")
     835                      .dwattr $C$DW$72, DW_AT_TI_symbol_name("_Ui")
     836                      .dwattr $C$DW$72, DW_AT_data_member_location[DW_OP_plus_uconst 0xa]
     837                      .dwattr $C$DW$72, DW_AT_accessibility(DW_ACCESS_public)
     838              
     839              $C$DW$73        .dwtag  DW_TAG_member
     840                      .dwattr $C$DW$73, DW_AT_type(*$C$DW$T$19)
     841                      .dwattr $C$DW$73, DW_AT_name("Ud")
     842                      .dwattr $C$DW$73, DW_AT_TI_symbol_name("_Ud")
     843                      .dwattr $C$DW$73, DW_AT_data_member_location[DW_OP_plus_uconst 0xc]
     844                      .dwattr $C$DW$73, DW_AT_accessibility(DW_ACCESS_public)
     845              
     846              $C$DW$74        .dwtag  DW_TAG_member
     847                      .dwattr $C$DW$74, DW_AT_type(*$C$DW$T$19)
     848                      .dwattr $C$DW$74, DW_AT_name("OutPreSat")
     849                      .dwattr $C$DW$74, DW_AT_TI_symbol_name("_OutPreSat")
     850                      .dwattr $C$DW$74, DW_AT_data_member_location[DW_OP_plus_uconst 0xe]
     851                      .dwattr $C$DW$74, DW_AT_accessibility(DW_ACCESS_public)
     852              
     853              $C$DW$75        .dwtag  DW_TAG_member
     854                      .dwattr $C$DW$75, DW_AT_type(*$C$DW$T$19)
     855                      .dwattr $C$DW$75, DW_AT_name("OutMax")
     856                      .dwattr $C$DW$75, DW_AT_TI_symbol_name("_OutMax")
     857                      .dwattr $C$DW$75, DW_AT_data_member_location[DW_OP_plus_uconst 0x10]
     858                      .dwattr $C$DW$75, DW_AT_accessibility(DW_ACCESS_public)
     859              
     860              $C$DW$76        .dwtag  DW_TAG_member
     861                      .dwattr $C$DW$76, DW_AT_type(*$C$DW$T$19)
     862                      .dwattr $C$DW$76, DW_AT_name("OutMin")
     863                      .dwattr $C$DW$76, DW_AT_TI_symbol_name("_OutMin")
     864                      .dwattr $C$DW$76, DW_AT_data_member_location[DW_OP_plus_uconst 0x12]
     865                      .dwattr $C$DW$76, DW_AT_accessibility(DW_ACCESS_public)
     866              
     867              $C$DW$77        .dwtag  DW_TAG_member
     868                      .dwattr $C$DW$77, DW_AT_type(*$C$DW$T$19)
     869                      .dwattr $C$DW$77, DW_AT_name("Out")
TMS320C2000 Assembler PC v20.2.1 Wed Nov 18 21:47:52 2020

Copyright (c) 1996-2018 Texas Instruments Incorporated
DRV830x_SPI.asm                                                      PAGE   17

     870                      .dwattr $C$DW$77, DW_AT_TI_symbol_name("_Out")
     871                      .dwattr $C$DW$77, DW_AT_data_member_location[DW_OP_plus_uconst 0x14]
     872                      .dwattr $C$DW$77, DW_AT_accessibility(DW_ACCESS_public)
     873              
     874              $C$DW$78        .dwtag  DW_TAG_member
     875                      .dwattr $C$DW$78, DW_AT_type(*$C$DW$T$19)
     876                      .dwattr $C$DW$78, DW_AT_name("SatErr")
     877                      .dwattr $C$DW$78, DW_AT_TI_symbol_name("_SatErr")
     878                      .dwattr $C$DW$78, DW_AT_data_member_location[DW_OP_plus_uconst 0x16]
     879                      .dwattr $C$DW$78, DW_AT_accessibility(DW_ACCESS_public)
     880              
     881              $C$DW$79        .dwtag  DW_TAG_member
     882                      .dwattr $C$DW$79, DW_AT_type(*$C$DW$T$19)
     883                      .dwattr $C$DW$79, DW_AT_name("Ki")
     884                      .dwattr $C$DW$79, DW_AT_TI_symbol_name("_Ki")
     885                      .dwattr $C$DW$79, DW_AT_data_member_location[DW_OP_plus_uconst 0x18]
     886                      .dwattr $C$DW$79, DW_AT_accessibility(DW_ACCESS_public)
     887              
     888              $C$DW$80        .dwtag  DW_TAG_member
     889                      .dwattr $C$DW$80, DW_AT_type(*$C$DW$T$19)
     890                      .dwattr $C$DW$80, DW_AT_name("Kc")
     891                      .dwattr $C$DW$80, DW_AT_TI_symbol_name("_Kc")
     892                      .dwattr $C$DW$80, DW_AT_data_member_location[DW_OP_plus_uconst 0x1a]
     893                      .dwattr $C$DW$80, DW_AT_accessibility(DW_ACCESS_public)
     894              
     895              $C$DW$81        .dwtag  DW_TAG_member
     896                      .dwattr $C$DW$81, DW_AT_type(*$C$DW$T$19)
     897                      .dwattr $C$DW$81, DW_AT_name("Kd")
     898                      .dwattr $C$DW$81, DW_AT_TI_symbol_name("_Kd")
     899                      .dwattr $C$DW$81, DW_AT_data_member_location[DW_OP_plus_uconst 0x1c]
     900                      .dwattr $C$DW$81, DW_AT_accessibility(DW_ACCESS_public)
     901              
     902              $C$DW$82        .dwtag  DW_TAG_member
     903                      .dwattr $C$DW$82, DW_AT_type(*$C$DW$T$19)
     904                      .dwattr $C$DW$82, DW_AT_name("Up1")
     905                      .dwattr $C$DW$82, DW_AT_TI_symbol_name("_Up1")
     906                      .dwattr $C$DW$82, DW_AT_data_member_location[DW_OP_plus_uconst 0x1e]
     907                      .dwattr $C$DW$82, DW_AT_accessibility(DW_ACCESS_public)
     908              
     909                      .dwendtag $C$DW$T$23
     910              
     911              $C$DW$T$80      .dwtag  DW_TAG_typedef
     912                      .dwattr $C$DW$T$80, DW_AT_name("PIDREG3")
     913                      .dwattr $C$DW$T$80, DW_AT_type(*$C$DW$T$23)
     914                      .dwattr $C$DW$T$80, DW_AT_language(DW_LANG_C)
     915              
     916              
     917              $C$DW$T$24      .dwtag  DW_TAG_structure_type
     918                      .dwattr $C$DW$T$24, DW_AT_byte_size(0x18)
     919              $C$DW$83        .dwtag  DW_TAG_member
     920                      .dwattr $C$DW$83, DW_AT_type(*$C$DW$T$19)
     921                      .dwattr $C$DW$83, DW_AT_name("Ref")
     922                      .dwattr $C$DW$83, DW_AT_TI_symbol_name("_Ref")
     923                      .dwattr $C$DW$83, DW_AT_data_member_location[DW_OP_plus_uconst 0x0]
     924                      .dwattr $C$DW$83, DW_AT_accessibility(DW_ACCESS_public)
TMS320C2000 Assembler PC v20.2.1 Wed Nov 18 21:47:52 2020

Copyright (c) 1996-2018 Texas Instruments Incorporated
DRV830x_SPI.asm                                                      PAGE   18

     925              
     926              $C$DW$84        .dwtag  DW_TAG_member
     927                      .dwattr $C$DW$84, DW_AT_type(*$C$DW$T$19)
     928                      .dwattr $C$DW$84, DW_AT_name("Fbk")
     929                      .dwattr $C$DW$84, DW_AT_TI_symbol_name("_Fbk")
     930                      .dwattr $C$DW$84, DW_AT_data_member_location[DW_OP_plus_uconst 0x2]
     931                      .dwattr $C$DW$84, DW_AT_accessibility(DW_ACCESS_public)
     932              
     933              $C$DW$85        .dwtag  DW_TAG_member
     934                      .dwattr $C$DW$85, DW_AT_type(*$C$DW$T$19)
     935                      .dwattr $C$DW$85, DW_AT_name("Out")
     936                      .dwattr $C$DW$85, DW_AT_TI_symbol_name("_Out")
     937                      .dwattr $C$DW$85, DW_AT_data_member_location[DW_OP_plus_uconst 0x4]
     938                      .dwattr $C$DW$85, DW_AT_accessibility(DW_ACCESS_public)
     939              
     940              $C$DW$86        .dwtag  DW_TAG_member
     941                      .dwattr $C$DW$86, DW_AT_type(*$C$DW$T$19)
     942                      .dwattr $C$DW$86, DW_AT_name("Kp")
     943                      .dwattr $C$DW$86, DW_AT_TI_symbol_name("_Kp")
     944                      .dwattr $C$DW$86, DW_AT_data_member_location[DW_OP_plus_uconst 0x6]
     945                      .dwattr $C$DW$86, DW_AT_accessibility(DW_ACCESS_public)
     946              
     947              $C$DW$87        .dwtag  DW_TAG_member
     948                      .dwattr $C$DW$87, DW_AT_type(*$C$DW$T$19)
     949                      .dwattr $C$DW$87, DW_AT_name("Ki")
     950                      .dwattr $C$DW$87, DW_AT_TI_symbol_name("_Ki")
     951                      .dwattr $C$DW$87, DW_AT_data_member_location[DW_OP_plus_uconst 0x8]
     952                      .dwattr $C$DW$87, DW_AT_accessibility(DW_ACCESS_public)
     953              
     954              $C$DW$88        .dwtag  DW_TAG_member
     955                      .dwattr $C$DW$88, DW_AT_type(*$C$DW$T$19)
     956                      .dwattr $C$DW$88, DW_AT_name("Umax")
     957                      .dwattr $C$DW$88, DW_AT_TI_symbol_name("_Umax")
     958                      .dwattr $C$DW$88, DW_AT_data_member_location[DW_OP_plus_uconst 0xa]
     959                      .dwattr $C$DW$88, DW_AT_accessibility(DW_ACCESS_public)
     960              
     961              $C$DW$89        .dwtag  DW_TAG_member
     962                      .dwattr $C$DW$89, DW_AT_type(*$C$DW$T$19)
     963                      .dwattr $C$DW$89, DW_AT_name("Umin")
     964                      .dwattr $C$DW$89, DW_AT_TI_symbol_name("_Umin")
     965                      .dwattr $C$DW$89, DW_AT_data_member_location[DW_OP_plus_uconst 0xc]
     966                      .dwattr $C$DW$89, DW_AT_accessibility(DW_ACCESS_public)
     967              
     968              $C$DW$90        .dwtag  DW_TAG_member
     969                      .dwattr $C$DW$90, DW_AT_type(*$C$DW$T$19)
     970                      .dwattr $C$DW$90, DW_AT_name("up")
     971                      .dwattr $C$DW$90, DW_AT_TI_symbol_name("_up")
     972                      .dwattr $C$DW$90, DW_AT_data_member_location[DW_OP_plus_uconst 0xe]
     973                      .dwattr $C$DW$90, DW_AT_accessibility(DW_ACCESS_public)
     974              
     975              $C$DW$91        .dwtag  DW_TAG_member
     976                      .dwattr $C$DW$91, DW_AT_type(*$C$DW$T$19)
     977                      .dwattr $C$DW$91, DW_AT_name("ui")
     978                      .dwattr $C$DW$91, DW_AT_TI_symbol_name("_ui")
     979                      .dwattr $C$DW$91, DW_AT_data_member_location[DW_OP_plus_uconst 0x10]
TMS320C2000 Assembler PC v20.2.1 Wed Nov 18 21:47:52 2020

Copyright (c) 1996-2018 Texas Instruments Incorporated
DRV830x_SPI.asm                                                      PAGE   19

     980                      .dwattr $C$DW$91, DW_AT_accessibility(DW_ACCESS_public)
     981              
     982              $C$DW$92        .dwtag  DW_TAG_member
     983                      .dwattr $C$DW$92, DW_AT_type(*$C$DW$T$19)
     984                      .dwattr $C$DW$92, DW_AT_name("v1")
     985                      .dwattr $C$DW$92, DW_AT_TI_symbol_name("_v1")
     986                      .dwattr $C$DW$92, DW_AT_data_member_location[DW_OP_plus_uconst 0x12]
     987                      .dwattr $C$DW$92, DW_AT_accessibility(DW_ACCESS_public)
     988              
     989              $C$DW$93        .dwtag  DW_TAG_member
     990                      .dwattr $C$DW$93, DW_AT_type(*$C$DW$T$19)
     991                      .dwattr $C$DW$93, DW_AT_name("i1")
     992                      .dwattr $C$DW$93, DW_AT_TI_symbol_name("_i1")
     993                      .dwattr $C$DW$93, DW_AT_data_member_location[DW_OP_plus_uconst 0x14]
     994                      .dwattr $C$DW$93, DW_AT_accessibility(DW_ACCESS_public)
     995              
     996              $C$DW$94        .dwtag  DW_TAG_member
     997                      .dwattr $C$DW$94, DW_AT_type(*$C$DW$T$19)
     998                      .dwattr $C$DW$94, DW_AT_name("w1")
     999                      .dwattr $C$DW$94, DW_AT_TI_symbol_name("_w1")
    1000                      .dwattr $C$DW$94, DW_AT_data_member_location[DW_OP_plus_uconst 0x16]
    1001                      .dwattr $C$DW$94, DW_AT_accessibility(DW_ACCESS_public)
    1002              
    1003                      .dwendtag $C$DW$T$24
    1004              
    1005              $C$DW$T$81      .dwtag  DW_TAG_typedef
    1006                      .dwattr $C$DW$T$81, DW_AT_name("PI_CONTROLLER")
    1007                      .dwattr $C$DW$T$81, DW_AT_type(*$C$DW$T$24)
    1008                      .dwattr $C$DW$T$81, DW_AT_language(DW_LANG_C)
    1009              
    1010              
    1011              $C$DW$T$25      .dwtag  DW_TAG_structure_type
    1012                      .dwattr $C$DW$T$25, DW_AT_byte_size(0x0a)
    1013              $C$DW$95        .dwtag  DW_TAG_member
    1014                      .dwattr $C$DW$95, DW_AT_type(*$C$DW$T$19)
    1015                      .dwattr $C$DW$95, DW_AT_name("Ref")
    1016                      .dwattr $C$DW$95, DW_AT_TI_symbol_name("_Ref")
    1017                      .dwattr $C$DW$95, DW_AT_data_member_location[DW_OP_plus_uconst 0x0]
    1018                      .dwattr $C$DW$95, DW_AT_accessibility(DW_ACCESS_public)
    1019              
    1020              $C$DW$96        .dwtag  DW_TAG_member
    1021                      .dwattr $C$DW$96, DW_AT_type(*$C$DW$T$19)
    1022                      .dwattr $C$DW$96, DW_AT_name("Fbk")
    1023                      .dwattr $C$DW$96, DW_AT_TI_symbol_name("_Fbk")
    1024                      .dwattr $C$DW$96, DW_AT_data_member_location[DW_OP_plus_uconst 0x2]
    1025                      .dwattr $C$DW$96, DW_AT_accessibility(DW_ACCESS_public)
    1026              
    1027              $C$DW$97        .dwtag  DW_TAG_member
    1028                      .dwattr $C$DW$97, DW_AT_type(*$C$DW$T$19)
    1029                      .dwattr $C$DW$97, DW_AT_name("Out")
    1030                      .dwattr $C$DW$97, DW_AT_TI_symbol_name("_Out")
    1031                      .dwattr $C$DW$97, DW_AT_data_member_location[DW_OP_plus_uconst 0x4]
    1032                      .dwattr $C$DW$97, DW_AT_accessibility(DW_ACCESS_public)
    1033              
    1034              $C$DW$98        .dwtag  DW_TAG_member
TMS320C2000 Assembler PC v20.2.1 Wed Nov 18 21:47:52 2020

Copyright (c) 1996-2018 Texas Instruments Incorporated
DRV830x_SPI.asm                                                      PAGE   20

    1035                      .dwattr $C$DW$98, DW_AT_type(*$C$DW$T$19)
    1036                      .dwattr $C$DW$98, DW_AT_name("c1")
    1037                      .dwattr $C$DW$98, DW_AT_TI_symbol_name("_c1")
    1038                      .dwattr $C$DW$98, DW_AT_data_member_location[DW_OP_plus_uconst 0x6]
    1039                      .dwattr $C$DW$98, DW_AT_accessibility(DW_ACCESS_public)
    1040              
    1041              $C$DW$99        .dwtag  DW_TAG_member
    1042                      .dwattr $C$DW$99, DW_AT_type(*$C$DW$T$19)
    1043                      .dwattr $C$DW$99, DW_AT_name("c2")
    1044                      .dwattr $C$DW$99, DW_AT_TI_symbol_name("_c2")
    1045                      .dwattr $C$DW$99, DW_AT_data_member_location[DW_OP_plus_uconst 0x8]
    1046                      .dwattr $C$DW$99, DW_AT_accessibility(DW_ACCESS_public)
    1047              
    1048                      .dwendtag $C$DW$T$25
    1049              
    1050              $C$DW$T$28      .dwtag  DW_TAG_typedef
    1051                      .dwattr $C$DW$T$28, DW_AT_name("PID_TERMINALS")
    1052                      .dwattr $C$DW$T$28, DW_AT_type(*$C$DW$T$25)
    1053                      .dwattr $C$DW$T$28, DW_AT_language(DW_LANG_C)
    1054              
    1055              
    1056              $C$DW$T$26      .dwtag  DW_TAG_structure_type
    1057                      .dwattr $C$DW$T$26, DW_AT_byte_size(0x0e)
    1058              $C$DW$100       .dwtag  DW_TAG_member
    1059                      .dwattr $C$DW$100, DW_AT_type(*$C$DW$T$19)
    1060                      .dwattr $C$DW$100, DW_AT_name("Kr")
    1061                      .dwattr $C$DW$100, DW_AT_TI_symbol_name("_Kr")
    1062                      .dwattr $C$DW$100, DW_AT_data_member_location[DW_OP_plus_uconst 0x0]
    1063                      .dwattr $C$DW$100, DW_AT_accessibility(DW_ACCESS_public)
    1064              
    1065              $C$DW$101       .dwtag  DW_TAG_member
    1066                      .dwattr $C$DW$101, DW_AT_type(*$C$DW$T$19)
    1067                      .dwattr $C$DW$101, DW_AT_name("Kp")
    1068                      .dwattr $C$DW$101, DW_AT_TI_symbol_name("_Kp")
    1069                      .dwattr $C$DW$101, DW_AT_data_member_location[DW_OP_plus_uconst 0x2]
    1070                      .dwattr $C$DW$101, DW_AT_accessibility(DW_ACCESS_public)
    1071              
    1072              $C$DW$102       .dwtag  DW_TAG_member
    1073                      .dwattr $C$DW$102, DW_AT_type(*$C$DW$T$19)
    1074                      .dwattr $C$DW$102, DW_AT_name("Ki")
    1075                      .dwattr $C$DW$102, DW_AT_TI_symbol_name("_Ki")
    1076                      .dwattr $C$DW$102, DW_AT_data_member_location[DW_OP_plus_uconst 0x4]
    1077                      .dwattr $C$DW$102, DW_AT_accessibility(DW_ACCESS_public)
    1078              
    1079              $C$DW$103       .dwtag  DW_TAG_member
    1080                      .dwattr $C$DW$103, DW_AT_type(*$C$DW$T$19)
    1081                      .dwattr $C$DW$103, DW_AT_name("Kd")
    1082                      .dwattr $C$DW$103, DW_AT_TI_symbol_name("_Kd")
    1083                      .dwattr $C$DW$103, DW_AT_data_member_location[DW_OP_plus_uconst 0x6]
    1084                      .dwattr $C$DW$103, DW_AT_accessibility(DW_ACCESS_public)
    1085              
    1086              $C$DW$104       .dwtag  DW_TAG_member
    1087                      .dwattr $C$DW$104, DW_AT_type(*$C$DW$T$19)
    1088                      .dwattr $C$DW$104, DW_AT_name("Km")
    1089                      .dwattr $C$DW$104, DW_AT_TI_symbol_name("_Km")
TMS320C2000 Assembler PC v20.2.1 Wed Nov 18 21:47:52 2020

Copyright (c) 1996-2018 Texas Instruments Incorporated
DRV830x_SPI.asm                                                      PAGE   21

    1090                      .dwattr $C$DW$104, DW_AT_data_member_location[DW_OP_plus_uconst 0x8]
    1091                      .dwattr $C$DW$104, DW_AT_accessibility(DW_ACCESS_public)
    1092              
    1093              $C$DW$105       .dwtag  DW_TAG_member
    1094                      .dwattr $C$DW$105, DW_AT_type(*$C$DW$T$19)
    1095                      .dwattr $C$DW$105, DW_AT_name("Umax")
    1096                      .dwattr $C$DW$105, DW_AT_TI_symbol_name("_Umax")
    1097                      .dwattr $C$DW$105, DW_AT_data_member_location[DW_OP_plus_uconst 0xa]
    1098                      .dwattr $C$DW$105, DW_AT_accessibility(DW_ACCESS_public)
    1099              
    1100              $C$DW$106       .dwtag  DW_TAG_member
    1101                      .dwattr $C$DW$106, DW_AT_type(*$C$DW$T$19)
    1102                      .dwattr $C$DW$106, DW_AT_name("Umin")
    1103                      .dwattr $C$DW$106, DW_AT_TI_symbol_name("_Umin")
    1104                      .dwattr $C$DW$106, DW_AT_data_member_location[DW_OP_plus_uconst 0xc]
    1105                      .dwattr $C$DW$106, DW_AT_accessibility(DW_ACCESS_public)
    1106              
    1107                      .dwendtag $C$DW$T$26
    1108              
    1109              $C$DW$T$29      .dwtag  DW_TAG_typedef
    1110                      .dwattr $C$DW$T$29, DW_AT_name("PID_PARAMETERS")
    1111                      .dwattr $C$DW$T$29, DW_AT_type(*$C$DW$T$26)
    1112                      .dwattr $C$DW$T$29, DW_AT_language(DW_LANG_C)
    1113              
    1114              
    1115              $C$DW$T$27      .dwtag  DW_TAG_structure_type
    1116                      .dwattr $C$DW$T$27, DW_AT_byte_size(0x10)
    1117              $C$DW$107       .dwtag  DW_TAG_member
    1118                      .dwattr $C$DW$107, DW_AT_type(*$C$DW$T$19)
    1119                      .dwattr $C$DW$107, DW_AT_name("up")
    1120                      .dwattr $C$DW$107, DW_AT_TI_symbol_name("_up")
    1121                      .dwattr $C$DW$107, DW_AT_data_member_location[DW_OP_plus_uconst 0x0]
    1122                      .dwattr $C$DW$107, DW_AT_accessibility(DW_ACCESS_public)
    1123              
    1124              $C$DW$108       .dwtag  DW_TAG_member
    1125                      .dwattr $C$DW$108, DW_AT_type(*$C$DW$T$19)
    1126                      .dwattr $C$DW$108, DW_AT_name("ui")
    1127                      .dwattr $C$DW$108, DW_AT_TI_symbol_name("_ui")
    1128                      .dwattr $C$DW$108, DW_AT_data_member_location[DW_OP_plus_uconst 0x2]
    1129                      .dwattr $C$DW$108, DW_AT_accessibility(DW_ACCESS_public)
    1130              
    1131              $C$DW$109       .dwtag  DW_TAG_member
    1132                      .dwattr $C$DW$109, DW_AT_type(*$C$DW$T$19)
    1133                      .dwattr $C$DW$109, DW_AT_name("ud")
    1134                      .dwattr $C$DW$109, DW_AT_TI_symbol_name("_ud")
    1135                      .dwattr $C$DW$109, DW_AT_data_member_location[DW_OP_plus_uconst 0x4]
    1136                      .dwattr $C$DW$109, DW_AT_accessibility(DW_ACCESS_public)
    1137              
    1138              $C$DW$110       .dwtag  DW_TAG_member
    1139                      .dwattr $C$DW$110, DW_AT_type(*$C$DW$T$19)
    1140                      .dwattr $C$DW$110, DW_AT_name("v1")
    1141                      .dwattr $C$DW$110, DW_AT_TI_symbol_name("_v1")
    1142                      .dwattr $C$DW$110, DW_AT_data_member_location[DW_OP_plus_uconst 0x6]
    1143                      .dwattr $C$DW$110, DW_AT_accessibility(DW_ACCESS_public)
    1144              
TMS320C2000 Assembler PC v20.2.1 Wed Nov 18 21:47:52 2020

Copyright (c) 1996-2018 Texas Instruments Incorporated
DRV830x_SPI.asm                                                      PAGE   22

    1145              $C$DW$111       .dwtag  DW_TAG_member
    1146                      .dwattr $C$DW$111, DW_AT_type(*$C$DW$T$19)
    1147                      .dwattr $C$DW$111, DW_AT_name("i1")
    1148                      .dwattr $C$DW$111, DW_AT_TI_symbol_name("_i1")
    1149                      .dwattr $C$DW$111, DW_AT_data_member_location[DW_OP_plus_uconst 0x8]
    1150                      .dwattr $C$DW$111, DW_AT_accessibility(DW_ACCESS_public)
    1151              
    1152              $C$DW$112       .dwtag  DW_TAG_member
    1153                      .dwattr $C$DW$112, DW_AT_type(*$C$DW$T$19)
    1154                      .dwattr $C$DW$112, DW_AT_name("d1")
    1155                      .dwattr $C$DW$112, DW_AT_TI_symbol_name("_d1")
    1156                      .dwattr $C$DW$112, DW_AT_data_member_location[DW_OP_plus_uconst 0xa]
    1157                      .dwattr $C$DW$112, DW_AT_accessibility(DW_ACCESS_public)
    1158              
    1159              $C$DW$113       .dwtag  DW_TAG_member
    1160                      .dwattr $C$DW$113, DW_AT_type(*$C$DW$T$19)
    1161                      .dwattr $C$DW$113, DW_AT_name("d2")
    1162                      .dwattr $C$DW$113, DW_AT_TI_symbol_name("_d2")
    1163                      .dwattr $C$DW$113, DW_AT_data_member_location[DW_OP_plus_uconst 0xc]
    1164                      .dwattr $C$DW$113, DW_AT_accessibility(DW_ACCESS_public)
    1165              
    1166              $C$DW$114       .dwtag  DW_TAG_member
    1167                      .dwattr $C$DW$114, DW_AT_type(*$C$DW$T$19)
    1168                      .dwattr $C$DW$114, DW_AT_name("w1")
    1169                      .dwattr $C$DW$114, DW_AT_TI_symbol_name("_w1")
    1170                      .dwattr $C$DW$114, DW_AT_data_member_location[DW_OP_plus_uconst 0xe]
    1171                      .dwattr $C$DW$114, DW_AT_accessibility(DW_ACCESS_public)
    1172              
    1173                      .dwendtag $C$DW$T$27
    1174              
    1175              $C$DW$T$30      .dwtag  DW_TAG_typedef
    1176                      .dwattr $C$DW$T$30, DW_AT_name("PID_DATA")
    1177                      .dwattr $C$DW$T$30, DW_AT_type(*$C$DW$T$27)
    1178                      .dwattr $C$DW$T$30, DW_AT_language(DW_LANG_C)
    1179              
    1180              
    1181              $C$DW$T$31      .dwtag  DW_TAG_structure_type
    1182                      .dwattr $C$DW$T$31, DW_AT_byte_size(0x28)
    1183              $C$DW$115       .dwtag  DW_TAG_member
    1184                      .dwattr $C$DW$115, DW_AT_type(*$C$DW$T$28)
    1185                      .dwattr $C$DW$115, DW_AT_name("term")
    1186                      .dwattr $C$DW$115, DW_AT_TI_symbol_name("_term")
    1187                      .dwattr $C$DW$115, DW_AT_data_member_location[DW_OP_plus_uconst 0x0]
    1188                      .dwattr $C$DW$115, DW_AT_accessibility(DW_ACCESS_public)
    1189              
    1190              $C$DW$116       .dwtag  DW_TAG_member
    1191                      .dwattr $C$DW$116, DW_AT_type(*$C$DW$T$29)
    1192                      .dwattr $C$DW$116, DW_AT_name("param")
    1193                      .dwattr $C$DW$116, DW_AT_TI_symbol_name("_param")
    1194                      .dwattr $C$DW$116, DW_AT_data_member_location[DW_OP_plus_uconst 0xa]
    1195                      .dwattr $C$DW$116, DW_AT_accessibility(DW_ACCESS_public)
    1196              
    1197              $C$DW$117       .dwtag  DW_TAG_member
    1198                      .dwattr $C$DW$117, DW_AT_type(*$C$DW$T$30)
    1199                      .dwattr $C$DW$117, DW_AT_name("data")
TMS320C2000 Assembler PC v20.2.1 Wed Nov 18 21:47:52 2020

Copyright (c) 1996-2018 Texas Instruments Incorporated
DRV830x_SPI.asm                                                      PAGE   23

    1200                      .dwattr $C$DW$117, DW_AT_TI_symbol_name("_data")
    1201                      .dwattr $C$DW$117, DW_AT_data_member_location[DW_OP_plus_uconst 0x18]
    1202                      .dwattr $C$DW$117, DW_AT_accessibility(DW_ACCESS_public)
    1203              
    1204                      .dwendtag $C$DW$T$31
    1205              
    1206              $C$DW$T$82      .dwtag  DW_TAG_typedef
    1207                      .dwattr $C$DW$T$82, DW_AT_name("PID_CONTROLLER")
    1208                      .dwattr $C$DW$T$82, DW_AT_type(*$C$DW$T$31)
    1209                      .dwattr $C$DW$T$82, DW_AT_language(DW_LANG_C)
    1210              
    1211              
    1212              $C$DW$T$33      .dwtag  DW_TAG_structure_type
    1213                      .dwattr $C$DW$T$33, DW_AT_byte_size(0x22)
    1214              $C$DW$118       .dwtag  DW_TAG_member
    1215                      .dwattr $C$DW$118, DW_AT_type(*$C$DW$T$32)
    1216                      .dwattr $C$DW$118, DW_AT_name("Ref")
    1217                      .dwattr $C$DW$118, DW_AT_TI_symbol_name("_Ref")
    1218                      .dwattr $C$DW$118, DW_AT_data_member_location[DW_OP_plus_uconst 0x0]
    1219                      .dwattr $C$DW$118, DW_AT_accessibility(DW_ACCESS_public)
    1220              
    1221              $C$DW$119       .dwtag  DW_TAG_member
    1222                      .dwattr $C$DW$119, DW_AT_type(*$C$DW$T$32)
    1223                      .dwattr $C$DW$119, DW_AT_name("Fbk")
    1224                      .dwattr $C$DW$119, DW_AT_TI_symbol_name("_Fbk")
    1225                      .dwattr $C$DW$119, DW_AT_data_member_location[DW_OP_plus_uconst 0x2]
    1226                      .dwattr $C$DW$119, DW_AT_accessibility(DW_ACCESS_public)
    1227              
    1228              $C$DW$120       .dwtag  DW_TAG_member
    1229                      .dwattr $C$DW$120, DW_AT_type(*$C$DW$T$32)
    1230                      .dwattr $C$DW$120, DW_AT_name("Err")
    1231                      .dwattr $C$DW$120, DW_AT_TI_symbol_name("_Err")
    1232                      .dwattr $C$DW$120, DW_AT_data_member_location[DW_OP_plus_uconst 0x4]
    1233                      .dwattr $C$DW$120, DW_AT_accessibility(DW_ACCESS_public)
    1234              
    1235              $C$DW$121       .dwtag  DW_TAG_member
    1236                      .dwattr $C$DW$121, DW_AT_type(*$C$DW$T$32)
    1237                      .dwattr $C$DW$121, DW_AT_name("xErr")
    1238                      .dwattr $C$DW$121, DW_AT_TI_symbol_name("_xErr")
    1239                      .dwattr $C$DW$121, DW_AT_data_member_location[DW_OP_plus_uconst 0x6]
    1240                      .dwattr $C$DW$121, DW_AT_accessibility(DW_ACCESS_public)
    1241              
    1242              $C$DW$122       .dwtag  DW_TAG_member
    1243                      .dwattr $C$DW$122, DW_AT_type(*$C$DW$T$32)
    1244                      .dwattr $C$DW$122, DW_AT_name("Out")
    1245                      .dwattr $C$DW$122, DW_AT_TI_symbol_name("_Out")
    1246                      .dwattr $C$DW$122, DW_AT_data_member_location[DW_OP_plus_uconst 0x8]
    1247                      .dwattr $C$DW$122, DW_AT_accessibility(DW_ACCESS_public)
    1248              
    1249              $C$DW$123       .dwtag  DW_TAG_member
    1250                      .dwattr $C$DW$123, DW_AT_type(*$C$DW$T$32)
    1251                      .dwattr $C$DW$123, DW_AT_name("CarryOver")
    1252                      .dwattr $C$DW$123, DW_AT_TI_symbol_name("_CarryOver")
    1253                      .dwattr $C$DW$123, DW_AT_data_member_location[DW_OP_plus_uconst 0xa]
    1254                      .dwattr $C$DW$123, DW_AT_accessibility(DW_ACCESS_public)
TMS320C2000 Assembler PC v20.2.1 Wed Nov 18 21:47:52 2020

Copyright (c) 1996-2018 Texas Instruments Incorporated
DRV830x_SPI.asm                                                      PAGE   24

    1255              
    1256              $C$DW$124       .dwtag  DW_TAG_member
    1257                      .dwattr $C$DW$124, DW_AT_type(*$C$DW$T$32)
    1258                      .dwattr $C$DW$124, DW_AT_name("Kp")
    1259                      .dwattr $C$DW$124, DW_AT_TI_symbol_name("_Kp")
    1260                      .dwattr $C$DW$124, DW_AT_data_member_location[DW_OP_plus_uconst 0xc]
    1261                      .dwattr $C$DW$124, DW_AT_accessibility(DW_ACCESS_public)
    1262              
    1263              $C$DW$125       .dwtag  DW_TAG_member
    1264                      .dwattr $C$DW$125, DW_AT_type(*$C$DW$T$32)
    1265                      .dwattr $C$DW$125, DW_AT_name("Ki")
    1266                      .dwattr $C$DW$125, DW_AT_TI_symbol_name("_Ki")
    1267                      .dwattr $C$DW$125, DW_AT_data_member_location[DW_OP_plus_uconst 0xe]
    1268                      .dwattr $C$DW$125, DW_AT_accessibility(DW_ACCESS_public)
    1269              
    1270              $C$DW$126       .dwtag  DW_TAG_member
    1271                      .dwattr $C$DW$126, DW_AT_type(*$C$DW$T$32)
    1272                      .dwattr $C$DW$126, DW_AT_name("Kerr")
    1273                      .dwattr $C$DW$126, DW_AT_TI_symbol_name("_Kerr")
    1274                      .dwattr $C$DW$126, DW_AT_data_member_location[DW_OP_plus_uconst 0x10]
    1275                      .dwattr $C$DW$126, DW_AT_accessibility(DW_ACCESS_public)
    1276              
    1277              $C$DW$127       .dwtag  DW_TAG_member
    1278                      .dwattr $C$DW$127, DW_AT_type(*$C$DW$T$32)
    1279                      .dwattr $C$DW$127, DW_AT_name("Kxerr")
    1280                      .dwattr $C$DW$127, DW_AT_TI_symbol_name("_Kxerr")
    1281                      .dwattr $C$DW$127, DW_AT_data_member_location[DW_OP_plus_uconst 0x12]
    1282                      .dwattr $C$DW$127, DW_AT_accessibility(DW_ACCESS_public)
    1283              
    1284              $C$DW$128       .dwtag  DW_TAG_member
    1285                      .dwattr $C$DW$128, DW_AT_type(*$C$DW$T$32)
    1286                      .dwattr $C$DW$128, DW_AT_name("KerrOld")
    1287                      .dwattr $C$DW$128, DW_AT_TI_symbol_name("_KerrOld")
    1288                      .dwattr $C$DW$128, DW_AT_data_member_location[DW_OP_plus_uconst 0x14]
    1289                      .dwattr $C$DW$128, DW_AT_accessibility(DW_ACCESS_public)
    1290              
    1291              $C$DW$129       .dwtag  DW_TAG_member
    1292                      .dwattr $C$DW$129, DW_AT_type(*$C$DW$T$32)
    1293                      .dwattr $C$DW$129, DW_AT_name("cosWTs")
    1294                      .dwattr $C$DW$129, DW_AT_TI_symbol_name("_cosWTs")
    1295                      .dwattr $C$DW$129, DW_AT_data_member_location[DW_OP_plus_uconst 0x16]
    1296                      .dwattr $C$DW$129, DW_AT_accessibility(DW_ACCESS_public)
    1297              
    1298              $C$DW$130       .dwtag  DW_TAG_member
    1299                      .dwattr $C$DW$130, DW_AT_type(*$C$DW$T$32)
    1300                      .dwattr $C$DW$130, DW_AT_name("sinWTs")
    1301                      .dwattr $C$DW$130, DW_AT_TI_symbol_name("_sinWTs")
    1302                      .dwattr $C$DW$130, DW_AT_data_member_location[DW_OP_plus_uconst 0x18]
    1303                      .dwattr $C$DW$130, DW_AT_accessibility(DW_ACCESS_public)
    1304              
    1305              $C$DW$131       .dwtag  DW_TAG_member
    1306                      .dwattr $C$DW$131, DW_AT_type(*$C$DW$T$32)
    1307                      .dwattr $C$DW$131, DW_AT_name("expVal")
    1308                      .dwattr $C$DW$131, DW_AT_TI_symbol_name("_expVal")
    1309                      .dwattr $C$DW$131, DW_AT_data_member_location[DW_OP_plus_uconst 0x1a]
TMS320C2000 Assembler PC v20.2.1 Wed Nov 18 21:47:52 2020

Copyright (c) 1996-2018 Texas Instruments Incorporated
DRV830x_SPI.asm                                                      PAGE   25

    1310                      .dwattr $C$DW$131, DW_AT_accessibility(DW_ACCESS_public)
    1311              
    1312              $C$DW$132       .dwtag  DW_TAG_member
    1313                      .dwattr $C$DW$132, DW_AT_type(*$C$DW$T$32)
    1314                      .dwattr $C$DW$132, DW_AT_name("kDirect")
    1315                      .dwattr $C$DW$132, DW_AT_TI_symbol_name("_kDirect")
    1316                      .dwattr $C$DW$132, DW_AT_data_member_location[DW_OP_plus_uconst 0x1c]
    1317                      .dwattr $C$DW$132, DW_AT_accessibility(DW_ACCESS_public)
    1318              
    1319              $C$DW$133       .dwtag  DW_TAG_member
    1320                      .dwattr $C$DW$133, DW_AT_type(*$C$DW$T$32)
    1321                      .dwattr $C$DW$133, DW_AT_name("Umax")
    1322                      .dwattr $C$DW$133, DW_AT_TI_symbol_name("_Umax")
    1323                      .dwattr $C$DW$133, DW_AT_data_member_location[DW_OP_plus_uconst 0x1e]
    1324                      .dwattr $C$DW$133, DW_AT_accessibility(DW_ACCESS_public)
    1325              
    1326              $C$DW$134       .dwtag  DW_TAG_member
    1327                      .dwattr $C$DW$134, DW_AT_type(*$C$DW$T$32)
    1328                      .dwattr $C$DW$134, DW_AT_name("Umin")
    1329                      .dwattr $C$DW$134, DW_AT_TI_symbol_name("_Umin")
    1330                      .dwattr $C$DW$134, DW_AT_data_member_location[DW_OP_plus_uconst 0x20]
    1331                      .dwattr $C$DW$134, DW_AT_accessibility(DW_ACCESS_public)
    1332              
    1333                      .dwendtag $C$DW$T$33
    1334              
    1335              $C$DW$T$83      .dwtag  DW_TAG_typedef
    1336                      .dwattr $C$DW$T$83, DW_AT_name("CURRENT_CONTROLLER")
    1337                      .dwattr $C$DW$T$83, DW_AT_type(*$C$DW$T$33)
    1338                      .dwattr $C$DW$T$83, DW_AT_language(DW_LANG_C)
    1339              
    1340              
    1341              $C$DW$T$35      .dwtag  DW_TAG_structure_type
    1342                      .dwattr $C$DW$T$35, DW_AT_byte_size(0x12)
    1343              $C$DW$135       .dwtag  DW_TAG_member
    1344                      .dwattr $C$DW$135, DW_AT_type(*$C$DW$T$19)
    1345                      .dwattr $C$DW$135, DW_AT_name("Ualpha")
    1346                      .dwattr $C$DW$135, DW_AT_TI_symbol_name("_Ualpha")
    1347                      .dwattr $C$DW$135, DW_AT_data_member_location[DW_OP_plus_uconst 0x0]
    1348                      .dwattr $C$DW$135, DW_AT_accessibility(DW_ACCESS_public)
    1349              
    1350              $C$DW$136       .dwtag  DW_TAG_member
    1351                      .dwattr $C$DW$136, DW_AT_type(*$C$DW$T$19)
    1352                      .dwattr $C$DW$136, DW_AT_name("Ubeta")
    1353                      .dwattr $C$DW$136, DW_AT_TI_symbol_name("_Ubeta")
    1354                      .dwattr $C$DW$136, DW_AT_data_member_location[DW_OP_plus_uconst 0x2]
    1355                      .dwattr $C$DW$136, DW_AT_accessibility(DW_ACCESS_public)
    1356              
    1357              $C$DW$137       .dwtag  DW_TAG_member
    1358                      .dwattr $C$DW$137, DW_AT_type(*$C$DW$T$19)
    1359                      .dwattr $C$DW$137, DW_AT_name("Ta")
    1360                      .dwattr $C$DW$137, DW_AT_TI_symbol_name("_Ta")
    1361                      .dwattr $C$DW$137, DW_AT_data_member_location[DW_OP_plus_uconst 0x4]
    1362                      .dwattr $C$DW$137, DW_AT_accessibility(DW_ACCESS_public)
    1363              
    1364              $C$DW$138       .dwtag  DW_TAG_member
TMS320C2000 Assembler PC v20.2.1 Wed Nov 18 21:47:52 2020

Copyright (c) 1996-2018 Texas Instruments Incorporated
DRV830x_SPI.asm                                                      PAGE   26

    1365                      .dwattr $C$DW$138, DW_AT_type(*$C$DW$T$19)
    1366                      .dwattr $C$DW$138, DW_AT_name("Tb")
    1367                      .dwattr $C$DW$138, DW_AT_TI_symbol_name("_Tb")
    1368                      .dwattr $C$DW$138, DW_AT_data_member_location[DW_OP_plus_uconst 0x6]
    1369                      .dwattr $C$DW$138, DW_AT_accessibility(DW_ACCESS_public)
    1370              
    1371              $C$DW$139       .dwtag  DW_TAG_member
    1372                      .dwattr $C$DW$139, DW_AT_type(*$C$DW$T$19)
    1373                      .dwattr $C$DW$139, DW_AT_name("Tc")
    1374                      .dwattr $C$DW$139, DW_AT_TI_symbol_name("_Tc")
    1375                      .dwattr $C$DW$139, DW_AT_data_member_location[DW_OP_plus_uconst 0x8]
    1376                      .dwattr $C$DW$139, DW_AT_accessibility(DW_ACCESS_public)
    1377              
    1378              $C$DW$140       .dwtag  DW_TAG_member
    1379                      .dwattr $C$DW$140, DW_AT_type(*$C$DW$T$19)
    1380                      .dwattr $C$DW$140, DW_AT_name("tmp1")
    1381                      .dwattr $C$DW$140, DW_AT_TI_symbol_name("_tmp1")
    1382                      .dwattr $C$DW$140, DW_AT_data_member_location[DW_OP_plus_uconst 0xa]
    1383                      .dwattr $C$DW$140, DW_AT_accessibility(DW_ACCESS_public)
    1384              
    1385              $C$DW$141       .dwtag  DW_TAG_member
    1386                      .dwattr $C$DW$141, DW_AT_type(*$C$DW$T$19)
    1387                      .dwattr $C$DW$141, DW_AT_name("tmp2")
    1388                      .dwattr $C$DW$141, DW_AT_TI_symbol_name("_tmp2")
    1389                      .dwattr $C$DW$141, DW_AT_data_member_location[DW_OP_plus_uconst 0xc]
    1390                      .dwattr $C$DW$141, DW_AT_accessibility(DW_ACCESS_public)
    1391              
    1392              $C$DW$142       .dwtag  DW_TAG_member
    1393                      .dwattr $C$DW$142, DW_AT_type(*$C$DW$T$19)
    1394                      .dwattr $C$DW$142, DW_AT_name("tmp3")
    1395                      .dwattr $C$DW$142, DW_AT_TI_symbol_name("_tmp3")
    1396                      .dwattr $C$DW$142, DW_AT_data_member_location[DW_OP_plus_uconst 0xe]
    1397                      .dwattr $C$DW$142, DW_AT_accessibility(DW_ACCESS_public)
    1398              
    1399              $C$DW$143       .dwtag  DW_TAG_member
    1400                      .dwattr $C$DW$143, DW_AT_type(*$C$DW$T$34)
    1401                      .dwattr $C$DW$143, DW_AT_name("VecSector")
    1402                      .dwattr $C$DW$143, DW_AT_TI_symbol_name("_VecSector")
    1403                      .dwattr $C$DW$143, DW_AT_data_member_location[DW_OP_plus_uconst 0x10]
    1404                      .dwattr $C$DW$143, DW_AT_accessibility(DW_ACCESS_public)
    1405              
    1406                      .dwendtag $C$DW$T$35
    1407              
    1408              $C$DW$T$85      .dwtag  DW_TAG_typedef
    1409                      .dwattr $C$DW$T$85, DW_AT_name("SVGEN")
    1410                      .dwattr $C$DW$T$85, DW_AT_type(*$C$DW$T$35)
    1411                      .dwattr $C$DW$T$85, DW_AT_language(DW_LANG_C)
    1412              
    1413              
    1414              $C$DW$T$37      .dwtag  DW_TAG_structure_type
    1415                      .dwattr $C$DW$T$37, DW_AT_byte_size(0x10)
    1416              $C$DW$144       .dwtag  DW_TAG_member
    1417                      .dwattr $C$DW$144, DW_AT_type(*$C$DW$T$19)
    1418                      .dwattr $C$DW$144, DW_AT_name("TargetValue")
    1419                      .dwattr $C$DW$144, DW_AT_TI_symbol_name("_TargetValue")
TMS320C2000 Assembler PC v20.2.1 Wed Nov 18 21:47:52 2020

Copyright (c) 1996-2018 Texas Instruments Incorporated
DRV830x_SPI.asm                                                      PAGE   27

    1420                      .dwattr $C$DW$144, DW_AT_data_member_location[DW_OP_plus_uconst 0x0]
    1421                      .dwattr $C$DW$144, DW_AT_accessibility(DW_ACCESS_public)
    1422              
    1423              $C$DW$145       .dwtag  DW_TAG_member
    1424                      .dwattr $C$DW$145, DW_AT_type(*$C$DW$T$36)
    1425                      .dwattr $C$DW$145, DW_AT_name("RampDelayMax")
    1426                      .dwattr $C$DW$145, DW_AT_TI_symbol_name("_RampDelayMax")
    1427                      .dwattr $C$DW$145, DW_AT_data_member_location[DW_OP_plus_uconst 0x2]
    1428                      .dwattr $C$DW$145, DW_AT_accessibility(DW_ACCESS_public)
    1429              
    1430              $C$DW$146       .dwtag  DW_TAG_member
    1431                      .dwattr $C$DW$146, DW_AT_type(*$C$DW$T$19)
    1432                      .dwattr $C$DW$146, DW_AT_name("RampLowLimit")
    1433                      .dwattr $C$DW$146, DW_AT_TI_symbol_name("_RampLowLimit")
    1434                      .dwattr $C$DW$146, DW_AT_data_member_location[DW_OP_plus_uconst 0x4]
    1435                      .dwattr $C$DW$146, DW_AT_accessibility(DW_ACCESS_public)
    1436              
    1437              $C$DW$147       .dwtag  DW_TAG_member
    1438                      .dwattr $C$DW$147, DW_AT_type(*$C$DW$T$19)
    1439                      .dwattr $C$DW$147, DW_AT_name("RampHighLimit")
    1440                      .dwattr $C$DW$147, DW_AT_TI_symbol_name("_RampHighLimit")
    1441                      .dwattr $C$DW$147, DW_AT_data_member_location[DW_OP_plus_uconst 0x6]
    1442                      .dwattr $C$DW$147, DW_AT_accessibility(DW_ACCESS_public)
    1443              
    1444              $C$DW$148       .dwtag  DW_TAG_member
    1445                      .dwattr $C$DW$148, DW_AT_type(*$C$DW$T$36)
    1446                      .dwattr $C$DW$148, DW_AT_name("RampDelayCount")
    1447                      .dwattr $C$DW$148, DW_AT_TI_symbol_name("_RampDelayCount")
    1448                      .dwattr $C$DW$148, DW_AT_data_member_location[DW_OP_plus_uconst 0x8]
    1449                      .dwattr $C$DW$148, DW_AT_accessibility(DW_ACCESS_public)
    1450              
    1451              $C$DW$149       .dwtag  DW_TAG_member
    1452                      .dwattr $C$DW$149, DW_AT_type(*$C$DW$T$19)
    1453                      .dwattr $C$DW$149, DW_AT_name("SetpointValue")
    1454                      .dwattr $C$DW$149, DW_AT_TI_symbol_name("_SetpointValue")
    1455                      .dwattr $C$DW$149, DW_AT_data_member_location[DW_OP_plus_uconst 0xa]
    1456                      .dwattr $C$DW$149, DW_AT_accessibility(DW_ACCESS_public)
    1457              
    1458              $C$DW$150       .dwtag  DW_TAG_member
    1459                      .dwattr $C$DW$150, DW_AT_type(*$C$DW$T$36)
    1460                      .dwattr $C$DW$150, DW_AT_name("EqualFlag")
    1461                      .dwattr $C$DW$150, DW_AT_TI_symbol_name("_EqualFlag")
    1462                      .dwattr $C$DW$150, DW_AT_data_member_location[DW_OP_plus_uconst 0xc]
    1463                      .dwattr $C$DW$150, DW_AT_accessibility(DW_ACCESS_public)
    1464              
    1465              $C$DW$151       .dwtag  DW_TAG_member
    1466                      .dwattr $C$DW$151, DW_AT_type(*$C$DW$T$19)
    1467                      .dwattr $C$DW$151, DW_AT_name("Tmp")
    1468                      .dwattr $C$DW$151, DW_AT_TI_symbol_name("_Tmp")
    1469                      .dwattr $C$DW$151, DW_AT_data_member_location[DW_OP_plus_uconst 0xe]
    1470                      .dwattr $C$DW$151, DW_AT_accessibility(DW_ACCESS_public)
    1471              
    1472                      .dwendtag $C$DW$T$37
    1473              
    1474              $C$DW$T$86      .dwtag  DW_TAG_typedef
TMS320C2000 Assembler PC v20.2.1 Wed Nov 18 21:47:52 2020

Copyright (c) 1996-2018 Texas Instruments Incorporated
DRV830x_SPI.asm                                                      PAGE   28

    1475                      .dwattr $C$DW$T$86, DW_AT_name("RMPCNTL")
    1476                      .dwattr $C$DW$T$86, DW_AT_type(*$C$DW$T$37)
    1477                      .dwattr $C$DW$T$86, DW_AT_language(DW_LANG_C)
    1478              
    1479              
    1480              $C$DW$T$38      .dwtag  DW_TAG_structure_type
    1481                      .dwattr $C$DW$T$38, DW_AT_byte_size(0x0c)
    1482              $C$DW$152       .dwtag  DW_TAG_member
    1483                      .dwattr $C$DW$152, DW_AT_type(*$C$DW$T$19)
    1484                      .dwattr $C$DW$152, DW_AT_name("Freq")
    1485                      .dwattr $C$DW$152, DW_AT_TI_symbol_name("_Freq")
    1486                      .dwattr $C$DW$152, DW_AT_data_member_location[DW_OP_plus_uconst 0x0]
    1487                      .dwattr $C$DW$152, DW_AT_accessibility(DW_ACCESS_public)
    1488              
    1489              $C$DW$153       .dwtag  DW_TAG_member
    1490                      .dwattr $C$DW$153, DW_AT_type(*$C$DW$T$19)
    1491                      .dwattr $C$DW$153, DW_AT_name("StepAngleMax")
    1492                      .dwattr $C$DW$153, DW_AT_TI_symbol_name("_StepAngleMax")
    1493                      .dwattr $C$DW$153, DW_AT_data_member_location[DW_OP_plus_uconst 0x2]
    1494                      .dwattr $C$DW$153, DW_AT_accessibility(DW_ACCESS_public)
    1495              
    1496              $C$DW$154       .dwtag  DW_TAG_member
    1497                      .dwattr $C$DW$154, DW_AT_type(*$C$DW$T$19)
    1498                      .dwattr $C$DW$154, DW_AT_name("Angle")
    1499                      .dwattr $C$DW$154, DW_AT_TI_symbol_name("_Angle")
    1500                      .dwattr $C$DW$154, DW_AT_data_member_location[DW_OP_plus_uconst 0x4]
    1501                      .dwattr $C$DW$154, DW_AT_accessibility(DW_ACCESS_public)
    1502              
    1503              $C$DW$155       .dwtag  DW_TAG_member
    1504                      .dwattr $C$DW$155, DW_AT_type(*$C$DW$T$19)
    1505                      .dwattr $C$DW$155, DW_AT_name("Gain")
    1506                      .dwattr $C$DW$155, DW_AT_TI_symbol_name("_Gain")
    1507                      .dwattr $C$DW$155, DW_AT_data_member_location[DW_OP_plus_uconst 0x6]
    1508                      .dwattr $C$DW$155, DW_AT_accessibility(DW_ACCESS_public)
    1509              
    1510              $C$DW$156       .dwtag  DW_TAG_member
    1511                      .dwattr $C$DW$156, DW_AT_type(*$C$DW$T$19)
    1512                      .dwattr $C$DW$156, DW_AT_name("Out")
    1513                      .dwattr $C$DW$156, DW_AT_TI_symbol_name("_Out")
    1514                      .dwattr $C$DW$156, DW_AT_data_member_location[DW_OP_plus_uconst 0x8]
    1515                      .dwattr $C$DW$156, DW_AT_accessibility(DW_ACCESS_public)
    1516              
    1517              $C$DW$157       .dwtag  DW_TAG_member
    1518                      .dwattr $C$DW$157, DW_AT_type(*$C$DW$T$19)
    1519                      .dwattr $C$DW$157, DW_AT_name("Offset")
    1520                      .dwattr $C$DW$157, DW_AT_TI_symbol_name("_Offset")
    1521                      .dwattr $C$DW$157, DW_AT_data_member_location[DW_OP_plus_uconst 0xa]
    1522                      .dwattr $C$DW$157, DW_AT_accessibility(DW_ACCESS_public)
    1523              
    1524                      .dwendtag $C$DW$T$38
    1525              
    1526              $C$DW$T$87      .dwtag  DW_TAG_typedef
    1527                      .dwattr $C$DW$T$87, DW_AT_name("RAMPGEN")
    1528                      .dwattr $C$DW$T$87, DW_AT_type(*$C$DW$T$38)
    1529                      .dwattr $C$DW$T$87, DW_AT_language(DW_LANG_C)
TMS320C2000 Assembler PC v20.2.1 Wed Nov 18 21:47:52 2020

Copyright (c) 1996-2018 Texas Instruments Incorporated
DRV830x_SPI.asm                                                      PAGE   29

    1530              
    1531              
    1532              $C$DW$T$39      .dwtag  DW_TAG_structure_type
    1533                      .dwattr $C$DW$T$39, DW_AT_byte_size(0x16)
    1534              $C$DW$158       .dwtag  DW_TAG_member
    1535                      .dwattr $C$DW$158, DW_AT_type(*$C$DW$T$19)
    1536                      .dwattr $C$DW$158, DW_AT_name("DcBusVolt")
    1537                      .dwattr $C$DW$158, DW_AT_TI_symbol_name("_DcBusVolt")
    1538                      .dwattr $C$DW$158, DW_AT_data_member_location[DW_OP_plus_uconst 0x0]
    1539                      .dwattr $C$DW$158, DW_AT_accessibility(DW_ACCESS_public)
    1540              
    1541              $C$DW$159       .dwtag  DW_TAG_member
    1542                      .dwattr $C$DW$159, DW_AT_type(*$C$DW$T$19)
    1543                      .dwattr $C$DW$159, DW_AT_name("MfuncV1")
    1544                      .dwattr $C$DW$159, DW_AT_TI_symbol_name("_MfuncV1")
    1545                      .dwattr $C$DW$159, DW_AT_data_member_location[DW_OP_plus_uconst 0x2]
    1546                      .dwattr $C$DW$159, DW_AT_accessibility(DW_ACCESS_public)
    1547              
    1548              $C$DW$160       .dwtag  DW_TAG_member
    1549                      .dwattr $C$DW$160, DW_AT_type(*$C$DW$T$19)
    1550                      .dwattr $C$DW$160, DW_AT_name("MfuncV2")
    1551                      .dwattr $C$DW$160, DW_AT_TI_symbol_name("_MfuncV2")
    1552                      .dwattr $C$DW$160, DW_AT_data_member_location[DW_OP_plus_uconst 0x4]
    1553                      .dwattr $C$DW$160, DW_AT_accessibility(DW_ACCESS_public)
    1554              
    1555              $C$DW$161       .dwtag  DW_TAG_member
    1556                      .dwattr $C$DW$161, DW_AT_type(*$C$DW$T$19)
    1557                      .dwattr $C$DW$161, DW_AT_name("MfuncV3")
    1558                      .dwattr $C$DW$161, DW_AT_TI_symbol_name("_MfuncV3")
    1559                      .dwattr $C$DW$161, DW_AT_data_member_location[DW_OP_plus_uconst 0x6]
    1560                      .dwattr $C$DW$161, DW_AT_accessibility(DW_ACCESS_public)
    1561              
    1562              $C$DW$162       .dwtag  DW_TAG_member
    1563                      .dwattr $C$DW$162, DW_AT_type(*$C$DW$T$34)
    1564                      .dwattr $C$DW$162, DW_AT_name("OutOfPhase")
    1565                      .dwattr $C$DW$162, DW_AT_TI_symbol_name("_OutOfPhase")
    1566                      .dwattr $C$DW$162, DW_AT_data_member_location[DW_OP_plus_uconst 0x8]
    1567                      .dwattr $C$DW$162, DW_AT_accessibility(DW_ACCESS_public)
    1568              
    1569              $C$DW$163       .dwtag  DW_TAG_member
    1570                      .dwattr $C$DW$163, DW_AT_type(*$C$DW$T$19)
    1571                      .dwattr $C$DW$163, DW_AT_name("VphaseA")
    1572                      .dwattr $C$DW$163, DW_AT_TI_symbol_name("_VphaseA")
    1573                      .dwattr $C$DW$163, DW_AT_data_member_location[DW_OP_plus_uconst 0xa]
    1574                      .dwattr $C$DW$163, DW_AT_accessibility(DW_ACCESS_public)
    1575              
    1576              $C$DW$164       .dwtag  DW_TAG_member
    1577                      .dwattr $C$DW$164, DW_AT_type(*$C$DW$T$19)
    1578                      .dwattr $C$DW$164, DW_AT_name("VphaseB")
    1579                      .dwattr $C$DW$164, DW_AT_TI_symbol_name("_VphaseB")
    1580                      .dwattr $C$DW$164, DW_AT_data_member_location[DW_OP_plus_uconst 0xc]
    1581                      .dwattr $C$DW$164, DW_AT_accessibility(DW_ACCESS_public)
    1582              
    1583              $C$DW$165       .dwtag  DW_TAG_member
    1584                      .dwattr $C$DW$165, DW_AT_type(*$C$DW$T$19)
TMS320C2000 Assembler PC v20.2.1 Wed Nov 18 21:47:52 2020

Copyright (c) 1996-2018 Texas Instruments Incorporated
DRV830x_SPI.asm                                                      PAGE   30

    1585                      .dwattr $C$DW$165, DW_AT_name("VphaseC")
    1586                      .dwattr $C$DW$165, DW_AT_TI_symbol_name("_VphaseC")
    1587                      .dwattr $C$DW$165, DW_AT_data_member_location[DW_OP_plus_uconst 0xe]
    1588                      .dwattr $C$DW$165, DW_AT_accessibility(DW_ACCESS_public)
    1589              
    1590              $C$DW$166       .dwtag  DW_TAG_member
    1591                      .dwattr $C$DW$166, DW_AT_type(*$C$DW$T$19)
    1592                      .dwattr $C$DW$166, DW_AT_name("Valpha")
    1593                      .dwattr $C$DW$166, DW_AT_TI_symbol_name("_Valpha")
    1594                      .dwattr $C$DW$166, DW_AT_data_member_location[DW_OP_plus_uconst 0x10]
    1595                      .dwattr $C$DW$166, DW_AT_accessibility(DW_ACCESS_public)
    1596              
    1597              $C$DW$167       .dwtag  DW_TAG_member
    1598                      .dwattr $C$DW$167, DW_AT_type(*$C$DW$T$19)
    1599                      .dwattr $C$DW$167, DW_AT_name("Vbeta")
    1600                      .dwattr $C$DW$167, DW_AT_TI_symbol_name("_Vbeta")
    1601                      .dwattr $C$DW$167, DW_AT_data_member_location[DW_OP_plus_uconst 0x12]
    1602                      .dwattr $C$DW$167, DW_AT_accessibility(DW_ACCESS_public)
    1603              
    1604              $C$DW$168       .dwtag  DW_TAG_member
    1605                      .dwattr $C$DW$168, DW_AT_type(*$C$DW$T$19)
    1606                      .dwattr $C$DW$168, DW_AT_name("temp")
    1607                      .dwattr $C$DW$168, DW_AT_TI_symbol_name("_temp")
    1608                      .dwattr $C$DW$168, DW_AT_data_member_location[DW_OP_plus_uconst 0x14]
    1609                      .dwattr $C$DW$168, DW_AT_accessibility(DW_ACCESS_public)
    1610              
    1611                      .dwendtag $C$DW$T$39
    1612              
    1613              $C$DW$T$88      .dwtag  DW_TAG_typedef
    1614                      .dwattr $C$DW$T$88, DW_AT_name("PHASEVOLTAGE")
    1615                      .dwattr $C$DW$T$88, DW_AT_type(*$C$DW$T$39)
    1616                      .dwattr $C$DW$T$88, DW_AT_language(DW_LANG_C)
    1617              
    1618              
    1619              $C$DW$T$42      .dwtag  DW_TAG_structure_type
    1620                      .dwattr $C$DW$T$42, DW_AT_byte_size(0x14)
    1621              $C$DW$169       .dwtag  DW_TAG_member
    1622                      .dwattr $C$DW$169, DW_AT_type(*$C$DW$T$19)
    1623                      .dwattr $C$DW$169, DW_AT_name("ElecTheta")
    1624                      .dwattr $C$DW$169, DW_AT_TI_symbol_name("_ElecTheta")
    1625                      .dwattr $C$DW$169, DW_AT_data_member_location[DW_OP_plus_uconst 0x0]
    1626                      .dwattr $C$DW$169, DW_AT_accessibility(DW_ACCESS_public)
    1627              
    1628              $C$DW$170       .dwtag  DW_TAG_member
    1629                      .dwattr $C$DW$170, DW_AT_type(*$C$DW$T$36)
    1630                      .dwattr $C$DW$170, DW_AT_name("DirectionQep")
    1631                      .dwattr $C$DW$170, DW_AT_TI_symbol_name("_DirectionQep")
    1632                      .dwattr $C$DW$170, DW_AT_data_member_location[DW_OP_plus_uconst 0x2]
    1633                      .dwattr $C$DW$170, DW_AT_accessibility(DW_ACCESS_public)
    1634              
    1635              $C$DW$171       .dwtag  DW_TAG_member
    1636                      .dwattr $C$DW$171, DW_AT_type(*$C$DW$T$19)
    1637                      .dwattr $C$DW$171, DW_AT_name("OldElecTheta")
    1638                      .dwattr $C$DW$171, DW_AT_TI_symbol_name("_OldElecTheta")
    1639                      .dwattr $C$DW$171, DW_AT_data_member_location[DW_OP_plus_uconst 0x4]
TMS320C2000 Assembler PC v20.2.1 Wed Nov 18 21:47:52 2020

Copyright (c) 1996-2018 Texas Instruments Incorporated
DRV830x_SPI.asm                                                      PAGE   31

    1640                      .dwattr $C$DW$171, DW_AT_accessibility(DW_ACCESS_public)
    1641              
    1642              $C$DW$172       .dwtag  DW_TAG_member
    1643                      .dwattr $C$DW$172, DW_AT_type(*$C$DW$T$19)
    1644                      .dwattr $C$DW$172, DW_AT_name("Speed")
    1645                      .dwattr $C$DW$172, DW_AT_TI_symbol_name("_Speed")
    1646                      .dwattr $C$DW$172, DW_AT_data_member_location[DW_OP_plus_uconst 0x6]
    1647                      .dwattr $C$DW$172, DW_AT_accessibility(DW_ACCESS_public)
    1648              
    1649              $C$DW$173       .dwtag  DW_TAG_member
    1650                      .dwattr $C$DW$173, DW_AT_type(*$C$DW$T$36)
    1651                      .dwattr $C$DW$173, DW_AT_name("BaseRpm")
    1652                      .dwattr $C$DW$173, DW_AT_TI_symbol_name("_BaseRpm")
    1653                      .dwattr $C$DW$173, DW_AT_data_member_location[DW_OP_plus_uconst 0x8]
    1654                      .dwattr $C$DW$173, DW_AT_accessibility(DW_ACCESS_public)
    1655              
    1656              $C$DW$174       .dwtag  DW_TAG_member
    1657                      .dwattr $C$DW$174, DW_AT_type(*$C$DW$T$40)
    1658                      .dwattr $C$DW$174, DW_AT_name("K1")
    1659                      .dwattr $C$DW$174, DW_AT_TI_symbol_name("_K1")
    1660                      .dwattr $C$DW$174, DW_AT_data_member_location[DW_OP_plus_uconst 0xa]
    1661                      .dwattr $C$DW$174, DW_AT_accessibility(DW_ACCESS_public)
    1662              
    1663              $C$DW$175       .dwtag  DW_TAG_member
    1664                      .dwattr $C$DW$175, DW_AT_type(*$C$DW$T$19)
    1665                      .dwattr $C$DW$175, DW_AT_name("K2")
    1666                      .dwattr $C$DW$175, DW_AT_TI_symbol_name("_K2")
    1667                      .dwattr $C$DW$175, DW_AT_data_member_location[DW_OP_plus_uconst 0xc]
    1668                      .dwattr $C$DW$175, DW_AT_accessibility(DW_ACCESS_public)
    1669              
    1670              $C$DW$176       .dwtag  DW_TAG_member
    1671                      .dwattr $C$DW$176, DW_AT_type(*$C$DW$T$19)
    1672                      .dwattr $C$DW$176, DW_AT_name("K3")
    1673                      .dwattr $C$DW$176, DW_AT_TI_symbol_name("_K3")
    1674                      .dwattr $C$DW$176, DW_AT_data_member_location[DW_OP_plus_uconst 0xe]
    1675                      .dwattr $C$DW$176, DW_AT_accessibility(DW_ACCESS_public)
    1676              
    1677              $C$DW$177       .dwtag  DW_TAG_member
    1678                      .dwattr $C$DW$177, DW_AT_type(*$C$DW$T$41)
    1679                      .dwattr $C$DW$177, DW_AT_name("SpeedRpm")
    1680                      .dwattr $C$DW$177, DW_AT_TI_symbol_name("_SpeedRpm")
    1681                      .dwattr $C$DW$177, DW_AT_data_member_location[DW_OP_plus_uconst 0x10]
    1682                      .dwattr $C$DW$177, DW_AT_accessibility(DW_ACCESS_public)
    1683              
    1684              $C$DW$178       .dwtag  DW_TAG_member
    1685                      .dwattr $C$DW$178, DW_AT_type(*$C$DW$T$19)
    1686                      .dwattr $C$DW$178, DW_AT_name("Tmp")
    1687                      .dwattr $C$DW$178, DW_AT_TI_symbol_name("_Tmp")
    1688                      .dwattr $C$DW$178, DW_AT_data_member_location[DW_OP_plus_uconst 0x12]
    1689                      .dwattr $C$DW$178, DW_AT_accessibility(DW_ACCESS_public)
    1690              
    1691                      .dwendtag $C$DW$T$42
    1692              
    1693              $C$DW$T$89      .dwtag  DW_TAG_typedef
    1694                      .dwattr $C$DW$T$89, DW_AT_name("SPEED_MEAS_QEP")
TMS320C2000 Assembler PC v20.2.1 Wed Nov 18 21:47:52 2020

Copyright (c) 1996-2018 Texas Instruments Incorporated
DRV830x_SPI.asm                                                      PAGE   32

    1695                      .dwattr $C$DW$T$89, DW_AT_type(*$C$DW$T$42)
    1696                      .dwattr $C$DW$T$89, DW_AT_language(DW_LANG_C)
    1697              
    1698              
    1699              $C$DW$T$43      .dwtag  DW_TAG_structure_type
    1700                      .dwattr $C$DW$T$43, DW_AT_byte_size(0x12)
    1701              $C$DW$179       .dwtag  DW_TAG_member
    1702                      .dwattr $C$DW$179, DW_AT_type(*$C$DW$T$32)
    1703                      .dwattr $C$DW$179, DW_AT_name("ElecTheta")
    1704                      .dwattr $C$DW$179, DW_AT_TI_symbol_name("_ElecTheta")
    1705                      .dwattr $C$DW$179, DW_AT_data_member_location[DW_OP_plus_uconst 0x0]
    1706                      .dwattr $C$DW$179, DW_AT_accessibility(DW_ACCESS_public)
    1707              
    1708              $C$DW$180       .dwtag  DW_TAG_member
    1709                      .dwattr $C$DW$180, DW_AT_type(*$C$DW$T$32)
    1710                      .dwattr $C$DW$180, DW_AT_name("MechTheta")
    1711                      .dwattr $C$DW$180, DW_AT_TI_symbol_name("_MechTheta")
    1712                      .dwattr $C$DW$180, DW_AT_data_member_location[DW_OP_plus_uconst 0x2]
    1713                      .dwattr $C$DW$180, DW_AT_accessibility(DW_ACCESS_public)
    1714              
    1715              $C$DW$181       .dwtag  DW_TAG_member
    1716                      .dwattr $C$DW$181, DW_AT_type(*$C$DW$T$34)
    1717                      .dwattr $C$DW$181, DW_AT_name("DirectionQep")
    1718                      .dwattr $C$DW$181, DW_AT_TI_symbol_name("_DirectionQep")
    1719                      .dwattr $C$DW$181, DW_AT_data_member_location[DW_OP_plus_uconst 0x4]
    1720                      .dwattr $C$DW$181, DW_AT_accessibility(DW_ACCESS_public)
    1721              
    1722              $C$DW$182       .dwtag  DW_TAG_member
    1723                      .dwattr $C$DW$182, DW_AT_type(*$C$DW$T$34)
    1724                      .dwattr $C$DW$182, DW_AT_name("QepPeriod")
    1725                      .dwattr $C$DW$182, DW_AT_TI_symbol_name("_QepPeriod")
    1726                      .dwattr $C$DW$182, DW_AT_data_member_location[DW_OP_plus_uconst 0x5]
    1727                      .dwattr $C$DW$182, DW_AT_accessibility(DW_ACCESS_public)
    1728              
    1729              $C$DW$183       .dwtag  DW_TAG_member
    1730                      .dwattr $C$DW$183, DW_AT_type(*$C$DW$T$36)
    1731                      .dwattr $C$DW$183, DW_AT_name("QepCountIndex")
    1732                      .dwattr $C$DW$183, DW_AT_TI_symbol_name("_QepCountIndex")
    1733                      .dwattr $C$DW$183, DW_AT_data_member_location[DW_OP_plus_uconst 0x6]
    1734                      .dwattr $C$DW$183, DW_AT_accessibility(DW_ACCESS_public)
    1735              
    1736              $C$DW$184       .dwtag  DW_TAG_member
    1737                      .dwattr $C$DW$184, DW_AT_type(*$C$DW$T$41)
    1738                      .dwattr $C$DW$184, DW_AT_name("RawTheta")
    1739                      .dwattr $C$DW$184, DW_AT_TI_symbol_name("_RawTheta")
    1740                      .dwattr $C$DW$184, DW_AT_data_member_location[DW_OP_plus_uconst 0x8]
    1741                      .dwattr $C$DW$184, DW_AT_accessibility(DW_ACCESS_public)
    1742              
    1743              $C$DW$185       .dwtag  DW_TAG_member
    1744                      .dwattr $C$DW$185, DW_AT_type(*$C$DW$T$32)
    1745                      .dwattr $C$DW$185, DW_AT_name("MechScaler")
    1746                      .dwattr $C$DW$185, DW_AT_TI_symbol_name("_MechScaler")
    1747                      .dwattr $C$DW$185, DW_AT_data_member_location[DW_OP_plus_uconst 0xa]
    1748                      .dwattr $C$DW$185, DW_AT_accessibility(DW_ACCESS_public)
    1749              
TMS320C2000 Assembler PC v20.2.1 Wed Nov 18 21:47:52 2020

Copyright (c) 1996-2018 Texas Instruments Incorporated
DRV830x_SPI.asm                                                      PAGE   33

    1750              $C$DW$186       .dwtag  DW_TAG_member
    1751                      .dwattr $C$DW$186, DW_AT_type(*$C$DW$T$34)
    1752                      .dwattr $C$DW$186, DW_AT_name("LineEncoder")
    1753                      .dwattr $C$DW$186, DW_AT_TI_symbol_name("_LineEncoder")
    1754                      .dwattr $C$DW$186, DW_AT_data_member_location[DW_OP_plus_uconst 0xc]
    1755                      .dwattr $C$DW$186, DW_AT_accessibility(DW_ACCESS_public)
    1756              
    1757              $C$DW$187       .dwtag  DW_TAG_member
    1758                      .dwattr $C$DW$187, DW_AT_type(*$C$DW$T$34)
    1759                      .dwattr $C$DW$187, DW_AT_name("PolePairs")
    1760                      .dwattr $C$DW$187, DW_AT_TI_symbol_name("_PolePairs")
    1761                      .dwattr $C$DW$187, DW_AT_data_member_location[DW_OP_plus_uconst 0xd]
    1762                      .dwattr $C$DW$187, DW_AT_accessibility(DW_ACCESS_public)
    1763              
    1764              $C$DW$188       .dwtag  DW_TAG_member
    1765                      .dwattr $C$DW$188, DW_AT_type(*$C$DW$T$41)
    1766                      .dwattr $C$DW$188, DW_AT_name("CalibratedAngle")
    1767                      .dwattr $C$DW$188, DW_AT_TI_symbol_name("_CalibratedAngle")
    1768                      .dwattr $C$DW$188, DW_AT_data_member_location[DW_OP_plus_uconst 0xe]
    1769                      .dwattr $C$DW$188, DW_AT_accessibility(DW_ACCESS_public)
    1770              
    1771              $C$DW$189       .dwtag  DW_TAG_member
    1772                      .dwattr $C$DW$189, DW_AT_type(*$C$DW$T$34)
    1773                      .dwattr $C$DW$189, DW_AT_name("IndexSyncFlag")
    1774                      .dwattr $C$DW$189, DW_AT_TI_symbol_name("_IndexSyncFlag")
    1775                      .dwattr $C$DW$189, DW_AT_data_member_location[DW_OP_plus_uconst 0x10]
    1776                      .dwattr $C$DW$189, DW_AT_accessibility(DW_ACCESS_public)
    1777              
    1778                      .dwendtag $C$DW$T$43
    1779              
    1780              $C$DW$T$90      .dwtag  DW_TAG_typedef
    1781                      .dwattr $C$DW$T$90, DW_AT_name("QEP")
    1782                      .dwattr $C$DW$T$90, DW_AT_type(*$C$DW$T$43)
    1783                      .dwattr $C$DW$T$90, DW_AT_language(DW_LANG_C)
    1784              
    1785              
    1786              $C$DW$T$48      .dwtag  DW_TAG_structure_type
    1787                      .dwattr $C$DW$T$48, DW_AT_byte_size(0x07)
    1788              $C$DW$190       .dwtag  DW_TAG_member
    1789                      .dwattr $C$DW$190, DW_AT_type(*$C$DW$T$44)
    1790                      .dwattr $C$DW$190, DW_AT_name("stat_reg1")
    1791                      .dwattr $C$DW$190, DW_AT_TI_symbol_name("_stat_reg1")
    1792                      .dwattr $C$DW$190, DW_AT_data_member_location[DW_OP_plus_uconst 0x0]
    1793                      .dwattr $C$DW$190, DW_AT_accessibility(DW_ACCESS_public)
    1794              
    1795              $C$DW$191       .dwtag  DW_TAG_member
    1796                      .dwattr $C$DW$191, DW_AT_type(*$C$DW$T$45)
    1797                      .dwattr $C$DW$191, DW_AT_name("stat_reg2")
    1798                      .dwattr $C$DW$191, DW_AT_TI_symbol_name("_stat_reg2")
    1799                      .dwattr $C$DW$191, DW_AT_data_member_location[DW_OP_plus_uconst 0x1]
    1800                      .dwattr $C$DW$191, DW_AT_accessibility(DW_ACCESS_public)
    1801              
    1802              $C$DW$192       .dwtag  DW_TAG_member
    1803                      .dwattr $C$DW$192, DW_AT_type(*$C$DW$T$46)
    1804                      .dwattr $C$DW$192, DW_AT_name("cntrl_reg1")
TMS320C2000 Assembler PC v20.2.1 Wed Nov 18 21:47:52 2020

Copyright (c) 1996-2018 Texas Instruments Incorporated
DRV830x_SPI.asm                                                      PAGE   34

    1805                      .dwattr $C$DW$192, DW_AT_TI_symbol_name("_cntrl_reg1")
    1806                      .dwattr $C$DW$192, DW_AT_data_member_location[DW_OP_plus_uconst 0x2]
    1807                      .dwattr $C$DW$192, DW_AT_accessibility(DW_ACCESS_public)
    1808              
    1809              $C$DW$193       .dwtag  DW_TAG_member
    1810                      .dwattr $C$DW$193, DW_AT_type(*$C$DW$T$47)
    1811                      .dwattr $C$DW$193, DW_AT_name("cntrl_reg2")
    1812                      .dwattr $C$DW$193, DW_AT_TI_symbol_name("_cntrl_reg2")
    1813                      .dwattr $C$DW$193, DW_AT_data_member_location[DW_OP_plus_uconst 0x3]
    1814                      .dwattr $C$DW$193, DW_AT_accessibility(DW_ACCESS_public)
    1815              
    1816              $C$DW$194       .dwtag  DW_TAG_member
    1817                      .dwattr $C$DW$194, DW_AT_type(*$C$DW$T$34)
    1818                      .dwattr $C$DW$194, DW_AT_name("readCntrl1")
    1819                      .dwattr $C$DW$194, DW_AT_TI_symbol_name("_readCntrl1")
    1820                      .dwattr $C$DW$194, DW_AT_data_member_location[DW_OP_plus_uconst 0x4]
    1821                      .dwattr $C$DW$194, DW_AT_accessibility(DW_ACCESS_public)
    1822              
    1823              $C$DW$195       .dwtag  DW_TAG_member
    1824                      .dwattr $C$DW$195, DW_AT_type(*$C$DW$T$34)
    1825                      .dwattr $C$DW$195, DW_AT_name("readCntrl2")
    1826                      .dwattr $C$DW$195, DW_AT_TI_symbol_name("_readCntrl2")
    1827                      .dwattr $C$DW$195, DW_AT_data_member_location[DW_OP_plus_uconst 0x5]
    1828                      .dwattr $C$DW$195, DW_AT_accessibility(DW_ACCESS_public)
    1829              
    1830              $C$DW$196       .dwtag  DW_TAG_member
    1831                      .dwattr $C$DW$196, DW_AT_type(*$C$DW$T$34)
    1832                      .dwattr $C$DW$196, DW_AT_name("DRV_fault")
    1833                      .dwattr $C$DW$196, DW_AT_TI_symbol_name("_DRV_fault")
    1834                      .dwattr $C$DW$196, DW_AT_data_member_location[DW_OP_plus_uconst 0x6]
    1835                      .dwattr $C$DW$196, DW_AT_accessibility(DW_ACCESS_public)
    1836              
    1837                      .dwendtag $C$DW$T$48
    1838              
    1839              $C$DW$T$91      .dwtag  DW_TAG_typedef
    1840                      .dwattr $C$DW$T$91, DW_AT_name("DRV8301_Vars")
    1841                      .dwattr $C$DW$T$91, DW_AT_type(*$C$DW$T$48)
    1842                      .dwattr $C$DW$T$91, DW_AT_language(DW_LANG_C)
    1843              
    1844              
    1845              $C$DW$T$60      .dwtag  DW_TAG_structure_type
    1846                      .dwattr $C$DW$T$60, DW_AT_byte_size(0x15)
    1847              $C$DW$197       .dwtag  DW_TAG_member
    1848                      .dwattr $C$DW$197, DW_AT_type(*$C$DW$T$34)
    1849                      .dwattr $C$DW$197, DW_AT_name("Rsvd0")
    1850                      .dwattr $C$DW$197, DW_AT_TI_symbol_name("_Rsvd0")
    1851                      .dwattr $C$DW$197, DW_AT_data_member_location[DW_OP_plus_uconst 0x0]
    1852                      .dwattr $C$DW$197, DW_AT_accessibility(DW_ACCESS_public)
    1853              
    1854              $C$DW$198       .dwtag  DW_TAG_member
    1855                      .dwattr $C$DW$198, DW_AT_type(*$C$DW$T$49)
    1856                      .dwattr $C$DW$198, DW_AT_name("status1_wwd")
    1857                      .dwattr $C$DW$198, DW_AT_TI_symbol_name("_status1_wwd")
    1858                      .dwattr $C$DW$198, DW_AT_data_member_location[DW_OP_plus_uconst 0x1]
    1859                      .dwattr $C$DW$198, DW_AT_accessibility(DW_ACCESS_public)
TMS320C2000 Assembler PC v20.2.1 Wed Nov 18 21:47:52 2020

Copyright (c) 1996-2018 Texas Instruments Incorporated
DRV830x_SPI.asm                                                      PAGE   35

    1860              
    1861              $C$DW$199       .dwtag  DW_TAG_member
    1862                      .dwattr $C$DW$199, DW_AT_type(*$C$DW$T$50)
    1863                      .dwattr $C$DW$199, DW_AT_name("status2_ov_vds")
    1864                      .dwattr $C$DW$199, DW_AT_TI_symbol_name("_status2_ov_vds")
    1865                      .dwattr $C$DW$199, DW_AT_data_member_location[DW_OP_plus_uconst 0x2]
    1866                      .dwattr $C$DW$199, DW_AT_accessibility(DW_ACCESS_public)
    1867              
    1868              $C$DW$200       .dwtag  DW_TAG_member
    1869                      .dwattr $C$DW$200, DW_AT_type(*$C$DW$T$51)
    1870                      .dwattr $C$DW$200, DW_AT_name("status3_IC")
    1871                      .dwattr $C$DW$200, DW_AT_TI_symbol_name("_status3_IC")
    1872                      .dwattr $C$DW$200, DW_AT_data_member_location[DW_OP_plus_uconst 0x3]
    1873                      .dwattr $C$DW$200, DW_AT_accessibility(DW_ACCESS_public)
    1874              
    1875              $C$DW$201       .dwtag  DW_TAG_member
    1876                      .dwattr $C$DW$201, DW_AT_type(*$C$DW$T$52)
    1877                      .dwattr $C$DW$201, DW_AT_name("status4_gd_Vgs")
    1878                      .dwattr $C$DW$201, DW_AT_TI_symbol_name("_status4_gd_Vgs")
    1879                      .dwattr $C$DW$201, DW_AT_data_member_location[DW_OP_plus_uconst 0x4]
    1880                      .dwattr $C$DW$201, DW_AT_accessibility(DW_ACCESS_public)
    1881              
    1882              $C$DW$202       .dwtag  DW_TAG_member
    1883                      .dwattr $C$DW$202, DW_AT_type(*$C$DW$T$53)
    1884                      .dwattr $C$DW$202, DW_AT_name("cntrl5_hs_gd")
    1885                      .dwattr $C$DW$202, DW_AT_TI_symbol_name("_cntrl5_hs_gd")
    1886                      .dwattr $C$DW$202, DW_AT_data_member_location[DW_OP_plus_uconst 0x5]
    1887                      .dwattr $C$DW$202, DW_AT_accessibility(DW_ACCESS_public)
    1888              
    1889              $C$DW$203       .dwtag  DW_TAG_member
    1890                      .dwattr $C$DW$203, DW_AT_type(*$C$DW$T$54)
    1891                      .dwattr $C$DW$203, DW_AT_name("cntrl6_ls_gd")
    1892                      .dwattr $C$DW$203, DW_AT_TI_symbol_name("_cntrl6_ls_gd")
    1893                      .dwattr $C$DW$203, DW_AT_data_member_location[DW_OP_plus_uconst 0x6]
    1894                      .dwattr $C$DW$203, DW_AT_accessibility(DW_ACCESS_public)
    1895              
    1896              $C$DW$204       .dwtag  DW_TAG_member
    1897                      .dwattr $C$DW$204, DW_AT_type(*$C$DW$T$55)
    1898                      .dwattr $C$DW$204, DW_AT_name("cntrl7_gd")
    1899                      .dwattr $C$DW$204, DW_AT_TI_symbol_name("_cntrl7_gd")
    1900                      .dwattr $C$DW$204, DW_AT_data_member_location[DW_OP_plus_uconst 0x7]
    1901                      .dwattr $C$DW$204, DW_AT_accessibility(DW_ACCESS_public)
    1902              
    1903              $C$DW$205       .dwtag  DW_TAG_member
    1904                      .dwattr $C$DW$205, DW_AT_type(*$C$DW$T$34)
    1905                      .dwattr $C$DW$205, DW_AT_name("Rsvd8")
    1906                      .dwattr $C$DW$205, DW_AT_TI_symbol_name("_Rsvd8")
    1907                      .dwattr $C$DW$205, DW_AT_data_member_location[DW_OP_plus_uconst 0x8]
    1908                      .dwattr $C$DW$205, DW_AT_accessibility(DW_ACCESS_public)
    1909              
    1910              $C$DW$206       .dwtag  DW_TAG_member
    1911                      .dwattr $C$DW$206, DW_AT_type(*$C$DW$T$56)
    1912                      .dwattr $C$DW$206, DW_AT_name("cntrl9_IC_ops")
    1913                      .dwattr $C$DW$206, DW_AT_TI_symbol_name("_cntrl9_IC_ops")
    1914                      .dwattr $C$DW$206, DW_AT_data_member_location[DW_OP_plus_uconst 0x9]
TMS320C2000 Assembler PC v20.2.1 Wed Nov 18 21:47:52 2020

Copyright (c) 1996-2018 Texas Instruments Incorporated
DRV830x_SPI.asm                                                      PAGE   36

    1915                      .dwattr $C$DW$206, DW_AT_accessibility(DW_ACCESS_public)
    1916              
    1917              $C$DW$207       .dwtag  DW_TAG_member
    1918                      .dwattr $C$DW$207, DW_AT_type(*$C$DW$T$57)
    1919                      .dwattr $C$DW$207, DW_AT_name("cntrlA_shunt_amp")
    1920                      .dwattr $C$DW$207, DW_AT_TI_symbol_name("_cntrlA_shunt_amp")
    1921                      .dwattr $C$DW$207, DW_AT_data_member_location[DW_OP_plus_uconst 0xa]
    1922                      .dwattr $C$DW$207, DW_AT_accessibility(DW_ACCESS_public)
    1923              
    1924              $C$DW$208       .dwtag  DW_TAG_member
    1925                      .dwattr $C$DW$208, DW_AT_type(*$C$DW$T$58)
    1926                      .dwattr $C$DW$208, DW_AT_name("cntrlB_Vreg")
    1927                      .dwattr $C$DW$208, DW_AT_TI_symbol_name("_cntrlB_Vreg")
    1928                      .dwattr $C$DW$208, DW_AT_data_member_location[DW_OP_plus_uconst 0xb]
    1929                      .dwattr $C$DW$208, DW_AT_accessibility(DW_ACCESS_public)
    1930              
    1931              $C$DW$209       .dwtag  DW_TAG_member
    1932                      .dwattr $C$DW$209, DW_AT_type(*$C$DW$T$59)
    1933                      .dwattr $C$DW$209, DW_AT_name("cntrlC_Vds_SNS")
    1934                      .dwattr $C$DW$209, DW_AT_TI_symbol_name("_cntrlC_Vds_SNS")
    1935                      .dwattr $C$DW$209, DW_AT_data_member_location[DW_OP_plus_uconst 0xc]
    1936                      .dwattr $C$DW$209, DW_AT_accessibility(DW_ACCESS_public)
    1937              
    1938              $C$DW$210       .dwtag  DW_TAG_member
    1939                      .dwattr $C$DW$210, DW_AT_type(*$C$DW$T$34)
    1940                      .dwattr $C$DW$210, DW_AT_name("readCntrl5")
    1941                      .dwattr $C$DW$210, DW_AT_TI_symbol_name("_readCntrl5")
    1942                      .dwattr $C$DW$210, DW_AT_data_member_location[DW_OP_plus_uconst 0xd]
    1943                      .dwattr $C$DW$210, DW_AT_accessibility(DW_ACCESS_public)
    1944              
    1945              $C$DW$211       .dwtag  DW_TAG_member
    1946                      .dwattr $C$DW$211, DW_AT_type(*$C$DW$T$34)
    1947                      .dwattr $C$DW$211, DW_AT_name("readCntrl6")
    1948                      .dwattr $C$DW$211, DW_AT_TI_symbol_name("_readCntrl6")
    1949                      .dwattr $C$DW$211, DW_AT_data_member_location[DW_OP_plus_uconst 0xe]
    1950                      .dwattr $C$DW$211, DW_AT_accessibility(DW_ACCESS_public)
    1951              
    1952              $C$DW$212       .dwtag  DW_TAG_member
    1953                      .dwattr $C$DW$212, DW_AT_type(*$C$DW$T$34)
    1954                      .dwattr $C$DW$212, DW_AT_name("readCntrl7")
    1955                      .dwattr $C$DW$212, DW_AT_TI_symbol_name("_readCntrl7")
    1956                      .dwattr $C$DW$212, DW_AT_data_member_location[DW_OP_plus_uconst 0xf]
    1957                      .dwattr $C$DW$212, DW_AT_accessibility(DW_ACCESS_public)
    1958              
    1959              $C$DW$213       .dwtag  DW_TAG_member
    1960                      .dwattr $C$DW$213, DW_AT_type(*$C$DW$T$34)
    1961                      .dwattr $C$DW$213, DW_AT_name("readCntrl9")
    1962                      .dwattr $C$DW$213, DW_AT_TI_symbol_name("_readCntrl9")
    1963                      .dwattr $C$DW$213, DW_AT_data_member_location[DW_OP_plus_uconst 0x10]
    1964                      .dwattr $C$DW$213, DW_AT_accessibility(DW_ACCESS_public)
    1965              
    1966              $C$DW$214       .dwtag  DW_TAG_member
    1967                      .dwattr $C$DW$214, DW_AT_type(*$C$DW$T$34)
    1968                      .dwattr $C$DW$214, DW_AT_name("readCntrlA")
    1969                      .dwattr $C$DW$214, DW_AT_TI_symbol_name("_readCntrlA")
TMS320C2000 Assembler PC v20.2.1 Wed Nov 18 21:47:52 2020

Copyright (c) 1996-2018 Texas Instruments Incorporated
DRV830x_SPI.asm                                                      PAGE   37

    1970                      .dwattr $C$DW$214, DW_AT_data_member_location[DW_OP_plus_uconst 0x11]
    1971                      .dwattr $C$DW$214, DW_AT_accessibility(DW_ACCESS_public)
    1972              
    1973              $C$DW$215       .dwtag  DW_TAG_member
    1974                      .dwattr $C$DW$215, DW_AT_type(*$C$DW$T$34)
    1975                      .dwattr $C$DW$215, DW_AT_name("readCntrlB")
    1976                      .dwattr $C$DW$215, DW_AT_TI_symbol_name("_readCntrlB")
    1977                      .dwattr $C$DW$215, DW_AT_data_member_location[DW_OP_plus_uconst 0x12]
    1978                      .dwattr $C$DW$215, DW_AT_accessibility(DW_ACCESS_public)
    1979              
    1980              $C$DW$216       .dwtag  DW_TAG_member
    1981                      .dwattr $C$DW$216, DW_AT_type(*$C$DW$T$34)
    1982                      .dwattr $C$DW$216, DW_AT_name("readCntrlC")
    1983                      .dwattr $C$DW$216, DW_AT_TI_symbol_name("_readCntrlC")
    1984                      .dwattr $C$DW$216, DW_AT_data_member_location[DW_OP_plus_uconst 0x13]
    1985                      .dwattr $C$DW$216, DW_AT_accessibility(DW_ACCESS_public)
    1986              
    1987              $C$DW$217       .dwtag  DW_TAG_member
    1988                      .dwattr $C$DW$217, DW_AT_type(*$C$DW$T$34)
    1989                      .dwattr $C$DW$217, DW_AT_name("DRV_fault")
    1990                      .dwattr $C$DW$217, DW_AT_TI_symbol_name("_DRV_fault")
    1991                      .dwattr $C$DW$217, DW_AT_data_member_location[DW_OP_plus_uconst 0x14]
    1992                      .dwattr $C$DW$217, DW_AT_accessibility(DW_ACCESS_public)
    1993              
    1994                      .dwendtag $C$DW$T$60
    1995              
    1996              $C$DW$T$92      .dwtag  DW_TAG_typedef
    1997                      .dwattr $C$DW$T$92, DW_AT_name("DRV8305_Vars")
    1998                      .dwattr $C$DW$T$92, DW_AT_type(*$C$DW$T$60)
    1999                      .dwattr $C$DW$T$92, DW_AT_language(DW_LANG_C)
    2000              
    2001              
    2002              $C$DW$T$97      .dwtag  DW_TAG_structure_type
    2003                      .dwattr $C$DW$T$97, DW_AT_byte_size(0x1ce)
    2004              $C$DW$218       .dwtag  DW_TAG_member
    2005                      .dwattr $C$DW$218, DW_AT_type(*$C$DW$T$62)
    2006                      .dwattr $C$DW$218, DW_AT_name("PwmARegs")
    2007                      .dwattr $C$DW$218, DW_AT_TI_symbol_name("_PwmARegs")
    2008                      .dwattr $C$DW$218, DW_AT_data_member_location[DW_OP_plus_uconst 0x0]
    2009                      .dwattr $C$DW$218, DW_AT_accessibility(DW_ACCESS_public)
    2010              
    2011              $C$DW$219       .dwtag  DW_TAG_member
    2012                      .dwattr $C$DW$219, DW_AT_type(*$C$DW$T$62)
    2013                      .dwattr $C$DW$219, DW_AT_name("PwmBRegs")
    2014                      .dwattr $C$DW$219, DW_AT_TI_symbol_name("_PwmBRegs")
    2015                      .dwattr $C$DW$219, DW_AT_data_member_location[DW_OP_plus_uconst 0x2]
    2016                      .dwattr $C$DW$219, DW_AT_accessibility(DW_ACCESS_public)
    2017              
    2018              $C$DW$220       .dwtag  DW_TAG_member
    2019                      .dwattr $C$DW$220, DW_AT_type(*$C$DW$T$62)
    2020                      .dwattr $C$DW$220, DW_AT_name("PwmCRegs")
    2021                      .dwattr $C$DW$220, DW_AT_TI_symbol_name("_PwmCRegs")
    2022                      .dwattr $C$DW$220, DW_AT_data_member_location[DW_OP_plus_uconst 0x4]
    2023                      .dwattr $C$DW$220, DW_AT_accessibility(DW_ACCESS_public)
    2024              
TMS320C2000 Assembler PC v20.2.1 Wed Nov 18 21:47:52 2020

Copyright (c) 1996-2018 Texas Instruments Incorporated
DRV830x_SPI.asm                                                      PAGE   38

    2025              $C$DW$221       .dwtag  DW_TAG_member
    2026                      .dwattr $C$DW$221, DW_AT_type(*$C$DW$T$64)
    2027                      .dwattr $C$DW$221, DW_AT_name("QepRegs")
    2028                      .dwattr $C$DW$221, DW_AT_TI_symbol_name("_QepRegs")
    2029                      .dwattr $C$DW$221, DW_AT_data_member_location[DW_OP_plus_uconst 0x6]
    2030                      .dwattr $C$DW$221, DW_AT_accessibility(DW_ACCESS_public)
    2031              
    2032              $C$DW$222       .dwtag  DW_TAG_member
    2033                      .dwattr $C$DW$222, DW_AT_type(*$C$DW$T$66)
    2034                      .dwattr $C$DW$222, DW_AT_name("SpiRegs")
    2035                      .dwattr $C$DW$222, DW_AT_TI_symbol_name("_SpiRegs")
    2036                      .dwattr $C$DW$222, DW_AT_data_member_location[DW_OP_plus_uconst 0x8]
    2037                      .dwattr $C$DW$222, DW_AT_accessibility(DW_ACCESS_public)
    2038              
    2039              $C$DW$223       .dwtag  DW_TAG_member
    2040                      .dwattr $C$DW$223, DW_AT_type(*$C$DW$T$68)
    2041                      .dwattr $C$DW$223, DW_AT_name("CmpssARegs")
    2042                      .dwattr $C$DW$223, DW_AT_TI_symbol_name("_CmpssARegs")
    2043                      .dwattr $C$DW$223, DW_AT_data_member_location[DW_OP_plus_uconst 0xa]
    2044                      .dwattr $C$DW$223, DW_AT_accessibility(DW_ACCESS_public)
    2045              
    2046              $C$DW$224       .dwtag  DW_TAG_member
    2047                      .dwattr $C$DW$224, DW_AT_type(*$C$DW$T$68)
    2048                      .dwattr $C$DW$224, DW_AT_name("CmpssBRegs")
    2049                      .dwattr $C$DW$224, DW_AT_TI_symbol_name("_CmpssBRegs")
    2050                      .dwattr $C$DW$224, DW_AT_data_member_location[DW_OP_plus_uconst 0xc]
    2051                      .dwattr $C$DW$224, DW_AT_accessibility(DW_ACCESS_public)
    2052              
    2053              $C$DW$225       .dwtag  DW_TAG_member
    2054                      .dwattr $C$DW$225, DW_AT_type(*$C$DW$T$68)
    2055                      .dwattr $C$DW$225, DW_AT_name("CmpssCRegs")
    2056                      .dwattr $C$DW$225, DW_AT_TI_symbol_name("_CmpssCRegs")
    2057                      .dwattr $C$DW$225, DW_AT_data_member_location[DW_OP_plus_uconst 0xe]
    2058                      .dwattr $C$DW$225, DW_AT_accessibility(DW_ACCESS_public)
    2059              
    2060              $C$DW$226       .dwtag  DW_TAG_member
    2061                      .dwattr $C$DW$226, DW_AT_type(*$C$DW$T$72)
    2062                      .dwattr $C$DW$226, DW_AT_name("CurA_PPBRESULT")
    2063                      .dwattr $C$DW$226, DW_AT_TI_symbol_name("_CurA_PPBRESULT")
    2064                      .dwattr $C$DW$226, DW_AT_data_member_location[DW_OP_plus_uconst 0x10]
    2065                      .dwattr $C$DW$226, DW_AT_accessibility(DW_ACCESS_public)
    2066              
    2067              $C$DW$227       .dwtag  DW_TAG_member
    2068                      .dwattr $C$DW$227, DW_AT_type(*$C$DW$T$72)
    2069                      .dwattr $C$DW$227, DW_AT_name("CurB_PPBRESULT")
    2070                      .dwattr $C$DW$227, DW_AT_TI_symbol_name("_CurB_PPBRESULT")
    2071                      .dwattr $C$DW$227, DW_AT_data_member_location[DW_OP_plus_uconst 0x12]
    2072                      .dwattr $C$DW$227, DW_AT_accessibility(DW_ACCESS_public)
    2073              
    2074              $C$DW$228       .dwtag  DW_TAG_member
    2075                      .dwattr $C$DW$228, DW_AT_type(*$C$DW$T$72)
    2076                      .dwattr $C$DW$228, DW_AT_name("CurC_PPBRESULT")
    2077                      .dwattr $C$DW$228, DW_AT_TI_symbol_name("_CurC_PPBRESULT")
    2078                      .dwattr $C$DW$228, DW_AT_data_member_location[DW_OP_plus_uconst 0x14]
    2079                      .dwattr $C$DW$228, DW_AT_accessibility(DW_ACCESS_public)
TMS320C2000 Assembler PC v20.2.1 Wed Nov 18 21:47:52 2020

Copyright (c) 1996-2018 Texas Instruments Incorporated
DRV830x_SPI.asm                                                      PAGE   39

    2080              
    2081              $C$DW$229       .dwtag  DW_TAG_member
    2082                      .dwattr $C$DW$229, DW_AT_type(*$C$DW$T$76)
    2083                      .dwattr $C$DW$229, DW_AT_name("Vdc_AdcResult")
    2084                      .dwattr $C$DW$229, DW_AT_TI_symbol_name("_Vdc_AdcResult")
    2085                      .dwattr $C$DW$229, DW_AT_data_member_location[DW_OP_plus_uconst 0x16]
    2086                      .dwattr $C$DW$229, DW_AT_accessibility(DW_ACCESS_public)
    2087              
    2088              $C$DW$230       .dwtag  DW_TAG_member
    2089                      .dwattr $C$DW$230, DW_AT_type(*$C$DW$T$72)
    2090                      .dwattr $C$DW$230, DW_AT_name("pwmCompA")
    2091                      .dwattr $C$DW$230, DW_AT_TI_symbol_name("_pwmCompA")
    2092                      .dwattr $C$DW$230, DW_AT_data_member_location[DW_OP_plus_uconst 0x18]
    2093                      .dwattr $C$DW$230, DW_AT_accessibility(DW_ACCESS_public)
    2094              
    2095              $C$DW$231       .dwtag  DW_TAG_member
    2096                      .dwattr $C$DW$231, DW_AT_type(*$C$DW$T$72)
    2097                      .dwattr $C$DW$231, DW_AT_name("pwmCompB")
    2098                      .dwattr $C$DW$231, DW_AT_TI_symbol_name("_pwmCompB")
    2099                      .dwattr $C$DW$231, DW_AT_data_member_location[DW_OP_plus_uconst 0x1a]
    2100                      .dwattr $C$DW$231, DW_AT_accessibility(DW_ACCESS_public)
    2101              
    2102              $C$DW$232       .dwtag  DW_TAG_member
    2103                      .dwattr $C$DW$232, DW_AT_type(*$C$DW$T$72)
    2104                      .dwattr $C$DW$232, DW_AT_name("pwmCompC")
    2105                      .dwattr $C$DW$232, DW_AT_TI_symbol_name("_pwmCompC")
    2106                      .dwattr $C$DW$232, DW_AT_data_member_location[DW_OP_plus_uconst 0x1c]
    2107                      .dwattr $C$DW$232, DW_AT_accessibility(DW_ACCESS_public)
    2108              
    2109              $C$DW$233       .dwtag  DW_TAG_member
    2110                      .dwattr $C$DW$233, DW_AT_type(*$C$DW$T$77)
    2111                      .dwattr $C$DW$233, DW_AT_name("clarke")
    2112                      .dwattr $C$DW$233, DW_AT_TI_symbol_name("_clarke")
    2113                      .dwattr $C$DW$233, DW_AT_data_member_location[DW_OP_plus_uconst 0x1e]
    2114                      .dwattr $C$DW$233, DW_AT_accessibility(DW_ACCESS_public)
    2115              
    2116              $C$DW$234       .dwtag  DW_TAG_member
    2117                      .dwattr $C$DW$234, DW_AT_type(*$C$DW$T$78)
    2118                      .dwattr $C$DW$234, DW_AT_name("park")
    2119                      .dwattr $C$DW$234, DW_AT_TI_symbol_name("_park")
    2120                      .dwattr $C$DW$234, DW_AT_data_member_location[DW_OP_plus_uconst 0x28]
    2121                      .dwattr $C$DW$234, DW_AT_accessibility(DW_ACCESS_public)
    2122              
    2123              $C$DW$235       .dwtag  DW_TAG_member
    2124                      .dwattr $C$DW$235, DW_AT_type(*$C$DW$T$79)
    2125                      .dwattr $C$DW$235, DW_AT_name("ipark")
    2126                      .dwattr $C$DW$235, DW_AT_TI_symbol_name("_ipark")
    2127                      .dwattr $C$DW$235, DW_AT_data_member_location[DW_OP_plus_uconst 0x36]
    2128                      .dwattr $C$DW$235, DW_AT_accessibility(DW_ACCESS_public)
    2129              
    2130              $C$DW$236       .dwtag  DW_TAG_member
    2131                      .dwattr $C$DW$236, DW_AT_type(*$C$DW$T$80)
    2132                      .dwattr $C$DW$236, DW_AT_name("pid_pos")
    2133                      .dwattr $C$DW$236, DW_AT_TI_symbol_name("_pid_pos")
    2134                      .dwattr $C$DW$236, DW_AT_data_member_location[DW_OP_plus_uconst 0x44]
TMS320C2000 Assembler PC v20.2.1 Wed Nov 18 21:47:52 2020

Copyright (c) 1996-2018 Texas Instruments Incorporated
DRV830x_SPI.asm                                                      PAGE   40

    2135                      .dwattr $C$DW$236, DW_AT_accessibility(DW_ACCESS_public)
    2136              
    2137              $C$DW$237       .dwtag  DW_TAG_member
    2138                      .dwattr $C$DW$237, DW_AT_type(*$C$DW$T$81)
    2139                      .dwattr $C$DW$237, DW_AT_name("pi_pos")
    2140                      .dwattr $C$DW$237, DW_AT_TI_symbol_name("_pi_pos")
    2141                      .dwattr $C$DW$237, DW_AT_data_member_location[DW_OP_plus_uconst 0x64]
    2142                      .dwattr $C$DW$237, DW_AT_accessibility(DW_ACCESS_public)
    2143              
    2144              $C$DW$238       .dwtag  DW_TAG_member
    2145                      .dwattr $C$DW$238, DW_AT_type(*$C$DW$T$82)
    2146                      .dwattr $C$DW$238, DW_AT_name("pid_spd")
    2147                      .dwattr $C$DW$238, DW_AT_TI_symbol_name("_pid_spd")
    2148                      .dwattr $C$DW$238, DW_AT_data_member_location[DW_OP_plus_uconst 0x7c]
    2149                      .dwattr $C$DW$238, DW_AT_accessibility(DW_ACCESS_public)
    2150              
    2151              $C$DW$239       .dwtag  DW_TAG_member
    2152                      .dwattr $C$DW$239, DW_AT_type(*$C$DW$T$83)
    2153                      .dwattr $C$DW$239, DW_AT_name("cntlr_id")
    2154                      .dwattr $C$DW$239, DW_AT_TI_symbol_name("_cntlr_id")
    2155                      .dwattr $C$DW$239, DW_AT_data_member_location[DW_OP_plus_uconst 0xa4]
    2156                      .dwattr $C$DW$239, DW_AT_accessibility(DW_ACCESS_public)
    2157              
    2158              $C$DW$240       .dwtag  DW_TAG_member
    2159                      .dwattr $C$DW$240, DW_AT_type(*$C$DW$T$83)
    2160                      .dwattr $C$DW$240, DW_AT_name("cntlr_iq")
    2161                      .dwattr $C$DW$240, DW_AT_TI_symbol_name("_cntlr_iq")
    2162                      .dwattr $C$DW$240, DW_AT_data_member_location[DW_OP_plus_uconst 0xc6]
    2163                      .dwattr $C$DW$240, DW_AT_accessibility(DW_ACCESS_public)
    2164              
    2165              $C$DW$241       .dwtag  DW_TAG_member
    2166                      .dwattr $C$DW$241, DW_AT_type(*$C$DW$T$84)
    2167                      .dwattr $C$DW$241, DW_AT_name("FCL_Pars")
    2168                      .dwattr $C$DW$241, DW_AT_TI_symbol_name("_FCL_Pars")
    2169                      .dwattr $C$DW$241, DW_AT_data_member_location[DW_OP_plus_uconst 0xe8]
    2170                      .dwattr $C$DW$241, DW_AT_accessibility(DW_ACCESS_public)
    2171              
    2172              $C$DW$242       .dwtag  DW_TAG_member
    2173                      .dwattr $C$DW$242, DW_AT_type(*$C$DW$T$85)
    2174                      .dwattr $C$DW$242, DW_AT_name("svgen")
    2175                      .dwattr $C$DW$242, DW_AT_TI_symbol_name("_svgen")
    2176                      .dwattr $C$DW$242, DW_AT_data_member_location[DW_OP_plus_uconst 0x10a]
    2177                      .dwattr $C$DW$242, DW_AT_accessibility(DW_ACCESS_public)
    2178              
    2179              $C$DW$243       .dwtag  DW_TAG_member
    2180                      .dwattr $C$DW$243, DW_AT_type(*$C$DW$T$86)
    2181                      .dwattr $C$DW$243, DW_AT_name("rc")
    2182                      .dwattr $C$DW$243, DW_AT_TI_symbol_name("_rc")
    2183                      .dwattr $C$DW$243, DW_AT_data_member_location[DW_OP_plus_uconst 0x11c]
    2184                      .dwattr $C$DW$243, DW_AT_accessibility(DW_ACCESS_public)
    2185              
    2186              $C$DW$244       .dwtag  DW_TAG_member
    2187                      .dwattr $C$DW$244, DW_AT_type(*$C$DW$T$87)
    2188                      .dwattr $C$DW$244, DW_AT_name("rg")
    2189                      .dwattr $C$DW$244, DW_AT_TI_symbol_name("_rg")
TMS320C2000 Assembler PC v20.2.1 Wed Nov 18 21:47:52 2020

Copyright (c) 1996-2018 Texas Instruments Incorporated
DRV830x_SPI.asm                                                      PAGE   41

    2190                      .dwattr $C$DW$244, DW_AT_data_member_location[DW_OP_plus_uconst 0x12c]
    2191                      .dwattr $C$DW$244, DW_AT_accessibility(DW_ACCESS_public)
    2192              
    2193              $C$DW$245       .dwtag  DW_TAG_member
    2194                      .dwattr $C$DW$245, DW_AT_type(*$C$DW$T$88)
    2195                      .dwattr $C$DW$245, DW_AT_name("volt")
    2196                      .dwattr $C$DW$245, DW_AT_TI_symbol_name("_volt")
    2197                      .dwattr $C$DW$245, DW_AT_data_member_location[DW_OP_plus_uconst 0x138]
    2198                      .dwattr $C$DW$245, DW_AT_accessibility(DW_ACCESS_public)
    2199              
    2200              $C$DW$246       .dwtag  DW_TAG_member
    2201                      .dwattr $C$DW$246, DW_AT_type(*$C$DW$T$89)
    2202                      .dwattr $C$DW$246, DW_AT_name("speed")
    2203                      .dwattr $C$DW$246, DW_AT_TI_symbol_name("_speed")
    2204                      .dwattr $C$DW$246, DW_AT_data_member_location[DW_OP_plus_uconst 0x14e]
    2205                      .dwattr $C$DW$246, DW_AT_accessibility(DW_ACCESS_public)
    2206              
    2207              $C$DW$247       .dwtag  DW_TAG_member
    2208                      .dwattr $C$DW$247, DW_AT_type(*$C$DW$T$90)
    2209                      .dwattr $C$DW$247, DW_AT_name("qep")
    2210                      .dwattr $C$DW$247, DW_AT_TI_symbol_name("_qep")
    2211                      .dwattr $C$DW$247, DW_AT_data_member_location[DW_OP_plus_uconst 0x162]
    2212                      .dwattr $C$DW$247, DW_AT_accessibility(DW_ACCESS_public)
    2213              
    2214              $C$DW$248       .dwtag  DW_TAG_member
    2215                      .dwattr $C$DW$248, DW_AT_type(*$C$DW$T$91)
    2216                      .dwattr $C$DW$248, DW_AT_name("drv8301")
    2217                      .dwattr $C$DW$248, DW_AT_TI_symbol_name("_drv8301")
    2218                      .dwattr $C$DW$248, DW_AT_data_member_location[DW_OP_plus_uconst 0x174]
    2219                      .dwattr $C$DW$248, DW_AT_accessibility(DW_ACCESS_public)
    2220              
    2221              $C$DW$249       .dwtag  DW_TAG_member
    2222                      .dwattr $C$DW$249, DW_AT_type(*$C$DW$T$92)
    2223                      .dwattr $C$DW$249, DW_AT_name("drv8305")
    2224                      .dwattr $C$DW$249, DW_AT_TI_symbol_name("_drv8305")
    2225                      .dwattr $C$DW$249, DW_AT_data_member_location[DW_OP_plus_uconst 0x17b]
    2226                      .dwattr $C$DW$249, DW_AT_accessibility(DW_ACCESS_public)
    2227              
    2228              $C$DW$250       .dwtag  DW_TAG_member
    2229                      .dwattr $C$DW$250, DW_AT_type(*$C$DW$T$32)
    2230                      .dwattr $C$DW$250, DW_AT_name("currentAs")
    2231                      .dwattr $C$DW$250, DW_AT_TI_symbol_name("_currentAs")
    2232                      .dwattr $C$DW$250, DW_AT_data_member_location[DW_OP_plus_uconst 0x190]
    2233                      .dwattr $C$DW$250, DW_AT_accessibility(DW_ACCESS_public)
    2234              
    2235              $C$DW$251       .dwtag  DW_TAG_member
    2236                      .dwattr $C$DW$251, DW_AT_type(*$C$DW$T$32)
    2237                      .dwattr $C$DW$251, DW_AT_name("currentBs")
    2238                      .dwattr $C$DW$251, DW_AT_TI_symbol_name("_currentBs")
    2239                      .dwattr $C$DW$251, DW_AT_data_member_location[DW_OP_plus_uconst 0x192]
    2240                      .dwattr $C$DW$251, DW_AT_accessibility(DW_ACCESS_public)
    2241              
    2242              $C$DW$252       .dwtag  DW_TAG_member
    2243                      .dwattr $C$DW$252, DW_AT_type(*$C$DW$T$32)
    2244                      .dwattr $C$DW$252, DW_AT_name("currentCs")
TMS320C2000 Assembler PC v20.2.1 Wed Nov 18 21:47:52 2020

Copyright (c) 1996-2018 Texas Instruments Incorporated
DRV830x_SPI.asm                                                      PAGE   42

    2245                      .dwattr $C$DW$252, DW_AT_TI_symbol_name("_currentCs")
    2246                      .dwattr $C$DW$252, DW_AT_data_member_location[DW_OP_plus_uconst 0x194]
    2247                      .dwattr $C$DW$252, DW_AT_accessibility(DW_ACCESS_public)
    2248              
    2249              $C$DW$253       .dwtag  DW_TAG_member
    2250                      .dwattr $C$DW$253, DW_AT_type(*$C$DW$T$32)
    2251                      .dwattr $C$DW$253, DW_AT_name("currentSenseScale")
    2252                      .dwattr $C$DW$253, DW_AT_TI_symbol_name("_currentSenseScale")
    2253                      .dwattr $C$DW$253, DW_AT_data_member_location[DW_OP_plus_uconst 0x196]
    2254                      .dwattr $C$DW$253, DW_AT_accessibility(DW_ACCESS_public)
    2255              
    2256              $C$DW$254       .dwtag  DW_TAG_member
    2257                      .dwattr $C$DW$254, DW_AT_type(*$C$DW$T$32)
    2258                      .dwattr $C$DW$254, DW_AT_name("T")
    2259                      .dwattr $C$DW$254, DW_AT_TI_symbol_name("_T")
    2260                      .dwattr $C$DW$254, DW_AT_data_member_location[DW_OP_plus_uconst 0x198]
    2261                      .dwattr $C$DW$254, DW_AT_accessibility(DW_ACCESS_public)
    2262              
    2263              $C$DW$255       .dwtag  DW_TAG_member
    2264                      .dwattr $C$DW$255, DW_AT_type(*$C$DW$T$32)
    2265                      .dwattr $C$DW$255, DW_AT_name("Speed0")
    2266                      .dwattr $C$DW$255, DW_AT_TI_symbol_name("_Speed0")
    2267                      .dwattr $C$DW$255, DW_AT_data_member_location[DW_OP_plus_uconst 0x19a]
    2268                      .dwattr $C$DW$255, DW_AT_accessibility(DW_ACCESS_public)
    2269              
    2270              $C$DW$256       .dwtag  DW_TAG_member
    2271                      .dwattr $C$DW$256, DW_AT_type(*$C$DW$T$32)
    2272                      .dwattr $C$DW$256, DW_AT_name("SFRA_noiseD")
    2273                      .dwattr $C$DW$256, DW_AT_TI_symbol_name("_SFRA_noiseD")
    2274                      .dwattr $C$DW$256, DW_AT_data_member_location[DW_OP_plus_uconst 0x19c]
    2275                      .dwattr $C$DW$256, DW_AT_accessibility(DW_ACCESS_public)
    2276              
    2277              $C$DW$257       .dwtag  DW_TAG_member
    2278                      .dwattr $C$DW$257, DW_AT_type(*$C$DW$T$32)
    2279                      .dwattr $C$DW$257, DW_AT_name("SFRA_noiseQ")
    2280                      .dwattr $C$DW$257, DW_AT_TI_symbol_name("_SFRA_noiseQ")
    2281                      .dwattr $C$DW$257, DW_AT_data_member_location[DW_OP_plus_uconst 0x19e]
    2282                      .dwattr $C$DW$257, DW_AT_accessibility(DW_ACCESS_public)
    2283              
    2284              $C$DW$258       .dwtag  DW_TAG_member
    2285                      .dwattr $C$DW$258, DW_AT_type(*$C$DW$T$32)
    2286                      .dwattr $C$DW$258, DW_AT_name("SFRA_noiseW")
    2287                      .dwattr $C$DW$258, DW_AT_TI_symbol_name("_SFRA_noiseW")
    2288                      .dwattr $C$DW$258, DW_AT_data_member_location[DW_OP_plus_uconst 0x1a0]
    2289                      .dwattr $C$DW$258, DW_AT_accessibility(DW_ACCESS_public)
    2290              
    2291              $C$DW$259       .dwtag  DW_TAG_member
    2292                      .dwattr $C$DW$259, DW_AT_type(*$C$DW$T$32)
    2293                      .dwattr $C$DW$259, DW_AT_name("BaseInverterVoltage")
    2294                      .dwattr $C$DW$259, DW_AT_TI_symbol_name("_BaseInverterVoltage")
    2295                      .dwattr $C$DW$259, DW_AT_data_member_location[DW_OP_plus_uconst 0x1a2]
    2296                      .dwattr $C$DW$259, DW_AT_accessibility(DW_ACCESS_public)
    2297              
    2298              $C$DW$260       .dwtag  DW_TAG_member
    2299                      .dwattr $C$DW$260, DW_AT_type(*$C$DW$T$32)
TMS320C2000 Assembler PC v20.2.1 Wed Nov 18 21:47:52 2020

Copyright (c) 1996-2018 Texas Instruments Incorporated
DRV830x_SPI.asm                                                      PAGE   43

    2300                      .dwattr $C$DW$260, DW_AT_name("BaseMotorVoltage")
    2301                      .dwattr $C$DW$260, DW_AT_TI_symbol_name("_BaseMotorVoltage")
    2302                      .dwattr $C$DW$260, DW_AT_data_member_location[DW_OP_plus_uconst 0x1a4]
    2303                      .dwattr $C$DW$260, DW_AT_accessibility(DW_ACCESS_public)
    2304              
    2305              $C$DW$261       .dwtag  DW_TAG_member
    2306                      .dwattr $C$DW$261, DW_AT_type(*$C$DW$T$32)
    2307                      .dwattr $C$DW$261, DW_AT_name("BaseInverterCurrent")
    2308                      .dwattr $C$DW$261, DW_AT_TI_symbol_name("_BaseInverterCurrent")
    2309                      .dwattr $C$DW$261, DW_AT_data_member_location[DW_OP_plus_uconst 0x1a6]
    2310                      .dwattr $C$DW$261, DW_AT_accessibility(DW_ACCESS_public)
    2311              
    2312              $C$DW$262       .dwtag  DW_TAG_member
    2313                      .dwattr $C$DW$262, DW_AT_type(*$C$DW$T$32)
    2314                      .dwattr $C$DW$262, DW_AT_name("BaseMotorCurrent")
    2315                      .dwattr $C$DW$262, DW_AT_TI_symbol_name("_BaseMotorCurrent")
    2316                      .dwattr $C$DW$262, DW_AT_data_member_location[DW_OP_plus_uconst 0x1a8]
    2317                      .dwattr $C$DW$262, DW_AT_accessibility(DW_ACCESS_public)
    2318              
    2319              $C$DW$263       .dwtag  DW_TAG_member
    2320                      .dwattr $C$DW$263, DW_AT_type(*$C$DW$T$32)
    2321                      .dwattr $C$DW$263, DW_AT_name("BaseFrequency")
    2322                      .dwattr $C$DW$263, DW_AT_TI_symbol_name("_BaseFrequency")
    2323                      .dwattr $C$DW$263, DW_AT_data_member_location[DW_OP_plus_uconst 0x1aa]
    2324                      .dwattr $C$DW$263, DW_AT_accessibility(DW_ACCESS_public)
    2325              
    2326              $C$DW$264       .dwtag  DW_TAG_member
    2327                      .dwattr $C$DW$264, DW_AT_type(*$C$DW$T$19)
    2328                      .dwattr $C$DW$264, DW_AT_name("offset_shntA")
    2329                      .dwattr $C$DW$264, DW_AT_TI_symbol_name("_offset_shntA")
    2330                      .dwattr $C$DW$264, DW_AT_data_member_location[DW_OP_plus_uconst 0x1ac]
    2331                      .dwattr $C$DW$264, DW_AT_accessibility(DW_ACCESS_public)
    2332              
    2333              $C$DW$265       .dwtag  DW_TAG_member
    2334                      .dwattr $C$DW$265, DW_AT_type(*$C$DW$T$19)
    2335                      .dwattr $C$DW$265, DW_AT_name("offset_shntB")
    2336                      .dwattr $C$DW$265, DW_AT_TI_symbol_name("_offset_shntB")
    2337                      .dwattr $C$DW$265, DW_AT_data_member_location[DW_OP_plus_uconst 0x1ae]
    2338                      .dwattr $C$DW$265, DW_AT_accessibility(DW_ACCESS_public)
    2339              
    2340              $C$DW$266       .dwtag  DW_TAG_member
    2341                      .dwattr $C$DW$266, DW_AT_type(*$C$DW$T$19)
    2342                      .dwattr $C$DW$266, DW_AT_name("offset_shntC")
    2343                      .dwattr $C$DW$266, DW_AT_TI_symbol_name("_offset_shntC")
    2344                      .dwattr $C$DW$266, DW_AT_data_member_location[DW_OP_plus_uconst 0x1b0]
    2345                      .dwattr $C$DW$266, DW_AT_accessibility(DW_ACCESS_public)
    2346              
    2347              $C$DW$267       .dwtag  DW_TAG_member
    2348                      .dwattr $C$DW$267, DW_AT_type(*$C$DW$T$19)
    2349                      .dwattr $C$DW$267, DW_AT_name("VdTesting")
    2350                      .dwattr $C$DW$267, DW_AT_TI_symbol_name("_VdTesting")
    2351                      .dwattr $C$DW$267, DW_AT_data_member_location[DW_OP_plus_uconst 0x1b2]
    2352                      .dwattr $C$DW$267, DW_AT_accessibility(DW_ACCESS_public)
    2353              
    2354              $C$DW$268       .dwtag  DW_TAG_member
TMS320C2000 Assembler PC v20.2.1 Wed Nov 18 21:47:52 2020

Copyright (c) 1996-2018 Texas Instruments Incorporated
DRV830x_SPI.asm                                                      PAGE   44

    2355                      .dwattr $C$DW$268, DW_AT_type(*$C$DW$T$19)
    2356                      .dwattr $C$DW$268, DW_AT_name("VqTesting")
    2357                      .dwattr $C$DW$268, DW_AT_TI_symbol_name("_VqTesting")
    2358                      .dwattr $C$DW$268, DW_AT_data_member_location[DW_OP_plus_uconst 0x1b4]
    2359                      .dwattr $C$DW$268, DW_AT_accessibility(DW_ACCESS_public)
    2360              
    2361              $C$DW$269       .dwtag  DW_TAG_member
    2362                      .dwattr $C$DW$269, DW_AT_type(*$C$DW$T$19)
    2363                      .dwattr $C$DW$269, DW_AT_name("IdRef")
    2364                      .dwattr $C$DW$269, DW_AT_TI_symbol_name("_IdRef")
    2365                      .dwattr $C$DW$269, DW_AT_data_member_location[DW_OP_plus_uconst 0x1b6]
    2366                      .dwattr $C$DW$269, DW_AT_accessibility(DW_ACCESS_public)
    2367              
    2368              $C$DW$270       .dwtag  DW_TAG_member
    2369                      .dwattr $C$DW$270, DW_AT_type(*$C$DW$T$19)
    2370                      .dwattr $C$DW$270, DW_AT_name("IqRef")
    2371                      .dwattr $C$DW$270, DW_AT_TI_symbol_name("_IqRef")
    2372                      .dwattr $C$DW$270, DW_AT_data_member_location[DW_OP_plus_uconst 0x1b8]
    2373                      .dwattr $C$DW$270, DW_AT_accessibility(DW_ACCESS_public)
    2374              
    2375              $C$DW$271       .dwtag  DW_TAG_member
    2376                      .dwattr $C$DW$271, DW_AT_type(*$C$DW$T$19)
    2377                      .dwattr $C$DW$271, DW_AT_name("SpeedRef")
    2378                      .dwattr $C$DW$271, DW_AT_TI_symbol_name("_SpeedRef")
    2379                      .dwattr $C$DW$271, DW_AT_data_member_location[DW_OP_plus_uconst 0x1ba]
    2380                      .dwattr $C$DW$271, DW_AT_accessibility(DW_ACCESS_public)
    2381              
    2382              $C$DW$272       .dwtag  DW_TAG_member
    2383                      .dwattr $C$DW$272, DW_AT_type(*$C$DW$T$19)
    2384                      .dwattr $C$DW$272, DW_AT_name("angMax")
    2385                      .dwattr $C$DW$272, DW_AT_TI_symbol_name("_angMax")
    2386                      .dwattr $C$DW$272, DW_AT_data_member_location[DW_OP_plus_uconst 0x1bc]
    2387                      .dwattr $C$DW$272, DW_AT_accessibility(DW_ACCESS_public)
    2388              
    2389              $C$DW$273       .dwtag  DW_TAG_member
    2390                      .dwattr $C$DW$273, DW_AT_type(*$C$DW$T$19)
    2391                      .dwattr $C$DW$273, DW_AT_name("ElecTheta")
    2392                      .dwattr $C$DW$273, DW_AT_TI_symbol_name("_ElecTheta")
    2393                      .dwattr $C$DW$273, DW_AT_data_member_location[DW_OP_plus_uconst 0x1be]
    2394                      .dwattr $C$DW$273, DW_AT_accessibility(DW_ACCESS_public)
    2395              
    2396              $C$DW$274       .dwtag  DW_TAG_member
    2397                      .dwattr $C$DW$274, DW_AT_type(*$C$DW$T$19)
    2398                      .dwattr $C$DW$274, DW_AT_name("MechTheta")
    2399                      .dwattr $C$DW$274, DW_AT_TI_symbol_name("_MechTheta")
    2400                      .dwattr $C$DW$274, DW_AT_data_member_location[DW_OP_plus_uconst 0x1c0]
    2401                      .dwattr $C$DW$274, DW_AT_accessibility(DW_ACCESS_public)
    2402              
    2403              $C$DW$275       .dwtag  DW_TAG_member
    2404                      .dwattr $C$DW$275, DW_AT_type(*$C$DW$T$41)
    2405                      .dwattr $C$DW$275, DW_AT_name("alignCntr")
    2406                      .dwattr $C$DW$275, DW_AT_TI_symbol_name("_alignCntr")
    2407                      .dwattr $C$DW$275, DW_AT_data_member_location[DW_OP_plus_uconst 0x1c2]
    2408                      .dwattr $C$DW$275, DW_AT_accessibility(DW_ACCESS_public)
    2409              
TMS320C2000 Assembler PC v20.2.1 Wed Nov 18 21:47:52 2020

Copyright (c) 1996-2018 Texas Instruments Incorporated
DRV830x_SPI.asm                                                      PAGE   45

    2410              $C$DW$276       .dwtag  DW_TAG_member
    2411                      .dwattr $C$DW$276, DW_AT_type(*$C$DW$T$41)
    2412                      .dwattr $C$DW$276, DW_AT_name("alignCnt")
    2413                      .dwattr $C$DW$276, DW_AT_TI_symbol_name("_alignCnt")
    2414                      .dwattr $C$DW$276, DW_AT_data_member_location[DW_OP_plus_uconst 0x1c4]
    2415                      .dwattr $C$DW$276, DW_AT_accessibility(DW_ACCESS_public)
    2416              
    2417              $C$DW$277       .dwtag  DW_TAG_member
    2418                      .dwattr $C$DW$277, DW_AT_type(*$C$DW$T$94)
    2419                      .dwattr $C$DW$277, DW_AT_name("lsw")
    2420                      .dwattr $C$DW$277, DW_AT_TI_symbol_name("_lsw")
    2421                      .dwattr $C$DW$277, DW_AT_data_member_location[DW_OP_plus_uconst 0x1c6]
    2422                      .dwattr $C$DW$277, DW_AT_accessibility(DW_ACCESS_public)
    2423              
    2424              $C$DW$278       .dwtag  DW_TAG_member
    2425                      .dwattr $C$DW$278, DW_AT_type(*$C$DW$T$96)
    2426                      .dwattr $C$DW$278, DW_AT_name("RunMotor")
    2427                      .dwattr $C$DW$278, DW_AT_TI_symbol_name("_RunMotor")
    2428                      .dwattr $C$DW$278, DW_AT_data_member_location[DW_OP_plus_uconst 0x1c7]
    2429                      .dwattr $C$DW$278, DW_AT_accessibility(DW_ACCESS_public)
    2430              
    2431              $C$DW$279       .dwtag  DW_TAG_member
    2432                      .dwattr $C$DW$279, DW_AT_type(*$C$DW$T$34)
    2433                      .dwattr $C$DW$279, DW_AT_name("TripFlagDMC")
    2434                      .dwattr $C$DW$279, DW_AT_TI_symbol_name("_TripFlagDMC")
    2435                      .dwattr $C$DW$279, DW_AT_data_member_location[DW_OP_plus_uconst 0x1c8]
    2436                      .dwattr $C$DW$279, DW_AT_accessibility(DW_ACCESS_public)
    2437              
    2438              $C$DW$280       .dwtag  DW_TAG_member
    2439                      .dwattr $C$DW$280, DW_AT_type(*$C$DW$T$34)
    2440                      .dwattr $C$DW$280, DW_AT_name("clearTripFlagDMC")
    2441                      .dwattr $C$DW$280, DW_AT_TI_symbol_name("_clearTripFlagDMC")
    2442                      .dwattr $C$DW$280, DW_AT_data_member_location[DW_OP_plus_uconst 0x1c9]
    2443                      .dwattr $C$DW$280, DW_AT_accessibility(DW_ACCESS_public)
    2444              
    2445              $C$DW$281       .dwtag  DW_TAG_member
    2446                      .dwattr $C$DW$281, DW_AT_type(*$C$DW$T$34)
    2447                      .dwattr $C$DW$281, DW_AT_name("SpeedLoopPrescaler")
    2448                      .dwattr $C$DW$281, DW_AT_TI_symbol_name("_SpeedLoopPrescaler")
    2449                      .dwattr $C$DW$281, DW_AT_data_member_location[DW_OP_plus_uconst 0x1ca]
    2450                      .dwattr $C$DW$281, DW_AT_accessibility(DW_ACCESS_public)
    2451              
    2452              $C$DW$282       .dwtag  DW_TAG_member
    2453                      .dwattr $C$DW$282, DW_AT_type(*$C$DW$T$34)
    2454                      .dwattr $C$DW$282, DW_AT_name("SpeedLoopCount")
    2455                      .dwattr $C$DW$282, DW_AT_TI_symbol_name("_SpeedLoopCount")
    2456                      .dwattr $C$DW$282, DW_AT_data_member_location[DW_OP_plus_uconst 0x1cb]
    2457                      .dwattr $C$DW$282, DW_AT_accessibility(DW_ACCESS_public)
    2458              
    2459              $C$DW$283       .dwtag  DW_TAG_member
    2460                      .dwattr $C$DW$283, DW_AT_type(*$C$DW$T$34)
    2461                      .dwattr $C$DW$283, DW_AT_name("PosSenseReverse")
    2462                      .dwattr $C$DW$283, DW_AT_TI_symbol_name("_PosSenseReverse")
    2463                      .dwattr $C$DW$283, DW_AT_data_member_location[DW_OP_plus_uconst 0x1cc]
    2464                      .dwattr $C$DW$283, DW_AT_accessibility(DW_ACCESS_public)
TMS320C2000 Assembler PC v20.2.1 Wed Nov 18 21:47:52 2020

Copyright (c) 1996-2018 Texas Instruments Incorporated
DRV830x_SPI.asm                                                      PAGE   46

    2465              
    2466              $C$DW$284       .dwtag  DW_TAG_member
    2467                      .dwattr $C$DW$284, DW_AT_type(*$C$DW$T$34)
    2468                      .dwattr $C$DW$284, DW_AT_name("newCmdDRV")
    2469                      .dwattr $C$DW$284, DW_AT_TI_symbol_name("_newCmdDRV")
    2470                      .dwattr $C$DW$284, DW_AT_data_member_location[DW_OP_plus_uconst 0x1cd]
    2471                      .dwattr $C$DW$284, DW_AT_accessibility(DW_ACCESS_public)
    2472              
    2473                      .dwendtag $C$DW$T$97
    2474              
    2475              $C$DW$T$340     .dwtag  DW_TAG_typedef
    2476                      .dwattr $C$DW$T$340, DW_AT_name("MOTOR_VARS")
    2477                      .dwattr $C$DW$T$340, DW_AT_type(*$C$DW$T$97)
    2478                      .dwattr $C$DW$T$340, DW_AT_language(DW_LANG_C)
    2479              
    2480              $C$DW$T$341     .dwtag  DW_TAG_pointer_type
    2481                      .dwattr $C$DW$T$341, DW_AT_type(*$C$DW$T$340)
    2482                      .dwattr $C$DW$T$341, DW_AT_address_class(0x20)
    2483              
    2484              $C$DW$285       .dwtag  DW_TAG_TI_far_type
    2485                      .dwattr $C$DW$285, DW_AT_type(*$C$DW$T$341)
    2486              
    2487              $C$DW$T$342     .dwtag  DW_TAG_const_type
    2488                      .dwattr $C$DW$T$342, DW_AT_type(*$C$DW$285)
    2489              
    2490              
    2491              $C$DW$T$98      .dwtag  DW_TAG_union_type
    2492                      .dwattr $C$DW$T$98, DW_AT_byte_size(0x01)
    2493              $C$DW$286       .dwtag  DW_TAG_member
    2494                      .dwattr $C$DW$286, DW_AT_type(*$C$DW$T$34)
    2495                      .dwattr $C$DW$286, DW_AT_name("all")
    2496                      .dwattr $C$DW$286, DW_AT_TI_symbol_name("_all")
    2497                      .dwattr $C$DW$286, DW_AT_data_member_location[DW_OP_plus_uconst 0x0]
    2498                      .dwattr $C$DW$286, DW_AT_accessibility(DW_ACCESS_public)
    2499              
    2500              $C$DW$287       .dwtag  DW_TAG_member
    2501                      .dwattr $C$DW$287, DW_AT_type(*$C$DW$T$199)
    2502                      .dwattr $C$DW$287, DW_AT_name("bit")
    2503                      .dwattr $C$DW$287, DW_AT_TI_symbol_name("_bit")
    2504                      .dwattr $C$DW$287, DW_AT_data_member_location[DW_OP_plus_uconst 0x0]
    2505                      .dwattr $C$DW$287, DW_AT_accessibility(DW_ACCESS_public)
    2506              
    2507                      .dwendtag $C$DW$T$98
    2508              
    2509              $C$DW$T$44      .dwtag  DW_TAG_typedef
    2510                      .dwattr $C$DW$T$44, DW_AT_name("DRV8301_STATUS_REG_1")
    2511                      .dwattr $C$DW$T$44, DW_AT_type(*$C$DW$T$98)
    2512                      .dwattr $C$DW$T$44, DW_AT_language(DW_LANG_C)
    2513              
    2514              
    2515              $C$DW$T$99      .dwtag  DW_TAG_union_type
    2516                      .dwattr $C$DW$T$99, DW_AT_byte_size(0x01)
    2517              $C$DW$288       .dwtag  DW_TAG_member
    2518                      .dwattr $C$DW$288, DW_AT_type(*$C$DW$T$34)
    2519                      .dwattr $C$DW$288, DW_AT_name("all")
TMS320C2000 Assembler PC v20.2.1 Wed Nov 18 21:47:52 2020

Copyright (c) 1996-2018 Texas Instruments Incorporated
DRV830x_SPI.asm                                                      PAGE   47

    2520                      .dwattr $C$DW$288, DW_AT_TI_symbol_name("_all")
    2521                      .dwattr $C$DW$288, DW_AT_data_member_location[DW_OP_plus_uconst 0x0]
    2522                      .dwattr $C$DW$288, DW_AT_accessibility(DW_ACCESS_public)
    2523              
    2524              $C$DW$289       .dwtag  DW_TAG_member
    2525                      .dwattr $C$DW$289, DW_AT_type(*$C$DW$T$200)
    2526                      .dwattr $C$DW$289, DW_AT_name("bit")
    2527                      .dwattr $C$DW$289, DW_AT_TI_symbol_name("_bit")
    2528                      .dwattr $C$DW$289, DW_AT_data_member_location[DW_OP_plus_uconst 0x0]
    2529                      .dwattr $C$DW$289, DW_AT_accessibility(DW_ACCESS_public)
    2530              
    2531                      .dwendtag $C$DW$T$99
    2532              
    2533              $C$DW$T$45      .dwtag  DW_TAG_typedef
    2534                      .dwattr $C$DW$T$45, DW_AT_name("DRV8301_STATUS_REG_2")
    2535                      .dwattr $C$DW$T$45, DW_AT_type(*$C$DW$T$99)
    2536                      .dwattr $C$DW$T$45, DW_AT_language(DW_LANG_C)
    2537              
    2538              
    2539              $C$DW$T$100     .dwtag  DW_TAG_union_type
    2540                      .dwattr $C$DW$T$100, DW_AT_byte_size(0x01)
    2541              $C$DW$290       .dwtag  DW_TAG_member
    2542                      .dwattr $C$DW$290, DW_AT_type(*$C$DW$T$34)
    2543                      .dwattr $C$DW$290, DW_AT_name("all")
    2544                      .dwattr $C$DW$290, DW_AT_TI_symbol_name("_all")
    2545                      .dwattr $C$DW$290, DW_AT_data_member_location[DW_OP_plus_uconst 0x0]
    2546                      .dwattr $C$DW$290, DW_AT_accessibility(DW_ACCESS_public)
    2547              
    2548              $C$DW$291       .dwtag  DW_TAG_member
    2549                      .dwattr $C$DW$291, DW_AT_type(*$C$DW$T$197)
    2550                      .dwattr $C$DW$291, DW_AT_name("bit")
    2551                      .dwattr $C$DW$291, DW_AT_TI_symbol_name("_bit")
    2552                      .dwattr $C$DW$291, DW_AT_data_member_location[DW_OP_plus_uconst 0x0]
    2553                      .dwattr $C$DW$291, DW_AT_accessibility(DW_ACCESS_public)
    2554              
    2555                      .dwendtag $C$DW$T$100
    2556              
    2557              $C$DW$T$46      .dwtag  DW_TAG_typedef
    2558                      .dwattr $C$DW$T$46, DW_AT_name("DRV8301_CONTROL_REG_1")
    2559                      .dwattr $C$DW$T$46, DW_AT_type(*$C$DW$T$100)
    2560                      .dwattr $C$DW$T$46, DW_AT_language(DW_LANG_C)
    2561              
    2562              
    2563              $C$DW$T$101     .dwtag  DW_TAG_union_type
    2564                      .dwattr $C$DW$T$101, DW_AT_byte_size(0x01)
    2565              $C$DW$292       .dwtag  DW_TAG_member
    2566                      .dwattr $C$DW$292, DW_AT_type(*$C$DW$T$34)
    2567                      .dwattr $C$DW$292, DW_AT_name("all")
    2568                      .dwattr $C$DW$292, DW_AT_TI_symbol_name("_all")
    2569                      .dwattr $C$DW$292, DW_AT_data_member_location[DW_OP_plus_uconst 0x0]
    2570                      .dwattr $C$DW$292, DW_AT_accessibility(DW_ACCESS_public)
    2571              
    2572              $C$DW$293       .dwtag  DW_TAG_member
    2573                      .dwattr $C$DW$293, DW_AT_type(*$C$DW$T$198)
    2574                      .dwattr $C$DW$293, DW_AT_name("bit")
TMS320C2000 Assembler PC v20.2.1 Wed Nov 18 21:47:52 2020

Copyright (c) 1996-2018 Texas Instruments Incorporated
DRV830x_SPI.asm                                                      PAGE   48

    2575                      .dwattr $C$DW$293, DW_AT_TI_symbol_name("_bit")
    2576                      .dwattr $C$DW$293, DW_AT_data_member_location[DW_OP_plus_uconst 0x0]
    2577                      .dwattr $C$DW$293, DW_AT_accessibility(DW_ACCESS_public)
    2578              
    2579                      .dwendtag $C$DW$T$101
    2580              
    2581              $C$DW$T$47      .dwtag  DW_TAG_typedef
    2582                      .dwattr $C$DW$T$47, DW_AT_name("DRV8301_CONTROL_REG_2")
    2583                      .dwattr $C$DW$T$47, DW_AT_type(*$C$DW$T$101)
    2584                      .dwattr $C$DW$T$47, DW_AT_language(DW_LANG_C)
    2585              
    2586              
    2587              $C$DW$T$102     .dwtag  DW_TAG_union_type
    2588                      .dwattr $C$DW$T$102, DW_AT_byte_size(0x01)
    2589              $C$DW$294       .dwtag  DW_TAG_member
    2590                      .dwattr $C$DW$294, DW_AT_type(*$C$DW$T$34)
    2591                      .dwattr $C$DW$294, DW_AT_name("all")
    2592                      .dwattr $C$DW$294, DW_AT_TI_symbol_name("_all")
    2593                      .dwattr $C$DW$294, DW_AT_data_member_location[DW_OP_plus_uconst 0x0]
    2594                      .dwattr $C$DW$294, DW_AT_accessibility(DW_ACCESS_public)
    2595              
    2596              $C$DW$295       .dwtag  DW_TAG_member
    2597                      .dwattr $C$DW$295, DW_AT_type(*$C$DW$T$211)
    2598                      .dwattr $C$DW$295, DW_AT_name("bit")
    2599                      .dwattr $C$DW$295, DW_AT_TI_symbol_name("_bit")
    2600                      .dwattr $C$DW$295, DW_AT_data_member_location[DW_OP_plus_uconst 0x0]
    2601                      .dwattr $C$DW$295, DW_AT_accessibility(DW_ACCESS_public)
    2602              
    2603                      .dwendtag $C$DW$T$102
    2604              
    2605              $C$DW$T$49      .dwtag  DW_TAG_typedef
    2606                      .dwattr $C$DW$T$49, DW_AT_name("DRV8305_WWD_REG")
    2607                      .dwattr $C$DW$T$49, DW_AT_type(*$C$DW$T$102)
    2608                      .dwattr $C$DW$T$49, DW_AT_language(DW_LANG_C)
    2609              
    2610              
    2611              $C$DW$T$103     .dwtag  DW_TAG_union_type
    2612                      .dwattr $C$DW$T$103, DW_AT_byte_size(0x01)
    2613              $C$DW$296       .dwtag  DW_TAG_member
    2614                      .dwattr $C$DW$296, DW_AT_type(*$C$DW$T$34)
    2615                      .dwattr $C$DW$296, DW_AT_name("all")
    2616                      .dwattr $C$DW$296, DW_AT_TI_symbol_name("_all")
    2617                      .dwattr $C$DW$296, DW_AT_data_member_location[DW_OP_plus_uconst 0x0]
    2618                      .dwattr $C$DW$296, DW_AT_accessibility(DW_ACCESS_public)
    2619              
    2620              $C$DW$297       .dwtag  DW_TAG_member
    2621                      .dwattr $C$DW$297, DW_AT_type(*$C$DW$T$207)
    2622                      .dwattr $C$DW$297, DW_AT_name("bit")
    2623                      .dwattr $C$DW$297, DW_AT_TI_symbol_name("_bit")
    2624                      .dwattr $C$DW$297, DW_AT_data_member_location[DW_OP_plus_uconst 0x0]
    2625                      .dwattr $C$DW$297, DW_AT_accessibility(DW_ACCESS_public)
    2626              
    2627                      .dwendtag $C$DW$T$103
    2628              
    2629              $C$DW$T$50      .dwtag  DW_TAG_typedef
TMS320C2000 Assembler PC v20.2.1 Wed Nov 18 21:47:52 2020

Copyright (c) 1996-2018 Texas Instruments Incorporated
DRV830x_SPI.asm                                                      PAGE   49

    2630                      .dwattr $C$DW$T$50, DW_AT_name("DRV8305_OV_VDS_FAULTS_REG")
    2631                      .dwattr $C$DW$T$50, DW_AT_type(*$C$DW$T$103)
    2632                      .dwattr $C$DW$T$50, DW_AT_language(DW_LANG_C)
    2633              
    2634              
    2635              $C$DW$T$104     .dwtag  DW_TAG_union_type
    2636                      .dwattr $C$DW$T$104, DW_AT_byte_size(0x01)
    2637              $C$DW$298       .dwtag  DW_TAG_member
    2638                      .dwattr $C$DW$298, DW_AT_type(*$C$DW$T$34)
    2639                      .dwattr $C$DW$298, DW_AT_name("all")
    2640                      .dwattr $C$DW$298, DW_AT_TI_symbol_name("_all")
    2641                      .dwattr $C$DW$298, DW_AT_data_member_location[DW_OP_plus_uconst 0x0]
    2642                      .dwattr $C$DW$298, DW_AT_accessibility(DW_ACCESS_public)
    2643              
    2644              $C$DW$299       .dwtag  DW_TAG_member
    2645                      .dwattr $C$DW$299, DW_AT_type(*$C$DW$T$204)
    2646                      .dwattr $C$DW$299, DW_AT_name("bit")
    2647                      .dwattr $C$DW$299, DW_AT_TI_symbol_name("_bit")
    2648                      .dwattr $C$DW$299, DW_AT_data_member_location[DW_OP_plus_uconst 0x0]
    2649                      .dwattr $C$DW$299, DW_AT_accessibility(DW_ACCESS_public)
    2650              
    2651                      .dwendtag $C$DW$T$104
    2652              
    2653              $C$DW$T$51      .dwtag  DW_TAG_typedef
    2654                      .dwattr $C$DW$T$51, DW_AT_name("DRV8305_IC_FAULTS_REG")
    2655                      .dwattr $C$DW$T$51, DW_AT_type(*$C$DW$T$104)
    2656                      .dwattr $C$DW$T$51, DW_AT_language(DW_LANG_C)
    2657              
    2658              
    2659              $C$DW$T$105     .dwtag  DW_TAG_union_type
    2660                      .dwattr $C$DW$T$105, DW_AT_byte_size(0x01)
    2661              $C$DW$300       .dwtag  DW_TAG_member
    2662                      .dwattr $C$DW$300, DW_AT_type(*$C$DW$T$34)
    2663                      .dwattr $C$DW$300, DW_AT_name("all")
    2664                      .dwattr $C$DW$300, DW_AT_TI_symbol_name("_all")
    2665                      .dwattr $C$DW$300, DW_AT_data_member_location[DW_OP_plus_uconst 0x0]
    2666                      .dwattr $C$DW$300, DW_AT_accessibility(DW_ACCESS_public)
    2667              
    2668              $C$DW$301       .dwtag  DW_TAG_member
    2669                      .dwattr $C$DW$301, DW_AT_type(*$C$DW$T$202)
    2670                      .dwattr $C$DW$301, DW_AT_name("bit")
    2671                      .dwattr $C$DW$301, DW_AT_TI_symbol_name("_bit")
    2672                      .dwattr $C$DW$301, DW_AT_data_member_location[DW_OP_plus_uconst 0x0]
    2673                      .dwattr $C$DW$301, DW_AT_accessibility(DW_ACCESS_public)
    2674              
    2675                      .dwendtag $C$DW$T$105
    2676              
    2677              $C$DW$T$52      .dwtag  DW_TAG_typedef
    2678                      .dwattr $C$DW$T$52, DW_AT_name("DRV8305_GD_VGS_FAULTS_REG")
    2679                      .dwattr $C$DW$T$52, DW_AT_type(*$C$DW$T$105)
    2680                      .dwattr $C$DW$T$52, DW_AT_language(DW_LANG_C)
    2681              
    2682              
    2683              $C$DW$T$106     .dwtag  DW_TAG_union_type
    2684                      .dwattr $C$DW$T$106, DW_AT_byte_size(0x01)
TMS320C2000 Assembler PC v20.2.1 Wed Nov 18 21:47:52 2020

Copyright (c) 1996-2018 Texas Instruments Incorporated
DRV830x_SPI.asm                                                      PAGE   50

    2685              $C$DW$302       .dwtag  DW_TAG_member
    2686                      .dwattr $C$DW$302, DW_AT_type(*$C$DW$T$34)
    2687                      .dwattr $C$DW$302, DW_AT_name("all")
    2688                      .dwattr $C$DW$302, DW_AT_TI_symbol_name("_all")
    2689                      .dwattr $C$DW$302, DW_AT_data_member_location[DW_OP_plus_uconst 0x0]
    2690                      .dwattr $C$DW$302, DW_AT_accessibility(DW_ACCESS_public)
    2691              
    2692              $C$DW$303       .dwtag  DW_TAG_member
    2693                      .dwattr $C$DW$303, DW_AT_type(*$C$DW$T$203)
    2694                      .dwattr $C$DW$303, DW_AT_name("bit")
    2695                      .dwattr $C$DW$303, DW_AT_TI_symbol_name("_bit")
    2696                      .dwattr $C$DW$303, DW_AT_data_member_location[DW_OP_plus_uconst 0x0]
    2697                      .dwattr $C$DW$303, DW_AT_accessibility(DW_ACCESS_public)
    2698              
    2699                      .dwendtag $C$DW$T$106
    2700              
    2701              $C$DW$T$53      .dwtag  DW_TAG_typedef
    2702                      .dwattr $C$DW$T$53, DW_AT_name("DRV8305_HS_GATE_DRIVER_CNTRL_REG")
    2703                      .dwattr $C$DW$T$53, DW_AT_type(*$C$DW$T$106)
    2704                      .dwattr $C$DW$T$53, DW_AT_language(DW_LANG_C)
    2705              
    2706              
    2707              $C$DW$T$107     .dwtag  DW_TAG_union_type
    2708                      .dwattr $C$DW$T$107, DW_AT_byte_size(0x01)
    2709              $C$DW$304       .dwtag  DW_TAG_member
    2710                      .dwattr $C$DW$304, DW_AT_type(*$C$DW$T$34)
    2711                      .dwattr $C$DW$304, DW_AT_name("all")
    2712                      .dwattr $C$DW$304, DW_AT_TI_symbol_name("_all")
    2713                      .dwattr $C$DW$304, DW_AT_data_member_location[DW_OP_plus_uconst 0x0]
    2714                      .dwattr $C$DW$304, DW_AT_accessibility(DW_ACCESS_public)
    2715              
    2716              $C$DW$305       .dwtag  DW_TAG_member
    2717                      .dwattr $C$DW$305, DW_AT_type(*$C$DW$T$206)
    2718                      .dwattr $C$DW$305, DW_AT_name("bit")
    2719                      .dwattr $C$DW$305, DW_AT_TI_symbol_name("_bit")
    2720                      .dwattr $C$DW$305, DW_AT_data_member_location[DW_OP_plus_uconst 0x0]
    2721                      .dwattr $C$DW$305, DW_AT_accessibility(DW_ACCESS_public)
    2722              
    2723                      .dwendtag $C$DW$T$107
    2724              
    2725              $C$DW$T$54      .dwtag  DW_TAG_typedef
    2726                      .dwattr $C$DW$T$54, DW_AT_name("DRV8305_LS_GATE_DRIVER_CNTRL_REG")
    2727                      .dwattr $C$DW$T$54, DW_AT_type(*$C$DW$T$107)
    2728                      .dwattr $C$DW$T$54, DW_AT_language(DW_LANG_C)
    2729              
    2730              
    2731              $C$DW$T$108     .dwtag  DW_TAG_union_type
    2732                      .dwattr $C$DW$T$108, DW_AT_byte_size(0x01)
    2733              $C$DW$306       .dwtag  DW_TAG_member
    2734                      .dwattr $C$DW$306, DW_AT_type(*$C$DW$T$34)
    2735                      .dwattr $C$DW$306, DW_AT_name("all")
    2736                      .dwattr $C$DW$306, DW_AT_TI_symbol_name("_all")
    2737                      .dwattr $C$DW$306, DW_AT_data_member_location[DW_OP_plus_uconst 0x0]
    2738                      .dwattr $C$DW$306, DW_AT_accessibility(DW_ACCESS_public)
    2739              
TMS320C2000 Assembler PC v20.2.1 Wed Nov 18 21:47:52 2020

Copyright (c) 1996-2018 Texas Instruments Incorporated
DRV830x_SPI.asm                                                      PAGE   51

    2740              $C$DW$307       .dwtag  DW_TAG_member
    2741                      .dwattr $C$DW$307, DW_AT_type(*$C$DW$T$201)
    2742                      .dwattr $C$DW$307, DW_AT_name("bit")
    2743                      .dwattr $C$DW$307, DW_AT_TI_symbol_name("_bit")
    2744                      .dwattr $C$DW$307, DW_AT_data_member_location[DW_OP_plus_uconst 0x0]
    2745                      .dwattr $C$DW$307, DW_AT_accessibility(DW_ACCESS_public)
    2746              
    2747                      .dwendtag $C$DW$T$108
    2748              
    2749              $C$DW$T$55      .dwtag  DW_TAG_typedef
    2750                      .dwattr $C$DW$T$55, DW_AT_name("DRV8305_GD_CNTRL_REG")
    2751                      .dwattr $C$DW$T$55, DW_AT_type(*$C$DW$T$108)
    2752                      .dwattr $C$DW$T$55, DW_AT_language(DW_LANG_C)
    2753              
    2754              
    2755              $C$DW$T$109     .dwtag  DW_TAG_union_type
    2756                      .dwattr $C$DW$T$109, DW_AT_byte_size(0x01)
    2757              $C$DW$308       .dwtag  DW_TAG_member
    2758                      .dwattr $C$DW$308, DW_AT_type(*$C$DW$T$34)
    2759                      .dwattr $C$DW$308, DW_AT_name("all")
    2760                      .dwattr $C$DW$308, DW_AT_TI_symbol_name("_all")
    2761                      .dwattr $C$DW$308, DW_AT_data_member_location[DW_OP_plus_uconst 0x0]
    2762                      .dwattr $C$DW$308, DW_AT_accessibility(DW_ACCESS_public)
    2763              
    2764              $C$DW$309       .dwtag  DW_TAG_member
    2765                      .dwattr $C$DW$309, DW_AT_type(*$C$DW$T$205)
    2766                      .dwattr $C$DW$309, DW_AT_name("bit")
    2767                      .dwattr $C$DW$309, DW_AT_TI_symbol_name("_bit")
    2768                      .dwattr $C$DW$309, DW_AT_data_member_location[DW_OP_plus_uconst 0x0]
    2769                      .dwattr $C$DW$309, DW_AT_accessibility(DW_ACCESS_public)
    2770              
    2771                      .dwendtag $C$DW$T$109
    2772              
    2773              $C$DW$T$56      .dwtag  DW_TAG_typedef
    2774                      .dwattr $C$DW$T$56, DW_AT_name("DRV8305_IC_OPS_REG")
    2775                      .dwattr $C$DW$T$56, DW_AT_type(*$C$DW$T$109)
    2776                      .dwattr $C$DW$T$56, DW_AT_language(DW_LANG_C)
    2777              
    2778              
    2779              $C$DW$T$110     .dwtag  DW_TAG_union_type
    2780                      .dwattr $C$DW$T$110, DW_AT_byte_size(0x01)
    2781              $C$DW$310       .dwtag  DW_TAG_member
    2782                      .dwattr $C$DW$310, DW_AT_type(*$C$DW$T$34)
    2783                      .dwattr $C$DW$310, DW_AT_name("all")
    2784                      .dwattr $C$DW$310, DW_AT_TI_symbol_name("_all")
    2785                      .dwattr $C$DW$310, DW_AT_data_member_location[DW_OP_plus_uconst 0x0]
    2786                      .dwattr $C$DW$310, DW_AT_accessibility(DW_ACCESS_public)
    2787              
    2788              $C$DW$311       .dwtag  DW_TAG_member
    2789                      .dwattr $C$DW$311, DW_AT_type(*$C$DW$T$208)
    2790                      .dwattr $C$DW$311, DW_AT_name("bit")
    2791                      .dwattr $C$DW$311, DW_AT_TI_symbol_name("_bit")
    2792                      .dwattr $C$DW$311, DW_AT_data_member_location[DW_OP_plus_uconst 0x0]
    2793                      .dwattr $C$DW$311, DW_AT_accessibility(DW_ACCESS_public)
    2794              
TMS320C2000 Assembler PC v20.2.1 Wed Nov 18 21:47:52 2020

Copyright (c) 1996-2018 Texas Instruments Incorporated
DRV830x_SPI.asm                                                      PAGE   52

    2795                      .dwendtag $C$DW$T$110
    2796              
    2797              $C$DW$T$57      .dwtag  DW_TAG_typedef
    2798                      .dwattr $C$DW$T$57, DW_AT_name("DRV8305_SHUNT_AMP_CNTRL_REG")
    2799                      .dwattr $C$DW$T$57, DW_AT_type(*$C$DW$T$110)
    2800                      .dwattr $C$DW$T$57, DW_AT_language(DW_LANG_C)
    2801              
    2802              
    2803              $C$DW$T$111     .dwtag  DW_TAG_union_type
    2804                      .dwattr $C$DW$T$111, DW_AT_byte_size(0x01)
    2805              $C$DW$312       .dwtag  DW_TAG_member
    2806                      .dwattr $C$DW$312, DW_AT_type(*$C$DW$T$34)
    2807                      .dwattr $C$DW$312, DW_AT_name("all")
    2808                      .dwattr $C$DW$312, DW_AT_TI_symbol_name("_all")
    2809                      .dwattr $C$DW$312, DW_AT_data_member_location[DW_OP_plus_uconst 0x0]
    2810                      .dwattr $C$DW$312, DW_AT_accessibility(DW_ACCESS_public)
    2811              
    2812              $C$DW$313       .dwtag  DW_TAG_member
    2813                      .dwattr $C$DW$313, DW_AT_type(*$C$DW$T$210)
    2814                      .dwattr $C$DW$313, DW_AT_name("bit")
    2815                      .dwattr $C$DW$313, DW_AT_TI_symbol_name("_bit")
    2816                      .dwattr $C$DW$313, DW_AT_data_member_location[DW_OP_plus_uconst 0x0]
    2817                      .dwattr $C$DW$313, DW_AT_accessibility(DW_ACCESS_public)
    2818              
    2819                      .dwendtag $C$DW$T$111
    2820              
    2821              $C$DW$T$58      .dwtag  DW_TAG_typedef
    2822                      .dwattr $C$DW$T$58, DW_AT_name("DRV8305_VREG_CNTRL_REG")
    2823                      .dwattr $C$DW$T$58, DW_AT_type(*$C$DW$T$111)
    2824                      .dwattr $C$DW$T$58, DW_AT_language(DW_LANG_C)
    2825              
    2826              
    2827              $C$DW$T$112     .dwtag  DW_TAG_union_type
    2828                      .dwattr $C$DW$T$112, DW_AT_byte_size(0x01)
    2829              $C$DW$314       .dwtag  DW_TAG_member
    2830                      .dwattr $C$DW$314, DW_AT_type(*$C$DW$T$34)
    2831                      .dwattr $C$DW$314, DW_AT_name("all")
    2832                      .dwattr $C$DW$314, DW_AT_TI_symbol_name("_all")
    2833                      .dwattr $C$DW$314, DW_AT_data_member_location[DW_OP_plus_uconst 0x0]
    2834                      .dwattr $C$DW$314, DW_AT_accessibility(DW_ACCESS_public)
    2835              
    2836              $C$DW$315       .dwtag  DW_TAG_member
    2837                      .dwattr $C$DW$315, DW_AT_type(*$C$DW$T$209)
    2838                      .dwattr $C$DW$315, DW_AT_name("bit")
    2839                      .dwattr $C$DW$315, DW_AT_TI_symbol_name("_bit")
    2840                      .dwattr $C$DW$315, DW_AT_data_member_location[DW_OP_plus_uconst 0x0]
    2841                      .dwattr $C$DW$315, DW_AT_accessibility(DW_ACCESS_public)
    2842              
    2843                      .dwendtag $C$DW$T$112
    2844              
    2845              $C$DW$T$59      .dwtag  DW_TAG_typedef
    2846                      .dwattr $C$DW$T$59, DW_AT_name("DRV8305_VDS_SNS_CNTRL_REG")
    2847                      .dwattr $C$DW$T$59, DW_AT_type(*$C$DW$T$112)
    2848                      .dwattr $C$DW$T$59, DW_AT_language(DW_LANG_C)
    2849              
TMS320C2000 Assembler PC v20.2.1 Wed Nov 18 21:47:52 2020

Copyright (c) 1996-2018 Texas Instruments Incorporated
DRV830x_SPI.asm                                                      PAGE   53

    2850              
    2851              $C$DW$T$113     .dwtag  DW_TAG_structure_type
    2852                      .dwattr $C$DW$T$113, DW_AT_name("AQCSFRC_BITS")
    2853                      .dwattr $C$DW$T$113, DW_AT_byte_size(0x01)
    2854              $C$DW$316       .dwtag  DW_TAG_member
    2855                      .dwattr $C$DW$316, DW_AT_type(*$C$DW$T$34)
    2856                      .dwattr $C$DW$316, DW_AT_name("CSFA")
    2857                      .dwattr $C$DW$316, DW_AT_TI_symbol_name("_CSFA")
    2858                      .dwattr $C$DW$316, DW_AT_bit_offset(0x0e)
    2859                      .dwattr $C$DW$316, DW_AT_bit_size(0x02)
    2860                      .dwattr $C$DW$316, DW_AT_data_member_location[DW_OP_plus_uconst 0x0]
    2861                      .dwattr $C$DW$316, DW_AT_accessibility(DW_ACCESS_public)
    2862              
    2863              $C$DW$317       .dwtag  DW_TAG_member
    2864                      .dwattr $C$DW$317, DW_AT_type(*$C$DW$T$34)
    2865                      .dwattr $C$DW$317, DW_AT_name("CSFB")
    2866                      .dwattr $C$DW$317, DW_AT_TI_symbol_name("_CSFB")
    2867                      .dwattr $C$DW$317, DW_AT_bit_offset(0x0c)
    2868                      .dwattr $C$DW$317, DW_AT_bit_size(0x02)
    2869                      .dwattr $C$DW$317, DW_AT_data_member_location[DW_OP_plus_uconst 0x0]
    2870                      .dwattr $C$DW$317, DW_AT_accessibility(DW_ACCESS_public)
    2871              
    2872              $C$DW$318       .dwtag  DW_TAG_member
    2873                      .dwattr $C$DW$318, DW_AT_type(*$C$DW$T$34)
    2874                      .dwattr $C$DW$318, DW_AT_name("rsvd1")
    2875                      .dwattr $C$DW$318, DW_AT_TI_symbol_name("_rsvd1")
    2876                      .dwattr $C$DW$318, DW_AT_bit_offset(0x00)
    2877                      .dwattr $C$DW$318, DW_AT_bit_size(0x0c)
    2878                      .dwattr $C$DW$318, DW_AT_data_member_location[DW_OP_plus_uconst 0x0]
    2879                      .dwattr $C$DW$318, DW_AT_accessibility(DW_ACCESS_public)
    2880              
    2881                      .dwendtag $C$DW$T$113
    2882              
    2883              
    2884              $C$DW$T$114     .dwtag  DW_TAG_union_type
    2885                      .dwattr $C$DW$T$114, DW_AT_name("AQCSFRC_REG")
    2886                      .dwattr $C$DW$T$114, DW_AT_byte_size(0x01)
    2887              $C$DW$319       .dwtag  DW_TAG_member
    2888                      .dwattr $C$DW$319, DW_AT_type(*$C$DW$T$34)
    2889                      .dwattr $C$DW$319, DW_AT_name("all")
    2890                      .dwattr $C$DW$319, DW_AT_TI_symbol_name("_all")
    2891                      .dwattr $C$DW$319, DW_AT_data_member_location[DW_OP_plus_uconst 0x0]
    2892                      .dwattr $C$DW$319, DW_AT_accessibility(DW_ACCESS_public)
    2893              
    2894              $C$DW$320       .dwtag  DW_TAG_member
    2895                      .dwattr $C$DW$320, DW_AT_type(*$C$DW$T$113)
    2896                      .dwattr $C$DW$320, DW_AT_name("bit")
    2897                      .dwattr $C$DW$320, DW_AT_TI_symbol_name("_bit")
    2898                      .dwattr $C$DW$320, DW_AT_data_member_location[DW_OP_plus_uconst 0x0]
    2899                      .dwattr $C$DW$320, DW_AT_accessibility(DW_ACCESS_public)
    2900              
    2901                      .dwendtag $C$DW$T$114
    2902              
    2903              
    2904              $C$DW$T$115     .dwtag  DW_TAG_structure_type
TMS320C2000 Assembler PC v20.2.1 Wed Nov 18 21:47:52 2020

Copyright (c) 1996-2018 Texas Instruments Incorporated
DRV830x_SPI.asm                                                      PAGE   54

    2905                      .dwattr $C$DW$T$115, DW_AT_name("AQCTLA2_BITS")
    2906                      .dwattr $C$DW$T$115, DW_AT_byte_size(0x01)
    2907              $C$DW$321       .dwtag  DW_TAG_member
    2908                      .dwattr $C$DW$321, DW_AT_type(*$C$DW$T$34)
    2909                      .dwattr $C$DW$321, DW_AT_name("T1U")
    2910                      .dwattr $C$DW$321, DW_AT_TI_symbol_name("_T1U")
    2911                      .dwattr $C$DW$321, DW_AT_bit_offset(0x0e)
    2912                      .dwattr $C$DW$321, DW_AT_bit_size(0x02)
    2913                      .dwattr $C$DW$321, DW_AT_data_member_location[DW_OP_plus_uconst 0x0]
    2914                      .dwattr $C$DW$321, DW_AT_accessibility(DW_ACCESS_public)
    2915              
    2916              $C$DW$322       .dwtag  DW_TAG_member
    2917                      .dwattr $C$DW$322, DW_AT_type(*$C$DW$T$34)
    2918                      .dwattr $C$DW$322, DW_AT_name("T1D")
    2919                      .dwattr $C$DW$322, DW_AT_TI_symbol_name("_T1D")
    2920                      .dwattr $C$DW$322, DW_AT_bit_offset(0x0c)
    2921                      .dwattr $C$DW$322, DW_AT_bit_size(0x02)
    2922                      .dwattr $C$DW$322, DW_AT_data_member_location[DW_OP_plus_uconst 0x0]
    2923                      .dwattr $C$DW$322, DW_AT_accessibility(DW_ACCESS_public)
    2924              
    2925              $C$DW$323       .dwtag  DW_TAG_member
    2926                      .dwattr $C$DW$323, DW_AT_type(*$C$DW$T$34)
    2927                      .dwattr $C$DW$323, DW_AT_name("T2U")
    2928                      .dwattr $C$DW$323, DW_AT_TI_symbol_name("_T2U")
    2929                      .dwattr $C$DW$323, DW_AT_bit_offset(0x0a)
    2930                      .dwattr $C$DW$323, DW_AT_bit_size(0x02)
    2931                      .dwattr $C$DW$323, DW_AT_data_member_location[DW_OP_plus_uconst 0x0]
    2932                      .dwattr $C$DW$323, DW_AT_accessibility(DW_ACCESS_public)
    2933              
    2934              $C$DW$324       .dwtag  DW_TAG_member
    2935                      .dwattr $C$DW$324, DW_AT_type(*$C$DW$T$34)
    2936                      .dwattr $C$DW$324, DW_AT_name("T2D")
    2937                      .dwattr $C$DW$324, DW_AT_TI_symbol_name("_T2D")
    2938                      .dwattr $C$DW$324, DW_AT_bit_offset(0x08)
    2939                      .dwattr $C$DW$324, DW_AT_bit_size(0x02)
    2940                      .dwattr $C$DW$324, DW_AT_data_member_location[DW_OP_plus_uconst 0x0]
    2941                      .dwattr $C$DW$324, DW_AT_accessibility(DW_ACCESS_public)
    2942              
    2943              $C$DW$325       .dwtag  DW_TAG_member
    2944                      .dwattr $C$DW$325, DW_AT_type(*$C$DW$T$34)
    2945                      .dwattr $C$DW$325, DW_AT_name("rsvd1")
    2946                      .dwattr $C$DW$325, DW_AT_TI_symbol_name("_rsvd1")
    2947                      .dwattr $C$DW$325, DW_AT_bit_offset(0x00)
    2948                      .dwattr $C$DW$325, DW_AT_bit_size(0x08)
    2949                      .dwattr $C$DW$325, DW_AT_data_member_location[DW_OP_plus_uconst 0x0]
    2950                      .dwattr $C$DW$325, DW_AT_accessibility(DW_ACCESS_public)
    2951              
    2952                      .dwendtag $C$DW$T$115
    2953              
    2954              
    2955              $C$DW$T$116     .dwtag  DW_TAG_union_type
    2956                      .dwattr $C$DW$T$116, DW_AT_name("AQCTLA2_REG")
    2957                      .dwattr $C$DW$T$116, DW_AT_byte_size(0x01)
    2958              $C$DW$326       .dwtag  DW_TAG_member
    2959                      .dwattr $C$DW$326, DW_AT_type(*$C$DW$T$34)
TMS320C2000 Assembler PC v20.2.1 Wed Nov 18 21:47:52 2020

Copyright (c) 1996-2018 Texas Instruments Incorporated
DRV830x_SPI.asm                                                      PAGE   55

    2960                      .dwattr $C$DW$326, DW_AT_name("all")
    2961                      .dwattr $C$DW$326, DW_AT_TI_symbol_name("_all")
    2962                      .dwattr $C$DW$326, DW_AT_data_member_location[DW_OP_plus_uconst 0x0]
    2963                      .dwattr $C$DW$326, DW_AT_accessibility(DW_ACCESS_public)
    2964              
    2965              $C$DW$327       .dwtag  DW_TAG_member
    2966                      .dwattr $C$DW$327, DW_AT_type(*$C$DW$T$115)
    2967                      .dwattr $C$DW$327, DW_AT_name("bit")
    2968                      .dwattr $C$DW$327, DW_AT_TI_symbol_name("_bit")
    2969                      .dwattr $C$DW$327, DW_AT_data_member_location[DW_OP_plus_uconst 0x0]
    2970                      .dwattr $C$DW$327, DW_AT_accessibility(DW_ACCESS_public)
    2971              
    2972                      .dwendtag $C$DW$T$116
    2973              
    2974              
    2975              $C$DW$T$117     .dwtag  DW_TAG_structure_type
    2976                      .dwattr $C$DW$T$117, DW_AT_name("AQCTLA_BITS")
    2977                      .dwattr $C$DW$T$117, DW_AT_byte_size(0x01)
    2978              $C$DW$328       .dwtag  DW_TAG_member
    2979                      .dwattr $C$DW$328, DW_AT_type(*$C$DW$T$34)
    2980                      .dwattr $C$DW$328, DW_AT_name("ZRO")
    2981                      .dwattr $C$DW$328, DW_AT_TI_symbol_name("_ZRO")
    2982                      .dwattr $C$DW$328, DW_AT_bit_offset(0x0e)
    2983                      .dwattr $C$DW$328, DW_AT_bit_size(0x02)
    2984                      .dwattr $C$DW$328, DW_AT_data_member_location[DW_OP_plus_uconst 0x0]
    2985                      .dwattr $C$DW$328, DW_AT_accessibility(DW_ACCESS_public)
    2986              
    2987              $C$DW$329       .dwtag  DW_TAG_member
    2988                      .dwattr $C$DW$329, DW_AT_type(*$C$DW$T$34)
    2989                      .dwattr $C$DW$329, DW_AT_name("PRD")
    2990                      .dwattr $C$DW$329, DW_AT_TI_symbol_name("_PRD")
    2991                      .dwattr $C$DW$329, DW_AT_bit_offset(0x0c)
    2992                      .dwattr $C$DW$329, DW_AT_bit_size(0x02)
    2993                      .dwattr $C$DW$329, DW_AT_data_member_location[DW_OP_plus_uconst 0x0]
    2994                      .dwattr $C$DW$329, DW_AT_accessibility(DW_ACCESS_public)
    2995              
    2996              $C$DW$330       .dwtag  DW_TAG_member
    2997                      .dwattr $C$DW$330, DW_AT_type(*$C$DW$T$34)
    2998                      .dwattr $C$DW$330, DW_AT_name("CAU")
    2999                      .dwattr $C$DW$330, DW_AT_TI_symbol_name("_CAU")
    3000                      .dwattr $C$DW$330, DW_AT_bit_offset(0x0a)
    3001                      .dwattr $C$DW$330, DW_AT_bit_size(0x02)
    3002                      .dwattr $C$DW$330, DW_AT_data_member_location[DW_OP_plus_uconst 0x0]
    3003                      .dwattr $C$DW$330, DW_AT_accessibility(DW_ACCESS_public)
    3004              
    3005              $C$DW$331       .dwtag  DW_TAG_member
    3006                      .dwattr $C$DW$331, DW_AT_type(*$C$DW$T$34)
    3007                      .dwattr $C$DW$331, DW_AT_name("CAD")
    3008                      .dwattr $C$DW$331, DW_AT_TI_symbol_name("_CAD")
    3009                      .dwattr $C$DW$331, DW_AT_bit_offset(0x08)
    3010                      .dwattr $C$DW$331, DW_AT_bit_size(0x02)
    3011                      .dwattr $C$DW$331, DW_AT_data_member_location[DW_OP_plus_uconst 0x0]
    3012                      .dwattr $C$DW$331, DW_AT_accessibility(DW_ACCESS_public)
    3013              
    3014              $C$DW$332       .dwtag  DW_TAG_member
TMS320C2000 Assembler PC v20.2.1 Wed Nov 18 21:47:52 2020

Copyright (c) 1996-2018 Texas Instruments Incorporated
DRV830x_SPI.asm                                                      PAGE   56

    3015                      .dwattr $C$DW$332, DW_AT_type(*$C$DW$T$34)
    3016                      .dwattr $C$DW$332, DW_AT_name("CBU")
    3017                      .dwattr $C$DW$332, DW_AT_TI_symbol_name("_CBU")
    3018                      .dwattr $C$DW$332, DW_AT_bit_offset(0x06)
    3019                      .dwattr $C$DW$332, DW_AT_bit_size(0x02)
    3020                      .dwattr $C$DW$332, DW_AT_data_member_location[DW_OP_plus_uconst 0x0]
    3021                      .dwattr $C$DW$332, DW_AT_accessibility(DW_ACCESS_public)
    3022              
    3023              $C$DW$333       .dwtag  DW_TAG_member
    3024                      .dwattr $C$DW$333, DW_AT_type(*$C$DW$T$34)
    3025                      .dwattr $C$DW$333, DW_AT_name("CBD")
    3026                      .dwattr $C$DW$333, DW_AT_TI_symbol_name("_CBD")
    3027                      .dwattr $C$DW$333, DW_AT_bit_offset(0x04)
    3028                      .dwattr $C$DW$333, DW_AT_bit_size(0x02)
    3029                      .dwattr $C$DW$333, DW_AT_data_member_location[DW_OP_plus_uconst 0x0]
    3030                      .dwattr $C$DW$333, DW_AT_accessibility(DW_ACCESS_public)
    3031              
    3032              $C$DW$334       .dwtag  DW_TAG_member
    3033                      .dwattr $C$DW$334, DW_AT_type(*$C$DW$T$34)
    3034                      .dwattr $C$DW$334, DW_AT_name("rsvd1")
    3035                      .dwattr $C$DW$334, DW_AT_TI_symbol_name("_rsvd1")
    3036                      .dwattr $C$DW$334, DW_AT_bit_offset(0x00)
    3037                      .dwattr $C$DW$334, DW_AT_bit_size(0x04)
    3038                      .dwattr $C$DW$334, DW_AT_data_member_location[DW_OP_plus_uconst 0x0]
    3039                      .dwattr $C$DW$334, DW_AT_accessibility(DW_ACCESS_public)
    3040              
    3041                      .dwendtag $C$DW$T$117
    3042              
    3043              
    3044              $C$DW$T$118     .dwtag  DW_TAG_union_type
    3045                      .dwattr $C$DW$T$118, DW_AT_name("AQCTLA_REG")
    3046                      .dwattr $C$DW$T$118, DW_AT_byte_size(0x01)
    3047              $C$DW$335       .dwtag  DW_TAG_member
    3048                      .dwattr $C$DW$335, DW_AT_type(*$C$DW$T$34)
    3049                      .dwattr $C$DW$335, DW_AT_name("all")
    3050                      .dwattr $C$DW$335, DW_AT_TI_symbol_name("_all")
    3051                      .dwattr $C$DW$335, DW_AT_data_member_location[DW_OP_plus_uconst 0x0]
    3052                      .dwattr $C$DW$335, DW_AT_accessibility(DW_ACCESS_public)
    3053              
    3054              $C$DW$336       .dwtag  DW_TAG_member
    3055                      .dwattr $C$DW$336, DW_AT_type(*$C$DW$T$117)
    3056                      .dwattr $C$DW$336, DW_AT_name("bit")
    3057                      .dwattr $C$DW$336, DW_AT_TI_symbol_name("_bit")
    3058                      .dwattr $C$DW$336, DW_AT_data_member_location[DW_OP_plus_uconst 0x0]
    3059                      .dwattr $C$DW$336, DW_AT_accessibility(DW_ACCESS_public)
    3060              
    3061                      .dwendtag $C$DW$T$118
    3062              
    3063              
    3064              $C$DW$T$119     .dwtag  DW_TAG_structure_type
    3065                      .dwattr $C$DW$T$119, DW_AT_name("AQCTLB2_BITS")
    3066                      .dwattr $C$DW$T$119, DW_AT_byte_size(0x01)
    3067              $C$DW$337       .dwtag  DW_TAG_member
    3068                      .dwattr $C$DW$337, DW_AT_type(*$C$DW$T$34)
    3069                      .dwattr $C$DW$337, DW_AT_name("T1U")
TMS320C2000 Assembler PC v20.2.1 Wed Nov 18 21:47:52 2020

Copyright (c) 1996-2018 Texas Instruments Incorporated
DRV830x_SPI.asm                                                      PAGE   57

    3070                      .dwattr $C$DW$337, DW_AT_TI_symbol_name("_T1U")
    3071                      .dwattr $C$DW$337, DW_AT_bit_offset(0x0e)
    3072                      .dwattr $C$DW$337, DW_AT_bit_size(0x02)
    3073                      .dwattr $C$DW$337, DW_AT_data_member_location[DW_OP_plus_uconst 0x0]
    3074                      .dwattr $C$DW$337, DW_AT_accessibility(DW_ACCESS_public)
    3075              
    3076              $C$DW$338       .dwtag  DW_TAG_member
    3077                      .dwattr $C$DW$338, DW_AT_type(*$C$DW$T$34)
    3078                      .dwattr $C$DW$338, DW_AT_name("T1D")
    3079                      .dwattr $C$DW$338, DW_AT_TI_symbol_name("_T1D")
    3080                      .dwattr $C$DW$338, DW_AT_bit_offset(0x0c)
    3081                      .dwattr $C$DW$338, DW_AT_bit_size(0x02)
    3082                      .dwattr $C$DW$338, DW_AT_data_member_location[DW_OP_plus_uconst 0x0]
    3083                      .dwattr $C$DW$338, DW_AT_accessibility(DW_ACCESS_public)
    3084              
    3085              $C$DW$339       .dwtag  DW_TAG_member
    3086                      .dwattr $C$DW$339, DW_AT_type(*$C$DW$T$34)
    3087                      .dwattr $C$DW$339, DW_AT_name("T2U")
    3088                      .dwattr $C$DW$339, DW_AT_TI_symbol_name("_T2U")
    3089                      .dwattr $C$DW$339, DW_AT_bit_offset(0x0a)
    3090                      .dwattr $C$DW$339, DW_AT_bit_size(0x02)
    3091                      .dwattr $C$DW$339, DW_AT_data_member_location[DW_OP_plus_uconst 0x0]
    3092                      .dwattr $C$DW$339, DW_AT_accessibility(DW_ACCESS_public)
    3093              
    3094              $C$DW$340       .dwtag  DW_TAG_member
    3095                      .dwattr $C$DW$340, DW_AT_type(*$C$DW$T$34)
    3096                      .dwattr $C$DW$340, DW_AT_name("T2D")
    3097                      .dwattr $C$DW$340, DW_AT_TI_symbol_name("_T2D")
    3098                      .dwattr $C$DW$340, DW_AT_bit_offset(0x08)
    3099                      .dwattr $C$DW$340, DW_AT_bit_size(0x02)
    3100                      .dwattr $C$DW$340, DW_AT_data_member_location[DW_OP_plus_uconst 0x0]
    3101                      .dwattr $C$DW$340, DW_AT_accessibility(DW_ACCESS_public)
    3102              
    3103              $C$DW$341       .dwtag  DW_TAG_member
    3104                      .dwattr $C$DW$341, DW_AT_type(*$C$DW$T$34)
    3105                      .dwattr $C$DW$341, DW_AT_name("rsvd1")
    3106                      .dwattr $C$DW$341, DW_AT_TI_symbol_name("_rsvd1")
    3107                      .dwattr $C$DW$341, DW_AT_bit_offset(0x00)
    3108                      .dwattr $C$DW$341, DW_AT_bit_size(0x08)
    3109                      .dwattr $C$DW$341, DW_AT_data_member_location[DW_OP_plus_uconst 0x0]
    3110                      .dwattr $C$DW$341, DW_AT_accessibility(DW_ACCESS_public)
    3111              
    3112                      .dwendtag $C$DW$T$119
    3113              
    3114              
    3115              $C$DW$T$120     .dwtag  DW_TAG_union_type
    3116                      .dwattr $C$DW$T$120, DW_AT_name("AQCTLB2_REG")
    3117                      .dwattr $C$DW$T$120, DW_AT_byte_size(0x01)
    3118              $C$DW$342       .dwtag  DW_TAG_member
    3119                      .dwattr $C$DW$342, DW_AT_type(*$C$DW$T$34)
    3120                      .dwattr $C$DW$342, DW_AT_name("all")
    3121                      .dwattr $C$DW$342, DW_AT_TI_symbol_name("_all")
    3122                      .dwattr $C$DW$342, DW_AT_data_member_location[DW_OP_plus_uconst 0x0]
    3123                      .dwattr $C$DW$342, DW_AT_accessibility(DW_ACCESS_public)
    3124              
TMS320C2000 Assembler PC v20.2.1 Wed Nov 18 21:47:52 2020

Copyright (c) 1996-2018 Texas Instruments Incorporated
DRV830x_SPI.asm                                                      PAGE   58

    3125              $C$DW$343       .dwtag  DW_TAG_member
    3126                      .dwattr $C$DW$343, DW_AT_type(*$C$DW$T$119)
    3127                      .dwattr $C$DW$343, DW_AT_name("bit")
    3128                      .dwattr $C$DW$343, DW_AT_TI_symbol_name("_bit")
    3129                      .dwattr $C$DW$343, DW_AT_data_member_location[DW_OP_plus_uconst 0x0]
    3130                      .dwattr $C$DW$343, DW_AT_accessibility(DW_ACCESS_public)
    3131              
    3132                      .dwendtag $C$DW$T$120
    3133              
    3134              
    3135              $C$DW$T$121     .dwtag  DW_TAG_structure_type
    3136                      .dwattr $C$DW$T$121, DW_AT_name("AQCTLB_BITS")
    3137                      .dwattr $C$DW$T$121, DW_AT_byte_size(0x01)
    3138              $C$DW$344       .dwtag  DW_TAG_member
    3139                      .dwattr $C$DW$344, DW_AT_type(*$C$DW$T$34)
    3140                      .dwattr $C$DW$344, DW_AT_name("ZRO")
    3141                      .dwattr $C$DW$344, DW_AT_TI_symbol_name("_ZRO")
    3142                      .dwattr $C$DW$344, DW_AT_bit_offset(0x0e)
    3143                      .dwattr $C$DW$344, DW_AT_bit_size(0x02)
    3144                      .dwattr $C$DW$344, DW_AT_data_member_location[DW_OP_plus_uconst 0x0]
    3145                      .dwattr $C$DW$344, DW_AT_accessibility(DW_ACCESS_public)
    3146              
    3147              $C$DW$345       .dwtag  DW_TAG_member
    3148                      .dwattr $C$DW$345, DW_AT_type(*$C$DW$T$34)
    3149                      .dwattr $C$DW$345, DW_AT_name("PRD")
    3150                      .dwattr $C$DW$345, DW_AT_TI_symbol_name("_PRD")
    3151                      .dwattr $C$DW$345, DW_AT_bit_offset(0x0c)
    3152                      .dwattr $C$DW$345, DW_AT_bit_size(0x02)
    3153                      .dwattr $C$DW$345, DW_AT_data_member_location[DW_OP_plus_uconst 0x0]
    3154                      .dwattr $C$DW$345, DW_AT_accessibility(DW_ACCESS_public)
    3155              
    3156              $C$DW$346       .dwtag  DW_TAG_member
    3157                      .dwattr $C$DW$346, DW_AT_type(*$C$DW$T$34)
    3158                      .dwattr $C$DW$346, DW_AT_name("CAU")
    3159                      .dwattr $C$DW$346, DW_AT_TI_symbol_name("_CAU")
    3160                      .dwattr $C$DW$346, DW_AT_bit_offset(0x0a)
    3161                      .dwattr $C$DW$346, DW_AT_bit_size(0x02)
    3162                      .dwattr $C$DW$346, DW_AT_data_member_location[DW_OP_plus_uconst 0x0]
    3163                      .dwattr $C$DW$346, DW_AT_accessibility(DW_ACCESS_public)
    3164              
    3165              $C$DW$347       .dwtag  DW_TAG_member
    3166                      .dwattr $C$DW$347, DW_AT_type(*$C$DW$T$34)
    3167                      .dwattr $C$DW$347, DW_AT_name("CAD")
    3168                      .dwattr $C$DW$347, DW_AT_TI_symbol_name("_CAD")
    3169                      .dwattr $C$DW$347, DW_AT_bit_offset(0x08)
    3170                      .dwattr $C$DW$347, DW_AT_bit_size(0x02)
    3171                      .dwattr $C$DW$347, DW_AT_data_member_location[DW_OP_plus_uconst 0x0]
    3172                      .dwattr $C$DW$347, DW_AT_accessibility(DW_ACCESS_public)
    3173              
    3174              $C$DW$348       .dwtag  DW_TAG_member
    3175                      .dwattr $C$DW$348, DW_AT_type(*$C$DW$T$34)
    3176                      .dwattr $C$DW$348, DW_AT_name("CBU")
    3177                      .dwattr $C$DW$348, DW_AT_TI_symbol_name("_CBU")
    3178                      .dwattr $C$DW$348, DW_AT_bit_offset(0x06)
    3179                      .dwattr $C$DW$348, DW_AT_bit_size(0x02)
TMS320C2000 Assembler PC v20.2.1 Wed Nov 18 21:47:52 2020

Copyright (c) 1996-2018 Texas Instruments Incorporated
DRV830x_SPI.asm                                                      PAGE   59

    3180                      .dwattr $C$DW$348, DW_AT_data_member_location[DW_OP_plus_uconst 0x0]
    3181                      .dwattr $C$DW$348, DW_AT_accessibility(DW_ACCESS_public)
    3182              
    3183              $C$DW$349       .dwtag  DW_TAG_member
    3184                      .dwattr $C$DW$349, DW_AT_type(*$C$DW$T$34)
    3185                      .dwattr $C$DW$349, DW_AT_name("CBD")
    3186                      .dwattr $C$DW$349, DW_AT_TI_symbol_name("_CBD")
    3187                      .dwattr $C$DW$349, DW_AT_bit_offset(0x04)
    3188                      .dwattr $C$DW$349, DW_AT_bit_size(0x02)
    3189                      .dwattr $C$DW$349, DW_AT_data_member_location[DW_OP_plus_uconst 0x0]
    3190                      .dwattr $C$DW$349, DW_AT_accessibility(DW_ACCESS_public)
    3191              
    3192              $C$DW$350       .dwtag  DW_TAG_member
    3193                      .dwattr $C$DW$350, DW_AT_type(*$C$DW$T$34)
    3194                      .dwattr $C$DW$350, DW_AT_name("rsvd1")
    3195                      .dwattr $C$DW$350, DW_AT_TI_symbol_name("_rsvd1")
    3196                      .dwattr $C$DW$350, DW_AT_bit_offset(0x00)
    3197                      .dwattr $C$DW$350, DW_AT_bit_size(0x04)
    3198                      .dwattr $C$DW$350, DW_AT_data_member_location[DW_OP_plus_uconst 0x0]
    3199                      .dwattr $C$DW$350, DW_AT_accessibility(DW_ACCESS_public)
    3200              
    3201                      .dwendtag $C$DW$T$121
    3202              
    3203              
    3204              $C$DW$T$122     .dwtag  DW_TAG_union_type
    3205                      .dwattr $C$DW$T$122, DW_AT_name("AQCTLB_REG")
    3206                      .dwattr $C$DW$T$122, DW_AT_byte_size(0x01)
    3207              $C$DW$351       .dwtag  DW_TAG_member
    3208                      .dwattr $C$DW$351, DW_AT_type(*$C$DW$T$34)
    3209                      .dwattr $C$DW$351, DW_AT_name("all")
    3210                      .dwattr $C$DW$351, DW_AT_TI_symbol_name("_all")
    3211                      .dwattr $C$DW$351, DW_AT_data_member_location[DW_OP_plus_uconst 0x0]
    3212                      .dwattr $C$DW$351, DW_AT_accessibility(DW_ACCESS_public)
    3213              
    3214              $C$DW$352       .dwtag  DW_TAG_member
    3215                      .dwattr $C$DW$352, DW_AT_type(*$C$DW$T$121)
    3216                      .dwattr $C$DW$352, DW_AT_name("bit")
    3217                      .dwattr $C$DW$352, DW_AT_TI_symbol_name("_bit")
    3218                      .dwattr $C$DW$352, DW_AT_data_member_location[DW_OP_plus_uconst 0x0]
    3219                      .dwattr $C$DW$352, DW_AT_accessibility(DW_ACCESS_public)
    3220              
    3221                      .dwendtag $C$DW$T$122
    3222              
    3223              
    3224              $C$DW$T$123     .dwtag  DW_TAG_structure_type
    3225                      .dwattr $C$DW$T$123, DW_AT_name("AQCTL_BITS")
    3226                      .dwattr $C$DW$T$123, DW_AT_byte_size(0x01)
    3227              $C$DW$353       .dwtag  DW_TAG_member
    3228                      .dwattr $C$DW$353, DW_AT_type(*$C$DW$T$34)
    3229                      .dwattr $C$DW$353, DW_AT_name("LDAQAMODE")
    3230                      .dwattr $C$DW$353, DW_AT_TI_symbol_name("_LDAQAMODE")
    3231                      .dwattr $C$DW$353, DW_AT_bit_offset(0x0e)
    3232                      .dwattr $C$DW$353, DW_AT_bit_size(0x02)
    3233                      .dwattr $C$DW$353, DW_AT_data_member_location[DW_OP_plus_uconst 0x0]
    3234                      .dwattr $C$DW$353, DW_AT_accessibility(DW_ACCESS_public)
TMS320C2000 Assembler PC v20.2.1 Wed Nov 18 21:47:52 2020

Copyright (c) 1996-2018 Texas Instruments Incorporated
DRV830x_SPI.asm                                                      PAGE   60

    3235              
    3236              $C$DW$354       .dwtag  DW_TAG_member
    3237                      .dwattr $C$DW$354, DW_AT_type(*$C$DW$T$34)
    3238                      .dwattr $C$DW$354, DW_AT_name("LDAQBMODE")
    3239                      .dwattr $C$DW$354, DW_AT_TI_symbol_name("_LDAQBMODE")
    3240                      .dwattr $C$DW$354, DW_AT_bit_offset(0x0c)
    3241                      .dwattr $C$DW$354, DW_AT_bit_size(0x02)
    3242                      .dwattr $C$DW$354, DW_AT_data_member_location[DW_OP_plus_uconst 0x0]
    3243                      .dwattr $C$DW$354, DW_AT_accessibility(DW_ACCESS_public)
    3244              
    3245              $C$DW$355       .dwtag  DW_TAG_member
    3246                      .dwattr $C$DW$355, DW_AT_type(*$C$DW$T$34)
    3247                      .dwattr $C$DW$355, DW_AT_name("SHDWAQAMODE")
    3248                      .dwattr $C$DW$355, DW_AT_TI_symbol_name("_SHDWAQAMODE")
    3249                      .dwattr $C$DW$355, DW_AT_bit_offset(0x0b)
    3250                      .dwattr $C$DW$355, DW_AT_bit_size(0x01)
    3251                      .dwattr $C$DW$355, DW_AT_data_member_location[DW_OP_plus_uconst 0x0]
    3252                      .dwattr $C$DW$355, DW_AT_accessibility(DW_ACCESS_public)
    3253              
    3254              $C$DW$356       .dwtag  DW_TAG_member
    3255                      .dwattr $C$DW$356, DW_AT_type(*$C$DW$T$34)
    3256                      .dwattr $C$DW$356, DW_AT_name("rsvd1")
    3257                      .dwattr $C$DW$356, DW_AT_TI_symbol_name("_rsvd1")
    3258                      .dwattr $C$DW$356, DW_AT_bit_offset(0x0a)
    3259                      .dwattr $C$DW$356, DW_AT_bit_size(0x01)
    3260                      .dwattr $C$DW$356, DW_AT_data_member_location[DW_OP_plus_uconst 0x0]
    3261                      .dwattr $C$DW$356, DW_AT_accessibility(DW_ACCESS_public)
    3262              
    3263              $C$DW$357       .dwtag  DW_TAG_member
    3264                      .dwattr $C$DW$357, DW_AT_type(*$C$DW$T$34)
    3265                      .dwattr $C$DW$357, DW_AT_name("SHDWAQBMODE")
    3266                      .dwattr $C$DW$357, DW_AT_TI_symbol_name("_SHDWAQBMODE")
    3267                      .dwattr $C$DW$357, DW_AT_bit_offset(0x09)
    3268                      .dwattr $C$DW$357, DW_AT_bit_size(0x01)
    3269                      .dwattr $C$DW$357, DW_AT_data_member_location[DW_OP_plus_uconst 0x0]
    3270                      .dwattr $C$DW$357, DW_AT_accessibility(DW_ACCESS_public)
    3271              
    3272              $C$DW$358       .dwtag  DW_TAG_member
    3273                      .dwattr $C$DW$358, DW_AT_type(*$C$DW$T$34)
    3274                      .dwattr $C$DW$358, DW_AT_name("rsvd2")
    3275                      .dwattr $C$DW$358, DW_AT_TI_symbol_name("_rsvd2")
    3276                      .dwattr $C$DW$358, DW_AT_bit_offset(0x08)
    3277                      .dwattr $C$DW$358, DW_AT_bit_size(0x01)
    3278                      .dwattr $C$DW$358, DW_AT_data_member_location[DW_OP_plus_uconst 0x0]
    3279                      .dwattr $C$DW$358, DW_AT_accessibility(DW_ACCESS_public)
    3280              
    3281              $C$DW$359       .dwtag  DW_TAG_member
    3282                      .dwattr $C$DW$359, DW_AT_type(*$C$DW$T$34)
    3283                      .dwattr $C$DW$359, DW_AT_name("LDAQASYNC")
    3284                      .dwattr $C$DW$359, DW_AT_TI_symbol_name("_LDAQASYNC")
    3285                      .dwattr $C$DW$359, DW_AT_bit_offset(0x06)
    3286                      .dwattr $C$DW$359, DW_AT_bit_size(0x02)
    3287                      .dwattr $C$DW$359, DW_AT_data_member_location[DW_OP_plus_uconst 0x0]
    3288                      .dwattr $C$DW$359, DW_AT_accessibility(DW_ACCESS_public)
    3289              
TMS320C2000 Assembler PC v20.2.1 Wed Nov 18 21:47:52 2020

Copyright (c) 1996-2018 Texas Instruments Incorporated
DRV830x_SPI.asm                                                      PAGE   61

    3290              $C$DW$360       .dwtag  DW_TAG_member
    3291                      .dwattr $C$DW$360, DW_AT_type(*$C$DW$T$34)
    3292                      .dwattr $C$DW$360, DW_AT_name("LDAQBSYNC")
    3293                      .dwattr $C$DW$360, DW_AT_TI_symbol_name("_LDAQBSYNC")
    3294                      .dwattr $C$DW$360, DW_AT_bit_offset(0x04)
    3295                      .dwattr $C$DW$360, DW_AT_bit_size(0x02)
    3296                      .dwattr $C$DW$360, DW_AT_data_member_location[DW_OP_plus_uconst 0x0]
    3297                      .dwattr $C$DW$360, DW_AT_accessibility(DW_ACCESS_public)
    3298              
    3299              $C$DW$361       .dwtag  DW_TAG_member
    3300                      .dwattr $C$DW$361, DW_AT_type(*$C$DW$T$34)
    3301                      .dwattr $C$DW$361, DW_AT_name("rsvd3")
    3302                      .dwattr $C$DW$361, DW_AT_TI_symbol_name("_rsvd3")
    3303                      .dwattr $C$DW$361, DW_AT_bit_offset(0x00)
    3304                      .dwattr $C$DW$361, DW_AT_bit_size(0x04)
    3305                      .dwattr $C$DW$361, DW_AT_data_member_location[DW_OP_plus_uconst 0x0]
    3306                      .dwattr $C$DW$361, DW_AT_accessibility(DW_ACCESS_public)
    3307              
    3308                      .dwendtag $C$DW$T$123
    3309              
    3310              
    3311              $C$DW$T$124     .dwtag  DW_TAG_union_type
    3312                      .dwattr $C$DW$T$124, DW_AT_name("AQCTL_REG")
    3313                      .dwattr $C$DW$T$124, DW_AT_byte_size(0x01)
    3314              $C$DW$362       .dwtag  DW_TAG_member
    3315                      .dwattr $C$DW$362, DW_AT_type(*$C$DW$T$34)
    3316                      .dwattr $C$DW$362, DW_AT_name("all")
    3317                      .dwattr $C$DW$362, DW_AT_TI_symbol_name("_all")
    3318                      .dwattr $C$DW$362, DW_AT_data_member_location[DW_OP_plus_uconst 0x0]
    3319                      .dwattr $C$DW$362, DW_AT_accessibility(DW_ACCESS_public)
    3320              
    3321              $C$DW$363       .dwtag  DW_TAG_member
    3322                      .dwattr $C$DW$363, DW_AT_type(*$C$DW$T$123)
    3323                      .dwattr $C$DW$363, DW_AT_name("bit")
    3324                      .dwattr $C$DW$363, DW_AT_TI_symbol_name("_bit")
    3325                      .dwattr $C$DW$363, DW_AT_data_member_location[DW_OP_plus_uconst 0x0]
    3326                      .dwattr $C$DW$363, DW_AT_accessibility(DW_ACCESS_public)
    3327              
    3328                      .dwendtag $C$DW$T$124
    3329              
    3330              
    3331              $C$DW$T$125     .dwtag  DW_TAG_structure_type
    3332                      .dwattr $C$DW$T$125, DW_AT_name("AQSFRC_BITS")
    3333                      .dwattr $C$DW$T$125, DW_AT_byte_size(0x01)
    3334              $C$DW$364       .dwtag  DW_TAG_member
    3335                      .dwattr $C$DW$364, DW_AT_type(*$C$DW$T$34)
    3336                      .dwattr $C$DW$364, DW_AT_name("ACTSFA")
    3337                      .dwattr $C$DW$364, DW_AT_TI_symbol_name("_ACTSFA")
    3338                      .dwattr $C$DW$364, DW_AT_bit_offset(0x0e)
    3339                      .dwattr $C$DW$364, DW_AT_bit_size(0x02)
    3340                      .dwattr $C$DW$364, DW_AT_data_member_location[DW_OP_plus_uconst 0x0]
    3341                      .dwattr $C$DW$364, DW_AT_accessibility(DW_ACCESS_public)
    3342              
    3343              $C$DW$365       .dwtag  DW_TAG_member
    3344                      .dwattr $C$DW$365, DW_AT_type(*$C$DW$T$34)
TMS320C2000 Assembler PC v20.2.1 Wed Nov 18 21:47:52 2020

Copyright (c) 1996-2018 Texas Instruments Incorporated
DRV830x_SPI.asm                                                      PAGE   62

    3345                      .dwattr $C$DW$365, DW_AT_name("OTSFA")
    3346                      .dwattr $C$DW$365, DW_AT_TI_symbol_name("_OTSFA")
    3347                      .dwattr $C$DW$365, DW_AT_bit_offset(0x0d)
    3348                      .dwattr $C$DW$365, DW_AT_bit_size(0x01)
    3349                      .dwattr $C$DW$365, DW_AT_data_member_location[DW_OP_plus_uconst 0x0]
    3350                      .dwattr $C$DW$365, DW_AT_accessibility(DW_ACCESS_public)
    3351              
    3352              $C$DW$366       .dwtag  DW_TAG_member
    3353                      .dwattr $C$DW$366, DW_AT_type(*$C$DW$T$34)
    3354                      .dwattr $C$DW$366, DW_AT_name("ACTSFB")
    3355                      .dwattr $C$DW$366, DW_AT_TI_symbol_name("_ACTSFB")
    3356                      .dwattr $C$DW$366, DW_AT_bit_offset(0x0b)
    3357                      .dwattr $C$DW$366, DW_AT_bit_size(0x02)
    3358                      .dwattr $C$DW$366, DW_AT_data_member_location[DW_OP_plus_uconst 0x0]
    3359                      .dwattr $C$DW$366, DW_AT_accessibility(DW_ACCESS_public)
    3360              
    3361              $C$DW$367       .dwtag  DW_TAG_member
    3362                      .dwattr $C$DW$367, DW_AT_type(*$C$DW$T$34)
    3363                      .dwattr $C$DW$367, DW_AT_name("OTSFB")
    3364                      .dwattr $C$DW$367, DW_AT_TI_symbol_name("_OTSFB")
    3365                      .dwattr $C$DW$367, DW_AT_bit_offset(0x0a)
    3366                      .dwattr $C$DW$367, DW_AT_bit_size(0x01)
    3367                      .dwattr $C$DW$367, DW_AT_data_member_location[DW_OP_plus_uconst 0x0]
    3368                      .dwattr $C$DW$367, DW_AT_accessibility(DW_ACCESS_public)
    3369              
    3370              $C$DW$368       .dwtag  DW_TAG_member
    3371                      .dwattr $C$DW$368, DW_AT_type(*$C$DW$T$34)
    3372                      .dwattr $C$DW$368, DW_AT_name("RLDCSF")
    3373                      .dwattr $C$DW$368, DW_AT_TI_symbol_name("_RLDCSF")
    3374                      .dwattr $C$DW$368, DW_AT_bit_offset(0x08)
    3375                      .dwattr $C$DW$368, DW_AT_bit_size(0x02)
    3376                      .dwattr $C$DW$368, DW_AT_data_member_location[DW_OP_plus_uconst 0x0]
    3377                      .dwattr $C$DW$368, DW_AT_accessibility(DW_ACCESS_public)
    3378              
    3379              $C$DW$369       .dwtag  DW_TAG_member
    3380                      .dwattr $C$DW$369, DW_AT_type(*$C$DW$T$34)
    3381                      .dwattr $C$DW$369, DW_AT_name("rsvd1")
    3382                      .dwattr $C$DW$369, DW_AT_TI_symbol_name("_rsvd1")
    3383                      .dwattr $C$DW$369, DW_AT_bit_offset(0x00)
    3384                      .dwattr $C$DW$369, DW_AT_bit_size(0x08)
    3385                      .dwattr $C$DW$369, DW_AT_data_member_location[DW_OP_plus_uconst 0x0]
    3386                      .dwattr $C$DW$369, DW_AT_accessibility(DW_ACCESS_public)
    3387              
    3388                      .dwendtag $C$DW$T$125
    3389              
    3390              
    3391              $C$DW$T$126     .dwtag  DW_TAG_union_type
    3392                      .dwattr $C$DW$T$126, DW_AT_name("AQSFRC_REG")
    3393                      .dwattr $C$DW$T$126, DW_AT_byte_size(0x01)
    3394              $C$DW$370       .dwtag  DW_TAG_member
    3395                      .dwattr $C$DW$370, DW_AT_type(*$C$DW$T$34)
    3396                      .dwattr $C$DW$370, DW_AT_name("all")
    3397                      .dwattr $C$DW$370, DW_AT_TI_symbol_name("_all")
    3398                      .dwattr $C$DW$370, DW_AT_data_member_location[DW_OP_plus_uconst 0x0]
    3399                      .dwattr $C$DW$370, DW_AT_accessibility(DW_ACCESS_public)
TMS320C2000 Assembler PC v20.2.1 Wed Nov 18 21:47:52 2020

Copyright (c) 1996-2018 Texas Instruments Incorporated
DRV830x_SPI.asm                                                      PAGE   63

    3400              
    3401              $C$DW$371       .dwtag  DW_TAG_member
    3402                      .dwattr $C$DW$371, DW_AT_type(*$C$DW$T$125)
    3403                      .dwattr $C$DW$371, DW_AT_name("bit")
    3404                      .dwattr $C$DW$371, DW_AT_TI_symbol_name("_bit")
    3405                      .dwattr $C$DW$371, DW_AT_data_member_location[DW_OP_plus_uconst 0x0]
    3406                      .dwattr $C$DW$371, DW_AT_accessibility(DW_ACCESS_public)
    3407              
    3408                      .dwendtag $C$DW$T$126
    3409              
    3410              
    3411              $C$DW$T$127     .dwtag  DW_TAG_structure_type
    3412                      .dwattr $C$DW$T$127, DW_AT_name("AQTSRCSEL_BITS")
    3413                      .dwattr $C$DW$T$127, DW_AT_byte_size(0x01)
    3414              $C$DW$372       .dwtag  DW_TAG_member
    3415                      .dwattr $C$DW$372, DW_AT_type(*$C$DW$T$34)
    3416                      .dwattr $C$DW$372, DW_AT_name("T1SEL")
    3417                      .dwattr $C$DW$372, DW_AT_TI_symbol_name("_T1SEL")
    3418                      .dwattr $C$DW$372, DW_AT_bit_offset(0x0c)
    3419                      .dwattr $C$DW$372, DW_AT_bit_size(0x04)
    3420                      .dwattr $C$DW$372, DW_AT_data_member_location[DW_OP_plus_uconst 0x0]
    3421                      .dwattr $C$DW$372, DW_AT_accessibility(DW_ACCESS_public)
    3422              
    3423              $C$DW$373       .dwtag  DW_TAG_member
    3424                      .dwattr $C$DW$373, DW_AT_type(*$C$DW$T$34)
    3425                      .dwattr $C$DW$373, DW_AT_name("T2SEL")
    3426                      .dwattr $C$DW$373, DW_AT_TI_symbol_name("_T2SEL")
    3427                      .dwattr $C$DW$373, DW_AT_bit_offset(0x08)
    3428                      .dwattr $C$DW$373, DW_AT_bit_size(0x04)
    3429                      .dwattr $C$DW$373, DW_AT_data_member_location[DW_OP_plus_uconst 0x0]
    3430                      .dwattr $C$DW$373, DW_AT_accessibility(DW_ACCESS_public)
    3431              
    3432              $C$DW$374       .dwtag  DW_TAG_member
    3433                      .dwattr $C$DW$374, DW_AT_type(*$C$DW$T$34)
    3434                      .dwattr $C$DW$374, DW_AT_name("rsvd1")
    3435                      .dwattr $C$DW$374, DW_AT_TI_symbol_name("_rsvd1")
    3436                      .dwattr $C$DW$374, DW_AT_bit_offset(0x00)
    3437                      .dwattr $C$DW$374, DW_AT_bit_size(0x08)
    3438                      .dwattr $C$DW$374, DW_AT_data_member_location[DW_OP_plus_uconst 0x0]
    3439                      .dwattr $C$DW$374, DW_AT_accessibility(DW_ACCESS_public)
    3440              
    3441                      .dwendtag $C$DW$T$127
    3442              
    3443              
    3444              $C$DW$T$128     .dwtag  DW_TAG_union_type
    3445                      .dwattr $C$DW$T$128, DW_AT_name("AQTSRCSEL_REG")
    3446                      .dwattr $C$DW$T$128, DW_AT_byte_size(0x01)
    3447              $C$DW$375       .dwtag  DW_TAG_member
    3448                      .dwattr $C$DW$375, DW_AT_type(*$C$DW$T$34)
    3449                      .dwattr $C$DW$375, DW_AT_name("all")
    3450                      .dwattr $C$DW$375, DW_AT_TI_symbol_name("_all")
    3451                      .dwattr $C$DW$375, DW_AT_data_member_location[DW_OP_plus_uconst 0x0]
    3452                      .dwattr $C$DW$375, DW_AT_accessibility(DW_ACCESS_public)
    3453              
    3454              $C$DW$376       .dwtag  DW_TAG_member
TMS320C2000 Assembler PC v20.2.1 Wed Nov 18 21:47:52 2020

Copyright (c) 1996-2018 Texas Instruments Incorporated
DRV830x_SPI.asm                                                      PAGE   64

    3455                      .dwattr $C$DW$376, DW_AT_type(*$C$DW$T$127)
    3456                      .dwattr $C$DW$376, DW_AT_name("bit")
    3457                      .dwattr $C$DW$376, DW_AT_TI_symbol_name("_bit")
    3458                      .dwattr $C$DW$376, DW_AT_data_member_location[DW_OP_plus_uconst 0x0]
    3459                      .dwattr $C$DW$376, DW_AT_accessibility(DW_ACCESS_public)
    3460              
    3461                      .dwendtag $C$DW$T$128
    3462              
    3463              
    3464              $C$DW$T$129     .dwtag  DW_TAG_structure_type
    3465                      .dwattr $C$DW$T$129, DW_AT_name("CMPA_BITS")
    3466                      .dwattr $C$DW$T$129, DW_AT_byte_size(0x02)
    3467              $C$DW$377       .dwtag  DW_TAG_member
    3468                      .dwattr $C$DW$377, DW_AT_type(*$C$DW$T$34)
    3469                      .dwattr $C$DW$377, DW_AT_name("CMPAHR")
    3470                      .dwattr $C$DW$377, DW_AT_TI_symbol_name("_CMPAHR")
    3471                      .dwattr $C$DW$377, DW_AT_bit_offset(0x00)
    3472                      .dwattr $C$DW$377, DW_AT_bit_size(0x10)
    3473                      .dwattr $C$DW$377, DW_AT_data_member_location[DW_OP_plus_uconst 0x0]
    3474                      .dwattr $C$DW$377, DW_AT_accessibility(DW_ACCESS_public)
    3475              
    3476              $C$DW$378       .dwtag  DW_TAG_member
    3477                      .dwattr $C$DW$378, DW_AT_type(*$C$DW$T$34)
    3478                      .dwattr $C$DW$378, DW_AT_name("CMPA")
    3479                      .dwattr $C$DW$378, DW_AT_TI_symbol_name("_CMPA")
    3480                      .dwattr $C$DW$378, DW_AT_bit_offset(0x00)
    3481                      .dwattr $C$DW$378, DW_AT_bit_size(0x10)
    3482                      .dwattr $C$DW$378, DW_AT_data_member_location[DW_OP_plus_uconst 0x1]
    3483                      .dwattr $C$DW$378, DW_AT_accessibility(DW_ACCESS_public)
    3484              
    3485                      .dwendtag $C$DW$T$129
    3486              
    3487              
    3488              $C$DW$T$130     .dwtag  DW_TAG_union_type
    3489                      .dwattr $C$DW$T$130, DW_AT_name("CMPA_REG")
    3490                      .dwattr $C$DW$T$130, DW_AT_byte_size(0x02)
    3491              $C$DW$379       .dwtag  DW_TAG_member
    3492                      .dwattr $C$DW$379, DW_AT_type(*$C$DW$T$36)
    3493                      .dwattr $C$DW$379, DW_AT_name("all")
    3494                      .dwattr $C$DW$379, DW_AT_TI_symbol_name("_all")
    3495                      .dwattr $C$DW$379, DW_AT_data_member_location[DW_OP_plus_uconst 0x0]
    3496                      .dwattr $C$DW$379, DW_AT_accessibility(DW_ACCESS_public)
    3497              
    3498              $C$DW$380       .dwtag  DW_TAG_member
    3499                      .dwattr $C$DW$380, DW_AT_type(*$C$DW$T$129)
